---
triple:          'arm64-apple-darwin'
binary-path:     '/Users/klaus/Library/Developer/Xcode/DerivedData/OPAQUEAAWaaSModule-fuqdibrybtakesgrgcfiezbbnsbb/Build/Intermediates.noindex/ArchiveIntermediates/OPAQUEAAWaaSModule/InstallationBuildProductsLocation/Library/Frameworks/OPAQUEAAWaaSModule.framework/OPAQUEAAWaaSModule'
relocations:
  - { offset: 0x36C1D, size: 0x8, addend: 0x0, symName: '__ZN108_$LT$alloc..collections..btree..map..Iter$LT$K$C$V$GT$$u20$as$u20$core..iter..traits..iterator..Iterator$GT$4next17hea9f8655f9b2431cE', symObjAddr: 0x0, symBinAddr: 0x8AB8, symSize: 0x13C }
  - { offset: 0x3711B, size: 0x8, addend: 0x0, symName: '__ZN5alloc11collections5btree4node208Handle$LT$alloc..collections..btree..node..NodeRef$LT$alloc..collections..btree..node..marker..Mut$C$K$C$V$C$alloc..collections..btree..node..marker..Leaf$GT$$C$alloc..collections..btree..node..marker..KV$GT$5split17h0b91d090bc4ff402E', symObjAddr: 0xEB18, symBinAddr: 0x172FC, symSize: 0x1C8 }
  - { offset: 0x37615, size: 0x8, addend: 0x0, symName: '__ZN5alloc11collections5btree4node208Handle$LT$alloc..collections..btree..node..NodeRef$LT$alloc..collections..btree..node..marker..Mut$C$K$C$V$C$alloc..collections..btree..node..marker..Leaf$GT$$C$alloc..collections..btree..node..marker..KV$GT$5split17h603ceaff33560b8bE', symObjAddr: 0xECE0, symBinAddr: 0x174C4, symSize: 0x1D4 }
  - { offset: 0x37B38, size: 0x8, addend: 0x0, symName: '__ZN5alloc11collections5btree4node212Handle$LT$alloc..collections..btree..node..NodeRef$LT$alloc..collections..btree..node..marker..Mut$C$K$C$V$C$alloc..collections..btree..node..marker..Internal$GT$$C$alloc..collections..btree..node..marker..KV$GT$5split17h18f05884ca1aa43fE', symObjAddr: 0xEEB4, symBinAddr: 0x17698, symSize: 0x294 }
  - { offset: 0x3826E, size: 0x8, addend: 0x0, symName: '__ZN5alloc11collections5btree4node212Handle$LT$alloc..collections..btree..node..NodeRef$LT$alloc..collections..btree..node..marker..Mut$C$K$C$V$C$alloc..collections..btree..node..marker..Internal$GT$$C$alloc..collections..btree..node..marker..KV$GT$5split17h9da52ba29c0df098E', symObjAddr: 0xF148, symBinAddr: 0x1792C, symSize: 0x2A0 }
  - { offset: 0x38A05, size: 0x8, addend: 0x0, symName: '__ZN5alloc11collections5btree6remove259_$LT$impl$u20$alloc..collections..btree..node..Handle$LT$alloc..collections..btree..node..NodeRef$LT$alloc..collections..btree..node..marker..Mut$C$K$C$V$C$alloc..collections..btree..node..marker..Leaf$GT$$C$alloc..collections..btree..node..marker..KV$GT$$GT$14remove_leaf_kv17hc4751e78cd28d9d3E', symObjAddr: 0xFB90, symBinAddr: 0x18374, symSize: 0x570 }
  - { offset: 0x39742, size: 0x8, addend: 0x0, symName: '__ZN5alloc11collections5btree6remove259_$LT$impl$u20$alloc..collections..btree..node..Handle$LT$alloc..collections..btree..node..NodeRef$LT$alloc..collections..btree..node..marker..Mut$C$K$C$V$C$alloc..collections..btree..node..marker..Leaf$GT$$C$alloc..collections..btree..node..marker..KV$GT$$GT$14remove_leaf_kv17hf25289e61445bcb9E', symObjAddr: 0x10100, symBinAddr: 0x188E4, symSize: 0x570 }
  - { offset: 0x3B30C, size: 0x8, addend: 0x0, symName: '__ZN5alloc11collections5btree4node29BalancingContext$LT$K$C$V$GT$15bulk_steal_left17h530a46b3c138d424E', symObjAddr: 0xF3E8, symBinAddr: 0x17BCC, symSize: 0x284 }
  - { offset: 0x3B94D, size: 0x8, addend: 0x0, symName: '__ZN5alloc11collections5btree4node29BalancingContext$LT$K$C$V$GT$16bulk_steal_right17h293d98848cff6223E', symObjAddr: 0xF66C, symBinAddr: 0x17E50, symSize: 0x2CC }
  - { offset: 0x3C056, size: 0x8, addend: 0x0, symName: '__ZN5alloc11collections5btree4node29BalancingContext$LT$K$C$V$GT$8do_merge17h66045178a3aceff1E', symObjAddr: 0xF938, symBinAddr: 0x1811C, symSize: 0x258 }
  - { offset: 0x3C885, size: 0x8, addend: 0x0, symName: '__ZN108_$LT$alloc..collections..btree..map..Iter$LT$K$C$V$GT$$u20$as$u20$core..iter..traits..iterator..Iterator$GT$4next17hea9f8655f9b2431cE', symObjAddr: 0x0, symBinAddr: 0x8AB8, symSize: 0x13C }
  - { offset: 0x3CC8A, size: 0x8, addend: 0x0, symName: '__ZN5alloc11collections5btree3map25BTreeMap$LT$K$C$V$C$A$GT$6insert17h71ef94d98e736f61E', symObjAddr: 0xD0EC, symBinAddr: 0x158D0, symSize: 0x9F8 }
  - { offset: 0x3E555, size: 0x8, addend: 0x0, symName: '__ZN5alloc11collections5btree3map25BTreeMap$LT$K$C$V$C$A$GT$6insert17hacbd58c146cae875E', symObjAddr: 0xDAE4, symBinAddr: 0x162C8, symSize: 0x9BC }
  - { offset: 0x3FFBF, size: 0x8, addend: 0x0, symName: '__ZN5alloc11collections5btree3map25IntoIter$LT$K$C$V$C$A$GT$10dying_next17h1c7f525710745345E', symObjAddr: 0xE4A0, symBinAddr: 0x16C84, symSize: 0x228 }
  - { offset: 0x403A9, size: 0x8, addend: 0x0, symName: '__ZN5alloc11collections5btree3map25IntoIter$LT$K$C$V$C$A$GT$10dying_next17h41ff06ead482500eE', symObjAddr: 0xE6C8, symBinAddr: 0x16EAC, symSize: 0x228 }
  - { offset: 0x40793, size: 0x8, addend: 0x0, symName: '__ZN5alloc11collections5btree3map25IntoIter$LT$K$C$V$C$A$GT$10dying_next17hd4735aa1522745e0E', symObjAddr: 0xE8F0, symBinAddr: 0x170D4, symSize: 0x228 }
  - { offset: 0x40B84, size: 0x8, addend: 0x0, symName: '__ZN94_$LT$alloc..collections..btree..map..BTreeMap$LT$K$C$V$C$A$GT$$u20$as$u20$core..fmt..Debug$GT$3fmt17h2cb5bef5ee401ccbE', symObjAddr: 0x18E9C, symBinAddr: 0x21508, symSize: 0xB8 }
  - { offset: 0x41CB5, size: 0x8, addend: 0x0, symName: '__ZN5alloc7raw_vec19RawVec$LT$T$C$A$GT$8grow_one17h0f673eafe1f5cbccE', symObjAddr: 0x10CB4, symBinAddr: 0x19410, symSize: 0xC4 }
  - { offset: 0x41DD7, size: 0x8, addend: 0x0, symName: '__ZN5alloc7raw_vec19RawVec$LT$T$C$A$GT$8grow_one17h15028941282f1e24E', symObjAddr: 0x10D78, symBinAddr: 0x194D4, symSize: 0xB4 }
  - { offset: 0x41EF9, size: 0x8, addend: 0x0, symName: '__ZN5alloc7raw_vec19RawVec$LT$T$C$A$GT$8grow_one17h2c90e2d247ea58a6E', symObjAddr: 0x10E2C, symBinAddr: 0x19588, symSize: 0xC4 }
  - { offset: 0x4201B, size: 0x8, addend: 0x0, symName: '__ZN5alloc7raw_vec19RawVec$LT$T$C$A$GT$8grow_one17h310d9131a0998dbeE', symObjAddr: 0x10EF0, symBinAddr: 0x1964C, symSize: 0xB4 }
  - { offset: 0x4213D, size: 0x8, addend: 0x0, symName: '__ZN5alloc7raw_vec19RawVec$LT$T$C$A$GT$8grow_one17h3896d823145344e5E', symObjAddr: 0x10FA4, symBinAddr: 0x19700, symSize: 0xB4 }
  - { offset: 0x4225F, size: 0x8, addend: 0x0, symName: '__ZN5alloc7raw_vec19RawVec$LT$T$C$A$GT$8grow_one17h4e78392bf58e862cE', symObjAddr: 0x11058, symBinAddr: 0x197B4, symSize: 0xC4 }
  - { offset: 0x42381, size: 0x8, addend: 0x0, symName: '__ZN5alloc7raw_vec19RawVec$LT$T$C$A$GT$8grow_one17h64691762110d7d5fE', symObjAddr: 0x1111C, symBinAddr: 0x19878, symSize: 0xC0 }
  - { offset: 0x424A3, size: 0x8, addend: 0x0, symName: '__ZN5alloc7raw_vec19RawVec$LT$T$C$A$GT$8grow_one17h7376a3125073bd3eE', symObjAddr: 0x111DC, symBinAddr: 0x19938, symSize: 0xC4 }
  - { offset: 0x425C5, size: 0x8, addend: 0x0, symName: '__ZN5alloc7raw_vec19RawVec$LT$T$C$A$GT$8grow_one17h797e88e460e0aff0E', symObjAddr: 0x112A0, symBinAddr: 0x199FC, symSize: 0xC4 }
  - { offset: 0x426E7, size: 0x8, addend: 0x0, symName: '__ZN5alloc7raw_vec19RawVec$LT$T$C$A$GT$8grow_one17h8da8e5692f189cd8E', symObjAddr: 0x11364, symBinAddr: 0x19AC0, symSize: 0xB4 }
  - { offset: 0x42809, size: 0x8, addend: 0x0, symName: '__ZN5alloc7raw_vec19RawVec$LT$T$C$A$GT$8grow_one17hd964ba0d9946b673E', symObjAddr: 0x11418, symBinAddr: 0x19B74, symSize: 0xC0 }
  - { offset: 0x4292B, size: 0x8, addend: 0x0, symName: '__ZN5alloc7raw_vec19RawVec$LT$T$C$A$GT$8grow_one17hd98103fa28f49619E', symObjAddr: 0x114D8, symBinAddr: 0x19C34, symSize: 0xC0 }
  - { offset: 0x43602, size: 0x8, addend: 0x0, symName: '__ZN5alloc7raw_vec20RawVecInner$LT$A$GT$7reserve21do_reserve_and_handle17h854763d44176eb93E', symObjAddr: 0x11598, symBinAddr: 0x8E6D4, symSize: 0xF0 }
  - { offset: 0x44E73, size: 0x8, addend: 0x0, symName: '__ZN65_$LT$alloc..vec..Vec$LT$T$C$A$GT$$u20$as$u20$core..fmt..Debug$GT$3fmt17h56dde2b186d5d608E', symObjAddr: 0x183E4, symBinAddr: 0x20A50, symSize: 0x74 }
  - { offset: 0x44F7F, size: 0x8, addend: 0x0, symName: '__ZN65_$LT$alloc..vec..Vec$LT$T$C$A$GT$$u20$as$u20$core..fmt..Debug$GT$3fmt17h93b758dc6c06d770E', symObjAddr: 0x18458, symBinAddr: 0x20AC4, symSize: 0x70 }
  - { offset: 0x45B0C, size: 0x8, addend: 0x0, symName: __ZN5alloc5alloc15exchange_malloc17h3f504c50cdf9722dE, symObjAddr: 0x10BD8, symBinAddr: 0x193BC, symSize: 0x54 }
  - { offset: 0x45BDE, size: 0x8, addend: 0x0, symName: '__ZN5alloc4sync16Arc$LT$T$C$A$GT$9drop_slow17h17bd4f4ce3ee36bbE', symObjAddr: 0x10670, symBinAddr: 0x18E54, symSize: 0xC8 }
  - { offset: 0x45F2B, size: 0x8, addend: 0x0, symName: '__ZN5alloc4sync16Arc$LT$T$C$A$GT$9drop_slow17h19375f4c283dbc46E', symObjAddr: 0x10738, symBinAddr: 0x18F1C, symSize: 0xA0 }
  - { offset: 0x460DB, size: 0x8, addend: 0x0, symName: '__ZN5alloc4sync16Arc$LT$T$C$A$GT$9drop_slow17h23fe5fa2bb00fcf1E', symObjAddr: 0x107D8, symBinAddr: 0x18FBC, symSize: 0xA4 }
  - { offset: 0x463F7, size: 0x8, addend: 0x0, symName: '__ZN5alloc4sync16Arc$LT$T$C$A$GT$9drop_slow17h84d91d38a76d605dE', symObjAddr: 0x1087C, symBinAddr: 0x19060, symSize: 0x7C }
  - { offset: 0x465D7, size: 0x8, addend: 0x0, symName: '__ZN5alloc4sync16Arc$LT$T$C$A$GT$9drop_slow17hd2d61152feacbb1eE', symObjAddr: 0x108F8, symBinAddr: 0x190DC, symSize: 0xDC }
  - { offset: 0x4681D, size: 0x8, addend: 0x0, symName: '__ZN5alloc4sync16Arc$LT$T$C$A$GT$9drop_slow17hf9a7848f378fe0b4E', symObjAddr: 0x109D4, symBinAddr: 0x191B8, symSize: 0x140 }
  - { offset: 0x46BD9, size: 0x8, addend: 0x0, symName: '__ZN5alloc4sync16Arc$LT$T$C$A$GT$9drop_slow17hfa00280e67b39300E', symObjAddr: 0x10B14, symBinAddr: 0x192F8, symSize: 0x48 }
  - { offset: 0x46CBF, size: 0x8, addend: 0x0, symName: '__ZN5alloc4sync16Arc$LT$T$C$A$GT$9drop_slow17hffc98a1cf053a479E', symObjAddr: 0x10B5C, symBinAddr: 0x19340, symSize: 0x7C }
  - { offset: 0x474D7, size: 0x8, addend: 0x0, symName: '__ZN64_$LT$alloc..ffi..c_str..NulError$u20$as$u20$core..fmt..Debug$GT$3fmt17h6ea73b5fe397c88eE', symObjAddr: 0x18398, symBinAddr: 0x20A04, symSize: 0x4C }
  - { offset: 0x47C62, size: 0x8, addend: 0x0, symName: '__ZN58_$LT$alloc..string..String$u20$as$u20$core..fmt..Debug$GT$3fmt17h8677270693790cadE', symObjAddr: 0xCF18, symBinAddr: 0x156FC, symSize: 0x1C }
  - { offset: 0x47D25, size: 0x8, addend: 0x0, symName: '__ZN58_$LT$alloc..string..String$u20$as$u20$core..fmt..Write$GT$10write_char17hc05bb0c5ec75d476E', symObjAddr: 0xCF34, symBinAddr: 0x15718, symSize: 0x138 }
  - { offset: 0x47EDB, size: 0x8, addend: 0x0, symName: '__ZN58_$LT$alloc..string..String$u20$as$u20$core..fmt..Write$GT$9write_str17he8b8e479d4981e28E', symObjAddr: 0xD06C, symBinAddr: 0x15850, symSize: 0x80 }
  - { offset: 0x48046, size: 0x8, addend: 0x0, symName: '__ZN60_$LT$alloc..string..String$u20$as$u20$core..fmt..Display$GT$3fmt17hfe73be42a47143fcE', symObjAddr: 0x1837C, symBinAddr: 0x209E8, symSize: 0x1C }
  - { offset: 0x48164, size: 0x8, addend: 0x0, symName: '__ZN66_$LT$alloc..borrow..Cow$LT$B$GT$$u20$as$u20$core..fmt..Display$GT$3fmt17hdcf14aa1a62dc567E', symObjAddr: 0x184C8, symBinAddr: 0x20B34, symSize: 0x1C }
  - { offset: 0x48F5C, size: 0x8, addend: 0x0, symName: '__ZN66_$LT$core..option..Option$LT$T$GT$$u20$as$u20$core..fmt..Debug$GT$3fmt17h320ab01d4e161633E', symObjAddr: 0x184E4, symBinAddr: 0x20B50, symSize: 0x60 }
  - { offset: 0x48F77, size: 0x8, addend: 0x0, symName: '__ZN66_$LT$core..option..Option$LT$T$GT$$u20$as$u20$core..fmt..Debug$GT$3fmt17h3f4263304ab71a71E', symObjAddr: 0x18544, symBinAddr: 0x20BB0, symSize: 0x60 }
  - { offset: 0x48F92, size: 0x8, addend: 0x0, symName: '__ZN66_$LT$core..option..Option$LT$T$GT$$u20$as$u20$core..fmt..Debug$GT$3fmt17h52bbd75334b894d4E', symObjAddr: 0x185A4, symBinAddr: 0x20C10, symSize: 0x64 }
  - { offset: 0x48FAD, size: 0x8, addend: 0x0, symName: '__ZN66_$LT$core..option..Option$LT$T$GT$$u20$as$u20$core..fmt..Debug$GT$3fmt17h81819fb30478ba50E', symObjAddr: 0x18608, symBinAddr: 0x20C74, symSize: 0x64 }
  - { offset: 0x48FC8, size: 0x8, addend: 0x0, symName: '__ZN66_$LT$core..option..Option$LT$T$GT$$u20$as$u20$core..fmt..Debug$GT$3fmt17h84b52bf847ba2223E', symObjAddr: 0x1866C, symBinAddr: 0x20CD8, symSize: 0x60 }
  - { offset: 0x48FE3, size: 0x8, addend: 0x0, symName: '__ZN66_$LT$core..option..Option$LT$T$GT$$u20$as$u20$core..fmt..Debug$GT$3fmt17ha4b666b44484c6c6E', symObjAddr: 0x186CC, symBinAddr: 0x20D38, symSize: 0x5C }
  - { offset: 0x48FFE, size: 0x8, addend: 0x0, symName: '__ZN66_$LT$core..option..Option$LT$T$GT$$u20$as$u20$core..fmt..Debug$GT$3fmt17hc33cb948d8783d56E', symObjAddr: 0x18728, symBinAddr: 0x20D94, symSize: 0x5C }
  - { offset: 0x49019, size: 0x8, addend: 0x0, symName: '__ZN66_$LT$core..option..Option$LT$T$GT$$u20$as$u20$core..fmt..Debug$GT$3fmt17he71d15a5dbf7ead1E', symObjAddr: 0x18784, symBinAddr: 0x20DF0, symSize: 0x5C }
  - { offset: 0x49034, size: 0x8, addend: 0x0, symName: '__ZN66_$LT$core..option..Option$LT$T$GT$$u20$as$u20$core..fmt..Debug$GT$3fmt17he7a61ef7a33fdf4fE', symObjAddr: 0x187E0, symBinAddr: 0x20E4C, symSize: 0x60 }
  - { offset: 0x4A449, size: 0x8, addend: 0x0, symName: '__ZN4core3ptr107drop_in_place$LT$alloc..vec..Vec$LT$$LP$std..ffi..os_str..OsString$C$std..ffi..os_str..OsString$RP$$GT$$GT$17h69f0d6179218ec04E', symObjAddr: 0x1E70, symBinAddr: 0xA914, symSize: 0x94 }
  - { offset: 0x4A697, size: 0x8, addend: 0x0, symName: '__ZN4core3ptr107drop_in_place$LT$core..pin..Pin$LT$alloc..boxed..Box$LT$std..sys..pal..unix..sync..mutex..Mutex$GT$$GT$$GT$17hec2d010a86b69b62E', symObjAddr: 0x1F04, symBinAddr: 0xA9A8, symSize: 0x2C }
  - { offset: 0x4A742, size: 0x8, addend: 0x0, symName: '__ZN4core3ptr112drop_in_place$LT$$LP$std..ffi..os_str..OsString$C$core..option..Option$LT$std..ffi..os_str..OsString$GT$$RP$$GT$17hc584ef66d92ac775E', symObjAddr: 0x1F30, symBinAddr: 0xA9D4, symSize: 0x58 }
  - { offset: 0x4A8C9, size: 0x8, addend: 0x0, symName: '__ZN4core3ptr118drop_in_place$LT$$LT$std..backtrace..Backtrace$u20$as$u20$core..fmt..Display$GT$..fmt..$u7b$$u7b$closure$u7d$$u7d$$GT$17hc18026021fb41731E', symObjAddr: 0x1F88, symBinAddr: 0xAA2C, symSize: 0x40 }
  - { offset: 0x4A9B1, size: 0x8, addend: 0x0, symName: '__ZN4core3ptr119drop_in_place$LT$std..io..default_write_fmt..Adapter$LT$std..io..cursor..Cursor$LT$$RF$mut$u20$$u5b$u8$u5d$$GT$$GT$$GT$17hf95d07e08636017aE', symObjAddr: 0x1FC8, symBinAddr: 0xAA6C, symSize: 0x20 }
  - { offset: 0x4A9EA, size: 0x8, addend: 0x0, symName: '__ZN4core3ptr123drop_in_place$LT$addr2line..Context$LT$gimli..read..endian_slice..EndianSlice$LT$gimli..endianity..LittleEndian$GT$$GT$$GT$17h06cb15513202a16dE', symObjAddr: 0x1FE8, symBinAddr: 0xAA8C, symSize: 0x74 }
  - { offset: 0x4AAC6, size: 0x8, addend: 0x0, symName: '__ZN4core3ptr124drop_in_place$LT$alloc..collections..btree..map..BTreeMap$LT$std..ffi..os_str..OsString$C$std..ffi..os_str..OsString$GT$$GT$17h2da3592d742aeda0E', symObjAddr: 0x205C, symBinAddr: 0xAB00, symSize: 0xB8 }
  - { offset: 0x4AD14, size: 0x8, addend: 0x0, symName: '__ZN4core3ptr124drop_in_place$LT$alloc..collections..btree..map..IntoIter$LT$std..ffi..os_str..OsString$C$std..ffi..os_str..OsString$GT$$GT$17hb211e84ee4ac901aE', symObjAddr: 0x2114, symBinAddr: 0xABB8, symSize: 0x90 }
  - { offset: 0x4AF35, size: 0x8, addend: 0x0, symName: '__ZN4core3ptr128drop_in_place$LT$core..result..Result$LT$$RF$std..thread..Thread$C$$LP$$RF$std..thread..Thread$C$std..thread..Thread$RP$$GT$$GT$17h4a74471a459abb21E', symObjAddr: 0x21A4, symBinAddr: 0xAC48, symSize: 0x3C }
  - { offset: 0x4B0E9, size: 0x8, addend: 0x0, symName: '__ZN4core3ptr129drop_in_place$LT$addr2line..unit..ResUnit$LT$gimli..read..endian_slice..EndianSlice$LT$gimli..endianity..LittleEndian$GT$$GT$$GT$17h995a6814e291c2abE', symObjAddr: 0x21E0, symBinAddr: 0xAC84, symSize: 0xE8 }
  - { offset: 0x4B325, size: 0x8, addend: 0x0, symName: '__ZN4core3ptr129drop_in_place$LT$addr2line..unit..SupUnit$LT$gimli..read..endian_slice..EndianSlice$LT$gimli..endianity..LittleEndian$GT$$GT$$GT$17h884531cfbc6ed240E', symObjAddr: 0x22C8, symBinAddr: 0xAD6C, symSize: 0x58 }
  - { offset: 0x4B408, size: 0x8, addend: 0x0, symName: '__ZN4core3ptr130drop_in_place$LT$addr2line..unit..ResUnits$LT$gimli..read..endian_slice..EndianSlice$LT$gimli..endianity..LittleEndian$GT$$GT$$GT$17h6e35c509d0976048E', symObjAddr: 0x2320, symBinAddr: 0xADC4, symSize: 0xD0 }
  - { offset: 0x4B5C2, size: 0x8, addend: 0x0, symName: '__ZN4core3ptr130drop_in_place$LT$addr2line..unit..SupUnits$LT$gimli..read..endian_slice..EndianSlice$LT$gimli..endianity..LittleEndian$GT$$GT$$GT$17h9d3c4a5cb16f732cE', symObjAddr: 0x23F0, symBinAddr: 0xAE94, symSize: 0x108 }
  - { offset: 0x4B785, size: 0x8, addend: 0x0, symName: '__ZN4core3ptr130drop_in_place$LT$gimli..read..dwarf..Dwarf$LT$gimli..read..endian_slice..EndianSlice$LT$gimli..endianity..LittleEndian$GT$$GT$$GT$17hc6b5b4eea1ee611eE', symObjAddr: 0x24F8, symBinAddr: 0xAF9C, symSize: 0x5C }
  - { offset: 0x4B859, size: 0x8, addend: 0x0, symName: '__ZN4core3ptr131drop_in_place$LT$$u5b$core..option..Option$LT$core..option..Option$LT$std..backtrace_rs..symbolize..gimli..Mapping$GT$$GT$$u5d$$GT$17h3816c52799c4e843E', symObjAddr: 0x2554, symBinAddr: 0xAFF8, symSize: 0xCC }
  - { offset: 0x4B90B, size: 0x8, addend: 0x0, symName: '__ZN4core3ptr131drop_in_place$LT$alloc..boxed..Box$LT$dyn$u20$core..ops..function..FnOnce$LT$$LP$$RP$$GT$$u2b$Output$u20$$u3d$$u20$$LP$$RP$$GT$$GT$17hd02d72d42495e214E', symObjAddr: 0x2620, symBinAddr: 0xB0C4, symSize: 0x78 }
  - { offset: 0x4BA0E, size: 0x8, addend: 0x0, symName: '__ZN4core3ptr135drop_in_place$LT$std..sync..poison..PoisonError$LT$std..sync..poison..mutex..MutexGuard$LT$std..sync..barrier..BarrierState$GT$$GT$$GT$17h034243d953577f90E', symObjAddr: 0x2698, symBinAddr: 0xB13C, symSize: 0x4C }
  - { offset: 0x4BB5A, size: 0x8, addend: 0x0, symName: '__ZN4core3ptr137drop_in_place$LT$gimli..read..dwarf..Unit$LT$gimli..read..endian_slice..EndianSlice$LT$gimli..endianity..LittleEndian$GT$$C$usize$GT$$GT$17h84ac01b0bea79cd9E', symObjAddr: 0x26E4, symBinAddr: 0xB188, symSize: 0x58 }
  - { offset: 0x4BC5E, size: 0x8, addend: 0x0, symName: '__ZN4core3ptr138drop_in_place$LT$addr2line..function..LazyFunction$LT$gimli..read..endian_slice..EndianSlice$LT$gimli..endianity..LittleEndian$GT$$GT$$GT$17hf484a9c89f7ccb36E', symObjAddr: 0x273C, symBinAddr: 0xB1E0, symSize: 0x64 }
  - { offset: 0x4BC76, size: 0x8, addend: 0x0, symName: '__ZN4core3ptr138drop_in_place$LT$addr2line..function..LazyFunction$LT$gimli..read..endian_slice..EndianSlice$LT$gimli..endianity..LittleEndian$GT$$GT$$GT$17hf484a9c89f7ccb36E', symObjAddr: 0x273C, symBinAddr: 0xB1E0, symSize: 0x64 }
  - { offset: 0x4BC8C, size: 0x8, addend: 0x0, symName: '__ZN4core3ptr138drop_in_place$LT$addr2line..function..LazyFunction$LT$gimli..read..endian_slice..EndianSlice$LT$gimli..endianity..LittleEndian$GT$$GT$$GT$17hf484a9c89f7ccb36E', symObjAddr: 0x273C, symBinAddr: 0xB1E0, symSize: 0x64 }
  - { offset: 0x4BCA2, size: 0x8, addend: 0x0, symName: '__ZN4core3ptr138drop_in_place$LT$addr2line..function..LazyFunction$LT$gimli..read..endian_slice..EndianSlice$LT$gimli..endianity..LittleEndian$GT$$GT$$GT$17hf484a9c89f7ccb36E', symObjAddr: 0x273C, symBinAddr: 0xB1E0, symSize: 0x64 }
  - { offset: 0x4BDF2, size: 0x8, addend: 0x0, symName: '__ZN4core3ptr144drop_in_place$LT$alloc..vec..Vec$LT$core..option..Option$LT$core..option..Option$LT$std..backtrace_rs..symbolize..gimli..Mapping$GT$$GT$$GT$$GT$17h2e0c95bc42bfa3a8E', symObjAddr: 0x27A0, symBinAddr: 0xB244, symSize: 0x78 }
  - { offset: 0x4BF85, size: 0x8, addend: 0x0, symName: '__ZN4core3ptr152drop_in_place$LT$alloc..collections..btree..map..BTreeMap$LT$std..ffi..os_str..OsString$C$core..option..Option$LT$std..ffi..os_str..OsString$GT$$GT$$GT$17h3bba09ca8b891265E', symObjAddr: 0x2818, symBinAddr: 0xB2BC, symSize: 0xCC }
  - { offset: 0x4C1FB, size: 0x8, addend: 0x0, symName: '__ZN4core3ptr152drop_in_place$LT$alloc..vec..Vec$LT$addr2line..unit..ResUnit$LT$gimli..read..endian_slice..EndianSlice$LT$gimli..endianity..LittleEndian$GT$$GT$$GT$$GT$17h909fb31e82e5639cE', symObjAddr: 0x28E4, symBinAddr: 0xB388, symSize: 0xC4 }
  - { offset: 0x4C379, size: 0x8, addend: 0x0, symName: '__ZN4core3ptr152drop_in_place$LT$alloc..vec..Vec$LT$addr2line..unit..SupUnit$LT$gimli..read..endian_slice..EndianSlice$LT$gimli..endianity..LittleEndian$GT$$GT$$GT$$GT$17he01e2d755e5c8d4eE', symObjAddr: 0x29A8, symBinAddr: 0xB44C, symSize: 0x118 }
  - { offset: 0x4C59A, size: 0x8, addend: 0x0, symName: '__ZN4core3ptr156drop_in_place$LT$alloc..boxed..Box$LT$$u5b$core..option..Option$LT$core..option..Option$LT$std..backtrace_rs..symbolize..gimli..Mapping$GT$$GT$$u5d$$GT$$GT$17h954d64db3a711478E', symObjAddr: 0x2AC0, symBinAddr: 0xB564, symSize: 0xF8 }
  - { offset: 0x4C6D0, size: 0x8, addend: 0x0, symName: '__ZN4core3ptr159drop_in_place$LT$alloc..sync..ArcInner$LT$gimli..read..dwarf..Dwarf$LT$gimli..read..endian_slice..EndianSlice$LT$gimli..endianity..LittleEndian$GT$$GT$$GT$$GT$17hc6fc0b433048fc24E', symObjAddr: 0x2BB8, symBinAddr: 0xB65C, symSize: 0x5C }
  - { offset: 0x4C7B4, size: 0x8, addend: 0x0, symName: '__ZN4core3ptr161drop_in_place$LT$alloc..vec..Vec$LT$addr2line..function..LazyFunction$LT$gimli..read..endian_slice..EndianSlice$LT$gimli..endianity..LittleEndian$GT$$GT$$GT$$GT$17h8a1ae5b7bb8015d0E', symObjAddr: 0x2C14, symBinAddr: 0xB6B8, symSize: 0xAC }
  - { offset: 0x4CA0C, size: 0x8, addend: 0x0, symName: '__ZN4core3ptr164drop_in_place$LT$$u5b$alloc..boxed..Box$LT$dyn$u20$core..ops..function..FnOnce$LT$$LP$$RP$$GT$$u2b$Output$u20$$u3d$$u20$$LP$$RP$$u2b$core..marker..Send$GT$$u5d$$GT$17h097e1342caf1bc61E', symObjAddr: 0x2CC0, symBinAddr: 0xB764, symSize: 0xAC }
  - { offset: 0x4CB25, size: 0x8, addend: 0x0, symName: '__ZN4core3ptr172drop_in_place$LT$core..result..Result$LT$addr2line..Context$LT$gimli..read..endian_slice..EndianSlice$LT$gimli..endianity..LittleEndian$GT$$GT$$C$gimli..read..Error$GT$$GT$17h85328cbf5d8e5a21E', symObjAddr: 0x2D6C, symBinAddr: 0xB810, symSize: 0x84 }
  - { offset: 0x4CBC0, size: 0x8, addend: 0x0, symName: '__ZN4core3ptr173drop_in_place$LT$alloc..boxed..Box$LT$$u5b$addr2line..function..LazyFunction$LT$gimli..read..endian_slice..EndianSlice$LT$gimli..endianity..LittleEndian$GT$$GT$$u5d$$GT$$GT$17h56f63c2cf1255b60E', symObjAddr: 0x2DF0, symBinAddr: 0xB894, symSize: 0x9C }
  - { offset: 0x4CBD8, size: 0x8, addend: 0x0, symName: '__ZN4core3ptr173drop_in_place$LT$alloc..boxed..Box$LT$$u5b$addr2line..function..LazyFunction$LT$gimli..read..endian_slice..EndianSlice$LT$gimli..endianity..LittleEndian$GT$$GT$$u5d$$GT$$GT$17h56f63c2cf1255b60E', symObjAddr: 0x2DF0, symBinAddr: 0xB894, symSize: 0x9C }
  - { offset: 0x4CDD2, size: 0x8, addend: 0x0, symName: '__ZN4core3ptr177drop_in_place$LT$alloc..vec..Vec$LT$alloc..boxed..Box$LT$dyn$u20$core..ops..function..FnOnce$LT$$LP$$RP$$GT$$u2b$Output$u20$$u3d$$u20$$LP$$RP$$u2b$core..marker..Send$GT$$GT$$GT$17hdcae1b6937ffb51bE', symObjAddr: 0x2E8C, symBinAddr: 0xB930, symSize: 0x70 }
  - { offset: 0x4CFB2, size: 0x8, addend: 0x0, symName: '__ZN4core3ptr181drop_in_place$LT$core..option..Option$LT$gimli..read..line..IncompleteLineProgram$LT$gimli..read..endian_slice..EndianSlice$LT$gimli..endianity..LittleEndian$GT$$C$usize$GT$$GT$$GT$17ha4778c03b9937035E', symObjAddr: 0x2EFC, symBinAddr: 0xB9A0, symSize: 0x98 }
  - { offset: 0x4D28F, size: 0x8, addend: 0x0, symName: '__ZN4core3ptr181drop_in_place$LT$core..result..Result$LT$addr2line..frame..FrameIter$LT$gimli..read..endian_slice..EndianSlice$LT$gimli..endianity..LittleEndian$GT$$GT$$C$gimli..read..Error$GT$$GT$17hcba8d9ac7804971fE', symObjAddr: 0x2F94, symBinAddr: 0xBA38, symSize: 0x44 }
  - { offset: 0x4D3DC, size: 0x8, addend: 0x0, symName: '__ZN4core3ptr184drop_in_place$LT$core..result..Result$LT$addr2line..function..Functions$LT$gimli..read..endian_slice..EndianSlice$LT$gimli..endianity..LittleEndian$GT$$GT$$C$gimli..read..Error$GT$$GT$17he285276e7e28d8ccE', symObjAddr: 0x2FD8, symBinAddr: 0xBA7C, symSize: 0xD8 }
  - { offset: 0x4DF4A, size: 0x8, addend: 0x0, symName: '__ZN4core3ptr193drop_in_place$LT$alloc..vec..into_iter..IntoIter$LT$alloc..boxed..Box$LT$dyn$u20$core..ops..function..FnOnce$LT$$LP$$RP$$GT$$u2b$Output$u20$$u3d$$u20$$LP$$RP$$u2b$core..marker..Send$GT$$GT$$GT$17hedbdd62a76ed45f4E', symObjAddr: 0x30B0, symBinAddr: 0xBB54, symSize: 0x74 }
  - { offset: 0x4E180, size: 0x8, addend: 0x0, symName: '__ZN4core3ptr199drop_in_place$LT$core..result..Result$LT$core..option..Option$LT$alloc..sync..Arc$LT$std..sync..poison..mutex..Mutex$LT$alloc..vec..Vec$LT$u8$GT$$GT$$GT$$GT$$C$std..thread..local..AccessError$GT$$GT$17he254db0dbf4f1e43E', symObjAddr: 0x3124, symBinAddr: 0xBBC8, symSize: 0x40 }
  - { offset: 0x4E24D, size: 0x8, addend: 0x0, symName: '__ZN4core3ptr231drop_in_place$LT$core..result..Result$LT$core..option..Option$LT$alloc..boxed..Box$LT$addr2line..unit..DwoUnit$LT$gimli..read..endian_slice..EndianSlice$LT$gimli..endianity..LittleEndian$GT$$GT$$GT$$GT$$C$gimli..read..Error$GT$$GT$17h5a29cc001c5e4689E', symObjAddr: 0x3164, symBinAddr: 0xBC08, symSize: 0xE0 }
  - { offset: 0x4E44D, size: 0x8, addend: 0x0, symName: '__ZN4core3ptr238drop_in_place$LT$alloc..boxed..convert..$LT$impl$u20$core..convert..From$LT$alloc..string..String$GT$$u20$for$u20$alloc..boxed..Box$LT$dyn$u20$core..error..Error$u2b$core..marker..Send$u2b$core..marker..Sync$GT$$GT$..from..StringError$GT$17h00e767492a3a9fe8E', symObjAddr: 0x3244, symBinAddr: 0xBCE8, symSize: 0x28 }
  - { offset: 0x4E500, size: 0x8, addend: 0x0, symName: '__ZN4core3ptr275drop_in_place$LT$gimli..read..line..LineRows$LT$gimli..read..endian_slice..EndianSlice$LT$gimli..endianity..LittleEndian$GT$$C$gimli..read..line..IncompleteLineProgram$LT$gimli..read..endian_slice..EndianSlice$LT$gimli..endianity..LittleEndian$GT$$C$usize$GT$$C$usize$GT$$GT$17h9cc4c786c7d3dd18E', symObjAddr: 0x326C, symBinAddr: 0xBD10, symSize: 0x8C }
  - { offset: 0x4E797, size: 0x8, addend: 0x0, symName: '__ZN4core3ptr280drop_in_place$LT$$LT$alloc..collections..btree..map..IntoIter$LT$K$C$V$C$A$GT$$u20$as$u20$core..ops..drop..Drop$GT$..drop..DropGuard$LT$u64$C$core..result..Result$LT$alloc..sync..Arc$LT$gimli..read..abbrev..Abbreviations$GT$$C$gimli..read..Error$GT$$C$alloc..alloc..Global$GT$$GT$17h749c311a717cdcc8E', symObjAddr: 0x32F8, symBinAddr: 0xBD9C, symSize: 0x70 }
  - { offset: 0x4E94A, size: 0x8, addend: 0x0, symName: '__ZN4core3ptr37drop_in_place$LT$std..env..VarsOs$GT$17hbd5cd58375f0e0efE', symObjAddr: 0x3368, symBinAddr: 0xBE0C, symSize: 0xAC }
  - { offset: 0x4EC45, size: 0x8, addend: 0x0, symName: '__ZN4core3ptr39drop_in_place$LT$std..path..PathBuf$GT$17h655c7acbc8c46b0fE', symObjAddr: 0x3414, symBinAddr: 0xBEB8, symSize: 0x28 }
  - { offset: 0x4ED7D, size: 0x8, addend: 0x0, symName: '__ZN4core3ptr40drop_in_place$LT$std..process..Child$GT$17ha6a943d683637b2dE', symObjAddr: 0x343C, symBinAddr: 0xBEE0, symSize: 0x54 }
  - { offset: 0x4EF2D, size: 0x8, addend: 0x0, symName: '__ZN4core3ptr40drop_in_place$LT$std..thread..Thread$GT$17h95096621e4fc2633E', symObjAddr: 0x3490, symBinAddr: 0xBF34, symSize: 0x34 }
  - { offset: 0x4F004, size: 0x8, addend: 0x0, symName: '__ZN4core3ptr41drop_in_place$LT$std..panicking..Hook$GT$17h8ae3713715b47c36E', symObjAddr: 0x34C4, symBinAddr: 0xBF68, symSize: 0x7C }
  - { offset: 0x4F108, size: 0x8, addend: 0x0, symName: '__ZN4core3ptr42drop_in_place$LT$alloc..string..String$GT$17h885d109fd14c14c6E', symObjAddr: 0x3540, symBinAddr: 0xBFE4, symSize: 0x28 }
  - { offset: 0x4F1EA, size: 0x8, addend: 0x0, symName: '__ZN4core3ptr42drop_in_place$LT$std..io..error..Error$GT$17hb81648a628dcf123E', symObjAddr: 0x3568, symBinAddr: 0xC00C, symSize: 0xAC }
  - { offset: 0x4F42B, size: 0x8, addend: 0x0, symName: '__ZN4core3ptr44drop_in_place$LT$object..read..ObjectMap$GT$17h9e277ba2a639612aE', symObjAddr: 0x3614, symBinAddr: 0xC0B8, symSize: 0x58 }
  - { offset: 0x4F595, size: 0x8, addend: 0x0, symName: '__ZN4core3ptr44drop_in_place$LT$std..backtrace..Capture$GT$17ha0309905c0769853E', symObjAddr: 0x366C, symBinAddr: 0xC110, symSize: 0x6C }
  - { offset: 0x4F694, size: 0x8, addend: 0x0, symName: '__ZN4core3ptr46drop_in_place$LT$alloc..vec..Vec$LT$u8$GT$$GT$17h4a47dcaa22ac12b0E', symObjAddr: 0x36D8, symBinAddr: 0xC17C, symSize: 0x28 }
  - { offset: 0x4F727, size: 0x8, addend: 0x0, symName: '__ZN4core3ptr46drop_in_place$LT$std..io..stdio..StdinLock$GT$17ha039fa754a7df222E', symObjAddr: 0x3700, symBinAddr: 0xC1A4, symSize: 0x54 }
  - { offset: 0x4F73F, size: 0x8, addend: 0x0, symName: '__ZN4core3ptr46drop_in_place$LT$std..io..stdio..StdinLock$GT$17ha039fa754a7df222E', symObjAddr: 0x3700, symBinAddr: 0xC1A4, symSize: 0x54 }
  - { offset: 0x4F755, size: 0x8, addend: 0x0, symName: '__ZN4core3ptr46drop_in_place$LT$std..io..stdio..StdinLock$GT$17ha039fa754a7df222E', symObjAddr: 0x3700, symBinAddr: 0xC1A4, symSize: 0x54 }
  - { offset: 0x4F852, size: 0x8, addend: 0x0, symName: '__ZN4core3ptr47drop_in_place$LT$alloc..ffi..c_str..CString$GT$17hf5126b524bff24c0E', symObjAddr: 0x3754, symBinAddr: 0xC1F8, symSize: 0x30 }
  - { offset: 0x4F8D8, size: 0x8, addend: 0x0, symName: '__ZN4core3ptr47drop_in_place$LT$std..ffi..os_str..OsString$GT$17h6f00f482d8e1207dE', symObjAddr: 0x3784, symBinAddr: 0xC228, symSize: 0x28 }
  - { offset: 0x4F97B, size: 0x8, addend: 0x0, symName: '__ZN4core3ptr47drop_in_place$LT$std..sys..env..common..Env$GT$17hfb491db22cea08c1E', symObjAddr: 0x37AC, symBinAddr: 0xC250, symSize: 0xAC }
  - { offset: 0x4FC5F, size: 0x8, addend: 0x0, symName: '__ZN4core3ptr48drop_in_place$LT$alloc..ffi..c_str..NulError$GT$17hdcf4518307a547a7E', symObjAddr: 0x3858, symBinAddr: 0xC2FC, symSize: 0x28 }
  - { offset: 0x4FD33, size: 0x8, addend: 0x0, symName: '__ZN4core3ptr49drop_in_place$LT$std..sys..args..common..Args$GT$17h5781434e772f05cdE', symObjAddr: 0x3880, symBinAddr: 0xC324, symSize: 0x98 }
  - { offset: 0x4FF6A, size: 0x8, addend: 0x0, symName: '__ZN4core3ptr49drop_in_place$LT$std..sys..fd..unix..FileDesc$GT$17h320a79beeb60aa16E', symObjAddr: 0x3918, symBinAddr: 0xC3BC, symSize: 0x14 }
  - { offset: 0x5002A, size: 0x8, addend: 0x0, symName: '__ZN4core3ptr51drop_in_place$LT$std..backtrace..BacktraceFrame$GT$17hf79e97b120a22f9fE', symObjAddr: 0x392C, symBinAddr: 0xC3D0, symSize: 0xE4 }
  - { offset: 0x50304, size: 0x8, addend: 0x0, symName: '__ZN4core3ptr52drop_in_place$LT$std..backtrace..BacktraceSymbol$GT$17h58091ac52e857887E', symObjAddr: 0x3A10, symBinAddr: 0xC4B4, symSize: 0x90 }
  - { offset: 0x50586, size: 0x8, addend: 0x0, symName: '__ZN4core3ptr55drop_in_place$LT$gimli..read..abbrev..Abbreviations$GT$17he6a6a37a360af967E', symObjAddr: 0x3AA0, symBinAddr: 0xC544, symSize: 0x118 }
  - { offset: 0x5091C, size: 0x8, addend: 0x0, symName: '__ZN4core3ptr55drop_in_place$LT$std..sys..process..env..CommandEnv$GT$17h01e65ab6071e4dafE', symObjAddr: 0x3BB8, symBinAddr: 0xC65C, symSize: 0x10 }
  - { offset: 0x50953, size: 0x8, addend: 0x0, symName: '__ZN4core3ptr55drop_in_place$LT$std..thread..spawnhook..SpawnHooks$GT$17h05cc5fe5f967460dE', symObjAddr: 0x3BC8, symBinAddr: 0xC66C, symSize: 0x88 }
  - { offset: 0x50AA0, size: 0x8, addend: 0x0, symName: '__ZN4core3ptr60drop_in_place$LT$gimli..read..abbrev..AbbreviationsCache$GT$17hf18c62e00670181eE', symObjAddr: 0x3C50, symBinAddr: 0xC6F4, symSize: 0xB8 }
  - { offset: 0x50C76, size: 0x8, addend: 0x0, symName: '__ZN4core3ptr64drop_in_place$LT$std..sys..pal..unix..sync..mutex..AttrGuard$GT$17hb3fa9e627a499e3eE', symObjAddr: 0x3D08, symBinAddr: 0xC7AC, symSize: 0x48 }
  - { offset: 0x50CA7, size: 0x8, addend: 0x0, symName: '__ZN4core3ptr64drop_in_place$LT$std..sys..process..unix..common..ChildPipes$GT$17h5135f26082ed5781E', symObjAddr: 0x3D50, symBinAddr: 0xC7F4, symSize: 0x78 }
  - { offset: 0x50DC3, size: 0x8, addend: 0x0, symName: '__ZN4core3ptr64drop_in_place$LT$std..sys..process..unix..common..StdioPipes$GT$17hcf8643008b12a365E', symObjAddr: 0x3DC8, symBinAddr: 0xC86C, symSize: 0x54 }
  - { offset: 0x50F90, size: 0x8, addend: 0x0, symName: '__ZN4core3ptr65drop_in_place$LT$std..backtrace_rs..symbolize..gimli..Context$GT$17h85d08c7cf3b4722aE', symObjAddr: 0x3E9C, symBinAddr: 0xC8C0, symSize: 0xEC }
  - { offset: 0x51246, size: 0x8, addend: 0x0, symName: '__ZN4core3ptr66drop_in_place$LT$std..backtrace_rs..backtrace..libunwind..Bomb$GT$17h01f7d9f86fcd0c49E', symObjAddr: 0x3F88, symBinAddr: 0xC9AC, symSize: 0x40 }
  - { offset: 0x512DA, size: 0x8, addend: 0x0, symName: '__ZN4core3ptr66drop_in_place$LT$std..sys..process..unix..common..CStringArray$GT$17hd164d3d12cdf19bcE', symObjAddr: 0x3FC8, symBinAddr: 0xC9EC, symSize: 0x94 }
  - { offset: 0x514D1, size: 0x8, addend: 0x0, symName: '__ZN4core3ptr70drop_in_place$LT$alloc..vec..Vec$LT$alloc..ffi..c_str..CString$GT$$GT$17hf5fb8a9c06c7f729E', symObjAddr: 0x405C, symBinAddr: 0xCA80, symSize: 0x7C }
  - { offset: 0x51693, size: 0x8, addend: 0x0, symName: '__ZN4core3ptr70drop_in_place$LT$std..backtrace_rs..symbolize..gimli..stash..Stash$GT$17h771731bd3fc40e53E', symObjAddr: 0x4158, symBinAddr: 0xCAFC, symSize: 0xB8 }
  - { offset: 0x51957, size: 0x8, addend: 0x0, symName: '__ZN4core3ptr71drop_in_place$LT$std..backtrace_rs..symbolize..gimli..macho..Object$GT$17h4577a1feb557b39dE', symObjAddr: 0x4210, symBinAddr: 0xCBB4, symSize: 0xD8 }
  - { offset: 0x51C50, size: 0x8, addend: 0x0, symName: '__ZN4core3ptr71drop_in_place$LT$std..panicking..rust_panic_without_hook..RewrapBox$GT$17h22d99082517320b8E', symObjAddr: 0x42E8, symBinAddr: 0xCC8C, symSize: 0x6C }
  - { offset: 0x51D54, size: 0x8, addend: 0x0, symName: '__ZN4core3ptr72drop_in_place$LT$core..option..Option$LT$object..read..ObjectMap$GT$$GT$17ha8db393584068b4bE', symObjAddr: 0x4354, symBinAddr: 0xCCF8, symSize: 0x64 }
  - { offset: 0x51EE3, size: 0x8, addend: 0x0, symName: '__ZN4core3ptr73drop_in_place$LT$alloc..vec..Vec$LT$addr2line..line..LineSequence$GT$$GT$17h0f7e7093b00892b2E', symObjAddr: 0x43B8, symBinAddr: 0xCD5C, symSize: 0x84 }
  - { offset: 0x5204B, size: 0x8, addend: 0x0, symName: '__ZN4core3ptr73drop_in_place$LT$core..option..Option$LT$std..process..ChildStdin$GT$$GT$17hd758fb4f612429efE', symObjAddr: 0x443C, symBinAddr: 0xCDE0, symSize: 0x24 }
  - { offset: 0x520D2, size: 0x8, addend: 0x0, symName: '__ZN4core3ptr75drop_in_place$LT$core..option..Option$LT$alloc..ffi..c_str..CString$GT$$GT$17hbfa31a9a2536868dE', symObjAddr: 0x4460, symBinAddr: 0xCE04, symSize: 0x34 }
  - { offset: 0x5216F, size: 0x8, addend: 0x0, symName: '__ZN4core3ptr77drop_in_place$LT$alloc..boxed..Box$LT$$u5b$alloc..string..String$u5d$$GT$$GT$17hb74d1bce1bcdf062E', symObjAddr: 0x4494, symBinAddr: 0xCE38, symSize: 0x70 }
  - { offset: 0x52187, size: 0x8, addend: 0x0, symName: '__ZN4core3ptr77drop_in_place$LT$alloc..boxed..Box$LT$$u5b$alloc..string..String$u5d$$GT$$GT$17hb74d1bce1bcdf062E', symObjAddr: 0x4494, symBinAddr: 0xCE38, symSize: 0x70 }
  - { offset: 0x5229F, size: 0x8, addend: 0x0, symName: '__ZN4core3ptr77drop_in_place$LT$std..panicking..begin_panic_handler..FormatStringPayload$GT$17hd647ef0a09c67ad2E', symObjAddr: 0x4504, symBinAddr: 0xCEA8, symSize: 0x34 }
  - { offset: 0x52363, size: 0x8, addend: 0x0, symName: '__ZN4core3ptr78drop_in_place$LT$core..result..Result$LT$usize$C$std..io..error..Error$GT$$GT$17h564716274630bcf2E', symObjAddr: 0x4538, symBinAddr: 0xCEDC, symSize: 0x24 }
  - { offset: 0x52377, size: 0x8, addend: 0x0, symName: '__ZN4core3ptr79drop_in_place$LT$std..sync..poison..rwlock..RwLockReadGuard$LT$$LP$$RP$$GT$$GT$17h4896a4cd02dab174E', symObjAddr: 0x455C, symBinAddr: 0xCF00, symSize: 0x80 }
  - { offset: 0x52421, size: 0x8, addend: 0x0, symName: '__ZN4core3ptr81drop_in_place$LT$core..result..Result$LT$$LP$$RP$$C$std..io..error..Error$GT$$GT$17h07bd59f82b520ce9E', symObjAddr: 0x45DC, symBinAddr: 0xCF80, symSize: 0x20 }
  - { offset: 0x52451, size: 0x8, addend: 0x0, symName: '__ZN4core3ptr82drop_in_place$LT$alloc..sync..ArcInner$LT$std..sys..fs..unix..InnerReadDir$GT$$GT$17h794070bc11f791ecE', symObjAddr: 0x45FC, symBinAddr: 0xCFA0, symSize: 0x60 }
  - { offset: 0x5260A, size: 0x8, addend: 0x0, symName: '__ZN4core3ptr84drop_in_place$LT$$LP$std..ffi..os_str..OsString$C$std..ffi..os_str..OsString$RP$$GT$17hfaa5b08a5eeee145E', symObjAddr: 0x465C, symBinAddr: 0xD000, symSize: 0x4C }
  - { offset: 0x52777, size: 0x8, addend: 0x0, symName: '__ZN4core3ptr87drop_in_place$LT$core..option..Option$LT$alloc..boxed..Box$LT$$u5b$u32$u5d$$GT$$GT$$GT$17hef8bf6b6f2524065E', symObjAddr: 0x46A8, symBinAddr: 0xD04C, symSize: 0x34 }
  - { offset: 0x52821, size: 0x8, addend: 0x0, symName: '__ZN4core3ptr87drop_in_place$LT$core..option..Option$LT$std..sys..process..unix..common..Stdio$GT$$GT$17h9cc50269b4cae681E', symObjAddr: 0x46DC, symBinAddr: 0xD080, symSize: 0x28 }
  - { offset: 0x528AD, size: 0x8, addend: 0x0, symName: '__ZN4core3ptr90drop_in_place$LT$std..io..buffered..bufwriter..BufWriter$LT$W$GT$..flush_buf..BufGuard$GT$17h27ec7b828ea7ad5dE', symObjAddr: 0x4704, symBinAddr: 0xD0A8, symSize: 0x60 }
  - { offset: 0x52A29, size: 0x8, addend: 0x0, symName: '__ZN4core3ptr91drop_in_place$LT$core..result..Result$LT$alloc..string..String$C$std..env..VarError$GT$$GT$17hf8ab417f024fd757E', symObjAddr: 0x4764, symBinAddr: 0xD108, symSize: 0x3C }
  - { offset: 0x52ADD, size: 0x8, addend: 0x0, symName: '__ZN4core3ptr91drop_in_place$LT$core..result..Result$LT$std..path..PathBuf$C$std..io..error..Error$GT$$GT$17h25a40d87a3e00ad8E', symObjAddr: 0x47A0, symBinAddr: 0xD144, symSize: 0x40 }
  - { offset: 0x52BD8, size: 0x8, addend: 0x0, symName: '__ZN4core3ptr92drop_in_place$LT$core..result..Result$LT$addr2line..line..Lines$C$gimli..read..Error$GT$$GT$17hea0acd3e0530442eE', symObjAddr: 0x47E0, symBinAddr: 0xD184, symSize: 0xE4 }
  - { offset: 0x52E3B, size: 0x8, addend: 0x0, symName: '__ZN4core3ptr93drop_in_place$LT$core..option..Option$LT$std..backtrace_rs..symbolize..gimli..Mapping$GT$$GT$17h4fb6fb06cdfe328eE', symObjAddr: 0x48C4, symBinAddr: 0xD268, symSize: 0x6C }
  - { offset: 0x52ECF, size: 0x8, addend: 0x0, symName: '__ZN4core3ptr94drop_in_place$LT$core..option..Option$LT$std..sys..process..unix..common..CStringArray$GT$$GT$17h34d396bbe639de56E', symObjAddr: 0x4930, symBinAddr: 0xD2D4, symSize: 0xAC }
  - { offset: 0x530F9, size: 0x8, addend: 0x0, symName: '__ZN4core3ptr95drop_in_place$LT$std..io..buffered..linewriter..LineWriter$LT$std..io..stdio..StdoutRaw$GT$$GT$17hf0875da7cfd538c6E', symObjAddr: 0x49DC, symBinAddr: 0xD380, symSize: 0xF8 }
  - { offset: 0x56804, size: 0x8, addend: 0x0, symName: __ZN4core5slice4sort6shared5pivot11median3_rec17h1a315b4b7fcdef68E, symObjAddr: 0x4DD0, symBinAddr: 0xD630, symSize: 0xCC }
  - { offset: 0x56934, size: 0x8, addend: 0x0, symName: __ZN4core5slice4sort6shared5pivot11median3_rec17h31075d04885433e3E, symObjAddr: 0x4E9C, symBinAddr: 0xD6FC, symSize: 0xCC }
  - { offset: 0x56A36, size: 0x8, addend: 0x0, symName: __ZN4core5slice4sort6shared5pivot11median3_rec17h42cb24baef62e961E, symObjAddr: 0x4F68, symBinAddr: 0xD7C8, symSize: 0xD0 }
  - { offset: 0x56B38, size: 0x8, addend: 0x0, symName: __ZN4core5slice4sort6shared5pivot11median3_rec17h5913e01c3f17d4a6E, symObjAddr: 0x5038, symBinAddr: 0xD898, symSize: 0xCC }
  - { offset: 0x56C3A, size: 0x8, addend: 0x0, symName: __ZN4core5slice4sort6shared5pivot11median3_rec17h7176224f79cd07beE, symObjAddr: 0x5104, symBinAddr: 0xD964, symSize: 0x11C }
  - { offset: 0x56D3F, size: 0x8, addend: 0x0, symName: __ZN4core5slice4sort6shared5pivot11median3_rec17h990bc514407fdc90E, symObjAddr: 0x5220, symBinAddr: 0xDA80, symSize: 0xD0 }
  - { offset: 0x56E41, size: 0x8, addend: 0x0, symName: __ZN4core5slice4sort6shared5pivot11median3_rec17hab4d33cf3cee0329E, symObjAddr: 0x52F0, symBinAddr: 0xDB50, symSize: 0xD0 }
  - { offset: 0x56F45, size: 0x8, addend: 0x0, symName: __ZN4core5slice4sort6shared5pivot11median3_rec17hf292c3d7be565012E, symObjAddr: 0x53C0, symBinAddr: 0xDC20, symSize: 0x134 }
  - { offset: 0x571E5, size: 0x8, addend: 0x0, symName: __ZN4core5slice4sort6shared9smallsort12sort4_stable17h0b850f46d1c74cc1E, symObjAddr: 0x54F4, symBinAddr: 0xDD54, symSize: 0x1A0 }
  - { offset: 0x573A1, size: 0x8, addend: 0x0, symName: __ZN4core5slice4sort6shared9smallsort12sort4_stable17ha25962d3e8d8b4ccE, symObjAddr: 0x5694, symBinAddr: 0xDEF4, symSize: 0x180 }
  - { offset: 0x577F0, size: 0x8, addend: 0x0, symName: __ZN4core5slice4sort6shared9smallsort12sort8_stable17h8559be6b3c0428cbE, symObjAddr: 0x5814, symBinAddr: 0xE074, symSize: 0x2B8 }
  - { offset: 0x57D76, size: 0x8, addend: 0x0, symName: __ZN4core5slice4sort6shared9smallsort18small_sort_general17h981c412301faf7f5E, symObjAddr: 0x5ACC, symBinAddr: 0xE32C, symSize: 0x400 }
  - { offset: 0x5831F, size: 0x8, addend: 0x0, symName: __ZN4core5slice4sort6shared9smallsort18small_sort_general17ha6671e0532ca2b6eE, symObjAddr: 0x5ECC, symBinAddr: 0xE72C, symSize: 0x4A4 }
  - { offset: 0x58A69, size: 0x8, addend: 0x0, symName: __ZN4core5slice4sort6shared9smallsort25insertion_sort_shift_left17h0fa4585c1a450032E, symObjAddr: 0x6370, symBinAddr: 0xEBD0, symSize: 0xF4 }
  - { offset: 0x58C42, size: 0x8, addend: 0x0, symName: __ZN4core5slice4sort6shared9smallsort25insertion_sort_shift_left17ha91fe8256d8e1f83E, symObjAddr: 0x6464, symBinAddr: 0xECC4, symSize: 0xA0 }
  - { offset: 0x58D21, size: 0x8, addend: 0x0, symName: __ZN4core5slice4sort6shared9smallsort25insertion_sort_shift_left17he3f64edff203a0ddE, symObjAddr: 0x6504, symBinAddr: 0xED64, symSize: 0xC4 }
  - { offset: 0x58E5A, size: 0x8, addend: 0x0, symName: __ZN4core5slice4sort6shared9smallsort25insertion_sort_shift_left17he864dc12138180eaE, symObjAddr: 0x65C8, symBinAddr: 0xEE28, symSize: 0xB4 }
  - { offset: 0x591EC, size: 0x8, addend: 0x0, symName: __ZN4core5slice4sort6stable14driftsort_main17h0aca59be9fe5c559E, symObjAddr: 0x667C, symBinAddr: 0xEEDC, symSize: 0x16C }
  - { offset: 0x59509, size: 0x8, addend: 0x0, symName: __ZN4core5slice4sort6stable14driftsort_main17h0bf24ea1584c74f3E, symObjAddr: 0x67E8, symBinAddr: 0xF048, symSize: 0x16C }
  - { offset: 0x59826, size: 0x8, addend: 0x0, symName: __ZN4core5slice4sort6stable14driftsort_main17h1137c8eb25ca2763E, symObjAddr: 0x6954, symBinAddr: 0xF1B4, symSize: 0x148 }
  - { offset: 0x59A61, size: 0x8, addend: 0x0, symName: __ZN4core5slice4sort6stable14driftsort_main17hc48f74f1803e57dfE, symObjAddr: 0x6A9C, symBinAddr: 0xF2FC, symSize: 0x148 }
  - { offset: 0x59D24, size: 0x8, addend: 0x0, symName: __ZN4core5slice4sort6stable14driftsort_main17hd5938ddec050be4aE, symObjAddr: 0x6BE4, symBinAddr: 0xF444, symSize: 0x148 }
  - { offset: 0x59FE7, size: 0x8, addend: 0x0, symName: __ZN4core5slice4sort6stable14driftsort_main17hf91d9c601a192847E, symObjAddr: 0x6D2C, symBinAddr: 0xF58C, symSize: 0x148 }
  - { offset: 0x5A49D, size: 0x8, addend: 0x0, symName: __ZN4core5slice4sort6stable5drift4sort17h2c389344a6265b02E, symObjAddr: 0x6E74, symBinAddr: 0xF6D4, symSize: 0x5EC }
  - { offset: 0x5ABCF, size: 0x8, addend: 0x0, symName: __ZN4core5slice4sort6stable5drift4sort17h56accce1e58486f4E, symObjAddr: 0x7460, symBinAddr: 0xFCC0, symSize: 0x538 }
  - { offset: 0x5B2F9, size: 0x8, addend: 0x0, symName: __ZN4core5slice4sort6stable5drift4sort17hb2a9b961eece8213E, symObjAddr: 0x7998, symBinAddr: 0x101F8, symSize: 0x4F8 }
  - { offset: 0x5BA0E, size: 0x8, addend: 0x0, symName: __ZN4core5slice4sort6stable5drift4sort17hc62ed80823b9f2aeE, symObjAddr: 0x7E90, symBinAddr: 0x106F0, symSize: 0x4E0 }
  - { offset: 0x5C09D, size: 0x8, addend: 0x0, symName: __ZN4core5slice4sort6stable5drift4sort17he2cada4931ef254dE, symObjAddr: 0x8370, symBinAddr: 0x10BD0, symSize: 0x530 }
  - { offset: 0x5C79D, size: 0x8, addend: 0x0, symName: __ZN4core5slice4sort6stable5drift4sort17he4ad36c629567a7eE, symObjAddr: 0x88A0, symBinAddr: 0x11100, symSize: 0x4F8 }
  - { offset: 0x5D0BC, size: 0x8, addend: 0x0, symName: __ZN4core5slice4sort6stable9quicksort9quicksort17h303148127d369619E, symObjAddr: 0x8D98, symBinAddr: 0x115F8, symSize: 0x6D8 }
  - { offset: 0x5DC08, size: 0x8, addend: 0x0, symName: __ZN4core5slice4sort6stable9quicksort9quicksort17h3632c446be8b4108E, symObjAddr: 0x9470, symBinAddr: 0x11CD0, symSize: 0x74C }
  - { offset: 0x5E39C, size: 0x8, addend: 0x0, symName: __ZN4core5slice4sort6stable9quicksort9quicksort17h447d0d0f92e2e70eE, symObjAddr: 0x9BBC, symBinAddr: 0x1241C, symSize: 0x834 }
  - { offset: 0x5F402, size: 0x8, addend: 0x0, symName: __ZN4core5slice4sort6stable9quicksort9quicksort17h63928b3dfe206fadE, symObjAddr: 0xA3F0, symBinAddr: 0x12C50, symSize: 0x810 }
  - { offset: 0x60093, size: 0x8, addend: 0x0, symName: __ZN4core5slice4sort6stable9quicksort9quicksort17h819d02d076c15949E, symObjAddr: 0xAC00, symBinAddr: 0x13460, symSize: 0x834 }
  - { offset: 0x60D31, size: 0x8, addend: 0x0, symName: __ZN4core5slice4sort6stable9quicksort9quicksort17hafbdc9fb4db3900cE, symObjAddr: 0xB434, symBinAddr: 0x13C94, symSize: 0x6E0 }
  - { offset: 0x618B9, size: 0x8, addend: 0x0, symName: __ZN4core5slice4sort8unstable7ipnsort17h125ca60ad4813c63E, symObjAddr: 0xBB14, symBinAddr: 0x14374, symSize: 0xFC }
  - { offset: 0x61A08, size: 0x8, addend: 0x0, symName: __ZN4core5slice4sort8unstable7ipnsort17hf84b165459e2f21eE, symObjAddr: 0xBC10, symBinAddr: 0x14470, symSize: 0x1A8 }
  - { offset: 0x61CFD, size: 0x8, addend: 0x0, symName: __ZN4core5slice4sort8unstable8heapsort8heapsort17h8fe55ab15965c53bE, symObjAddr: 0xBDB8, symBinAddr: 0x14618, symSize: 0x10C }
  - { offset: 0x61EFD, size: 0x8, addend: 0x0, symName: __ZN4core5slice4sort8unstable8heapsort8heapsort17h979493cb42857821E, symObjAddr: 0xBEC4, symBinAddr: 0x14724, symSize: 0x160 }
  - { offset: 0x622A5, size: 0x8, addend: 0x0, symName: __ZN4core5slice4sort8unstable9quicksort9quicksort17h64d359afb9a42b66E, symObjAddr: 0xC024, symBinAddr: 0x14884, symSize: 0x598 }
  - { offset: 0x62EF1, size: 0x8, addend: 0x0, symName: __ZN4core5slice4sort8unstable9quicksort9quicksort17h7e2ed2e0a6645622E, symObjAddr: 0xC5BC, symBinAddr: 0x14E1C, symSize: 0x408 }
  - { offset: 0x639CD, size: 0x8, addend: 0x0, symName: '__ZN36_$LT$T$u20$as$u20$core..any..Any$GT$7type_id17h14d9ffa88172073aE', symObjAddr: 0x13C, symBinAddr: 0x8BF4, symSize: 0x30 }
  - { offset: 0x639E7, size: 0x8, addend: 0x0, symName: '__ZN36_$LT$T$u20$as$u20$core..any..Any$GT$7type_id17h49f23d3feb810c47E', symObjAddr: 0x16C, symBinAddr: 0x8C24, symSize: 0x30 }
  - { offset: 0x63A01, size: 0x8, addend: 0x0, symName: '__ZN36_$LT$T$u20$as$u20$core..any..Any$GT$7type_id17hf935afe422cbadc2E', symObjAddr: 0x19C, symBinAddr: 0x8C54, symSize: 0x30 }
  - { offset: 0x63AA1, size: 0x8, addend: 0x0, symName: '__ZN41_$LT$bool$u20$as$u20$core..fmt..Debug$GT$3fmt17hdb1757358283419cE', symObjAddr: 0x1E0, symBinAddr: 0x8C84, symSize: 0x10 }
  - { offset: 0x63AC3, size: 0x8, addend: 0x0, symName: '__ZN42_$LT$$RF$T$u20$as$u20$core..fmt..Debug$GT$3fmt17h08a373314e1dcd4fE', symObjAddr: 0x1F0, symBinAddr: 0x8C94, symSize: 0x44 }
  - { offset: 0x63B03, size: 0x8, addend: 0x0, symName: '__ZN42_$LT$$RF$T$u20$as$u20$core..fmt..Debug$GT$3fmt17h1a2a43071eaf3455E', symObjAddr: 0x234, symBinAddr: 0x8CD8, symSize: 0x74 }
  - { offset: 0x63B9D, size: 0x8, addend: 0x0, symName: '__ZN42_$LT$$RF$T$u20$as$u20$core..fmt..Debug$GT$3fmt17h1a6dd42887957859E', symObjAddr: 0x2A8, symBinAddr: 0x8D4C, symSize: 0x30 }
  - { offset: 0x63BE5, size: 0x8, addend: 0x0, symName: '__ZN42_$LT$$RF$T$u20$as$u20$core..fmt..Debug$GT$3fmt17h2773eecd2da797d2E', symObjAddr: 0x2D8, symBinAddr: 0x8D7C, symSize: 0x64 }
  - { offset: 0x63C17, size: 0x8, addend: 0x0, symName: '__ZN42_$LT$$RF$T$u20$as$u20$core..fmt..Debug$GT$3fmt17h2a308b8ed6ed30ceE', symObjAddr: 0x33C, symBinAddr: 0x8DE0, symSize: 0x1C }
  - { offset: 0x63C2B, size: 0x8, addend: 0x0, symName: '__ZN42_$LT$$RF$T$u20$as$u20$core..fmt..Debug$GT$3fmt17h2b59b2bd152b14d5E', symObjAddr: 0x358, symBinAddr: 0x8DFC, symSize: 0x2C }
  - { offset: 0x63D50, size: 0x8, addend: 0x0, symName: '__ZN42_$LT$$RF$T$u20$as$u20$core..fmt..Debug$GT$3fmt17h37bfe31bb3df160aE', symObjAddr: 0x384, symBinAddr: 0x8E28, symSize: 0x68 }
  - { offset: 0x63D7A, size: 0x8, addend: 0x0, symName: '__ZN42_$LT$$RF$T$u20$as$u20$core..fmt..Debug$GT$3fmt17h3a4c8b39b18617a6E', symObjAddr: 0x3EC, symBinAddr: 0x8E90, symSize: 0x58 }
  - { offset: 0x63DBA, size: 0x8, addend: 0x0, symName: '__ZN42_$LT$$RF$T$u20$as$u20$core..fmt..Debug$GT$3fmt17h3d2168217ae2ae10E', symObjAddr: 0x444, symBinAddr: 0x8EE8, symSize: 0x2C }
  - { offset: 0x63E30, size: 0x8, addend: 0x0, symName: '__ZN42_$LT$$RF$T$u20$as$u20$core..fmt..Debug$GT$3fmt17h3ffdf6b7fc98998eE', symObjAddr: 0x470, symBinAddr: 0x8F14, symSize: 0xEC }
  - { offset: 0x63F0E, size: 0x8, addend: 0x0, symName: '__ZN42_$LT$$RF$T$u20$as$u20$core..fmt..Debug$GT$3fmt17h42dc6ba2ed695de5E', symObjAddr: 0x55C, symBinAddr: 0x9000, symSize: 0x9C }
  - { offset: 0x63FA2, size: 0x8, addend: 0x0, symName: '__ZN42_$LT$$RF$T$u20$as$u20$core..fmt..Debug$GT$3fmt17h4c9c9a1a77f56bd8E', symObjAddr: 0x5F8, symBinAddr: 0x909C, symSize: 0x14 }
  - { offset: 0x63FBD, size: 0x8, addend: 0x0, symName: '__ZN42_$LT$$RF$T$u20$as$u20$core..fmt..Debug$GT$3fmt17h57f7c994c1b0919fE', symObjAddr: 0x60C, symBinAddr: 0x90B0, symSize: 0x38 }
  - { offset: 0x63FEF, size: 0x8, addend: 0x0, symName: '__ZN42_$LT$$RF$T$u20$as$u20$core..fmt..Debug$GT$3fmt17h59d019993bf91d19E', symObjAddr: 0x644, symBinAddr: 0x90E8, symSize: 0x38 }
  - { offset: 0x64021, size: 0x8, addend: 0x0, symName: '__ZN42_$LT$$RF$T$u20$as$u20$core..fmt..Debug$GT$3fmt17h5b7d431c62b14515E', symObjAddr: 0x67C, symBinAddr: 0x9120, symSize: 0x74 }
  - { offset: 0x64152, size: 0x8, addend: 0x0, symName: '__ZN42_$LT$$RF$T$u20$as$u20$core..fmt..Debug$GT$3fmt17h7b379375f916f352E', symObjAddr: 0x6F0, symBinAddr: 0x9194, symSize: 0x1C }
  - { offset: 0x64184, size: 0x8, addend: 0x0, symName: '__ZN42_$LT$$RF$T$u20$as$u20$core..fmt..Debug$GT$3fmt17h8592da07de8f839bE', symObjAddr: 0x70C, symBinAddr: 0x91B0, symSize: 0x6C }
  - { offset: 0x641B6, size: 0x8, addend: 0x0, symName: '__ZN42_$LT$$RF$T$u20$as$u20$core..fmt..Debug$GT$3fmt17h8d885d4488617703E', symObjAddr: 0x778, symBinAddr: 0x921C, symSize: 0xC4 }
  - { offset: 0x641E0, size: 0x8, addend: 0x0, symName: '__ZN42_$LT$$RF$T$u20$as$u20$core..fmt..Debug$GT$3fmt17h8e5758ae9ab85cc1E', symObjAddr: 0x83C, symBinAddr: 0x92E0, symSize: 0x64 }
  - { offset: 0x64212, size: 0x8, addend: 0x0, symName: '__ZN42_$LT$$RF$T$u20$as$u20$core..fmt..Debug$GT$3fmt17h9b72cbd3becc8ff8E', symObjAddr: 0x8A0, symBinAddr: 0x9344, symSize: 0x1C }
  - { offset: 0x64244, size: 0x8, addend: 0x0, symName: '__ZN42_$LT$$RF$T$u20$as$u20$core..fmt..Debug$GT$3fmt17h9c403f7f3b08ebbeE', symObjAddr: 0x8BC, symBinAddr: 0x9360, symSize: 0x30 }
  - { offset: 0x6428C, size: 0x8, addend: 0x0, symName: '__ZN42_$LT$$RF$T$u20$as$u20$core..fmt..Debug$GT$3fmt17ha10cc0845ba23b7dE', symObjAddr: 0x8EC, symBinAddr: 0x9390, symSize: 0x1C }
  - { offset: 0x642A7, size: 0x8, addend: 0x0, symName: '__ZN42_$LT$$RF$T$u20$as$u20$core..fmt..Debug$GT$3fmt17ha4933d61fd9abccaE', symObjAddr: 0x908, symBinAddr: 0x93AC, symSize: 0x74 }
  - { offset: 0x642D9, size: 0x8, addend: 0x0, symName: '__ZN42_$LT$$RF$T$u20$as$u20$core..fmt..Debug$GT$3fmt17hd3cd339b99a65f38E', symObjAddr: 0x97C, symBinAddr: 0x9420, symSize: 0x20 }
  - { offset: 0x6430B, size: 0x8, addend: 0x0, symName: '__ZN42_$LT$$RF$T$u20$as$u20$core..fmt..Debug$GT$3fmt17hdb4b147d8b541775E', symObjAddr: 0x99C, symBinAddr: 0x9440, symSize: 0x30 }
  - { offset: 0x64353, size: 0x8, addend: 0x0, symName: '__ZN42_$LT$$RF$T$u20$as$u20$core..fmt..Debug$GT$3fmt17he0ec14b21b0eb3dbE', symObjAddr: 0x9CC, symBinAddr: 0x9470, symSize: 0x38 }
  - { offset: 0x64393, size: 0x8, addend: 0x0, symName: '__ZN42_$LT$$RF$T$u20$as$u20$core..fmt..Debug$GT$3fmt17he1b4dcf779cba377E', symObjAddr: 0xA04, symBinAddr: 0x94A8, symSize: 0x30 }
  - { offset: 0x644D6, size: 0x8, addend: 0x0, symName: '__ZN42_$LT$$RF$T$u20$as$u20$core..fmt..Debug$GT$3fmt17he38b1b6b7fa40dc4E', symObjAddr: 0xA34, symBinAddr: 0x94D8, symSize: 0x70 }
  - { offset: 0x64508, size: 0x8, addend: 0x0, symName: '__ZN42_$LT$$RF$T$u20$as$u20$core..fmt..Debug$GT$3fmt17hf3595b3379c6438cE', symObjAddr: 0xAA4, symBinAddr: 0x9548, symSize: 0x14 }
  - { offset: 0x64531, size: 0x8, addend: 0x0, symName: '__ZN42_$LT$$RF$T$u20$as$u20$core..fmt..Debug$GT$3fmt17hf3881c8b232c10faE', symObjAddr: 0xAB8, symBinAddr: 0x955C, symSize: 0x6C }
  - { offset: 0x6457A, size: 0x8, addend: 0x0, symName: '__ZN42_$LT$$RF$T$u20$as$u20$core..fmt..Debug$GT$3fmt17hf67ed104fb861c52E', symObjAddr: 0xB24, symBinAddr: 0x95C8, symSize: 0x144 }
  - { offset: 0x645AC, size: 0x8, addend: 0x0, symName: '__ZN42_$LT$$RF$T$u20$as$u20$core..fmt..Debug$GT$3fmt17hf7d6a5ef937953d4E', symObjAddr: 0xC68, symBinAddr: 0x970C, symSize: 0x14 }
  - { offset: 0x645C7, size: 0x8, addend: 0x0, symName: '__ZN42_$LT$$RF$T$u20$as$u20$core..fmt..Debug$GT$3fmt17hf9c5a99ea122cda4E', symObjAddr: 0xC7C, symBinAddr: 0x9720, symSize: 0x4C }
  - { offset: 0x6463A, size: 0x8, addend: 0x0, symName: '__ZN42_$LT$$RF$T$u20$as$u20$core..fmt..Debug$GT$3fmt17hfa74f52cbd889164E', symObjAddr: 0xCC8, symBinAddr: 0x976C, symSize: 0x78 }
  - { offset: 0x646D4, size: 0x8, addend: 0x0, symName: '__ZN42_$LT$$RF$T$u20$as$u20$core..fmt..Debug$GT$3fmt17hfb9a7b3eeed30e69E', symObjAddr: 0xD40, symBinAddr: 0x97E4, symSize: 0x68 }
  - { offset: 0x648A8, size: 0x8, addend: 0x0, symName: '__ZN4core3fmt3num50_$LT$impl$u20$core..fmt..Debug$u20$for$u20$i32$GT$3fmt17h36ba40624ead6bfaE', symObjAddr: 0xE78, symBinAddr: 0x991C, symSize: 0x2C }
  - { offset: 0x648E6, size: 0x8, addend: 0x0, symName: '__ZN4core3fmt3num50_$LT$impl$u20$core..fmt..Debug$u20$for$u20$u32$GT$3fmt17h577cd307379ea479E', symObjAddr: 0xED0, symBinAddr: 0x9974, symSize: 0x2C }
  - { offset: 0x64924, size: 0x8, addend: 0x0, symName: '__ZN4core3fmt3num49_$LT$impl$u20$core..fmt..Debug$u20$for$u20$u8$GT$3fmt17h299646da3782e6adE', symObjAddr: 0xE4C, symBinAddr: 0x98F0, symSize: 0x2C }
  - { offset: 0x64962, size: 0x8, addend: 0x0, symName: '__ZN4core3fmt3num50_$LT$impl$u20$core..fmt..Debug$u20$for$u20$u64$GT$3fmt17hc4f7e674c1ecd659E', symObjAddr: 0xEFC, symBinAddr: 0x99A0, symSize: 0x2C }
  - { offset: 0x64993, size: 0x8, addend: 0x0, symName: '__ZN4core3fmt3num50_$LT$impl$u20$core..fmt..Debug$u20$for$u20$i64$GT$3fmt17he81dd7cb43ccaaa0E', symObjAddr: 0xEA4, symBinAddr: 0x9948, symSize: 0x2C }
  - { offset: 0x649CA, size: 0x8, addend: 0x0, symName: '__ZN4core3fmt3num52_$LT$impl$u20$core..fmt..Debug$u20$for$u20$usize$GT$3fmt17hcd6e8a8f4bb8fc06E', symObjAddr: 0xF28, symBinAddr: 0x99CC, symSize: 0x2C }
  - { offset: 0x64A17, size: 0x8, addend: 0x0, symName: '__ZN50_$LT$$LP$U$C$T$RP$$u20$as$u20$core..fmt..Debug$GT$3fmt17h34e2ad6a9d1c4db1E', symObjAddr: 0xCA54, symBinAddr: 0x15238, symSize: 0x74 }
  - { offset: 0x64A32, size: 0x8, addend: 0x0, symName: '__ZN50_$LT$$LP$U$C$T$RP$$u20$as$u20$core..fmt..Debug$GT$3fmt17h95f47d9749bcba82E', symObjAddr: 0xCAC8, symBinAddr: 0x152AC, symSize: 0x74 }
  - { offset: 0x64A62, size: 0x8, addend: 0x0, symName: '__ZN45_$LT$$LP$$RP$$u20$as$u20$core..fmt..Debug$GT$3fmt17ha243b157c96caf40E', symObjAddr: 0xE2C, symBinAddr: 0x98D0, symSize: 0x20 }
  - { offset: 0x64F1D, size: 0x8, addend: 0x0, symName: '__ZN44_$LT$$RF$T$u20$as$u20$core..fmt..Display$GT$3fmt17ha8344383e1785c1dE', symObjAddr: 0xDA8, symBinAddr: 0x984C, symSize: 0x68 }
  - { offset: 0x64FD9, size: 0x8, addend: 0x0, symName: '__ZN44_$LT$$RF$T$u20$as$u20$core..fmt..Display$GT$3fmt17hc73c7057df7611ceE', symObjAddr: 0xE10, symBinAddr: 0x98B4, symSize: 0x1C }
  - { offset: 0x65017, size: 0x8, addend: 0x0, symName: __ZN4core3fmt5Write10write_char17h0ebe110cae9c7308E, symObjAddr: 0xF54, symBinAddr: 0x99F8, symSize: 0x150 }
  - { offset: 0x651D8, size: 0x8, addend: 0x0, symName: __ZN4core3fmt5Write10write_char17h55369c64763075bdE, symObjAddr: 0x10A4, symBinAddr: 0x9B48, symSize: 0x140 }
  - { offset: 0x65267, size: 0x8, addend: 0x0, symName: __ZN4core3fmt5Write10write_char17h8149b7f0ae8c83d3E, symObjAddr: 0x11E4, symBinAddr: 0x9C88, symSize: 0x128 }
  - { offset: 0x65438, size: 0x8, addend: 0x0, symName: __ZN4core3fmt5Write10write_char17h865f765e34928222E, symObjAddr: 0x130C, symBinAddr: 0x9DB0, symSize: 0x140 }
  - { offset: 0x654C7, size: 0x8, addend: 0x0, symName: __ZN4core3fmt5Write10write_char17h9aa5234a79a81b60E, symObjAddr: 0x144C, symBinAddr: 0x9EF0, symSize: 0x180 }
  - { offset: 0x6569F, size: 0x8, addend: 0x0, symName: __ZN4core3fmt5Write10write_char17hce896d99a6212c40E, symObjAddr: 0x15CC, symBinAddr: 0xA070, symSize: 0x180 }
  - { offset: 0x658E0, size: 0x8, addend: 0x0, symName: __ZN4core3fmt5Write9write_fmt17h06de8c5560524bf1E, symObjAddr: 0x174C, symBinAddr: 0xA1F0, symSize: 0x1C }
  - { offset: 0x65910, size: 0x8, addend: 0x0, symName: __ZN4core3fmt5Write9write_fmt17h29f3033f658881cdE, symObjAddr: 0x1768, symBinAddr: 0xA20C, symSize: 0x1C }
  - { offset: 0x65940, size: 0x8, addend: 0x0, symName: __ZN4core3fmt5Write9write_fmt17h4840c033c4b94ceaE, symObjAddr: 0x1784, symBinAddr: 0xA228, symSize: 0x1C }
  - { offset: 0x65970, size: 0x8, addend: 0x0, symName: __ZN4core3fmt5Write9write_fmt17h68e3dbe6556b799fE, symObjAddr: 0x17A0, symBinAddr: 0xA244, symSize: 0x1C }
  - { offset: 0x659A0, size: 0x8, addend: 0x0, symName: __ZN4core3fmt5Write9write_fmt17h7deba5877eb5ebb8E, symObjAddr: 0x17BC, symBinAddr: 0xA260, symSize: 0x1C }
  - { offset: 0x659D0, size: 0x8, addend: 0x0, symName: __ZN4core3fmt5Write9write_fmt17h85d31f0218823a49E, symObjAddr: 0x17D8, symBinAddr: 0xA27C, symSize: 0x1C }
  - { offset: 0x65A00, size: 0x8, addend: 0x0, symName: __ZN4core3fmt5Write9write_fmt17hf43cd192c1d4195bE, symObjAddr: 0x17F4, symBinAddr: 0xA298, symSize: 0x1C }
  - { offset: 0x65A61, size: 0x8, addend: 0x0, symName: '__ZN50_$LT$$BP$mut$u20$T$u20$as$u20$core..fmt..Debug$GT$3fmt17h143dbe7cb894ff92E', symObjAddr: 0xCA40, symBinAddr: 0x15224, symSize: 0x14 }
  - { offset: 0x65AB1, size: 0x8, addend: 0x0, symName: '__ZN52_$LT$$RF$mut$u20$T$u20$as$u20$core..fmt..Display$GT$3fmt17hce321e6f032a9eb6E', symObjAddr: 0xCB3C, symBinAddr: 0x15320, symSize: 0x1C }
  - { offset: 0x65B09, size: 0x8, addend: 0x0, symName: '__ZN55_$LT$$RF$str$u20$as$u20$core..str..pattern..Pattern$GT$15is_contained_in17h4c75eb751cc959a8E', symObjAddr: 0xCB58, symBinAddr: 0x1533C, symSize: 0x3C0 }
  - { offset: 0x66000, size: 0x8, addend: 0x0, symName: '__ZN4core5array69_$LT$impl$u20$core..fmt..Debug$u20$for$u20$$u5b$T$u3b$$u20$N$u5d$$GT$3fmt17hda95244a98022a50E', symObjAddr: 0x4C18, symBinAddr: 0xD478, symSize: 0xFC }
  - { offset: 0x666B2, size: 0x8, addend: 0x0, symName: '__ZN73_$LT$core..num..nonzero..NonZero$LT$T$GT$$u20$as$u20$core..fmt..Debug$GT$3fmt17h3ea8da6cbfffa2eaE', symObjAddr: 0x18DEC, symBinAddr: 0x21458, symSize: 0x48 }
  - { offset: 0x66D8F, size: 0x8, addend: 0x0, symName: '__ZN70_$LT$core..num..error..TryFromIntError$u20$as$u20$core..fmt..Debug$GT$3fmt17hf24964bb1f71a085E', symObjAddr: 0x18D90, symBinAddr: 0x213FC, symSize: 0x40 }
  - { offset: 0x66DB0, size: 0x8, addend: 0x0, symName: '__ZN72_$LT$core..num..error..TryFromIntError$u20$as$u20$core..error..Error$GT$11description17h48657fd864c56872E', symObjAddr: 0x18DD0, symBinAddr: 0x2143C, symSize: 0x1C }
  - { offset: 0x670FE, size: 0x8, addend: 0x0, symName: __ZN4core5panic12PanicPayload6as_str17h07aca80f76cd44bbE, symObjAddr: 0x4DBC, symBinAddr: 0xD61C, symSize: 0x14 }
  - { offset: 0x692A7, size: 0x8, addend: 0x0, symName: __ZN4core3ops8function2Fn4call17h1e077930ed9e77dbE, symObjAddr: 0x1810, symBinAddr: 0xA2B4, symSize: 0xA4 }
  - { offset: 0x6937F, size: 0x8, addend: 0x0, symName: __ZN4core3ops8function2Fn4call17h24fe5e31801447c8E, symObjAddr: 0x18B4, symBinAddr: 0xA358, symSize: 0x14 }
  - { offset: 0x69393, size: 0x8, addend: 0x0, symName: __ZN4core3ops8function2Fn4call17h58be623f56ae82caE, symObjAddr: 0x18C8, symBinAddr: 0xA36C, symSize: 0xAC }
  - { offset: 0x69499, size: 0x8, addend: 0x0, symName: __ZN4core3ops8function2Fn4call17h64e9007ddbc877fdE, symObjAddr: 0x1974, symBinAddr: 0xA418, symSize: 0x14 }
  - { offset: 0x694AD, size: 0x8, addend: 0x0, symName: __ZN4core3ops8function2Fn4call17h8c4690239580712dE, symObjAddr: 0x1988, symBinAddr: 0xA42C, symSize: 0x14 }
  - { offset: 0x694C7, size: 0x8, addend: 0x0, symName: __ZN4core3ops8function2Fn4call17hb458c501f7967df7E, symObjAddr: 0x199C, symBinAddr: 0xA440, symSize: 0xAC }
  - { offset: 0x695CD, size: 0x8, addend: 0x0, symName: __ZN4core3ops8function2Fn4call17hb72f97f03aaffa25E, symObjAddr: 0x1A48, symBinAddr: 0xA4EC, symSize: 0x38 }
  - { offset: 0x69669, size: 0x8, addend: 0x0, symName: __ZN4core3ops8function2Fn4call17hbf8bd236b7abdbf9E, symObjAddr: 0x1A80, symBinAddr: 0xA524, symSize: 0x38 }
  - { offset: 0x69774, size: 0x8, addend: 0x0, symName: __ZN4core3ops8function5FnMut8call_mut17hccc387b100688d5bE, symObjAddr: 0x1AB8, symBinAddr: 0xA55C, symSize: 0x14 }
  - { offset: 0x697C9, size: 0x8, addend: 0x0, symName: '__ZN4core3ops8function6FnOnce40call_once$u7b$$u7b$vtable.shim$u7d$$u7d$17h031592c657da3cb8E', symObjAddr: 0x1ACC, symBinAddr: 0xA570, symSize: 0x18 }
  - { offset: 0x69806, size: 0x8, addend: 0x0, symName: '__ZN4core3ops8function6FnOnce40call_once$u7b$$u7b$vtable.shim$u7d$$u7d$17h13e78e2a44914161E', symObjAddr: 0x1AE4, symBinAddr: 0xA588, symSize: 0x7C }
  - { offset: 0x69965, size: 0x8, addend: 0x0, symName: '__ZN4core3ops8function6FnOnce40call_once$u7b$$u7b$vtable.shim$u7d$$u7d$17h29422f6eedc012fdE', symObjAddr: 0x1B60, symBinAddr: 0xA604, symSize: 0x80 }
  - { offset: 0x69AE2, size: 0x8, addend: 0x0, symName: '__ZN4core3ops8function6FnOnce40call_once$u7b$$u7b$vtable.shim$u7d$$u7d$17h4a974ee455d1e99eE', symObjAddr: 0x1BE0, symBinAddr: 0xA684, symSize: 0x10 }
  - { offset: 0x69B1F, size: 0x8, addend: 0x0, symName: '__ZN4core3ops8function6FnOnce40call_once$u7b$$u7b$vtable.shim$u7d$$u7d$17h5500dd8c649ec5edE', symObjAddr: 0x1BF0, symBinAddr: 0xA694, symSize: 0x14 }
  - { offset: 0x69B5C, size: 0x8, addend: 0x0, symName: '__ZN4core3ops8function6FnOnce40call_once$u7b$$u7b$vtable.shim$u7d$$u7d$17h5d493dbfdac1cbb3E', symObjAddr: 0x1C04, symBinAddr: 0xA6A8, symSize: 0x60 }
  - { offset: 0x69C49, size: 0x8, addend: 0x0, symName: '__ZN4core3ops8function6FnOnce40call_once$u7b$$u7b$vtable.shim$u7d$$u7d$17h8046fa138976872eE', symObjAddr: 0x1C64, symBinAddr: 0xA708, symSize: 0x10 }
  - { offset: 0x69C86, size: 0x8, addend: 0x0, symName: '__ZN4core3ops8function6FnOnce40call_once$u7b$$u7b$vtable.shim$u7d$$u7d$17h8f89b802168bb7afE', symObjAddr: 0x1C74, symBinAddr: 0xA718, symSize: 0x18 }
  - { offset: 0x69CD9, size: 0x8, addend: 0x0, symName: '__ZN4core3ops8function6FnOnce40call_once$u7b$$u7b$vtable.shim$u7d$$u7d$17h92f50a99e5256a08E', symObjAddr: 0x1C8C, symBinAddr: 0xA730, symSize: 0xB0 }
  - { offset: 0x69E3A, size: 0x8, addend: 0x0, symName: '__ZN4core3ops8function6FnOnce40call_once$u7b$$u7b$vtable.shim$u7d$$u7d$17h953ee306e8e7863fE', symObjAddr: 0x1D3C, symBinAddr: 0xA7E0, symSize: 0xA4 }
  - { offset: 0x69F8E, size: 0x8, addend: 0x0, symName: '__ZN4core3ops8function6FnOnce40call_once$u7b$$u7b$vtable.shim$u7d$$u7d$17h9d8a3232d1f00bdfE', symObjAddr: 0x1DE0, symBinAddr: 0xA884, symSize: 0x28 }
  - { offset: 0x69FCB, size: 0x8, addend: 0x0, symName: '__ZN4core3ops8function6FnOnce40call_once$u7b$$u7b$vtable.shim$u7d$$u7d$17haa7c98b80b85fad1E', symObjAddr: 0x1E08, symBinAddr: 0xA8AC, symSize: 0x28 }
  - { offset: 0x6A008, size: 0x8, addend: 0x0, symName: '__ZN4core3ops8function6FnOnce40call_once$u7b$$u7b$vtable.shim$u7d$$u7d$17hb2a0fdcee6ba8a12E', symObjAddr: 0x1E30, symBinAddr: 0xA8D4, symSize: 0x18 }
  - { offset: 0x6A05B, size: 0x8, addend: 0x0, symName: '__ZN4core3ops8function6FnOnce40call_once$u7b$$u7b$vtable.shim$u7d$$u7d$17hb75619864bddfaf6E', symObjAddr: 0x1E48, symBinAddr: 0xA8EC, symSize: 0x28 }
  - { offset: 0x6D7AA, size: 0x8, addend: 0x0, symName: '__ZN4core4cell4once17OnceCell$LT$T$GT$8try_init17hdfb7c26b214c95c8E', symObjAddr: 0x4AD4, symBinAddr: 0x8E514, symSize: 0x144 }
  - { offset: 0x6DDE7, size: 0x8, addend: 0x0, symName: __ZN4core5error5Error5cause17h2cfddb011e68020aE, symObjAddr: 0x4D14, symBinAddr: 0xD574, symSize: 0x14 }
  - { offset: 0x6DE01, size: 0x8, addend: 0x0, symName: __ZN4core5error5Error5cause17hb98080d1967b9d49E, symObjAddr: 0x4D28, symBinAddr: 0xD588, symSize: 0x14 }
  - { offset: 0x6DE1B, size: 0x8, addend: 0x0, symName: __ZN4core5error5Error7provide17h2cd9f34c3dcd1c6fE, symObjAddr: 0x4D3C, symBinAddr: 0xD59C, symSize: 0x10 }
  - { offset: 0x6DE35, size: 0x8, addend: 0x0, symName: __ZN4core5error5Error7provide17h676e16fd6b13d186E, symObjAddr: 0x4D4C, symBinAddr: 0xD5AC, symSize: 0x10 }
  - { offset: 0x6DE4F, size: 0x8, addend: 0x0, symName: __ZN4core5error5Error7type_id17h96dcf29ced7ea628E, symObjAddr: 0x4D5C, symBinAddr: 0xD5BC, symSize: 0x30 }
  - { offset: 0x6DE69, size: 0x8, addend: 0x0, symName: __ZN4core5error5Error7type_id17he80a04a12ca3a24cE, symObjAddr: 0x4D8C, symBinAddr: 0xD5EC, symSize: 0x30 }
  - { offset: 0x6DF1E, size: 0x8, addend: 0x0, symName: __ZN4core9panicking13assert_failed17h99c66996ff91b7feE, symObjAddr: 0xC9C4, symBinAddr: 0x8E658, symSize: 0x24 }
  - { offset: 0x6DF39, size: 0x8, addend: 0x0, symName: __ZN4core9panicking13assert_failed17hc6ead09296598cbeE, symObjAddr: 0xC9E8, symBinAddr: 0x8E67C, symSize: 0x24 }
  - { offset: 0x6DF54, size: 0x8, addend: 0x0, symName: __ZN4core9panicking13assert_failed17hf323cff60d46c785E, symObjAddr: 0xCA0C, symBinAddr: 0x8E6A0, symSize: 0x34 }
  - { offset: 0x6E75B, size: 0x8, addend: 0x0, symName: '__ZN3std9panicking41begin_panic$u7b$$u7b$reify.shim$u7d$$u7d$17h632f3ed2a7708a09E', symObjAddr: 0x1CC, symBinAddr: 0x8E500, symSize: 0x14 }
  - { offset: 0x6E808, size: 0x8, addend: 0x0, symName: __ZN3std9panicking11panic_count8increase17hc99180f9d8014f20E, symObjAddr: 0x3B16C, symBinAddr: 0x4261C, symSize: 0x88 }
  - { offset: 0x6E8DE, size: 0x8, addend: 0x0, symName: __ZN3std9panicking11panic_count19finished_panic_hook17h2221fb8632c8fbf0E, symObjAddr: 0x3B1F4, symBinAddr: 0x426A4, symSize: 0x24 }
  - { offset: 0x6E97C, size: 0x8, addend: 0x0, symName: __ZN3std9panicking11panic_count8decrease17h4ab3297721477934E, symObjAddr: 0x3B218, symBinAddr: 0x426C8, symSize: 0x58 }
  - { offset: 0x6EA5D, size: 0x8, addend: 0x0, symName: __ZN3std9panicking11panic_count9get_count17h5e6f89b9312db063E, symObjAddr: 0x3B270, symBinAddr: 0x42720, symSize: 0x24 }
  - { offset: 0x6EAB4, size: 0x8, addend: 0x0, symName: __ZN3std9panicking11panic_count17is_zero_slow_path17hc4d1a3e3ef7c5bafE, symObjAddr: 0x3B294, symBinAddr: 0x8F890, symSize: 0x2C }
  - { offset: 0x6EBA7, size: 0x8, addend: 0x0, symName: __ZN3std9panicking3try7cleanup17hbfd29db929f1ced1E, symObjAddr: 0x3B2C0, symBinAddr: 0x8F8BC, symSize: 0x5C }
  - { offset: 0x6ECE6, size: 0x8, addend: 0x0, symName: __RNvCs691rhTbG0Ee_7___rustc17___rust_drop_panic, symObjAddr: 0x3A760, symBinAddr: 0x41C10, symSize: 0xBC }
  - { offset: 0x6EEF5, size: 0x8, addend: 0x0, symName: __RNvCs691rhTbG0Ee_7___rustc24___rust_foreign_exception, symObjAddr: 0x3A81C, symBinAddr: 0x41CCC, symSize: 0xBC }
  - { offset: 0x6F112, size: 0x8, addend: 0x0, symName: __ZN3std9panicking8set_hook17h11e975bb0468639cE, symObjAddr: 0x3A8D8, symBinAddr: 0x41D88, symSize: 0x190 }
  - { offset: 0x6F3EF, size: 0x8, addend: 0x0, symName: __ZN3std9panicking9take_hook17h2c46960d6771f105E, symObjAddr: 0x3AA68, symBinAddr: 0x41F18, symSize: 0x10C }
  - { offset: 0x6F5CA, size: 0x8, addend: 0x0, symName: __ZN3std9panicking12default_hook17h5e30981d119f8609E, symObjAddr: 0x3AB74, symBinAddr: 0x42024, symSize: 0x1C8 }
  - { offset: 0x6F905, size: 0x8, addend: 0x0, symName: '__ZN3std9panicking12default_hook28_$u7b$$u7b$closure$u7d$$u7d$17hec03589be79dfed1E', symObjAddr: 0x3AD3C, symBinAddr: 0x421EC, symSize: 0x1AC }
  - { offset: 0x6FAF1, size: 0x8, addend: 0x0, symName: '__ZN3std9panicking12default_hook28_$u7b$$u7b$closure$u7d$$u7d$28_$u7b$$u7b$closure$u7d$$u7d$17h1c9cd6a903665d1fE', symObjAddr: 0x3AEE8, symBinAddr: 0x42398, symSize: 0x284 }
  - { offset: 0x6FFA0, size: 0x8, addend: 0x0, symName: __RNvCs691rhTbG0Ee_7___rustc17rust_begin_unwind, symObjAddr: 0x3B31C, symBinAddr: 0x42744, symSize: 0x20 }
  - { offset: 0x7000F, size: 0x8, addend: 0x0, symName: '__ZN102_$LT$std..panicking..begin_panic_handler..FormatStringPayload$u20$as$u20$core..panic..PanicPayload$GT$8take_box17h2daf26e0eaa0f63fE', symObjAddr: 0x3B33C, symBinAddr: 0x42764, symSize: 0x120 }
  - { offset: 0x702A9, size: 0x8, addend: 0x0, symName: '__ZN102_$LT$std..panicking..begin_panic_handler..FormatStringPayload$u20$as$u20$core..panic..PanicPayload$GT$3get17h1d2ea44da5c12720E', symObjAddr: 0x3B45C, symBinAddr: 0x42884, symSize: 0xB0 }
  - { offset: 0x703F1, size: 0x8, addend: 0x0, symName: '__ZN95_$LT$std..panicking..begin_panic_handler..FormatStringPayload$u20$as$u20$core..fmt..Display$GT$3fmt17h28daa8b0935b65f0E', symObjAddr: 0x3B50C, symBinAddr: 0x42934, symSize: 0x5C }
  - { offset: 0x704F8, size: 0x8, addend: 0x0, symName: '__ZN99_$LT$std..panicking..begin_panic_handler..StaticStrPayload$u20$as$u20$core..panic..PanicPayload$GT$8take_box17hd5b09bcf59b37412E', symObjAddr: 0x3B568, symBinAddr: 0x42990, symSize: 0x50 }
  - { offset: 0x70574, size: 0x8, addend: 0x0, symName: '__ZN99_$LT$std..panicking..begin_panic_handler..StaticStrPayload$u20$as$u20$core..panic..PanicPayload$GT$3get17hedc18ac1643dfaf1E', symObjAddr: 0x3B5B8, symBinAddr: 0x429E0, symSize: 0x18 }
  - { offset: 0x7058F, size: 0x8, addend: 0x0, symName: '__ZN99_$LT$std..panicking..begin_panic_handler..StaticStrPayload$u20$as$u20$core..panic..PanicPayload$GT$6as_str17h98cc4fba7430d7e9E', symObjAddr: 0x3B5D0, symBinAddr: 0x429F8, symSize: 0x18 }
  - { offset: 0x705B1, size: 0x8, addend: 0x0, symName: '__ZN92_$LT$std..panicking..begin_panic_handler..StaticStrPayload$u20$as$u20$core..fmt..Display$GT$3fmt17hb128679eea8d14f8E', symObjAddr: 0x3B5E8, symBinAddr: 0x42A10, symSize: 0x1C }
  - { offset: 0x705CD, size: 0x8, addend: 0x0, symName: '__ZN3std9panicking19begin_panic_handler28_$u7b$$u7b$closure$u7d$$u7d$17h806998b99bc034a5E', symObjAddr: 0x3B604, symBinAddr: 0x42A2C, symSize: 0xC4 }
  - { offset: 0x70735, size: 0x8, addend: 0x0, symName: __ZN3std9panicking11begin_panic17h766042ebb126afc8E, symObjAddr: 0x3B6C8, symBinAddr: 0x8F918, symSize: 0x1C }
  - { offset: 0x7075C, size: 0x8, addend: 0x0, symName: '__ZN91_$LT$std..panicking..begin_panic..Payload$LT$A$GT$$u20$as$u20$core..panic..PanicPayload$GT$8take_box17h0d94a54a1008f98aE', symObjAddr: 0x3B6E4, symBinAddr: 0x42AF0, symSize: 0x5C }
  - { offset: 0x70805, size: 0x8, addend: 0x0, symName: '__ZN91_$LT$std..panicking..begin_panic..Payload$LT$A$GT$$u20$as$u20$core..panic..PanicPayload$GT$3get17hb67f1f5573f087e8E', symObjAddr: 0x3B740, symBinAddr: 0x42B4C, symSize: 0x20 }
  - { offset: 0x70827, size: 0x8, addend: 0x0, symName: '__ZN84_$LT$std..panicking..begin_panic..Payload$LT$A$GT$$u20$as$u20$core..fmt..Display$GT$3fmt17heeaa8d9105d4c82aE', symObjAddr: 0x3B760, symBinAddr: 0x42B6C, symSize: 0x24 }
  - { offset: 0x7085A, size: 0x8, addend: 0x0, symName: '__ZN3std9panicking11begin_panic28_$u7b$$u7b$closure$u7d$$u7d$17h4ac3d93ac6c18c6dE', symObjAddr: 0x3B784, symBinAddr: 0x42B90, symSize: 0x30 }
  - { offset: 0x70884, size: 0x8, addend: 0x0, symName: __ZN3std9panicking14payload_as_str17h7c1af7f84523e3a6E, symObjAddr: 0x3B7B4, symBinAddr: 0x42BC0, symSize: 0xB0 }
  - { offset: 0x70972, size: 0x8, addend: 0x0, symName: __ZN3std9panicking20rust_panic_with_hook17h75fd298c5828de31E, symObjAddr: 0x3B864, symBinAddr: 0x42C70, symSize: 0x414 }
  - { offset: 0x71233, size: 0x8, addend: 0x0, symName: __ZN3std9panicking23rust_panic_without_hook17had4595fa22a468d2E, symObjAddr: 0x3BC78, symBinAddr: 0x8F934, symSize: 0xDC }
  - { offset: 0x71444, size: 0x8, addend: 0x0, symName: '__ZN96_$LT$std..panicking..rust_panic_without_hook..RewrapBox$u20$as$u20$core..panic..PanicPayload$GT$8take_box17hb0330c1285d0dbd1E', symObjAddr: 0x3BD54, symBinAddr: 0x43084, symSize: 0x28 }
  - { offset: 0x71476, size: 0x8, addend: 0x0, symName: '__ZN96_$LT$std..panicking..rust_panic_without_hook..RewrapBox$u20$as$u20$core..panic..PanicPayload$GT$3get17ha3460e91b5b571f7E', symObjAddr: 0x3BD7C, symBinAddr: 0x430AC, symSize: 0x18 }
  - { offset: 0x71498, size: 0x8, addend: 0x0, symName: '__ZN89_$LT$std..panicking..rust_panic_without_hook..RewrapBox$u20$as$u20$core..fmt..Display$GT$3fmt17hc15603fdcdb1d863E', symObjAddr: 0x3BD94, symBinAddr: 0x430C4, symSize: 0x20 }
  - { offset: 0x714B5, size: 0x8, addend: 0x0, symName: __RNvCs691rhTbG0Ee_7___rustc10rust_panic, symObjAddr: 0x3BDB4, symBinAddr: 0x8FA10, symSize: 0x60 }
  - { offset: 0x7151B, size: 0x8, addend: 0x0, symName: '__ZN65_$LT$std..sys..fd..unix..FileDesc$u20$as$u20$core..fmt..Debug$GT$3fmt17h9dca99878eec93aeE', symObjAddr: 0x3F4B8, symBinAddr: 0x4663C, symSize: 0x40 }
  - { offset: 0x715E7, size: 0x8, addend: 0x0, symName: __ZN3std3sys2fd4unix8FileDesc4read17hda03461df87943faE, symObjAddr: 0x3ED00, symBinAddr: 0x45E84, symSize: 0x58 }
  - { offset: 0x716DA, size: 0x8, addend: 0x0, symName: __ZN3std3sys2fd4unix8FileDesc13read_vectored17hbacd67fb05b29789E, symObjAddr: 0x3ED58, symBinAddr: 0x45EDC, symSize: 0x58 }
  - { offset: 0x717CD, size: 0x8, addend: 0x0, symName: __ZN3std3sys2fd4unix8FileDesc11read_to_end17h4985e07db8882682E, symObjAddr: 0x3EDB0, symBinAddr: 0x45F34, symSize: 0x23C }
  - { offset: 0x71C10, size: 0x8, addend: 0x0, symName: __ZN3std3sys2fd4unix8FileDesc7read_at17h0cbb591480242f2fE, symObjAddr: 0x3EFEC, symBinAddr: 0x46170, symSize: 0x58 }
  - { offset: 0x71D03, size: 0x8, addend: 0x0, symName: __ZN3std3sys2fd4unix8FileDesc8read_buf17hf70af79a9ff07a24E, symObjAddr: 0x3F044, symBinAddr: 0x461C8, symSize: 0x78 }
  - { offset: 0x71EAF, size: 0x8, addend: 0x0, symName: __ZN3std3sys2fd4unix8FileDesc16read_vectored_at17hf2b02785b9c8507cE, symObjAddr: 0x3F0BC, symBinAddr: 0x46240, symSize: 0x10C }
  - { offset: 0x7205D, size: 0x8, addend: 0x0, symName: __ZN3std3sys2fd4unix8FileDesc5write17hae92091641929944E, symObjAddr: 0x3F1C8, symBinAddr: 0x4634C, symSize: 0x58 }
  - { offset: 0x72153, size: 0x8, addend: 0x0, symName: __ZN3std3sys2fd4unix8FileDesc14write_vectored17h066678a1c0ab0f2cE, symObjAddr: 0x3F220, symBinAddr: 0x463A4, symSize: 0x58 }
  - { offset: 0x72249, size: 0x8, addend: 0x0, symName: __ZN3std3sys2fd4unix8FileDesc8write_at17h9d33c68a2e4eb190E, symObjAddr: 0x3F278, symBinAddr: 0x463FC, symSize: 0x58 }
  - { offset: 0x7233F, size: 0x8, addend: 0x0, symName: __ZN3std3sys2fd4unix8FileDesc17write_vectored_at17h79a0031d38a25009E, symObjAddr: 0x3F2D0, symBinAddr: 0x46454, symSize: 0x10C }
  - { offset: 0x724EE, size: 0x8, addend: 0x0, symName: __ZN3std3sys2fd4unix8FileDesc11set_cloexec17hc60d4724cdd62d84E, symObjAddr: 0x3F3DC, symBinAddr: 0x46560, symSize: 0x40 }
  - { offset: 0x725A1, size: 0x8, addend: 0x0, symName: __ZN3std3sys2fd4unix8FileDesc15set_nonblocking17hea2bc57303be7d74E, symObjAddr: 0x3F41C, symBinAddr: 0x465A0, symSize: 0x88 }
  - { offset: 0x727E3, size: 0x8, addend: 0x0, symName: '__ZN73_$LT$std..sys..fd..unix..FileDesc$u20$as$u20$std..os..fd..owned..AsFd$GT$5as_fd17hd7c9ed0b06f256ddE', symObjAddr: 0x3F4A4, symBinAddr: 0x46628, symSize: 0x14 }
  - { offset: 0x72B22, size: 0x8, addend: 0x0, symName: '__ZN69_$LT$std..sys..os_str..bytes..Slice$u20$as$u20$core..fmt..Display$GT$3fmt17h410b0021fd833f04E', symObjAddr: 0x42694, symBinAddr: 0x49818, symSize: 0xA0 }
  - { offset: 0x72B68, size: 0x8, addend: 0x0, symName: '__ZN67_$LT$std..sys..os_str..bytes..Buf$u20$as$u20$core..fmt..Display$GT$3fmt17hcc04cb0a84fe3896E', symObjAddr: 0x425E8, symBinAddr: 0x4976C, symSize: 0xAC }
  - { offset: 0x72C3F, size: 0x8, addend: 0x0, symName: __ZN3std3sys6os_str5bytes5Slice21check_public_boundary9slow_path17h8f89d3fa65156f48E, symObjAddr: 0x42734, symBinAddr: 0x498B8, symSize: 0x138 }
  - { offset: 0x72E0D, size: 0x8, addend: 0x0, symName: '__ZN78_$LT$std..sys..process..unix..unix..ExitStatus$u20$as$u20$core..fmt..Debug$GT$3fmt17hd5be24ea338873d7E', symObjAddr: 0x45808, symBinAddr: 0x4C98C, symSize: 0x58 }
  - { offset: 0x72E6E, size: 0x8, addend: 0x0, symName: __ZN3std3sys7process4unix4unix7Process4wait17h7cf8f27c4fcd6c4aE, symObjAddr: 0x45768, symBinAddr: 0x4C8EC, symSize: 0xA0 }
  - { offset: 0x7306A, size: 0x8, addend: 0x0, symName: '__ZN166_$LT$std..sys..process..unix..unix..$LT$impl$u20$std..sys..process..unix..common..Command$GT$..posix_spawn..PosixSpawnFileActions$u20$as$u20$core..ops..drop..Drop$GT$4drop17hcbb68d20854e69eeE', symObjAddr: 0x45740, symBinAddr: 0x4C8C4, symSize: 0x14 }
  - { offset: 0x73093, size: 0x8, addend: 0x0, symName: '__ZN159_$LT$std..sys..process..unix..unix..$LT$impl$u20$std..sys..process..unix..common..Command$GT$..posix_spawn..PosixSpawnattr$u20$as$u20$core..ops..drop..Drop$GT$4drop17had799ccbcc3c5cefE', symObjAddr: 0x45754, symBinAddr: 0x4C8D8, symSize: 0x14 }
  - { offset: 0x730FB, size: 0x8, addend: 0x0, symName: '__ZN146_$LT$std..sys..process..unix..unix..$LT$impl$u20$std..sys..process..unix..common..Command$GT$..do_exec..Reset$u20$as$u20$core..ops..drop..Drop$GT$4drop17h0c4c99dfa8acd4a4E', symObjAddr: 0x4571C, symBinAddr: 0x4C8A0, symSize: 0x24 }
  - { offset: 0x7313D, size: 0x8, addend: 0x0, symName: '__ZN80_$LT$std..sys..process..unix..unix..ExitStatus$u20$as$u20$core..fmt..Display$GT$3fmt17hd304b4a6ae3a6296E', symObjAddr: 0x45860, symBinAddr: 0x4C9E4, symSize: 0x1F8 }
  - { offset: 0x73302, size: 0x8, addend: 0x0, symName: '__ZN83_$LT$std..sys..process..unix..unix..ExitStatusError$u20$as$u20$core..fmt..Debug$GT$3fmt17h7d6052339ba47962E', symObjAddr: 0x45A58, symBinAddr: 0x4CBDC, symSize: 0x58 }
  - { offset: 0x73391, size: 0x8, addend: 0x0, symName: __ZN3std3sys7process4unix6common7Command3new17hf2ab462acf6cbab4E, symObjAddr: 0x42C08, symBinAddr: 0x49D8C, symSize: 0x2C8 }
  - { offset: 0x73934, size: 0x8, addend: 0x0, symName: __ZN3std3sys7process4unix6common7Command9set_arg_017h5b09171cebb57736E, symObjAddr: 0x42ED0, symBinAddr: 0x4A054, symSize: 0x134 }
  - { offset: 0x73D08, size: 0x8, addend: 0x0, symName: __ZN3std3sys7process4unix6common7Command3arg17h172242d08e8936a8E, symObjAddr: 0x43004, symBinAddr: 0x4A188, symSize: 0x15C }
  - { offset: 0x740AB, size: 0x8, addend: 0x0, symName: __ZN3std3sys7process4unix6common7Command3cwd17h34edc4f8581c4949E, symObjAddr: 0x43160, symBinAddr: 0x4A2E4, symSize: 0xD4 }
  - { offset: 0x742FC, size: 0x8, addend: 0x0, symName: __ZN3std3sys7process4unix6common7Command8pre_exec17hfc258d3a0c4e1df7E, symObjAddr: 0x43234, symBinAddr: 0x4A3B8, symSize: 0x78 }
  - { offset: 0x743DB, size: 0x8, addend: 0x0, symName: __ZN3std3sys7process4unix6common7Command5stdin17h0f330386fb270b1aE, symObjAddr: 0x432AC, symBinAddr: 0x4A430, symSize: 0x44 }
  - { offset: 0x74469, size: 0x8, addend: 0x0, symName: __ZN3std3sys7process4unix6common7Command6stdout17h610be996846ab140E, symObjAddr: 0x432F0, symBinAddr: 0x4A474, symSize: 0x44 }
  - { offset: 0x744F7, size: 0x8, addend: 0x0, symName: __ZN3std3sys7process4unix6common7Command6stderr17h92daef7853921bf1E, symObjAddr: 0x43334, symBinAddr: 0x4A4B8, symSize: 0x44 }
  - { offset: 0x74585, size: 0x8, addend: 0x0, symName: __ZN3std3sys7process4unix6common7Command11capture_env17hd26e2cc5467e3607E, symObjAddr: 0x43378, symBinAddr: 0x4A4FC, symSize: 0xA74 }
  - { offset: 0x76332, size: 0x8, addend: 0x0, symName: __ZN3std3sys7process4unix6common7Command8setup_io17h8178a1beb745480eE, symObjAddr: 0x43DEC, symBinAddr: 0x4AF70, symSize: 0x2F4 }
  - { offset: 0x7682A, size: 0x8, addend: 0x0, symName: '__ZN3std3sys7process4unix4unix58_$LT$impl$u20$std..sys..process..unix..common..Command$GT$5spawn17h567d0ebc472aba6cE', symObjAddr: 0x44A18, symBinAddr: 0x4BB9C, symSize: 0x998 }
  - { offset: 0x77B01, size: 0x8, addend: 0x0, symName: '__ZN3std3sys7process4unix4unix58_$LT$impl$u20$std..sys..process..unix..common..Command$GT$7do_exec17h47f597b59c4672b4E', symObjAddr: 0x453B0, symBinAddr: 0x4C534, symSize: 0x36C }
  - { offset: 0x78444, size: 0x8, addend: 0x0, symName: '__ZN103_$LT$std..sys..process..unix..common..CommandArgs$u20$as$u20$core..iter..traits..iterator..Iterator$GT$4next17h3a0aaae2459ced32E', symObjAddr: 0x44928, symBinAddr: 0x4BAAC, symSize: 0x34 }
  - { offset: 0x7845C, size: 0x8, addend: 0x0, symName: '__ZN103_$LT$std..sys..process..unix..common..CommandArgs$u20$as$u20$core..iter..traits..iterator..Iterator$GT$4next17h3a0aaae2459ced32E', symObjAddr: 0x44928, symBinAddr: 0x4BAAC, symSize: 0x34 }
  - { offset: 0x784C9, size: 0x8, addend: 0x0, symName: '__ZN103_$LT$std..sys..process..unix..common..CommandArgs$u20$as$u20$core..iter..traits..iterator..Iterator$GT$9size_hint17ha7a6303393d8e4e6E', symObjAddr: 0x4495C, symBinAddr: 0x4BAE0, symSize: 0x28 }
  - { offset: 0x7854D, size: 0x8, addend: 0x0, symName: '__ZN114_$LT$std..sys..process..unix..common..CommandArgs$u20$as$u20$core..iter..traits..exact_size..ExactSizeIterator$GT$3len17hd7d718b36fd23a4dE', symObjAddr: 0x44984, symBinAddr: 0x4BB08, symSize: 0x1C }
  - { offset: 0x78678, size: 0x8, addend: 0x0, symName: __ZN3std3sys7process4unix6common5Stdio14to_child_stdio17ha12cb3b5f4dc4165E, symObjAddr: 0x440E0, symBinAddr: 0x4B264, symSize: 0x15C }
  - { offset: 0x787B6, size: 0x8, addend: 0x0, symName: '__ZN77_$LT$std..sys..process..unix..common..Command$u20$as$u20$core..fmt..Debug$GT$3fmt17h07c74b6da2fe3943E', symObjAddr: 0x4423C, symBinAddr: 0x4B3C0, symSize: 0x694 }
  - { offset: 0x78F61, size: 0x8, addend: 0x0, symName: '__ZN78_$LT$std..sys..process..unix..common..ExitCode$u20$as$u20$core..fmt..Debug$GT$3fmt17h7a9d023788039a2cE', symObjAddr: 0x448D0, symBinAddr: 0x4BA54, symSize: 0x58 }
  - { offset: 0x78F83, size: 0x8, addend: 0x0, symName: '__ZN81_$LT$std..sys..process..unix..common..CommandArgs$u20$as$u20$core..fmt..Debug$GT$3fmt17h5839d42ec16d2203E', symObjAddr: 0x449A0, symBinAddr: 0x4BB24, symSize: 0x78 }
  - { offset: 0x7903C, size: 0x8, addend: 0x0, symName: __ZN3std3sys7process3env10CommandEnv3set17h8cef9182ae31d62bE, symObjAddr: 0x391D4, symBinAddr: 0x4092C, symSize: 0x1A8 }
  - { offset: 0x79535, size: 0x8, addend: 0x0, symName: __ZN3std3sys7process3env10CommandEnv6remove17ha627fcb0b903f65cE, symObjAddr: 0x3937C, symBinAddr: 0x40AD4, symSize: 0x3C0 }
  - { offset: 0x7A0D8, size: 0x8, addend: 0x0, symName: '__ZN94_$LT$std..sys..process..env..CommandEnvs$u20$as$u20$core..iter..traits..iterator..Iterator$GT$4next17h3b3b29d4c96242f8E', symObjAddr: 0x3973C, symBinAddr: 0x40E94, symSize: 0x50 }
  - { offset: 0x7A161, size: 0x8, addend: 0x0, symName: '__ZN71_$LT$std..sys..process..env..CommandEnv$u20$as$u20$core..fmt..Debug$GT$3fmt17hffaf54c3cd17176cE', symObjAddr: 0x39150, symBinAddr: 0x408A8, symSize: 0x84 }
  - { offset: 0x7A1AB, size: 0x8, addend: 0x0, symName: '__ZN72_$LT$std..sys..fs..unix..FilePermissions$u20$as$u20$core..fmt..Debug$GT$3fmt17hd997d4c7be35257cE', symObjAddr: 0x3F564, symBinAddr: 0x466E8, symSize: 0x6C }
  - { offset: 0x7A23D, size: 0x8, addend: 0x0, symName: __ZN3std3sys2fs4unix15remove_dir_impl24remove_dir_all_recursive17h24a4decf58824ddbE, symObjAddr: 0x40D5C, symBinAddr: 0x47EE0, symSize: 0x368 }
  - { offset: 0x7AC6B, size: 0x8, addend: 0x0, symName: __ZN3std3sys2fs4unix4File6open_c17hf65fded42f76f39bE, symObjAddr: 0x3FAA4, symBinAddr: 0x46C28, symSize: 0x1B0 }
  - { offset: 0x7AD55, size: 0x8, addend: 0x0, symName: __ZN3std3sys2fs4unix4File4read17hd1f789af44ddd7efE, symObjAddr: 0x3FC54, symBinAddr: 0x46DD8, symSize: 0x58 }
  - { offset: 0x7AE5F, size: 0x8, addend: 0x0, symName: __ZN3std3sys2fs4unix4File13read_vectored17h8d5447997f1a7963E, symObjAddr: 0x3FCAC, symBinAddr: 0x46E30, symSize: 0x58 }
  - { offset: 0x7AF69, size: 0x8, addend: 0x0, symName: __ZN3std3sys2fs4unix4File8read_buf17h7ab3b9e6952f837dE, symObjAddr: 0x3FD04, symBinAddr: 0x46E88, symSize: 0x78 }
  - { offset: 0x7B2BB, size: 0x8, addend: 0x0, symName: '__ZN86_$LT$std..sys..fs..unix..ReadDir$u20$as$u20$core..iter..traits..iterator..Iterator$GT$4next17h249334240564dbb8E', symObjAddr: 0x3F5FC, symBinAddr: 0x46780, symSize: 0x144 }
  - { offset: 0x7B5C1, size: 0x8, addend: 0x0, symName: __ZN3std3sys2fs4unix8DirEntry8metadata17hb5b4459496019a9eE, symObjAddr: 0x3F80C, symBinAddr: 0x46990, symSize: 0x178 }
  - { offset: 0x7BBBD, size: 0x8, addend: 0x0, symName: '__ZN3std3sys2fs4unix10DirBuilder5mkdir28_$u7b$$u7b$closure$u7d$$u7d$17hfe111f6c6fe3f5acE', symObjAddr: 0x3FD7C, symBinAddr: 0x46F00, symSize: 0x44 }
  - { offset: 0x7BD54, size: 0x8, addend: 0x0, symName: '__ZN78_$LT$std..sys..fs..unix..copy..FreeOnDrop$u20$as$u20$core..ops..drop..Drop$GT$4drop17h55414ee75135acf1E', symObjAddr: 0x40830, symBinAddr: 0x479B4, symSize: 0x14 }
  - { offset: 0x7BD69, size: 0x8, addend: 0x0, symName: '__ZN3std3sys2fs4unix4copy28_$u7b$$u7b$closure$u7d$$u7d$17h9057b76d856785e5E', symObjAddr: 0x40844, symBinAddr: 0x479C8, symSize: 0x64 }
  - { offset: 0x7BE5E, size: 0x8, addend: 0x0, symName: '__ZN65_$LT$std..sys..fs..unix..FileType$u20$as$u20$core..fmt..Debug$GT$3fmt17hfb1cf5d151cbc993E', symObjAddr: 0x3F4F8, symBinAddr: 0x4667C, symSize: 0x6C }
  - { offset: 0x7BE80, size: 0x8, addend: 0x0, symName: '__ZN64_$LT$std..sys..fs..unix..ReadDir$u20$as$u20$core..fmt..Debug$GT$3fmt17h2a1b2fd0fbbaf511E', symObjAddr: 0x3F5D0, symBinAddr: 0x46754, symSize: 0x2C }
  - { offset: 0x7C03C, size: 0x8, addend: 0x0, symName: '__ZN65_$LT$std..sys..fs..unix..Dir$u20$as$u20$core..ops..drop..Drop$GT$4drop17h0344b95dc975780dE', symObjAddr: 0x3F740, symBinAddr: 0x468C4, symSize: 0xCC }
  - { offset: 0x7C114, size: 0x8, addend: 0x0, symName: '__ZN68_$LT$std..sys..fs..unix..OpenOptions$u20$as$u20$core..fmt..Debug$GT$3fmt17hb9ca687b39016f7bE', symObjAddr: 0x3F984, symBinAddr: 0x46B08, symSize: 0x120 }
  - { offset: 0x7C136, size: 0x8, addend: 0x0, symName: '__ZN67_$LT$std..sys..fs..unix..DirBuilder$u20$as$u20$core..fmt..Debug$GT$3fmt17he36daf98589575a0E', symObjAddr: 0x3FDC0, symBinAddr: 0x46F44, symSize: 0x6C }
  - { offset: 0x7C158, size: 0x8, addend: 0x0, symName: '__ZN72_$LT$std..sys..fs..unix..File$u20$as$u20$std..os..fd..raw..FromRawFd$GT$11from_raw_fd17hff78da0b4a575729E', symObjAddr: 0x3FE2C, symBinAddr: 0x46FB0, symSize: 0x2C }
  - { offset: 0x7C193, size: 0x8, addend: 0x0, symName: '__ZN72_$LT$std..sys..fs..unix..File$u20$as$u20$std..os..fd..raw..FromRawFd$GT$11from_raw_fd17hff78da0b4a575729E', symObjAddr: 0x3FE2C, symBinAddr: 0x46FB0, symSize: 0x2C }
  - { offset: 0x7C1E6, size: 0x8, addend: 0x0, symName: '__ZN61_$LT$std..sys..fs..unix..File$u20$as$u20$core..fmt..Debug$GT$3fmt17h10d3a2996460ba9eE', symObjAddr: 0x3FE58, symBinAddr: 0x46FDC, symSize: 0x23C }
  - { offset: 0x7C69A, size: 0x8, addend: 0x0, symName: '__ZN61_$LT$std..sys..fs..unix..Mode$u20$as$u20$core..fmt..Debug$GT$3fmt17hbd97f6412561e0beE', symObjAddr: 0x40094, symBinAddr: 0x47218, symSize: 0x300 }
  - { offset: 0x7C6E4, size: 0x8, addend: 0x0, symName: __ZN3std3sys2fs4unix8readlink17h9a5f7e5704659833E, symObjAddr: 0x40394, symBinAddr: 0x47518, symSize: 0x1A4 }
  - { offset: 0x7CAA4, size: 0x8, addend: 0x0, symName: __ZN3std3sys2fs4unix12canonicalize17hfa903c576303988eE, symObjAddr: 0x40538, symBinAddr: 0x476BC, symSize: 0xD0 }
  - { offset: 0x7CC78, size: 0x8, addend: 0x0, symName: '__ZN77_$LT$std..sys..fs..unix..cfm..CachedFileMetadata$u20$as$u20$std..io..Read$GT$4read17hbbce431af432e749E', symObjAddr: 0x40608, symBinAddr: 0x4778C, symSize: 0x58 }
  - { offset: 0x7CDCE, size: 0x8, addend: 0x0, symName: '__ZN77_$LT$std..sys..fs..unix..cfm..CachedFileMetadata$u20$as$u20$std..io..Read$GT$13read_vectored17hb5d9db7bfbbe2de2E', symObjAddr: 0x40660, symBinAddr: 0x477E4, symSize: 0x58 }
  - { offset: 0x7CF24, size: 0x8, addend: 0x0, symName: '__ZN77_$LT$std..sys..fs..unix..cfm..CachedFileMetadata$u20$as$u20$std..io..Read$GT$8read_buf17h97573ddcbbfde39fE', symObjAddr: 0x406B8, symBinAddr: 0x4783C, symSize: 0x78 }
  - { offset: 0x7D133, size: 0x8, addend: 0x0, symName: '__ZN77_$LT$std..sys..fs..unix..cfm..CachedFileMetadata$u20$as$u20$std..io..Read$GT$11read_to_end17h7910a148cd61e15eE', symObjAddr: 0x40730, symBinAddr: 0x478B4, symSize: 0x28 }
  - { offset: 0x7D165, size: 0x8, addend: 0x0, symName: '__ZN77_$LT$std..sys..fs..unix..cfm..CachedFileMetadata$u20$as$u20$std..io..Read$GT$14read_to_string17h830bca5d9761f936E', symObjAddr: 0x40758, symBinAddr: 0x478DC, symSize: 0x28 }
  - { offset: 0x7D19E, size: 0x8, addend: 0x0, symName: '__ZN78_$LT$std..sys..fs..unix..cfm..CachedFileMetadata$u20$as$u20$std..io..Write$GT$5write17haa13ad541462a937E', symObjAddr: 0x40780, symBinAddr: 0x47904, symSize: 0x58 }
  - { offset: 0x7D2CA, size: 0x8, addend: 0x0, symName: '__ZN78_$LT$std..sys..fs..unix..cfm..CachedFileMetadata$u20$as$u20$std..io..Write$GT$14write_vectored17he6a1dfa2ada3eb7bE', symObjAddr: 0x407D8, symBinAddr: 0x4795C, symSize: 0x58 }
  - { offset: 0x7D40C, size: 0x8, addend: 0x0, symName: '__ZN3std3sys2fs4unix5chown28_$u7b$$u7b$closure$u7d$$u7d$17h8aed3b461485634fE', symObjAddr: 0x40970, symBinAddr: 0x47AF4, symSize: 0x48 }
  - { offset: 0x7D493, size: 0x8, addend: 0x0, symName: __ZN3std3sys2fs4unix5chown17h18a95ba814aee6ffE, symObjAddr: 0x408A8, symBinAddr: 0x47A2C, symSize: 0xC8 }
  - { offset: 0x7D5AA, size: 0x8, addend: 0x0, symName: __ZN3std3sys2fs4unix6fchown17hf4481885b5426c96E, symObjAddr: 0x409B8, symBinAddr: 0x47B3C, symSize: 0x34 }
  - { offset: 0x7D64B, size: 0x8, addend: 0x0, symName: '__ZN3std3sys2fs4unix6lchown28_$u7b$$u7b$closure$u7d$$u7d$17hbd13a2a027b4f925E', symObjAddr: 0x40AB4, symBinAddr: 0x47C38, symSize: 0x48 }
  - { offset: 0x7D6D2, size: 0x8, addend: 0x0, symName: __ZN3std3sys2fs4unix6lchown17ha64d78a4dfc88be7E, symObjAddr: 0x409EC, symBinAddr: 0x47B70, symSize: 0xC8 }
  - { offset: 0x7D7FD, size: 0x8, addend: 0x0, symName: '__ZN3std3sys2fs4unix6chroot28_$u7b$$u7b$closure$u7d$$u7d$17h0cdc94ba1b54593dE', symObjAddr: 0x40BBC, symBinAddr: 0x47D40, symSize: 0x38 }
  - { offset: 0x7D884, size: 0x8, addend: 0x0, symName: __ZN3std3sys2fs4unix6chroot17hcab5fac18c2991e4E, symObjAddr: 0x40AFC, symBinAddr: 0x47C80, symSize: 0xC0 }
  - { offset: 0x7D9AF, size: 0x8, addend: 0x0, symName: '__ZN3std3sys2fs4unix6mkfifo28_$u7b$$u7b$closure$u7d$$u7d$17hab404bc9de4eeda2E', symObjAddr: 0x40CE4, symBinAddr: 0x47E68, symSize: 0x78 }
  - { offset: 0x7DA79, size: 0x8, addend: 0x0, symName: __ZN3std3sys2fs4unix6mkfifo17h5b7e3ac57cd78e44E, symObjAddr: 0x40BF4, symBinAddr: 0x47D78, symSize: 0xF0 }
  - { offset: 0x7DBDE, size: 0x8, addend: 0x0, symName: __ZN3std3sys2fs8read_dir17hba16039c4f227f89E, symObjAddr: 0x37BF8, symBinAddr: 0x3F350, symSize: 0x1A4 }
  - { offset: 0x7DEA8, size: 0x8, addend: 0x0, symName: __ZN3std3sys2fs11remove_file17hd10b306d29147049E, symObjAddr: 0x37D9C, symBinAddr: 0x3F4F4, symSize: 0xC0 }
  - { offset: 0x7DFF9, size: 0x8, addend: 0x0, symName: '__ZN3std3sys2fs6rename28_$u7b$$u7b$closure$u7d$$u7d$28_$u7b$$u7b$closure$u7d$$u7d$17h32eda37e9c8875a1E', symObjAddr: 0x3803C, symBinAddr: 0x3F794, symSize: 0x38 }
  - { offset: 0x7E096, size: 0x8, addend: 0x0, symName: '__ZN3std3sys2fs6rename28_$u7b$$u7b$closure$u7d$$u7d$17h6b99859d4c62d85dE', symObjAddr: 0x37F80, symBinAddr: 0x3F6D8, symSize: 0xBC }
  - { offset: 0x7E1BC, size: 0x8, addend: 0x0, symName: __ZN3std3sys2fs6rename17h57a3dd33e783df3eE, symObjAddr: 0x37E5C, symBinAddr: 0x3F5B4, symSize: 0x124 }
  - { offset: 0x7E358, size: 0x8, addend: 0x0, symName: __ZN3std3sys2fs10remove_dir17h3025458cb696476fE, symObjAddr: 0x38074, symBinAddr: 0x3F7CC, symSize: 0xC0 }
  - { offset: 0x7E483, size: 0x8, addend: 0x0, symName: __ZN3std3sys2fs14remove_dir_all17h3b0aac3a495cbc0bE, symObjAddr: 0x38134, symBinAddr: 0x3F88C, symSize: 0x118 }
  - { offset: 0x7E601, size: 0x8, addend: 0x0, symName: __ZN3std3sys2fs9read_link17h76d7fe58a8ac07aeE, symObjAddr: 0x3824C, symBinAddr: 0x3F9A4, symSize: 0xB0 }
  - { offset: 0x7E6CA, size: 0x8, addend: 0x0, symName: '__ZN3std3sys2fs7symlink28_$u7b$$u7b$closure$u7d$$u7d$28_$u7b$$u7b$closure$u7d$$u7d$17hee6e19037b124673E', symObjAddr: 0x384DC, symBinAddr: 0x3FC34, symSize: 0x38 }
  - { offset: 0x7E767, size: 0x8, addend: 0x0, symName: '__ZN3std3sys2fs7symlink28_$u7b$$u7b$closure$u7d$$u7d$17hc09ea745721ce8b2E', symObjAddr: 0x38420, symBinAddr: 0x3FB78, symSize: 0xBC }
  - { offset: 0x7E88D, size: 0x8, addend: 0x0, symName: __ZN3std3sys2fs7symlink17h135ff3d46dab4e88E, symObjAddr: 0x382FC, symBinAddr: 0x3FA54, symSize: 0x124 }
  - { offset: 0x7EA4F, size: 0x8, addend: 0x0, symName: '__ZN3std3sys2fs9hard_link28_$u7b$$u7b$closure$u7d$$u7d$28_$u7b$$u7b$closure$u7d$$u7d$17ha81ec8c3b23859a6E', symObjAddr: 0x3870C, symBinAddr: 0x3FE64, symSize: 0x48 }
  - { offset: 0x7EAEC, size: 0x8, addend: 0x0, symName: '__ZN3std3sys2fs9hard_link28_$u7b$$u7b$closure$u7d$$u7d$17hc8b53951f980ac90E', symObjAddr: 0x38644, symBinAddr: 0x3FD9C, symSize: 0xC8 }
  - { offset: 0x7EC12, size: 0x8, addend: 0x0, symName: __ZN3std3sys2fs9hard_link17he43bb22039613004E, symObjAddr: 0x38514, symBinAddr: 0x3FC6C, symSize: 0x130 }
  - { offset: 0x7EDAE, size: 0x8, addend: 0x0, symName: __ZN3std3sys2fs8metadata17h539e35904aa68970E, symObjAddr: 0x38754, symBinAddr: 0x3FEAC, symSize: 0x128 }
  - { offset: 0x7EF26, size: 0x8, addend: 0x0, symName: __ZN3std3sys2fs16symlink_metadata17had8b3af68de4589cE, symObjAddr: 0x3887C, symBinAddr: 0x3FFD4, symSize: 0x128 }
  - { offset: 0x7F0B1, size: 0x8, addend: 0x0, symName: '__ZN3std3sys2fs15set_permissions28_$u7b$$u7b$closure$u7d$$u7d$17hfa89322761926c0bE', symObjAddr: 0x38A80, symBinAddr: 0x401D8, symSize: 0x68 }
  - { offset: 0x7F190, size: 0x8, addend: 0x0, symName: __ZN3std3sys2fs15set_permissions17hc89227b155df1622E, symObjAddr: 0x389A4, symBinAddr: 0x400FC, symSize: 0xDC }
  - { offset: 0x7F2FD, size: 0x8, addend: 0x0, symName: __ZN3std3sys2fs12canonicalize17h6861b546f2b2acbdE, symObjAddr: 0x38AE8, symBinAddr: 0x40240, symSize: 0xB0 }
  - { offset: 0x7F3A0, size: 0x8, addend: 0x0, symName: __ZN3std3sys2fs4copy17h25333dda7da6a3fbE, symObjAddr: 0x38B98, symBinAddr: 0x402F0, symSize: 0x39C }
  - { offset: 0x7FD0A, size: 0x8, addend: 0x0, symName: __ZN3std3sys2fs6exists17h26400b8753d8cedaE, symObjAddr: 0x38F34, symBinAddr: 0x4068C, symSize: 0x21C }
  - { offset: 0x80123, size: 0x8, addend: 0x0, symName: '__ZN94_$LT$std..sys..pal..unix..os..SplitPaths$u20$as$u20$core..iter..traits..iterator..Iterator$GT$4next17hb11089eee72bc054E', symObjAddr: 0x3CEC4, symBinAddr: 0x44138, symSize: 0xA8 }
  - { offset: 0x8027F, size: 0x8, addend: 0x0, symName: '__ZN78_$LT$std..sys..pal..unix..os..JoinPathsError$u20$as$u20$core..fmt..Display$GT$3fmt17h9083b0c6f329504dE', symObjAddr: 0x3CF6C, symBinAddr: 0x441E0, symSize: 0x5C }
  - { offset: 0x80381, size: 0x8, addend: 0x0, symName: '__ZN3std3sys3pal4unix2os5chdir28_$u7b$$u7b$closure$u7d$$u7d$17hb8126a1b58a90fd2E', symObjAddr: 0x3CE04, symBinAddr: 0x44078, symSize: 0x28 }
  - { offset: 0x80396, size: 0x8, addend: 0x0, symName: __ZN3std3sys3pal4unix2os5chdir17hdbf5197807210b09E, symObjAddr: 0x3CD28, symBinAddr: 0x43F9C, symSize: 0xDC }
  - { offset: 0x8049E, size: 0x8, addend: 0x0, symName: __ZN3std3sys3pal4unix2os11split_paths13bytes_to_path17he9a083bec38eb2d4E, symObjAddr: 0x3CE2C, symBinAddr: 0x440A0, symSize: 0x98 }
  - { offset: 0x80608, size: 0x8, addend: 0x0, symName: __ZN3std3sys3pal4unix2os4exit17hc3929ffb7943039aE, symObjAddr: 0x3CFC8, symBinAddr: 0x4423C, symSize: 0xC }
  - { offset: 0x8067A, size: 0x8, addend: 0x0, symName: '__ZN81_$LT$std..sys..pal..unix..sync..mutex..Mutex$u20$as$u20$core..ops..drop..Drop$GT$4drop17h9e3830939788e284E', symObjAddr: 0x3D640, symBinAddr: 0x447D0, symSize: 0x10 }
  - { offset: 0x806C9, size: 0x8, addend: 0x0, symName: __ZN3std3sys3pal4unix4sync5mutex5Mutex4init17h12c0f88ba77e8457E, symObjAddr: 0x3D3A8, symBinAddr: 0x4461C, symSize: 0x16C }
  - { offset: 0x80766, size: 0x8, addend: 0x0, symName: __ZN3std3sys3pal4unix4sync5mutex5Mutex4lock17ha039ccbf72e22272E, symObjAddr: 0x3D514, symBinAddr: 0x44788, symSize: 0x1C }
  - { offset: 0x8077A, size: 0x8, addend: 0x0, symName: __ZN3std3sys3pal4unix4sync5mutex5Mutex8try_lock17h645f86f8316b0964E, symObjAddr: 0x3D614, symBinAddr: 0x447A4, symSize: 0x1C }
  - { offset: 0x8078E, size: 0x8, addend: 0x0, symName: __ZN3std3sys3pal4unix4sync5mutex5Mutex6unlock17hd8f888a8509bba25E, symObjAddr: 0x3D630, symBinAddr: 0x447C0, symSize: 0x10 }
  - { offset: 0x807B6, size: 0x8, addend: 0x0, symName: '__ZN85_$LT$std..sys..pal..unix..sync..mutex..AttrGuard$u20$as$u20$core..ops..drop..Drop$GT$4drop17hb8bdb9de45fc532cE', symObjAddr: 0x3D650, symBinAddr: 0x447E0, symSize: 0x4C }
  - { offset: 0x807D7, size: 0x8, addend: 0x0, symName: __ZN3std3sys3pal4unix4sync5mutex5Mutex4lock4fail17hd9249e6b2588775aE, symObjAddr: 0x3D530, symBinAddr: 0x8FACC, symSize: 0xE4 }
  - { offset: 0x80B21, size: 0x8, addend: 0x0, symName: __ZN3std3sys3pal4unix6thread6Thread3new17h95abe0b603ed1101E, symObjAddr: 0x3D69C, symBinAddr: 0x4482C, symSize: 0x228 }
  - { offset: 0x80DDF, size: 0x8, addend: 0x0, symName: __ZN3std3sys3pal4unix6thread6Thread8set_name17h283ec45e9f5d753aE, symObjAddr: 0x3D948, symBinAddr: 0x44AD8, symSize: 0x70 }
  - { offset: 0x80EDB, size: 0x8, addend: 0x0, symName: __ZN3std3sys3pal4unix6thread6Thread4join17h27764625fae4a9fbE, symObjAddr: 0x3D9B8, symBinAddr: 0x44B48, symSize: 0x90 }
  - { offset: 0x80F4E, size: 0x8, addend: 0x0, symName: __ZN3std3sys3pal4unix6thread6Thread3new12thread_start17h0e8c9af386cb84b6E, symObjAddr: 0x3D8C4, symBinAddr: 0x44A54, symSize: 0x84 }
  - { offset: 0x810F6, size: 0x8, addend: 0x0, symName: '__ZN77_$LT$std..sys..pal..unix..thread..Thread$u20$as$u20$core..ops..drop..Drop$GT$4drop17h215f830818c32354E', symObjAddr: 0x3DA48, symBinAddr: 0x44BD8, symSize: 0x14 }
  - { offset: 0x81185, size: 0x8, addend: 0x0, symName: __ZN3std3sys3pal4unix4time8Timespec3now17h599a167dd6e7669eE, symObjAddr: 0x3DADC, symBinAddr: 0x44C6C, symSize: 0x114 }
  - { offset: 0x81237, size: 0x8, addend: 0x0, symName: __ZN3std3sys3pal4unix4time8Timespec12sub_timespec17h0dfa443e2346e0c9E, symObjAddr: 0x3DBF0, symBinAddr: 0x44D80, symSize: 0xDC }
  - { offset: 0x81364, size: 0x8, addend: 0x0, symName: '__ZN71_$LT$std..sys..pal..unix..time..Instant$u20$as$u20$core..fmt..Debug$GT$3fmt17hb7a92876f0f4879dE', symObjAddr: 0x3DCCC, symBinAddr: 0x44E5C, symSize: 0x80 }
  - { offset: 0x8138C, size: 0x8, addend: 0x0, symName: '__ZN74_$LT$std..sys..pal..unix..time..SystemTime$u20$as$u20$core..fmt..Debug$GT$3fmt17h1d189fd5840a457dE', symObjAddr: 0x3DA5C, symBinAddr: 0x44BEC, symSize: 0x80 }
  - { offset: 0x81467, size: 0x8, addend: 0x0, symName: __ZN3std3sys3pal4unix4pipe8AnonPipe5write17h882d18150655f528E, symObjAddr: 0x3D0FC, symBinAddr: 0x44370, symSize: 0x54 }
  - { offset: 0x8154D, size: 0x8, addend: 0x0, symName: __ZN3std3sys3pal4unix4pipe9anon_pipe17hfd796c5c58817de9E, symObjAddr: 0x3CFD4, symBinAddr: 0x44248, symSize: 0x128 }
  - { offset: 0x81864, size: 0x8, addend: 0x0, symName: __ZN3std3sys3pal4unix4pipe5read217h35dd8def63ddcd68E, symObjAddr: 0x3D150, symBinAddr: 0x443C4, symSize: 0x258 }
  - { offset: 0x81DCC, size: 0x8, addend: 0x0, symName: '__ZN3std3sys3pal4unix4weak18DlsymWeak$LT$F$GT$10initialize17h97a1dcbfa034d738E', symObjAddr: 0x3CCCC, symBinAddr: 0x8FA70, symSize: 0x5C }
  - { offset: 0x81E73, size: 0x8, addend: 0x0, symName: __ZN3std3sys3pal4unix17decode_error_kind17h80a3c5c9af494451E, symObjAddr: 0x3DD4C, symBinAddr: 0x44EDC, symSize: 0x15C }
  - { offset: 0x81E8D, size: 0x8, addend: 0x0, symName: __ZN3std3sys3pal4unix14abort_internal17h1bc06fedeb6be979E, symObjAddr: 0x3DEA8, symBinAddr: 0x8FBB0, symSize: 0xC }
  - { offset: 0x81FCB, size: 0x8, addend: 0x0, symName: __ZN3std3sys3pal6common14small_c_string24run_with_cstr_allocating17h132ef0ef5f2165a8E, symObjAddr: 0x369D0, symBinAddr: 0x8EFCC, symSize: 0xA4 }
  - { offset: 0x82133, size: 0x8, addend: 0x0, symName: __ZN3std3sys3pal6common14small_c_string24run_with_cstr_allocating17h1e852e7e1a5dce9dE, symObjAddr: 0x36A74, symBinAddr: 0x8F070, symSize: 0xD0 }
  - { offset: 0x82310, size: 0x8, addend: 0x0, symName: __ZN3std3sys3pal6common14small_c_string24run_with_cstr_allocating17h25c2edb9eab1d84dE, symObjAddr: 0x36B44, symBinAddr: 0x8F140, symSize: 0xCC }
  - { offset: 0x824ED, size: 0x8, addend: 0x0, symName: __ZN3std3sys3pal6common14small_c_string24run_with_cstr_allocating17h38e7068488774e3aE, symObjAddr: 0x36C10, symBinAddr: 0x8F20C, symSize: 0xC4 }
  - { offset: 0x826CA, size: 0x8, addend: 0x0, symName: __ZN3std3sys3pal6common14small_c_string24run_with_cstr_allocating17h48ce0a13daff9140E, symObjAddr: 0x36CD4, symBinAddr: 0x8F2D0, symSize: 0xBC }
  - { offset: 0x828BC, size: 0x8, addend: 0x0, symName: __ZN3std3sys3pal6common14small_c_string24run_with_cstr_allocating17h834d2eafde75ad5aE, symObjAddr: 0x36D90, symBinAddr: 0x8F38C, symSize: 0xAC }
  - { offset: 0x82A27, size: 0x8, addend: 0x0, symName: __ZN3std3sys3pal6common14small_c_string24run_with_cstr_allocating17h8f206666fec24153E, symObjAddr: 0x36E3C, symBinAddr: 0x8F438, symSize: 0xCC }
  - { offset: 0x82C04, size: 0x8, addend: 0x0, symName: __ZN3std3sys3pal6common14small_c_string24run_with_cstr_allocating17hba67ce528d9be61eE, symObjAddr: 0x36F08, symBinAddr: 0x8F504, symSize: 0xE4 }
  - { offset: 0x83066, size: 0x8, addend: 0x0, symName: '__ZN64_$LT$std..sys..stdio..unix..Stderr$u20$as$u20$std..io..Write$GT$5write17h6a78c272061c5731E', symObjAddr: 0x45C88, symBinAddr: 0x4CE0C, symSize: 0x58 }
  - { offset: 0x83145, size: 0x8, addend: 0x0, symName: '__ZN64_$LT$std..sys..stdio..unix..Stderr$u20$as$u20$std..io..Write$GT$14write_vectored17hfee9269cee6c8c5bE', symObjAddr: 0x45CE0, symBinAddr: 0x4CE64, symSize: 0x58 }
  - { offset: 0x83224, size: 0x8, addend: 0x0, symName: '__ZN64_$LT$std..sys..stdio..unix..Stderr$u20$as$u20$std..io..Write$GT$17is_write_vectored17hc08fada35593426eE', symObjAddr: 0x45D38, symBinAddr: 0x4CEBC, symSize: 0x14 }
  - { offset: 0x8323E, size: 0x8, addend: 0x0, symName: '__ZN64_$LT$std..sys..stdio..unix..Stderr$u20$as$u20$std..io..Write$GT$5flush17h0408e94e0515f0f1E', symObjAddr: 0x45D4C, symBinAddr: 0x4CED0, symSize: 0x14 }
  - { offset: 0x83279, size: 0x8, addend: 0x0, symName: '__ZN64_$LT$std..sys..stdio..unix..Stdout$u20$as$u20$std..io..Write$GT$5write17hc31760324cea1426E', symObjAddr: 0x45BD8, symBinAddr: 0x4CD5C, symSize: 0x58 }
  - { offset: 0x83358, size: 0x8, addend: 0x0, symName: '__ZN64_$LT$std..sys..stdio..unix..Stdout$u20$as$u20$std..io..Write$GT$14write_vectored17hecaa14ede1d000eeE', symObjAddr: 0x45C30, symBinAddr: 0x4CDB4, symSize: 0x58 }
  - { offset: 0x83465, size: 0x8, addend: 0x0, symName: '__ZN62_$LT$std..sys..stdio..unix..Stdin$u20$as$u20$std..io..Read$GT$4read17h2223b212cdf1ec7dE', symObjAddr: 0x45AB0, symBinAddr: 0x4CC34, symSize: 0x58 }
  - { offset: 0x83542, size: 0x8, addend: 0x0, symName: '__ZN62_$LT$std..sys..stdio..unix..Stdin$u20$as$u20$std..io..Read$GT$8read_buf17h2c51704a0c0dee28E', symObjAddr: 0x45B08, symBinAddr: 0x4CC8C, symSize: 0x78 }
  - { offset: 0x836D8, size: 0x8, addend: 0x0, symName: '__ZN62_$LT$std..sys..stdio..unix..Stdin$u20$as$u20$std..io..Read$GT$13read_vectored17hd62ba072983209caE', symObjAddr: 0x45B80, symBinAddr: 0x4CD04, symSize: 0x58 }
  - { offset: 0x837E6, size: 0x8, addend: 0x0, symName: '__ZN3std3sys11personality3gcc14find_eh_action28_$u7b$$u7b$closure$u7d$$u7d$17h9afd50380ee312cbE', symObjAddr: 0x3DEB4, symBinAddr: 0x45038, symSize: 0x18 }
  - { offset: 0x837FA, size: 0x8, addend: 0x0, symName: '__ZN3std3sys11personality3gcc14find_eh_action28_$u7b$$u7b$closure$u7d$$u7d$17h6dd89d4db6eeb705E', symObjAddr: 0x3DECC, symBinAddr: 0x45050, symSize: 0x18 }
  - { offset: 0x8382A, size: 0x8, addend: 0x0, symName: _rust_eh_personality, symObjAddr: 0x3DEE4, symBinAddr: 0x45068, symSize: 0x378 }
  - { offset: 0x83B98, size: 0x8, addend: 0x0, symName: __ZN3std3sys11personality5dwarf2eh19read_encoded_offset17h7fd3c50543fbb139E, symObjAddr: 0x3709C, symBinAddr: 0x3E7F4, symSize: 0x150 }
  - { offset: 0x83D09, size: 0x8, addend: 0x0, symName: '__ZN3std3sys9backtrace10_print_fmt28_$u7b$$u7b$closure$u7d$$u7d$17h43b42a6ebd0a26bdE', symObjAddr: 0x37550, symBinAddr: 0x3ECA8, symSize: 0x30 }
  - { offset: 0x83D33, size: 0x8, addend: 0x0, symName: '__ZN3std3sys9backtrace10_print_fmt28_$u7b$$u7b$closure$u7d$$u7d$17hbec1646fa3fcc28fE', symObjAddr: 0x37580, symBinAddr: 0x3ECD8, symSize: 0x130 }
  - { offset: 0x83E54, size: 0x8, addend: 0x0, symName: '__ZN3std3sys9backtrace10_print_fmt28_$u7b$$u7b$closure$u7d$$u7d$28_$u7b$$u7b$closure$u7d$$u7d$17h964492f27acca1d9E', symObjAddr: 0x376B0, symBinAddr: 0x3EE08, symSize: 0x264 }
  - { offset: 0x8409B, size: 0x8, addend: 0x0, symName: __ZN3std3sys9backtrace4lock17h9d501e7b9e85fa74E, symObjAddr: 0x37264, symBinAddr: 0x3E9BC, symSize: 0x70 }
  - { offset: 0x841F6, size: 0x8, addend: 0x0, symName: __ZN3std3sys9backtrace13BacktraceLock5print17h18960efea96ca220E, symObjAddr: 0x372D4, symBinAddr: 0x3EA2C, symSize: 0x54 }
  - { offset: 0x84247, size: 0x8, addend: 0x0, symName: '__ZN98_$LT$std..sys..backtrace..BacktraceLock..print..DisplayBacktrace$u20$as$u20$core..fmt..Display$GT$3fmt17hdc465a7f7c1d2412E', symObjAddr: 0x37328, symBinAddr: 0x3EA80, symSize: 0x228 }
  - { offset: 0x84769, size: 0x8, addend: 0x0, symName: __ZN3std3sys9backtrace26__rust_end_short_backtrace17h2c5a94eab37dd125E, symObjAddr: 0x37914, symBinAddr: 0x3F06C, symSize: 0xC }
  - { offset: 0x84783, size: 0x8, addend: 0x0, symName: __ZN3std3sys9backtrace26__rust_end_short_backtrace17h4298242386509589E, symObjAddr: 0x37920, symBinAddr: 0x3F078, symSize: 0xC }
  - { offset: 0x8479D, size: 0x8, addend: 0x0, symName: __ZN3std3sys9backtrace15output_filename17h0c8c6af62503f6d6E, symObjAddr: 0x3792C, symBinAddr: 0x3F084, symSize: 0xF4 }
  - { offset: 0x849B1, size: 0x8, addend: 0x0, symName: '__ZN3std3sys4sync8once_box16OnceBox$LT$T$GT$10initialize17h223f9c88620c0308E', symObjAddr: 0x397FC, symBinAddr: 0x8F5E8, symSize: 0x104 }
  - { offset: 0x84B44, size: 0x8, addend: 0x0, symName: '__ZN3std3sys4sync8once_box16OnceBox$LT$T$GT$10initialize17h92d75b5cb312f8b1E', symObjAddr: 0x39900, symBinAddr: 0x8F6EC, symSize: 0xD4 }
  - { offset: 0x84E0A, size: 0x8, addend: 0x0, symName: '__ZN79_$LT$std..sys..sync..mutex..pthread..Mutex$u20$as$u20$core..ops..drop..Drop$GT$4drop17h56b7c2569e24145fE', symObjAddr: 0x45F68, symBinAddr: 0x4D0EC, symSize: 0x58 }
  - { offset: 0x85001, size: 0x8, addend: 0x0, symName: __ZN3std3sys4sync6rwlock5queue6RwLock14lock_contended17he0c4fb13435a77c8E, symObjAddr: 0x467E8, symBinAddr: 0x900BC, symSize: 0x25C }
  - { offset: 0x855D4, size: 0x8, addend: 0x0, symName: __ZN3std3sys4sync6rwlock5queue6RwLock21read_unlock_contended17h2b2e561414d0def9E, symObjAddr: 0x46A44, symBinAddr: 0x90318, symSize: 0x54 }
  - { offset: 0x85754, size: 0x8, addend: 0x0, symName: __ZN3std3sys4sync6rwlock5queue6RwLock16unlock_contended17h38f6f11bba6efaffE, symObjAddr: 0x46A98, symBinAddr: 0x9036C, symSize: 0x94 }
  - { offset: 0x85803, size: 0x8, addend: 0x0, symName: __ZN3std3sys4sync6rwlock5queue6RwLock14downgrade_slow17h64566088e7888578E, symObjAddr: 0x46B2C, symBinAddr: 0x90400, symSize: 0x14C }
  - { offset: 0x85BD8, size: 0x8, addend: 0x0, symName: __ZN3std3sys4sync6rwlock5queue6RwLock12unlock_queue17h89a9a4e2209757f8E, symObjAddr: 0x46C78, symBinAddr: 0x4D46C, symSize: 0x230 }
  - { offset: 0x86342, size: 0x8, addend: 0x0, symName: __ZN3std3sys4sync6rwlock5queue10write_lock17h8ba3f90b2772e1acE, symObjAddr: 0x46758, symBinAddr: 0x4D420, symSize: 0x20 }
  - { offset: 0x8635C, size: 0x8, addend: 0x0, symName: __ZN3std3sys4sync6rwlock5queue9read_lock17h3e708c4bc37c6cfaE, symObjAddr: 0x46778, symBinAddr: 0x4D440, symSize: 0x2C }
  - { offset: 0x86376, size: 0x8, addend: 0x0, symName: '__ZN83_$LT$std..sys..sync..rwlock..queue..PanicGuard$u20$as$u20$core..ops..drop..Drop$GT$4drop17h64ec76233b4c3779E', symObjAddr: 0x467A4, symBinAddr: 0x90078, symSize: 0x44 }
  - { offset: 0x8640D, size: 0x8, addend: 0x0, symName: '__ZN88_$LT$std..sys..sync..thread_parking..darwin..Parker$u20$as$u20$core..ops..drop..Drop$GT$4drop17hcb789be2e2503843E', symObjAddr: 0x46EE0, symBinAddr: 0x4D6D4, symSize: 0x14 }
  - { offset: 0x8645C, size: 0x8, addend: 0x0, symName: __ZN3std3sys4sync14thread_parking6darwin6Parker6unpark17h4445b8cf1f4a8c94E, symObjAddr: 0x46EA8, symBinAddr: 0x4D69C, symSize: 0x38 }
  - { offset: 0x8653D, size: 0x8, addend: 0x0, symName: __ZN3std3sys4sync4once5queue4Once4wait17hf695964748898139E, symObjAddr: 0x45FC0, symBinAddr: 0x8FBBC, symSize: 0x250 }
  - { offset: 0x86AC6, size: 0x8, addend: 0x0, symName: __ZN3std3sys4sync4once5queue4Once4call17hbba97a56aaee6795E, symObjAddr: 0x46210, symBinAddr: 0x8FE0C, symSize: 0x26C }
  - { offset: 0x86E2E, size: 0x8, addend: 0x0, symName: '__ZN82_$LT$std..sys..sync..once..queue..WaiterQueue$u20$as$u20$core..ops..drop..Drop$GT$4drop17h5e6c49ce6c79fe97E', symObjAddr: 0x46664, symBinAddr: 0x4D32C, symSize: 0xF4 }
  - { offset: 0x87075, size: 0x8, addend: 0x0, symName: __ZN3std3sys4sync4once5queue4wait17hd997f31287650e08E, symObjAddr: 0x4647C, symBinAddr: 0x4D144, symSize: 0x1E8 }
  - { offset: 0x87628, size: 0x8, addend: 0x0, symName: __ZN3std3sys4sync7condvar7pthread7Condvar12wait_timeout17h79b8c5a7fd7c7e7fE, symObjAddr: 0x45D60, symBinAddr: 0x4CEE4, symSize: 0x208 }
  - { offset: 0x87B00, size: 0x8, addend: 0x0, symName: __ZN3std3sys12thread_local6native5eager7destroy17h3f301903f7687387E, symObjAddr: 0x46EF4, symBinAddr: 0x4D6E8, symSize: 0x8C }
  - { offset: 0x87CCB, size: 0x8, addend: 0x0, symName: __ZN3std3sys12thread_local6native5eager7destroy17h9083089b387ad591E, symObjAddr: 0x46F80, symBinAddr: 0x4D774, symSize: 0x40 }
  - { offset: 0x87E2B, size: 0x8, addend: 0x0, symName: __ZN3std3sys12thread_local5guard5apple6enable9run_dtors17h3ab942b9afd40d21E, symObjAddr: 0x47104, symBinAddr: 0x4D8F8, symSize: 0x140 }
  - { offset: 0x8836D, size: 0x8, addend: 0x0, symName: '__ZN103_$LT$std..sys..thread_local..abort_on_dtor_unwind..DtorUnwindGuard$u20$as$u20$core..ops..drop..Drop$GT$4drop17h795f8c68d1be275bE', symObjAddr: 0x399D4, symBinAddr: 0x8F7C0, symSize: 0x44 }
  - { offset: 0x883C9, size: 0x8, addend: 0x0, symName: __ZN3std3sys12thread_local11destructors4list8register17h206178e5801ba7deE, symObjAddr: 0x46FC0, symBinAddr: 0x4D7B4, symSize: 0x144 }
  - { offset: 0x88748, size: 0x8, addend: 0x0, symName: __ZN3std3sys3env4unix13env_read_lock17h4403fc7c1d1944faE, symObjAddr: 0x3E25C, symBinAddr: 0x453E0, symSize: 0x2C0 }
  - { offset: 0x88E3B, size: 0x8, addend: 0x0, symName: '__ZN3std3sys3env4unix6getenv28_$u7b$$u7b$closure$u7d$$u7d$17hcb7a8297fb0120c7E', symObjAddr: 0x3E51C, symBinAddr: 0x456A0, symSize: 0x168 }
  - { offset: 0x89049, size: 0x8, addend: 0x0, symName: __ZN3std3sys3env4unix6setenv17ha7e9975ec1903ffeE, symObjAddr: 0x3E684, symBinAddr: 0x45808, symSize: 0x9C }
  - { offset: 0x890E2, size: 0x8, addend: 0x0, symName: '__ZN3std3sys3env4unix6setenv28_$u7b$$u7b$closure$u7d$$u7d$28_$u7b$$u7b$closure$u7d$$u7d$17h0f7c6d98a3e7833cE', symObjAddr: 0x3E8DC, symBinAddr: 0x45A60, symSize: 0x13C }
  - { offset: 0x89339, size: 0x8, addend: 0x0, symName: '__ZN3std3sys3env4unix6setenv28_$u7b$$u7b$closure$u7d$$u7d$17h366cbd2604afce91E', symObjAddr: 0x3E720, symBinAddr: 0x458A4, symSize: 0x1BC }
  - { offset: 0x89614, size: 0x8, addend: 0x0, symName: '__ZN3std3sys3env4unix8unsetenv28_$u7b$$u7b$closure$u7d$$u7d$17h5f329960b56b56c1E', symObjAddr: 0x3EBD0, symBinAddr: 0x45D54, symSize: 0x130 }
  - { offset: 0x8986B, size: 0x8, addend: 0x0, symName: __ZN3std3sys3env4unix8unsetenv17hb7d93a8da71e5b29E, symObjAddr: 0x3EA18, symBinAddr: 0x45B9C, symSize: 0x1B8 }
  - { offset: 0x89B7A, size: 0x8, addend: 0x0, symName: '__ZN85_$LT$std..sys..env..common..Env$u20$as$u20$core..iter..traits..iterator..Iterator$GT$4next17h3cbc0f8f3c78e49dE', symObjAddr: 0x37B78, symBinAddr: 0x3F2D0, symSize: 0x48 }
  - { offset: 0x89BF3, size: 0x8, addend: 0x0, symName: '__ZN85_$LT$std..sys..env..common..Env$u20$as$u20$core..iter..traits..iterator..Iterator$GT$9size_hint17h9c7ad289b7b69a67E', symObjAddr: 0x37BC0, symBinAddr: 0x3F318, symSize: 0x38 }
  - { offset: 0x89C7C, size: 0x8, addend: 0x0, symName: '__ZN71_$LT$std..sys..env..common..EnvStrDebug$u20$as$u20$core..fmt..Debug$GT$3fmt17hd6a7cfce22fcfbd8E', symObjAddr: 0x37A20, symBinAddr: 0x3F178, symSize: 0xDC }
  - { offset: 0x89F2B, size: 0x8, addend: 0x0, symName: '__ZN63_$LT$std..sys..env..common..Env$u20$as$u20$core..fmt..Debug$GT$3fmt17h0742a49130b6a8a3E', symObjAddr: 0x37AFC, symBinAddr: 0x3F254, symSize: 0x7C }
  - { offset: 0x89FF9, size: 0x8, addend: 0x0, symName: '__ZN65_$LT$std..sys..args..common..Args$u20$as$u20$core..fmt..Debug$GT$3fmt17h068d2928e6461d40E', symObjAddr: 0x371EC, symBinAddr: 0x3E944, symSize: 0x78 }
  - { offset: 0x8A09B, size: 0x8, addend: 0x0, symName: __ZN3std3sys4path4unix8absolute17h829752a6ea99a251E, symObjAddr: 0x4286C, symBinAddr: 0x499F0, symSize: 0x39C }
  - { offset: 0x8AA9A, size: 0x8, addend: 0x0, symName: '__ZN104_$LT$std..sys..net..connection..socket..LookupHost$u20$as$u20$core..iter..traits..iterator..Iterator$GT$4next17hea14bcfde2570fc1E', symObjAddr: 0x410C4, symBinAddr: 0x48248, symSize: 0xF8 }
  - { offset: 0x8AB89, size: 0x8, addend: 0x0, symName: '__ZN87_$LT$std..sys..net..connection..socket..LookupHost$u20$as$u20$core..ops..drop..Drop$GT$4drop17h8d58c53650103640E', symObjAddr: 0x411BC, symBinAddr: 0x48340, symSize: 0x14 }
  - { offset: 0x8ABCC, size: 0x8, addend: 0x0, symName: '__ZN117_$LT$std..sys..net..connection..socket..LookupHost$u20$as$u20$core..convert..TryFrom$LT$$LP$$RF$str$C$u16$RP$$GT$$GT$8try_from17ha1c985c28c6c05d7E', symObjAddr: 0x413B4, symBinAddr: 0x48538, symSize: 0xBC }
  - { offset: 0x8AC5A, size: 0x8, addend: 0x0, symName: '__ZN117_$LT$std..sys..net..connection..socket..LookupHost$u20$as$u20$core..convert..TryFrom$LT$$LP$$RF$str$C$u16$RP$$GT$$GT$8try_from28_$u7b$$u7b$closure$u7d$$u7d$17h308ba829f987d1c5E', symObjAddr: 0x41470, symBinAddr: 0x485F4, symSize: 0x18C }
  - { offset: 0x8B1AD, size: 0x8, addend: 0x0, symName: __ZN3std3sys3net10connection6socket9TcpStream7connect17hf08785746b6a7566E, symObjAddr: 0x415FC, symBinAddr: 0x48780, symSize: 0x140 }
  - { offset: 0x8B3B7, size: 0x8, addend: 0x0, symName: __ZN3std3sys3net10connection6socket9TcpStream9peer_addr17h58810a2f9521b5f3E, symObjAddr: 0x4173C, symBinAddr: 0x488C0, symSize: 0x148 }
  - { offset: 0x8B6E4, size: 0x8, addend: 0x0, symName: __ZN3std3sys3net10connection6socket4unix6Socket7new_raw17h03c026a2398d9c27E, symObjAddr: 0x4221C, symBinAddr: 0x493A0, symSize: 0xF8 }
  - { offset: 0x8B933, size: 0x8, addend: 0x0, symName: __ZN3std3sys3net10connection6socket4unix6Socket8new_pair17hc8ed889629b67a54E, symObjAddr: 0x42314, symBinAddr: 0x49498, symSize: 0x130 }
  - { offset: 0x8BC16, size: 0x8, addend: 0x0, symName: __ZN3std3sys3net10connection6socket4unix6Socket20recv_from_with_flags17hff61d2e43fd4bdd7E, symObjAddr: 0x42444, symBinAddr: 0x495C8, symSize: 0x134 }
  - { offset: 0x8BD42, size: 0x8, addend: 0x0, symName: __ZN3std3sys3net10connection6socket4unix6Socket10take_error17h0c2a4a5511d49124E, symObjAddr: 0x42578, symBinAddr: 0x496FC, symSize: 0x70 }
  - { offset: 0x8BF6A, size: 0x8, addend: 0x0, symName: __ZN3std3sys3net10connection6socket11TcpListener4bind17he02aac79995dc345E, symObjAddr: 0x41A60, symBinAddr: 0x48BE4, symSize: 0x15C }
  - { offset: 0x8C17A, size: 0x8, addend: 0x0, symName: __ZN3std3sys3net10connection6socket11TcpListener11socket_addr17he9705d2f8a14ad9cE, symObjAddr: 0x41BBC, symBinAddr: 0x48D40, symSize: 0x148 }
  - { offset: 0x8C40B, size: 0x8, addend: 0x0, symName: __ZN3std3sys3net10connection6socket9UdpSocket4bind17h81c7aa170a356400E, symObjAddr: 0x41E38, symBinAddr: 0x48FBC, symSize: 0x120 }
  - { offset: 0x8C643, size: 0x8, addend: 0x0, symName: __ZN3std3sys3net10connection6socket9UdpSocket7send_to17h3158419c3b6c56e5E, symObjAddr: 0x41F58, symBinAddr: 0x490DC, symSize: 0xBC }
  - { offset: 0x8C662, size: 0x8, addend: 0x0, symName: __ZN3std3sys3net10connection6socket9UdpSocket7send_to17h3158419c3b6c56e5E, symObjAddr: 0x41F58, symBinAddr: 0x490DC, symSize: 0xBC }
  - { offset: 0x8C806, size: 0x8, addend: 0x0, symName: __ZN3std3sys3net10connection6socket9UdpSocket7connect17h9070c438884c3a78E, symObjAddr: 0x42014, symBinAddr: 0x49198, symSize: 0xD4 }
  - { offset: 0x8CA21, size: 0x8, addend: 0x0, symName: '__ZN103_$LT$std..sys..net..connection..socket..LookupHost$u20$as$u20$core..convert..TryFrom$LT$$RF$str$GT$$GT$8try_from17hfabece9226a12159E', symObjAddr: 0x411D0, symBinAddr: 0x48354, symSize: 0x1E4 }
  - { offset: 0x8CD21, size: 0x8, addend: 0x0, symName: '__ZN81_$LT$std..sys..net..connection..socket..TcpStream$u20$as$u20$core..fmt..Debug$GT$3fmt17hf846cbed700c5b73E', symObjAddr: 0x41884, symBinAddr: 0x48A08, symSize: 0x1DC }
  - { offset: 0x8D247, size: 0x8, addend: 0x0, symName: '__ZN83_$LT$std..sys..net..connection..socket..TcpListener$u20$as$u20$core..fmt..Debug$GT$3fmt17h259bd45e476e6066E', symObjAddr: 0x41D04, symBinAddr: 0x48E88, symSize: 0x134 }
  - { offset: 0x8D4CF, size: 0x8, addend: 0x0, symName: '__ZN81_$LT$std..sys..net..connection..socket..UdpSocket$u20$as$u20$core..fmt..Debug$GT$3fmt17h1f434fb5291ff14dE', symObjAddr: 0x420E8, symBinAddr: 0x4926C, symSize: 0x134 }
  - { offset: 0x8D76E, size: 0x8, addend: 0x0, symName: __ZN3std3sys6random19hashmap_random_keys17hc0f82117f5a67a4eE, symObjAddr: 0x3978C, symBinAddr: 0x40EE4, symSize: 0x70 }
  - { offset: 0x8D83F, size: 0x8, addend: 0x0, symName: __ZN3std3sys5alloc16realloc_fallback17h72ec9d11bf39abc9E, symObjAddr: 0x36FEC, symBinAddr: 0x3E744, symSize: 0xB0 }
  - { offset: 0x8D92C, size: 0x8, addend: 0x0, symName: '__ZN67_$LT$std..os..fd..owned..BorrowedFd$u20$as$u20$core..fmt..Debug$GT$3fmt17h3ed44c6ff6d00bf6E', symObjAddr: 0x30A50, symBinAddr: 0x38AC8, symSize: 0x64 }
  - { offset: 0x8D954, size: 0x8, addend: 0x0, symName: '__ZN64_$LT$std..os..fd..owned..OwnedFd$u20$as$u20$core..fmt..Debug$GT$3fmt17h96d25bf0a1f85d4eE', symObjAddr: 0x30AB4, symBinAddr: 0x38B2C, symSize: 0x64 }
  - { offset: 0x8D990, size: 0x8, addend: 0x0, symName: __ZN3std2os2fd5owned10BorrowedFd18try_clone_to_owned17hc64d8bc800131490E, symObjAddr: 0x309E8, symBinAddr: 0x38A60, symSize: 0x68 }
  - { offset: 0x8DA4C, size: 0x8, addend: 0x0, symName: __ZN3std2os2fd5owned7OwnedFd9try_clone17hae12a64f873e74b5E, symObjAddr: 0x30980, symBinAddr: 0x389F8, symSize: 0x68 }
  - { offset: 0x8DC91, size: 0x8, addend: 0x0, symName: '__ZN70_$LT$std..io..pipe..PipeReader$u20$as$u20$std..os..fd..owned..AsFd$GT$5as_fd17hadc790974a726978E', symObjAddr: 0x30B18, symBinAddr: 0x38B90, symSize: 0x14 }
  - { offset: 0x8DD42, size: 0x8, addend: 0x0, symName: '__ZN60_$LT$std..fs..File$u20$as$u20$std..os..unix..fs..FileExt$GT$7read_at17hbc5766b42718cfc9E', symObjAddr: 0x2E8A4, symBinAddr: 0x3691C, symSize: 0x58 }
  - { offset: 0x8DE3E, size: 0x8, addend: 0x0, symName: '__ZN60_$LT$std..fs..File$u20$as$u20$std..os..unix..fs..FileExt$GT$16read_vectored_at17h5796dd6c2eac8ba3E', symObjAddr: 0x2E8FC, symBinAddr: 0x36974, symSize: 0x10 }
  - { offset: 0x8DE70, size: 0x8, addend: 0x0, symName: '__ZN60_$LT$std..fs..File$u20$as$u20$std..os..unix..fs..FileExt$GT$8write_at17h0aadbb37bd4d39d5E', symObjAddr: 0x2E90C, symBinAddr: 0x36984, symSize: 0x58 }
  - { offset: 0x8DF6E, size: 0x8, addend: 0x0, symName: '__ZN60_$LT$std..fs..File$u20$as$u20$std..os..unix..fs..FileExt$GT$17write_vectored_at17h21abd120e0f8b507E', symObjAddr: 0x2E964, symBinAddr: 0x369DC, symSize: 0x10 }
  - { offset: 0x8DFA7, size: 0x8, addend: 0x0, symName: '__ZN69_$LT$std..fs..DirEntry$u20$as$u20$std..os..unix..fs..DirEntryExt2$GT$13file_name_ref17h62685887d2b6415eE', symObjAddr: 0x2E974, symBinAddr: 0x369EC, symSize: 0x18 }
  - { offset: 0x8E013, size: 0x8, addend: 0x0, symName: __ZN3std2os4unix3net4addr11sockaddr_un17hdb135cff24e2d9c7E, symObjAddr: 0x2E98C, symBinAddr: 0x36A04, symSize: 0x124 }
  - { offset: 0x8E109, size: 0x8, addend: 0x0, symName: __ZN3std2os4unix3net4addr10SocketAddr10is_unnamed17h5d9c562f0d72d5e4E, symObjAddr: 0x2EAB0, symBinAddr: 0x36B28, symSize: 0x44 }
  - { offset: 0x8E15C, size: 0x8, addend: 0x0, symName: __ZN3std2os4unix3net4addr10SocketAddr11as_pathname17hf6079b5e014a9e5eE, symObjAddr: 0x2EAF4, symBinAddr: 0x36B6C, symSize: 0x48 }
  - { offset: 0x8E211, size: 0x8, addend: 0x0, symName: '__ZN73_$LT$std..os..unix..net..addr..SocketAddr$u20$as$u20$core..fmt..Debug$GT$3fmt17ha3e686a36d04e131E', symObjAddr: 0x2EB3C, symBinAddr: 0x36BB4, symSize: 0xAC }
  - { offset: 0x8E2E0, size: 0x8, addend: 0x0, symName: __ZN3std2os4unix3net8datagram12UnixDatagram9bind_addr17h2d27f22efd1cf950E, symObjAddr: 0x2EF64, symBinAddr: 0x36FDC, symSize: 0xB4 }
  - { offset: 0x8E41B, size: 0x8, addend: 0x0, symName: __ZN3std2os4unix3net8datagram12UnixDatagram7unbound17h709cf6638bf0d12cE, symObjAddr: 0x2F018, symBinAddr: 0x37090, symSize: 0x60 }
  - { offset: 0x8E453, size: 0x8, addend: 0x0, symName: __ZN3std2os4unix3net8datagram12UnixDatagram4pair17hdae675f346723eccE, symObjAddr: 0x2F078, symBinAddr: 0x370F0, symSize: 0x5C }
  - { offset: 0x8E491, size: 0x8, addend: 0x0, symName: __ZN3std2os4unix3net8datagram12UnixDatagram12connect_addr17h35992df4cf8f262dE, symObjAddr: 0x2F0D4, symBinAddr: 0x3714C, symSize: 0x3C }
  - { offset: 0x8E56D, size: 0x8, addend: 0x0, symName: __ZN3std2os4unix3net8datagram12UnixDatagram9recv_from17hdad3a753f17e1198E, symObjAddr: 0x2F110, symBinAddr: 0x37188, symSize: 0x118 }
  - { offset: 0x8E6EF, size: 0x8, addend: 0x0, symName: __ZN3std2os4unix3net8datagram12UnixDatagram4recv17h1f53af0a00a01d6fE, symObjAddr: 0x2F228, symBinAddr: 0x372A0, symSize: 0x44 }
  - { offset: 0x8E7AA, size: 0x8, addend: 0x0, symName: __ZN3std2os4unix3net8datagram12UnixDatagram12send_to_addr17hc9d1743df792012bE, symObjAddr: 0x2F26C, symBinAddr: 0x372E4, symSize: 0x58 }
  - { offset: 0x8E891, size: 0x8, addend: 0x0, symName: __ZN3std2os4unix3net8datagram12UnixDatagram4send17he57460f1c25600eeE, symObjAddr: 0x2F2C4, symBinAddr: 0x3733C, symSize: 0x58 }
  - { offset: 0x8E98F, size: 0x8, addend: 0x0, symName: __ZN3std2os4unix3net8datagram12UnixDatagram9peek_from17h53340e65ed12774fE, symObjAddr: 0x2F31C, symBinAddr: 0x37394, symSize: 0x118 }
  - { offset: 0x8EB5E, size: 0x8, addend: 0x0, symName: '__ZN79_$LT$std..os..unix..net..datagram..UnixDatagram$u20$as$u20$core..fmt..Debug$GT$3fmt17h7b7c351ea3ef433cE', symObjAddr: 0x2EBE8, symBinAddr: 0x36C60, symSize: 0x37C }
  - { offset: 0x8F225, size: 0x8, addend: 0x0, symName: __ZN3std2os4unix3net8listener12UnixListener9bind_addr17hf12dd2638e2813fbE, symObjAddr: 0x2F638, symBinAddr: 0x376B0, symSize: 0xC8 }
  - { offset: 0x8F36A, size: 0x8, addend: 0x0, symName: __ZN3std2os4unix3net8listener12UnixListener6accept17h104db73037f0f825E, symObjAddr: 0x2F700, symBinAddr: 0x37778, symSize: 0x148 }
  - { offset: 0x8F5FC, size: 0x8, addend: 0x0, symName: '__ZN79_$LT$std..os..unix..net..listener..UnixListener$u20$as$u20$core..fmt..Debug$GT$3fmt17he8e08c8f1d567904E', symObjAddr: 0x2F434, symBinAddr: 0x374AC, symSize: 0x204 }
  - { offset: 0x8F909, size: 0x8, addend: 0x0, symName: '__ZN97_$LT$std..os..unix..net..listener..Incoming$u20$as$u20$core..iter..traits..iterator..Iterator$GT$4next17h139c05db05723908E', symObjAddr: 0x2F848, symBinAddr: 0x378C0, symSize: 0x40 }
  - { offset: 0x8F963, size: 0x8, addend: 0x0, symName: __ZN3std2os4unix3net6stream10UnixStream12connect_addr17hb943ef7af3414cb4E, symObjAddr: 0x2FC04, symBinAddr: 0x37C7C, symSize: 0xB4 }
  - { offset: 0x8FA79, size: 0x8, addend: 0x0, symName: __ZN3std2os4unix3net6stream10UnixStream4pair17h32ee0a20b8718917E, symObjAddr: 0x2FCB8, symBinAddr: 0x37D30, symSize: 0x5C }
  - { offset: 0x8FAB7, size: 0x8, addend: 0x0, symName: __ZN3std2os4unix3net6stream10UnixStream10local_addr17hfd0c9b11005ee6eeE, symObjAddr: 0x2FD14, symBinAddr: 0x37D8C, symSize: 0xE4 }
  - { offset: 0x8FBC6, size: 0x8, addend: 0x0, symName: __ZN3std2os4unix3net6stream10UnixStream9peer_addr17h44cdbcde5656a8a1E, symObjAddr: 0x2FDF8, symBinAddr: 0x37E70, symSize: 0xE4 }
  - { offset: 0x8FCD5, size: 0x8, addend: 0x0, symName: __ZN3std2os4unix3net6stream10UnixStream9peer_cred17h36139c6493e58f85E, symObjAddr: 0x2FEDC, symBinAddr: 0x37F54, symSize: 0xD0 }
  - { offset: 0x8FDB8, size: 0x8, addend: 0x0, symName: __ZN3std2os4unix3net6stream10UnixStream16set_read_timeout17h8d021b7317f05192E, symObjAddr: 0x2FFAC, symBinAddr: 0x38024, symSize: 0xC0 }
  - { offset: 0x8FE80, size: 0x8, addend: 0x0, symName: __ZN3std2os4unix3net6stream10UnixStream17set_write_timeout17h8df8bb0c0c330bd9E, symObjAddr: 0x3006C, symBinAddr: 0x380E4, symSize: 0xC0 }
  - { offset: 0x8FF48, size: 0x8, addend: 0x0, symName: __ZN3std2os4unix3net6stream10UnixStream12read_timeout17h1c74c21c505720ebE, symObjAddr: 0x3012C, symBinAddr: 0x381A4, symSize: 0xE8 }
  - { offset: 0x90094, size: 0x8, addend: 0x0, symName: __ZN3std2os4unix3net6stream10UnixStream13write_timeout17hd086e27d22666a04E, symObjAddr: 0x30214, symBinAddr: 0x3828C, symSize: 0xE8 }
  - { offset: 0x901E0, size: 0x8, addend: 0x0, symName: __ZN3std2os4unix3net6stream10UnixStream15set_nonblocking17h0848537d7d39dba3E, symObjAddr: 0x302FC, symBinAddr: 0x38374, symSize: 0x54 }
  - { offset: 0x90284, size: 0x8, addend: 0x0, symName: __ZN3std2os4unix3net6stream10UnixStream10take_error17h3aa3e554217fee92E, symObjAddr: 0x30350, symBinAddr: 0x383C8, symSize: 0x74 }
  - { offset: 0x9039E, size: 0x8, addend: 0x0, symName: __ZN3std2os4unix3net6stream10UnixStream8shutdown17hd5646d87a21ee701E, symObjAddr: 0x303C4, symBinAddr: 0x3843C, symSize: 0x3C }
  - { offset: 0x90442, size: 0x8, addend: 0x0, symName: __ZN3std2os4unix3net6stream10UnixStream4peek17haf2d9d4c7f15e3eeE, symObjAddr: 0x30400, symBinAddr: 0x38478, symSize: 0x44 }
  - { offset: 0x90533, size: 0x8, addend: 0x0, symName: '__ZN75_$LT$std..os..unix..net..stream..UnixStream$u20$as$u20$core..fmt..Debug$GT$3fmt17hf6359496d9e94eb2E', symObjAddr: 0x2F888, symBinAddr: 0x37900, symSize: 0x37C }
  - { offset: 0x90BDD, size: 0x8, addend: 0x0, symName: '__ZN76_$LT$$RF$std..os..unix..net..stream..UnixStream$u20$as$u20$std..io..Read$GT$8read_buf17h0ce0e0bfd7e5fac2E', symObjAddr: 0x30550, symBinAddr: 0x385C8, symSize: 0x74 }
  - { offset: 0x90D6A, size: 0x8, addend: 0x0, symName: '__ZN72_$LT$std..os..unix..net..stream..UnixStream$u20$as$u20$std..io..Read$GT$4read17he25164a7613fc1b8E', symObjAddr: 0x30444, symBinAddr: 0x384BC, symSize: 0x44 }
  - { offset: 0x90E3C, size: 0x8, addend: 0x0, symName: '__ZN72_$LT$std..os..unix..net..stream..UnixStream$u20$as$u20$std..io..Read$GT$8read_buf17hb51dd21eb404435eE', symObjAddr: 0x30488, symBinAddr: 0x38500, symSize: 0x70 }
  - { offset: 0x90FE0, size: 0x8, addend: 0x0, symName: '__ZN72_$LT$std..os..unix..net..stream..UnixStream$u20$as$u20$std..io..Read$GT$13read_vectored17h159791954190c804E', symObjAddr: 0x304F8, symBinAddr: 0x38570, symSize: 0x58 }
  - { offset: 0x9111D, size: 0x8, addend: 0x0, symName: '__ZN76_$LT$std..process..Command$u20$as$u20$std..os..unix..process..CommandExt$GT$6groups17ha5e754bb5612669bE', symObjAddr: 0x305C4, symBinAddr: 0x3863C, symSize: 0xD8 }
  - { offset: 0x912EA, size: 0x8, addend: 0x0, symName: '__ZN76_$LT$std..process..Command$u20$as$u20$std..os..unix..process..CommandExt$GT$4exec17hbc27461e0ad4ca00E', symObjAddr: 0x3069C, symBinAddr: 0x38714, symSize: 0x29C }
  - { offset: 0x91A14, size: 0x8, addend: 0x0, symName: '__ZN87_$LT$std..process..ExitStatusError$u20$as$u20$std..os..unix..process..ExitStatusExt$GT$8from_raw17h9584721c1ceeaf9bE', symObjAddr: 0x30938, symBinAddr: 0x389B0, symSize: 0x38 }
  - { offset: 0x91A3F, size: 0x8, addend: 0x0, symName: __ZN3std2os4unix7process9parent_id17hdae8e79d57ded918E, symObjAddr: 0x30970, symBinAddr: 0x389E8, symSize: 0x10 }
  - { offset: 0x91C96, size: 0x8, addend: 0x0, symName: __ZN3std3ffi6os_str8OsString17into_boxed_os_str17ha958c290ee819211E, symObjAddr: 0x223C8, symBinAddr: 0x2A750, symSize: 0xA0 }
  - { offset: 0x91ED7, size: 0x8, addend: 0x0, symName: __ZN3std3ffi6os_str5OsStr14into_os_string17h9ed8667830e4a495E, symObjAddr: 0x224E8, symBinAddr: 0x2A870, symSize: 0x18 }
  - { offset: 0x91EF2, size: 0x8, addend: 0x0, symName: __ZN3std3ffi6os_str5OsStr18to_ascii_lowercase17hed9af8a1cdc9240bE, symObjAddr: 0x22500, symBinAddr: 0x2A888, symSize: 0x170 }
  - { offset: 0x92090, size: 0x8, addend: 0x0, symName: __ZN3std3ffi6os_str5OsStr18to_ascii_uppercase17h783e73dfe3a6e2abE, symObjAddr: 0x22670, symBinAddr: 0x2A9F8, symSize: 0x170 }
  - { offset: 0x92300, size: 0x8, addend: 0x0, symName: '__ZN63_$LT$std..ffi..os_str..OsString$u20$as$u20$core..fmt..Write$GT$9write_str17he2d72d09299262cfE', symObjAddr: 0x22468, symBinAddr: 0x2A7F0, symSize: 0x80 }
  - { offset: 0x924AB, size: 0x8, addend: 0x0, symName: '__ZN3std3ffi6os_str95_$LT$impl$u20$core..convert..TryFrom$LT$$RF$std..ffi..os_str..OsStr$GT$$u20$for$u20$$RF$str$GT$8try_from17h656cc6a2699edab3E', symObjAddr: 0x227E0, symBinAddr: 0x2AB68, symSize: 0x10 }
  - { offset: 0x924E4, size: 0x8, addend: 0x0, symName: '__ZN62_$LT$std..ffi..os_str..Display$u20$as$u20$core..fmt..Debug$GT$3fmt17h66a4c56f8d61a682E', symObjAddr: 0x227F0, symBinAddr: 0x2AB78, symSize: 0x28 }
  - { offset: 0x92568, size: 0x8, addend: 0x0, symName: '__ZN64_$LT$std..ffi..os_str..Display$u20$as$u20$core..fmt..Display$GT$3fmt17ha1fd74e5581996c0E', symObjAddr: 0x22818, symBinAddr: 0x2ABA0, symSize: 0xAC }
  - { offset: 0x92754, size: 0x8, addend: 0x0, symName: '__ZN62_$LT$std..process..ChildStderr$u20$as$u20$core..fmt..Debug$GT$3fmt17h23cd57560baadb7aE', symObjAddr: 0x34038, symBinAddr: 0x3C0A4, symSize: 0x38 }
  - { offset: 0x9277D, size: 0x8, addend: 0x0, symName: '__ZN62_$LT$std..process..ChildStdout$u20$as$u20$core..fmt..Debug$GT$3fmt17hc6c7ae9fd54c6251E', symObjAddr: 0x33F30, symBinAddr: 0x3BF9C, symSize: 0x38 }
  - { offset: 0x927A6, size: 0x8, addend: 0x0, symName: '__ZN61_$LT$std..process..ChildStdin$u20$as$u20$core..fmt..Debug$GT$3fmt17h5f68f814b6d1a0e4E', symObjAddr: 0x33EF8, symBinAddr: 0x3BF64, symSize: 0x38 }
  - { offset: 0x927C1, size: 0x8, addend: 0x0, symName: '__ZN112_$LT$std..process..Child$u20$as$u20$std..sys_common..IntoInner$LT$std..sys..process..unix..unix..Process$GT$$GT$10into_inner17h6731e6f78998a419E', symObjAddr: 0x33DFC, symBinAddr: 0x3BE68, symSize: 0x60 }
  - { offset: 0x92996, size: 0x8, addend: 0x0, symName: '__ZN56_$LT$std..process..Child$u20$as$u20$core..fmt..Debug$GT$3fmt17h3d5b08429768dee1E', symObjAddr: 0x33E5C, symBinAddr: 0x3BEC8, symSize: 0x9C }
  - { offset: 0x929B8, size: 0x8, addend: 0x0, symName: '__ZN59_$LT$std..process..ChildStderr$u20$as$u20$std..io..Read$GT$4read17hc40fb49537d019baE', symObjAddr: 0x33F68, symBinAddr: 0x3BFD4, symSize: 0x58 }
  - { offset: 0x92AB3, size: 0x8, addend: 0x0, symName: '__ZN59_$LT$std..process..ChildStderr$u20$as$u20$std..io..Read$GT$8read_buf17h0cfa814f12f21c2eE', symObjAddr: 0x33FC0, symBinAddr: 0x3C02C, symSize: 0x78 }
  - { offset: 0x92C7C, size: 0x8, addend: 0x0, symName: __ZN3std7process7Command9env_clear17h3b22bf8a0ca71639E, symObjAddr: 0x34070, symBinAddr: 0x3C0DC, symSize: 0xE8 }
  - { offset: 0x92F6D, size: 0x8, addend: 0x0, symName: __ZN3std7process7Command5spawn17h823c025caf371be4E, symObjAddr: 0x34158, symBinAddr: 0x3C1C4, symSize: 0x78 }
  - { offset: 0x92F9F, size: 0x8, addend: 0x0, symName: __ZN3std7process7Command6output17ha61bdd4526960868E, symObjAddr: 0x341D0, symBinAddr: 0x3C23C, symSize: 0x2F8 }
  - { offset: 0x9354B, size: 0x8, addend: 0x0, symName: __ZN3std7process7Command6status17h0582704ba5f77dc3E, symObjAddr: 0x344C8, symBinAddr: 0x3C534, symSize: 0x100 }
  - { offset: 0x9381E, size: 0x8, addend: 0x0, symName: __ZN3std7process7Command11get_program17hdc9d164dbcf73c11E, symObjAddr: 0x345C8, symBinAddr: 0x3C634, symSize: 0x1C }
  - { offset: 0x93867, size: 0x8, addend: 0x0, symName: __ZN3std7process7Command8get_args17h86d87edc3b7de085E, symObjAddr: 0x345E4, symBinAddr: 0x3C650, symSize: 0x24 }
  - { offset: 0x938F3, size: 0x8, addend: 0x0, symName: __ZN3std7process7Command15get_current_dir17hfb7d9acbd8129f54E, symObjAddr: 0x34608, symBinAddr: 0x3C674, symSize: 0x1C }
  - { offset: 0x93951, size: 0x8, addend: 0x0, symName: __ZN3std7process5Child4kill17h92eb3910e0024496E, symObjAddr: 0x34A28, symBinAddr: 0x3CA94, symSize: 0x4C }
  - { offset: 0x939ED, size: 0x8, addend: 0x0, symName: __ZN3std7process5Child4wait17h9bae4de5aeb1d036E, symObjAddr: 0x34A74, symBinAddr: 0x3CAE0, symSize: 0xBC }
  - { offset: 0x93B8A, size: 0x8, addend: 0x0, symName: __ZN3std7process5Child8try_wait17h40b9738d82d98b43E, symObjAddr: 0x34B30, symBinAddr: 0x3CB9C, symSize: 0xB0 }
  - { offset: 0x93C53, size: 0x8, addend: 0x0, symName: __ZN3std7process5Child16wait_with_output17h93e4629ca27f0b6eE, symObjAddr: 0x34BE0, symBinAddr: 0x3CC4C, symSize: 0x2C8 }
  - { offset: 0x942B5, size: 0x8, addend: 0x0, symName: '__ZN58_$LT$std..process..Command$u20$as$u20$core..fmt..Debug$GT$3fmt17hdea53a41c53c4361E', symObjAddr: 0x34624, symBinAddr: 0x3C690, symSize: 0x10 }
  - { offset: 0x942D7, size: 0x8, addend: 0x0, symName: '__ZN84_$LT$std..process..CommandArgs$u20$as$u20$core..iter..traits..iterator..Iterator$GT$4next17hdb6f0fb491ae851bE', symObjAddr: 0x34634, symBinAddr: 0x3C6A0, symSize: 0x34 }
  - { offset: 0x942F6, size: 0x8, addend: 0x0, symName: '__ZN84_$LT$std..process..CommandArgs$u20$as$u20$core..iter..traits..iterator..Iterator$GT$4next17hdb6f0fb491ae851bE', symObjAddr: 0x34634, symBinAddr: 0x3C6A0, symSize: 0x34 }
  - { offset: 0x9430C, size: 0x8, addend: 0x0, symName: '__ZN84_$LT$std..process..CommandArgs$u20$as$u20$core..iter..traits..iterator..Iterator$GT$4next17hdb6f0fb491ae851bE', symObjAddr: 0x34634, symBinAddr: 0x3C6A0, symSize: 0x34 }
  - { offset: 0x9437A, size: 0x8, addend: 0x0, symName: '__ZN84_$LT$std..process..CommandArgs$u20$as$u20$core..iter..traits..iterator..Iterator$GT$9size_hint17hb9269037843ef64eE', symObjAddr: 0x34668, symBinAddr: 0x3C6D4, symSize: 0x28 }
  - { offset: 0x9440E, size: 0x8, addend: 0x0, symName: '__ZN95_$LT$std..process..CommandArgs$u20$as$u20$core..iter..traits..exact_size..ExactSizeIterator$GT$3len17h86579292d71227eeE', symObjAddr: 0x34690, symBinAddr: 0x3C6FC, symSize: 0x1C }
  - { offset: 0x944A2, size: 0x8, addend: 0x0, symName: '__ZN84_$LT$std..process..CommandEnvs$u20$as$u20$core..iter..traits..iterator..Iterator$GT$4next17h7656e8cf90efb9f2E', symObjAddr: 0x346AC, symBinAddr: 0x3C718, symSize: 0x50 }
  - { offset: 0x94535, size: 0x8, addend: 0x0, symName: '__ZN62_$LT$std..process..CommandEnvs$u20$as$u20$core..fmt..Debug$GT$3fmt17h30016ce161c0cc2cE', symObjAddr: 0x346FC, symBinAddr: 0x3C768, symSize: 0x4C }
  - { offset: 0x94583, size: 0x8, addend: 0x0, symName: __ZN3std7process6Output7exit_ok17hd3c969b9e1e4343bE, symObjAddr: 0x34748, symBinAddr: 0x3C7B4, symSize: 0x7C }
  - { offset: 0x9473D, size: 0x8, addend: 0x0, symName: '__ZN57_$LT$std..process..Output$u20$as$u20$core..fmt..Debug$GT$3fmt17h4309c324628d4112E', symObjAddr: 0x347C4, symBinAddr: 0x3C830, symSize: 0x10C }
  - { offset: 0x94877, size: 0x8, addend: 0x0, symName: '__ZN56_$LT$std..process..Stdio$u20$as$u20$core..fmt..Debug$GT$3fmt17h22d25e4f8111d7abE', symObjAddr: 0x348D0, symBinAddr: 0x3C93C, symSize: 0x38 }
  - { offset: 0x94899, size: 0x8, addend: 0x0, symName: '__ZN63_$LT$std..process..ExitStatus$u20$as$u20$core..fmt..Display$GT$3fmt17h4326069a27160cc3E', symObjAddr: 0x34908, symBinAddr: 0x3C974, symSize: 0x10 }
  - { offset: 0x948C9, size: 0x8, addend: 0x0, symName: __ZN3std7process15ExitStatusError4code17h775fdb0b4062b344E, symObjAddr: 0x34918, symBinAddr: 0x3C984, symSize: 0x58 }
  - { offset: 0x949A6, size: 0x8, addend: 0x0, symName: __ZN3std7process15ExitStatusError12code_nonzero17h811420b8d9fc7d95E, symObjAddr: 0x34970, symBinAddr: 0x3C9DC, symSize: 0x50 }
  - { offset: 0x94A82, size: 0x8, addend: 0x0, symName: '__ZN68_$LT$std..process..ExitStatusError$u20$as$u20$core..fmt..Display$GT$3fmt17h9bca3945b50d57d0E', symObjAddr: 0x349C0, symBinAddr: 0x3CA2C, symSize: 0x58 }
  - { offset: 0x94AF6, size: 0x8, addend: 0x0, symName: __ZN3std7process8ExitCode12exit_process17he72852e4d40782d1E, symObjAddr: 0x34A18, symBinAddr: 0x3CA84, symSize: 0x10 }
  - { offset: 0x94B55, size: 0x8, addend: 0x0, symName: __ZN3std7process4exit17h290c5030b5cd5658E, symObjAddr: 0x34EA8, symBinAddr: 0x3CF14, symSize: 0x1C }
  - { offset: 0x94B70, size: 0x8, addend: 0x0, symName: __ZN3std7process5abort17h49c1c997568fe6afE, symObjAddr: 0x34EC4, symBinAddr: 0x8ECD4, symSize: 0xC }
  - { offset: 0x94B8B, size: 0x8, addend: 0x0, symName: __ZN3std7process2id17h89d1451b11f4b1ceE, symObjAddr: 0x34ED0, symBinAddr: 0x3CF30, symSize: 0x10 }
  - { offset: 0x94BC3, size: 0x8, addend: 0x0, symName: '__ZN61_$LT$std..process..ExitStatus$u20$as$u20$core..fmt..Debug$GT$3fmt17hadfddc43efa664a4E', symObjAddr: 0x3CC8C, symBinAddr: 0x43F5C, symSize: 0x40 }
  - { offset: 0x94D3B, size: 0x8, addend: 0x0, symName: __ZN3std4path4Path11is_absolute17h7c022a9b06637836E, symObjAddr: 0x329FC, symBinAddr: 0x3AA68, symSize: 0x2C }
  - { offset: 0x94DC0, size: 0x8, addend: 0x0, symName: __ZN3std4path4Path6parent17h1fc624c49e134c4fE, symObjAddr: 0x32A28, symBinAddr: 0x3AA94, symSize: 0x74 }
  - { offset: 0x94DD8, size: 0x8, addend: 0x0, symName: __ZN3std4path4Path6parent17h1fc624c49e134c4fE, symObjAddr: 0x32A28, symBinAddr: 0x3AA94, symSize: 0x74 }
  - { offset: 0x94DEE, size: 0x8, addend: 0x0, symName: __ZN3std4path4Path6parent17h1fc624c49e134c4fE, symObjAddr: 0x32A28, symBinAddr: 0x3AA94, symSize: 0x74 }
  - { offset: 0x94E46, size: 0x8, addend: 0x0, symName: __ZN3std4path4Path9file_name17h788fbd852793cd25E, symObjAddr: 0x32A9C, symBinAddr: 0x3AB08, symSize: 0x64 }
  - { offset: 0x94E5E, size: 0x8, addend: 0x0, symName: __ZN3std4path4Path9file_name17h788fbd852793cd25E, symObjAddr: 0x32A9C, symBinAddr: 0x3AB08, symSize: 0x64 }
  - { offset: 0x94E74, size: 0x8, addend: 0x0, symName: __ZN3std4path4Path9file_name17h788fbd852793cd25E, symObjAddr: 0x32A9C, symBinAddr: 0x3AB08, symSize: 0x64 }
  - { offset: 0x94EB5, size: 0x8, addend: 0x0, symName: __ZN3std4path4Path13_strip_prefix17h33e1bc1b41113fafE, symObjAddr: 0x32B00, symBinAddr: 0x3AB6C, symSize: 0x21C }
  - { offset: 0x94FD0, size: 0x8, addend: 0x0, symName: __ZN3std4path4Path12_starts_with17h6f8ea3b2eef1b7b4E, symObjAddr: 0x32D1C, symBinAddr: 0x3AD88, symSize: 0x198 }
  - { offset: 0x950D4, size: 0x8, addend: 0x0, symName: __ZN3std4path4Path10_ends_with17h13493d510e539eeeE, symObjAddr: 0x32EB4, symBinAddr: 0x3AF20, symSize: 0x198 }
  - { offset: 0x95240, size: 0x8, addend: 0x0, symName: __ZN3std4path4Path9file_stem17hc6e41f8203df3812E, symObjAddr: 0x3304C, symBinAddr: 0x3B0B8, symSize: 0xF0 }
  - { offset: 0x95258, size: 0x8, addend: 0x0, symName: __ZN3std4path4Path9file_stem17hc6e41f8203df3812E, symObjAddr: 0x3304C, symBinAddr: 0x3B0B8, symSize: 0xF0 }
  - { offset: 0x9526E, size: 0x8, addend: 0x0, symName: __ZN3std4path4Path9file_stem17hc6e41f8203df3812E, symObjAddr: 0x3304C, symBinAddr: 0x3B0B8, symSize: 0xF0 }
  - { offset: 0x95284, size: 0x8, addend: 0x0, symName: __ZN3std4path4Path9file_stem17hc6e41f8203df3812E, symObjAddr: 0x3304C, symBinAddr: 0x3B0B8, symSize: 0xF0 }
  - { offset: 0x95540, size: 0x8, addend: 0x0, symName: __ZN3std4path4Path11file_prefix17h6fa05316042c124bE, symObjAddr: 0x3313C, symBinAddr: 0x3B1A8, symSize: 0x130 }
  - { offset: 0x95741, size: 0x8, addend: 0x0, symName: __ZN3std4path4Path9extension17h56ff710cfa5aee6fE, symObjAddr: 0x3326C, symBinAddr: 0x3B2D8, symSize: 0xC0 }
  - { offset: 0x95759, size: 0x8, addend: 0x0, symName: __ZN3std4path4Path9extension17h56ff710cfa5aee6fE, symObjAddr: 0x3326C, symBinAddr: 0x3B2D8, symSize: 0xC0 }
  - { offset: 0x9576F, size: 0x8, addend: 0x0, symName: __ZN3std4path4Path9extension17h56ff710cfa5aee6fE, symObjAddr: 0x3326C, symBinAddr: 0x3B2D8, symSize: 0xC0 }
  - { offset: 0x95785, size: 0x8, addend: 0x0, symName: __ZN3std4path4Path9extension17h56ff710cfa5aee6fE, symObjAddr: 0x3326C, symBinAddr: 0x3B2D8, symSize: 0xC0 }
  - { offset: 0x95A0B, size: 0x8, addend: 0x0, symName: __ZN3std4path4Path5_join17h8b1a4024a45dd3f7E, symObjAddr: 0x3332C, symBinAddr: 0x3B398, symSize: 0x1AC }
  - { offset: 0x95ED5, size: 0x8, addend: 0x0, symName: __ZN3std4path4Path15_with_file_name17h659f67a82c778ec4E, symObjAddr: 0x334D8, symBinAddr: 0x3B544, symSize: 0xF0 }
  - { offset: 0x96120, size: 0x8, addend: 0x0, symName: __ZN3std4path4Path15_with_extension17h80f2800c853fb02cE, symObjAddr: 0x335C8, symBinAddr: 0x3B634, symSize: 0x21C }
  - { offset: 0x96637, size: 0x8, addend: 0x0, symName: __ZN3std4path4Path10components17h7906927ac3070349E, symObjAddr: 0x337E4, symBinAddr: 0x3B850, symSize: 0x40 }
  - { offset: 0x96679, size: 0x8, addend: 0x0, symName: __ZN3std4path4Path7is_file17hcf107875e50b351dE, symObjAddr: 0x33824, symBinAddr: 0x3B890, symSize: 0x1C8 }
  - { offset: 0x96A98, size: 0x8, addend: 0x0, symName: __ZN3std4path4Path6is_dir17h864ae016d4d3dc3dE, symObjAddr: 0x339EC, symBinAddr: 0x3BA58, symSize: 0x1C8 }
  - { offset: 0x96EB7, size: 0x8, addend: 0x0, symName: __ZN3std4path4Path10is_symlink17ha7931aa46531d5bfE, symObjAddr: 0x33BB4, symBinAddr: 0x3BC20, symSize: 0x1C8 }
  - { offset: 0x974C7, size: 0x8, addend: 0x0, symName: '__ZN58_$LT$std..path..Components$u20$as$u20$core..fmt..Debug$GT$3fmt17h52555bcae07f691eE', symObjAddr: 0x30E0C, symBinAddr: 0x38E78, symSize: 0x64 }
  - { offset: 0x974EE, size: 0x8, addend: 0x0, symName: '__ZN112_$LT$$LT$std..path..Components$u20$as$u20$core..fmt..Debug$GT$..fmt..DebugHelper$u20$as$u20$core..fmt..Debug$GT$3fmt17h6358d8a4b7ff5cb2E', symObjAddr: 0x30E70, symBinAddr: 0x38EDC, symSize: 0xD4 }
  - { offset: 0x975C8, size: 0x8, addend: 0x0, symName: __ZN3std4path10Components15len_before_body17h1e464f5ae969685dE, symObjAddr: 0x30F44, symBinAddr: 0x38FB0, symSize: 0x188 }
  - { offset: 0x975E0, size: 0x8, addend: 0x0, symName: __ZN3std4path10Components15len_before_body17h1e464f5ae969685dE, symObjAddr: 0x30F44, symBinAddr: 0x38FB0, symSize: 0x188 }
  - { offset: 0x975F6, size: 0x8, addend: 0x0, symName: __ZN3std4path10Components15len_before_body17h1e464f5ae969685dE, symObjAddr: 0x30F44, symBinAddr: 0x38FB0, symSize: 0x188 }
  - { offset: 0x977D6, size: 0x8, addend: 0x0, symName: __ZN3std4path10Components7as_path17h1ed7d000db16df95E, symObjAddr: 0x310CC, symBinAddr: 0x39138, symSize: 0x318 }
  - { offset: 0x97A8F, size: 0x8, addend: 0x0, symName: __ZN3std4path10Components25parse_next_component_back17he6be2141c66faeadE, symObjAddr: 0x313E4, symBinAddr: 0x39450, symSize: 0x124 }
  - { offset: 0x97C8D, size: 0x8, addend: 0x0, symName: '__ZN52_$LT$std..path..Iter$u20$as$u20$core..fmt..Debug$GT$3fmt17h580a365f2a69ca92E', symObjAddr: 0x31508, symBinAddr: 0x39574, symSize: 0x64 }
  - { offset: 0x97CCB, size: 0x8, addend: 0x0, symName: '__ZN106_$LT$$LT$std..path..Iter$u20$as$u20$core..fmt..Debug$GT$..fmt..DebugHelper$u20$as$u20$core..fmt..Debug$GT$3fmt17h1f6e00c3da51ab93E', symObjAddr: 0x3156C, symBinAddr: 0x395D8, symSize: 0x134 }
  - { offset: 0x97DBE, size: 0x8, addend: 0x0, symName: '__ZN80_$LT$std..path..Components$u20$as$u20$core..iter..traits..iterator..Iterator$GT$4next17hcff8e9708d61f67cE', symObjAddr: 0x316A0, symBinAddr: 0x3970C, symSize: 0x340 }
  - { offset: 0x98138, size: 0x8, addend: 0x0, symName: '__ZN95_$LT$std..path..Components$u20$as$u20$core..iter..traits..double_ended..DoubleEndedIterator$GT$9next_back17h49bd41c7db94105fE', symObjAddr: 0x319E0, symBinAddr: 0x39A4C, symSize: 0x360 }
  - { offset: 0x982ED, size: 0x8, addend: 0x0, symName: __ZN3std4path18compare_components17hb5d399c53a36df2dE, symObjAddr: 0x31D40, symBinAddr: 0x39DAC, symSize: 0x2F0 }
  - { offset: 0x986FF, size: 0x8, addend: 0x0, symName: __ZN3std4path7PathBuf5_push17h48e3d4e16fb842c9E, symObjAddr: 0x32030, symBinAddr: 0x3A09C, symSize: 0x10C }
  - { offset: 0x98A07, size: 0x8, addend: 0x0, symName: __ZN3std4path7PathBuf3pop17h95b648411741d55eE, symObjAddr: 0x3213C, symBinAddr: 0x3A1A8, symSize: 0xE4 }
  - { offset: 0x98C5E, size: 0x8, addend: 0x0, symName: __ZN3std4path7PathBuf14_set_file_name17h87443f3cda5011c1E, symObjAddr: 0x32220, symBinAddr: 0x3A28C, symSize: 0x154 }
  - { offset: 0x990CB, size: 0x8, addend: 0x0, symName: __ZN3std4path7PathBuf14_set_extension17h8358ebcea6f3743aE, symObjAddr: 0x32374, symBinAddr: 0x3A3E0, symSize: 0x2F4 }
  - { offset: 0x99970, size: 0x8, addend: 0x0, symName: __ZN3std4path7PathBuf14_add_extension17hc54bf7f826a2eaafE, symObjAddr: 0x32668, symBinAddr: 0x3A6D4, symSize: 0x25C }
  - { offset: 0x99FFD, size: 0x8, addend: 0x0, symName: '__ZN3std4path117_$LT$impl$u20$core..convert..From$LT$$RF$std..path..Path$GT$$u20$for$u20$alloc..boxed..Box$LT$std..path..Path$GT$$GT$4from17heb58eefacbe6d50aE', symObjAddr: 0x328C4, symBinAddr: 0x3A930, symSize: 0x88 }
  - { offset: 0x9A136, size: 0x8, addend: 0x0, symName: '__ZN3std4path125_$LT$impl$u20$core..convert..From$LT$$RF$mut$u20$std..path..Path$GT$$u20$for$u20$alloc..boxed..Box$LT$std..path..Path$GT$$GT$4from17hab41cf95d4cfc93eE', symObjAddr: 0x3294C, symBinAddr: 0x3A9B8, symSize: 0x88 }
  - { offset: 0x9A285, size: 0x8, addend: 0x0, symName: '__ZN52_$LT$std..path..Path$u20$as$u20$core..fmt..Debug$GT$3fmt17ha3e10fffb3e9d2a2E', symObjAddr: 0x33D7C, symBinAddr: 0x3BDE8, symSize: 0x28 }
  - { offset: 0x9A2E4, size: 0x8, addend: 0x0, symName: '__ZN55_$LT$std..path..PathBuf$u20$as$u20$core..fmt..Debug$GT$3fmt17h4e0163bd4e490ac1E', symObjAddr: 0x329D4, symBinAddr: 0x3AA40, symSize: 0x28 }
  - { offset: 0x9A486, size: 0x8, addend: 0x0, symName: '__ZN55_$LT$std..path..Display$u20$as$u20$core..fmt..Debug$GT$3fmt17he4a27a12104e9515E', symObjAddr: 0x33DA4, symBinAddr: 0x3BE10, symSize: 0x28 }
  - { offset: 0x9A51A, size: 0x8, addend: 0x0, symName: '__ZN57_$LT$std..path..Display$u20$as$u20$core..fmt..Display$GT$3fmt17hd4912082635fe5f7E', symObjAddr: 0x33DCC, symBinAddr: 0x3BE38, symSize: 0x10 }
  - { offset: 0x9A543, size: 0x8, addend: 0x0, symName: '__ZN66_$LT$std..path..StripPrefixError$u20$as$u20$core..fmt..Display$GT$3fmt17ha1eb183f7502a204E', symObjAddr: 0x33DDC, symBinAddr: 0x3BE48, symSize: 0x20 }
  - { offset: 0x9A58E, size: 0x8, addend: 0x0, symName: '__ZN61_$LT$std..path..Component$u20$as$u20$core..cmp..PartialEq$GT$2eq17h3f4a5b2eda29ef00E', symObjAddr: 0x3CA84, symBinAddr: 0x43D54, symSize: 0x138 }
  - { offset: 0x9A6F8, size: 0x8, addend: 0x0, symName: '__ZN57_$LT$std..path..Component$u20$as$u20$core..fmt..Debug$GT$3fmt17h74a8e69956e63ad0E', symObjAddr: 0x3CBBC, symBinAddr: 0x43E8C, symSize: 0xD0 }
  - { offset: 0x9A7BA, size: 0x8, addend: 0x0, symName: '__ZN81_$LT$std..io..default_write_fmt..Adapter$LT$T$GT$$u20$as$u20$core..fmt..Write$GT$9write_str17h44f7ac52b47a8270E', symObjAddr: 0x2BF90, symBinAddr: 0x34008, symSize: 0xD8 }
  - { offset: 0x9A91E, size: 0x8, addend: 0x0, symName: '__ZN81_$LT$std..io..default_write_fmt..Adapter$LT$T$GT$$u20$as$u20$core..fmt..Write$GT$9write_str17h7c357bb62da2d4afE', symObjAddr: 0x2C068, symBinAddr: 0x340E0, symSize: 0xD8 }
  - { offset: 0x9AA82, size: 0x8, addend: 0x0, symName: '__ZN81_$LT$std..io..default_write_fmt..Adapter$LT$T$GT$$u20$as$u20$core..fmt..Write$GT$9write_str17hb6443c9f62d28875E', symObjAddr: 0x2C140, symBinAddr: 0x341B8, symSize: 0xA0 }
  - { offset: 0x9ABCF, size: 0x8, addend: 0x0, symName: '__ZN81_$LT$std..io..default_write_fmt..Adapter$LT$T$GT$$u20$as$u20$core..fmt..Write$GT$9write_str17hcaaf7c3c5979f0cfE', symObjAddr: 0x2C1E0, symBinAddr: 0x34258, symSize: 0x80 }
  - { offset: 0x9AD2C, size: 0x8, addend: 0x0, symName: '__ZN81_$LT$std..io..default_write_fmt..Adapter$LT$T$GT$$u20$as$u20$core..fmt..Write$GT$9write_str17hee0a07f255452f0eE', symObjAddr: 0x2C260, symBinAddr: 0x342D8, symSize: 0x50 }
  - { offset: 0x9AD57, size: 0x8, addend: 0x0, symName: '__ZN81_$LT$std..io..default_write_fmt..Adapter$LT$T$GT$$u20$as$u20$core..fmt..Write$GT$9write_str17hf397bb0acdb60980E', symObjAddr: 0x2C2B0, symBinAddr: 0x34328, symSize: 0x50 }
  - { offset: 0x9AE0C, size: 0x8, addend: 0x0, symName: '__ZN3std2io5impls74_$LT$impl$u20$std..io..Write$u20$for$u20$alloc..vec..Vec$LT$u8$C$A$GT$$GT$5write17h4c482d770e92e9e6E', symObjAddr: 0x26430, symBinAddr: 0x2E598, symSize: 0x84 }
  - { offset: 0x9AF61, size: 0x8, addend: 0x0, symName: '__ZN3std2io5impls74_$LT$impl$u20$std..io..Write$u20$for$u20$alloc..vec..Vec$LT$u8$C$A$GT$$GT$14write_vectored17h9923ab474c1291d5E', symObjAddr: 0x264B4, symBinAddr: 0x2E61C, symSize: 0x14C }
  - { offset: 0x9B1ED, size: 0x8, addend: 0x0, symName: '__ZN3std2io5impls74_$LT$impl$u20$std..io..Write$u20$for$u20$alloc..vec..Vec$LT$u8$C$A$GT$$GT$17is_write_vectored17h694cee1a8be3fdbfE', symObjAddr: 0x26600, symBinAddr: 0x2E768, symSize: 0x14 }
  - { offset: 0x9B208, size: 0x8, addend: 0x0, symName: '__ZN3std2io5impls74_$LT$impl$u20$std..io..Write$u20$for$u20$alloc..vec..Vec$LT$u8$C$A$GT$$GT$9write_all17h5a76fc63ddfe3141E', symObjAddr: 0x26614, symBinAddr: 0x2E77C, symSize: 0x80 }
  - { offset: 0x9B364, size: 0x8, addend: 0x0, symName: '__ZN3std2io5impls74_$LT$impl$u20$std..io..Write$u20$for$u20$alloc..vec..Vec$LT$u8$C$A$GT$$GT$18write_all_vectored17hf0b9e8628a189570E', symObjAddr: 0x26694, symBinAddr: 0x2E7FC, symSize: 0x144 }
  - { offset: 0x9B391, size: 0x8, addend: 0x0, symName: '__ZN3std2io5impls74_$LT$impl$u20$std..io..Write$u20$for$u20$alloc..vec..Vec$LT$u8$C$A$GT$$GT$18write_all_vectored17hf0b9e8628a189570E', symObjAddr: 0x26694, symBinAddr: 0x2E7FC, symSize: 0x144 }
  - { offset: 0x9B3A7, size: 0x8, addend: 0x0, symName: '__ZN3std2io5impls74_$LT$impl$u20$std..io..Write$u20$for$u20$alloc..vec..Vec$LT$u8$C$A$GT$$GT$18write_all_vectored17hf0b9e8628a189570E', symObjAddr: 0x26694, symBinAddr: 0x2E7FC, symSize: 0x144 }
  - { offset: 0x9B3BD, size: 0x8, addend: 0x0, symName: '__ZN3std2io5impls74_$LT$impl$u20$std..io..Write$u20$for$u20$alloc..vec..Vec$LT$u8$C$A$GT$$GT$18write_all_vectored17hf0b9e8628a189570E', symObjAddr: 0x26694, symBinAddr: 0x2E7FC, symSize: 0x144 }
  - { offset: 0x9B3D2, size: 0x8, addend: 0x0, symName: '__ZN3std2io5impls74_$LT$impl$u20$std..io..Write$u20$for$u20$alloc..vec..Vec$LT$u8$C$A$GT$$GT$18write_all_vectored17hf0b9e8628a189570E', symObjAddr: 0x26694, symBinAddr: 0x2E7FC, symSize: 0x144 }
  - { offset: 0x9B606, size: 0x8, addend: 0x0, symName: '__ZN3std2io5impls74_$LT$impl$u20$std..io..Write$u20$for$u20$alloc..vec..Vec$LT$u8$C$A$GT$$GT$5flush17h1d6f1d4c56ebdbd7E', symObjAddr: 0x267D8, symBinAddr: 0x2E940, symSize: 0x14 }
  - { offset: 0x9B6C8, size: 0x8, addend: 0x0, symName: __ZN3std2io5error5Error3new17h0f592333e2edf023E, symObjAddr: 0x25C6C, symBinAddr: 0x2DDD4, symSize: 0x138 }
  - { offset: 0x9BA28, size: 0x8, addend: 0x0, symName: __ZN3std2io5error5Error3new17h83a5cb16dfa85ee5E, symObjAddr: 0x25DA4, symBinAddr: 0x2DF0C, symSize: 0x80 }
  - { offset: 0x9BAF6, size: 0x8, addend: 0x0, symName: __ZN3std2io5error5Error4_new17h38531785127653f7E, symObjAddr: 0x25E24, symBinAddr: 0x2DF8C, symSize: 0x84 }
  - { offset: 0x9BCF6, size: 0x8, addend: 0x0, symName: __ZN3std2io5error14repr_bitpacked4Repr3new17h1e94312029c28ea4E, symObjAddr: 0x25B40, symBinAddr: 0x2DCA8, symSize: 0x58 }
  - { offset: 0x9BECB, size: 0x8, addend: 0x0, symName: __ZN3std2io5error14repr_bitpacked11decode_repr17hc6a52a2c9ab3bcf9E, symObjAddr: 0x25B98, symBinAddr: 0x2DD00, symSize: 0x64 }
  - { offset: 0x9BF38, size: 0x8, addend: 0x0, symName: '__ZN58_$LT$std..io..error..Error$u20$as$u20$core..fmt..Debug$GT$3fmt17h0013525273ecf5adE', symObjAddr: 0x25BFC, symBinAddr: 0x2DD64, symSize: 0x10 }
  - { offset: 0x9BF9B, size: 0x8, addend: 0x0, symName: '__ZN96_$LT$std..io..error..Error$u20$as$u20$core..convert..From$LT$alloc..ffi..c_str..NulError$GT$$GT$4from17h3b8319e7ad0be7ceE', symObjAddr: 0x25C0C, symBinAddr: 0x2DD74, symSize: 0x2C }
  - { offset: 0x9BFB9, size: 0x8, addend: 0x0, symName: '__ZN96_$LT$std..io..error..Error$u20$as$u20$core..convert..From$LT$alloc..ffi..c_str..NulError$GT$$GT$4from17h3b8319e7ad0be7ceE', symObjAddr: 0x25C0C, symBinAddr: 0x2DD74, symSize: 0x2C }
  - { offset: 0x9BFCE, size: 0x8, addend: 0x0, symName: '__ZN96_$LT$std..io..error..Error$u20$as$u20$core..convert..From$LT$alloc..ffi..c_str..NulError$GT$$GT$4from17h3b8319e7ad0be7ceE', symObjAddr: 0x25C0C, symBinAddr: 0x2DD74, symSize: 0x2C }
  - { offset: 0x9C06F, size: 0x8, addend: 0x0, symName: '__ZN64_$LT$std..io..error..ErrorKind$u20$as$u20$core..fmt..Display$GT$3fmt17hc1c23d5cbb8f416bE', symObjAddr: 0x25C38, symBinAddr: 0x2DDA0, symSize: 0x34 }
  - { offset: 0x9C0BC, size: 0x8, addend: 0x0, symName: '__ZN3std2io5error83_$LT$impl$u20$core..fmt..Debug$u20$for$u20$std..io..error..repr_bitpacked..Repr$GT$3fmt17h2465ef656c109a6bE', symObjAddr: 0x25EA8, symBinAddr: 0x2E010, symSize: 0x294 }
  - { offset: 0x9C325, size: 0x8, addend: 0x0, symName: '__ZN60_$LT$std..io..error..Error$u20$as$u20$core..fmt..Display$GT$3fmt17h307877b0256d8aeaE', symObjAddr: 0x2613C, symBinAddr: 0x2E2A4, symSize: 0x204 }
  - { offset: 0x9C5A3, size: 0x8, addend: 0x0, symName: '__ZN60_$LT$std..io..error..Error$u20$as$u20$core..error..Error$GT$11description17h80cd660ee75bb492E', symObjAddr: 0x26340, symBinAddr: 0x2E4A8, symSize: 0x80 }
  - { offset: 0x9C633, size: 0x8, addend: 0x0, symName: '__ZN60_$LT$std..io..error..Error$u20$as$u20$core..error..Error$GT$5cause17h76fa2e406d39eae5E', symObjAddr: 0x263C0, symBinAddr: 0x2E528, symSize: 0x38 }
  - { offset: 0x9C652, size: 0x8, addend: 0x0, symName: '__ZN60_$LT$std..io..error..Error$u20$as$u20$core..error..Error$GT$5cause17h76fa2e406d39eae5E', symObjAddr: 0x263C0, symBinAddr: 0x2E528, symSize: 0x38 }
  - { offset: 0x9C67B, size: 0x8, addend: 0x0, symName: '__ZN60_$LT$std..io..error..Error$u20$as$u20$core..error..Error$GT$6source17hdadc5fe0947798f1E', symObjAddr: 0x263F8, symBinAddr: 0x2E560, symSize: 0x38 }
  - { offset: 0x9C69A, size: 0x8, addend: 0x0, symName: '__ZN60_$LT$std..io..error..Error$u20$as$u20$core..error..Error$GT$6source17hdadc5fe0947798f1E', symObjAddr: 0x263F8, symBinAddr: 0x2E560, symSize: 0x38 }
  - { offset: 0x9C6CA, size: 0x8, addend: 0x0, symName: '__ZN62_$LT$std..io..error..ErrorKind$u20$as$u20$core..fmt..Debug$GT$3fmt17h2342cc7b219c9262E', symObjAddr: 0x3CA50, symBinAddr: 0x43D20, symSize: 0x34 }
  - { offset: 0x9C75C, size: 0x8, addend: 0x0, symName: __ZN3std2io5Write9write_all17h1732d62ff72d5897E, symObjAddr: 0x2C380, symBinAddr: 0x343F8, symSize: 0xB8 }
  - { offset: 0x9C89B, size: 0x8, addend: 0x0, symName: __ZN3std2io5Write18write_all_vectored17h7eb8ac6841a80655E, symObjAddr: 0x2C438, symBinAddr: 0x344B0, symSize: 0x1CC }
  - { offset: 0x9CB9A, size: 0x8, addend: 0x0, symName: __ZN3std2io5Write9write_fmt17h3c0110bef1edf8feE, symObjAddr: 0x2C604, symBinAddr: 0x3467C, symSize: 0x128 }
  - { offset: 0x9CDFF, size: 0x8, addend: 0x0, symName: __ZN3std2io5Write9write_fmt17h58bd9bb46c79748cE, symObjAddr: 0x2C72C, symBinAddr: 0x347A4, symSize: 0x128 }
  - { offset: 0x9D064, size: 0x8, addend: 0x0, symName: __ZN3std2io5Write9write_fmt17h5f88ceeeacddc282E, symObjAddr: 0x2C854, symBinAddr: 0x348CC, symSize: 0x128 }
  - { offset: 0x9D2EF, size: 0x8, addend: 0x0, symName: __ZN3std2io8buffered9bufreader6buffer6Buffer9backshift17h2f843c788935021bE, symObjAddr: 0x24C70, symBinAddr: 0x2CFF8, symSize: 0x50 }
  - { offset: 0x9D557, size: 0x8, addend: 0x0, symName: '__ZN82_$LT$std..io..buffered..bufreader..BufReader$LT$R$GT$$u20$as$u20$std..io..Read$GT$4read17h2ed98469a5cb69a6E', symObjAddr: 0x24CC0, symBinAddr: 0x2D048, symSize: 0x1AC }
  - { offset: 0x9D90A, size: 0x8, addend: 0x0, symName: '__ZN82_$LT$std..io..buffered..bufreader..BufReader$LT$R$GT$$u20$as$u20$std..io..Read$GT$8read_buf17haec7de7f86ff99d9E', symObjAddr: 0x24E6C, symBinAddr: 0x2D1F4, symSize: 0x1B0 }
  - { offset: 0x9DEF6, size: 0x8, addend: 0x0, symName: '__ZN82_$LT$std..io..buffered..bufreader..BufReader$LT$R$GT$$u20$as$u20$std..io..Read$GT$11read_to_end17h3d5d18820b0326c7E', symObjAddr: 0x2501C, symBinAddr: 0x2D3A4, symSize: 0x160 }
  - { offset: 0x9E2C6, size: 0x8, addend: 0x0, symName: '__ZN3std2io8buffered9bufwriter18BufWriter$LT$W$GT$9flush_buf17h4c8b452785abc4a0E', symObjAddr: 0x2517C, symBinAddr: 0x2D504, symSize: 0x1F8 }
  - { offset: 0x9E88A, size: 0x8, addend: 0x0, symName: '__ZN3std2io8buffered9bufwriter18BufWriter$LT$W$GT$10write_cold17hefb80bbc393e097dE', symObjAddr: 0x25408, symBinAddr: 0x8EAA8, symSize: 0xF8 }
  - { offset: 0x9EAFC, size: 0x8, addend: 0x0, symName: '__ZN3std2io8buffered9bufwriter18BufWriter$LT$W$GT$14write_all_cold17h523173f62601d84dE', symObjAddr: 0x25500, symBinAddr: 0x8EBA0, symSize: 0x128 }
  - { offset: 0x9EE40, size: 0x8, addend: 0x0, symName: '__ZN111_$LT$std..io..buffered..bufwriter..BufWriter$LT$W$GT$..flush_buf..BufGuard$u20$as$u20$core..ops..drop..Drop$GT$4drop17h4ea4d2df41e8fef6E', symObjAddr: 0x253A8, symBinAddr: 0x2D730, symSize: 0x60 }
  - { offset: 0x9EFCD, size: 0x8, addend: 0x0, symName: '__ZN3std2io8buffered9bufwriter18BufWriter$LT$W$GT$9flush_buf8BufGuard9remaining17hcb4ebfa7687afb34E', symObjAddr: 0x25374, symBinAddr: 0x2D6FC, symSize: 0x34 }
  - { offset: 0x9F0FE, size: 0x8, addend: 0x0, symName: '__ZN83_$LT$std..io..buffered..bufwriter..WriterPanicked$u20$as$u20$core..fmt..Display$GT$3fmt17h3275b279bf95ca3bE', symObjAddr: 0x25628, symBinAddr: 0x2D790, symSize: 0x54 }
  - { offset: 0x9F14E, size: 0x8, addend: 0x0, symName: '__ZN81_$LT$std..io..buffered..bufwriter..WriterPanicked$u20$as$u20$core..fmt..Debug$GT$3fmt17h01561dd00d475134E', symObjAddr: 0x2567C, symBinAddr: 0x2D7E4, symSize: 0xA4 }
  - { offset: 0x9F2E0, size: 0x8, addend: 0x0, symName: '__ZN93_$LT$std..io..buffered..linewritershim..LineWriterShim$LT$W$GT$$u20$as$u20$std..io..Write$GT$14write_vectored17hca35af561a682d17E', symObjAddr: 0x25720, symBinAddr: 0x2D888, symSize: 0x3F8 }
  - { offset: 0x9FCB2, size: 0x8, addend: 0x0, symName: '__ZN58_$LT$std..io..stdio..StdinRaw$u20$as$u20$std..io..Read$GT$4read17h82d42331e5044613E', symObjAddr: 0x26B14, symBinAddr: 0x2EC7C, symSize: 0x78 }
  - { offset: 0x9FDBA, size: 0x8, addend: 0x0, symName: '__ZN58_$LT$std..io..stdio..StdinRaw$u20$as$u20$std..io..Read$GT$8read_buf17hf97e656469cc0973E', symObjAddr: 0x26B8C, symBinAddr: 0x2ECF4, symSize: 0x88 }
  - { offset: 0x9FF7B, size: 0x8, addend: 0x0, symName: '__ZN58_$LT$std..io..stdio..StdinRaw$u20$as$u20$std..io..Read$GT$13read_vectored17h34830df73953421dE', symObjAddr: 0x26C14, symBinAddr: 0x2ED7C, symSize: 0x78 }
  - { offset: 0xA0083, size: 0x8, addend: 0x0, symName: '__ZN58_$LT$std..io..stdio..StdinRaw$u20$as$u20$std..io..Read$GT$10read_exact17h3621af76d8131417E', symObjAddr: 0x26C8C, symBinAddr: 0x2EDF4, symSize: 0xDC }
  - { offset: 0xA01F8, size: 0x8, addend: 0x0, symName: '__ZN58_$LT$std..io..stdio..StdinRaw$u20$as$u20$std..io..Read$GT$14read_buf_exact17h5b8a12ba5b46010fE', symObjAddr: 0x26D68, symBinAddr: 0x2EED0, symSize: 0xE4 }
  - { offset: 0xA0410, size: 0x8, addend: 0x0, symName: '__ZN58_$LT$std..io..stdio..StdinRaw$u20$as$u20$std..io..Read$GT$11read_to_end17h97b3c7674cac572bE', symObjAddr: 0x26E4C, symBinAddr: 0x2EFB4, symSize: 0x3C }
  - { offset: 0xA044F, size: 0x8, addend: 0x0, symName: '__ZN58_$LT$std..io..stdio..StdinRaw$u20$as$u20$std..io..Read$GT$14read_to_string17h17a3fee5d6d3cb7aE', symObjAddr: 0x26E88, symBinAddr: 0x2EFF0, symSize: 0xDC }
  - { offset: 0xA071F, size: 0x8, addend: 0x0, symName: '__ZN60_$LT$std..io..stdio..StdoutRaw$u20$as$u20$std..io..Write$GT$5write17h4a146f7c5c63ce31E', symObjAddr: 0x26F64, symBinAddr: 0x2F0CC, symSize: 0x7C }
  - { offset: 0xA0829, size: 0x8, addend: 0x0, symName: '__ZN60_$LT$std..io..stdio..StdoutRaw$u20$as$u20$std..io..Write$GT$14write_vectored17hbbbee1145fa10ebaE', symObjAddr: 0x26FE0, symBinAddr: 0x2F148, symSize: 0xDC }
  - { offset: 0xA09B6, size: 0x8, addend: 0x0, symName: '__ZN60_$LT$std..io..stdio..StdoutRaw$u20$as$u20$std..io..Write$GT$9write_all17h41f4686db6e9ade5E', symObjAddr: 0x270BC, symBinAddr: 0x2F224, symSize: 0xC8 }
  - { offset: 0xA0B18, size: 0x8, addend: 0x0, symName: '__ZN60_$LT$std..io..stdio..StdoutRaw$u20$as$u20$std..io..Write$GT$18write_all_vectored17h8f966e512a879b3bE', symObjAddr: 0x27184, symBinAddr: 0x2F2EC, symSize: 0x1D4 }
  - { offset: 0xA0DB1, size: 0x8, addend: 0x0, symName: '__ZN60_$LT$std..io..stdio..StdoutRaw$u20$as$u20$std..io..Write$GT$9write_fmt17h33a7766efce14a28E', symObjAddr: 0x27358, symBinAddr: 0x2F4C0, symSize: 0x138 }
  - { offset: 0xA10C1, size: 0x8, addend: 0x0, symName: '__ZN60_$LT$std..io..stdio..StderrRaw$u20$as$u20$std..io..Write$GT$5write17h64bf1b72cf60d81eE', symObjAddr: 0x27490, symBinAddr: 0x2F5F8, symSize: 0x7C }
  - { offset: 0xA11DF, size: 0x8, addend: 0x0, symName: '__ZN60_$LT$std..io..stdio..StderrRaw$u20$as$u20$std..io..Write$GT$14write_vectored17h9146aaf372cad7d6E', symObjAddr: 0x2750C, symBinAddr: 0x2F674, symSize: 0xDC }
  - { offset: 0xA136C, size: 0x8, addend: 0x0, symName: '__ZN60_$LT$std..io..stdio..StderrRaw$u20$as$u20$std..io..Write$GT$5flush17h6420240d767114a2E', symObjAddr: 0x275E8, symBinAddr: 0x2F750, symSize: 0x14 }
  - { offset: 0xA1386, size: 0x8, addend: 0x0, symName: '__ZN60_$LT$std..io..stdio..StderrRaw$u20$as$u20$std..io..Write$GT$9write_all17h899ce38cf986e1d5E', symObjAddr: 0x275FC, symBinAddr: 0x2F764, symSize: 0xC8 }
  - { offset: 0xA14E8, size: 0x8, addend: 0x0, symName: '__ZN60_$LT$std..io..stdio..StderrRaw$u20$as$u20$std..io..Write$GT$18write_all_vectored17h55d135e090d32f06E', symObjAddr: 0x276C4, symBinAddr: 0x2F82C, symSize: 0x28 }
  - { offset: 0xA1512, size: 0x8, addend: 0x0, symName: '__ZN60_$LT$std..io..stdio..StderrRaw$u20$as$u20$std..io..Write$GT$9write_fmt17h15c138db5407c744E', symObjAddr: 0x276EC, symBinAddr: 0x2F854, symSize: 0x28 }
  - { offset: 0xA15AB, size: 0x8, addend: 0x0, symName: __ZN3std2io5stdio5stdin17hf6f3b1767528ba89E, symObjAddr: 0x27714, symBinAddr: 0x2F87C, symSize: 0x3C }
  - { offset: 0xA15E6, size: 0x8, addend: 0x0, symName: __ZN3std2io5stdio5stdin17hf6f3b1767528ba89E, symObjAddr: 0x27714, symBinAddr: 0x2F87C, symSize: 0x3C }
  - { offset: 0xA15FC, size: 0x8, addend: 0x0, symName: __ZN3std2io5stdio5stdin17hf6f3b1767528ba89E, symObjAddr: 0x27714, symBinAddr: 0x2F87C, symSize: 0x3C }
  - { offset: 0xA1611, size: 0x8, addend: 0x0, symName: __ZN3std2io5stdio5stdin17hf6f3b1767528ba89E, symObjAddr: 0x27714, symBinAddr: 0x2F87C, symSize: 0x3C }
  - { offset: 0xA1627, size: 0x8, addend: 0x0, symName: __ZN3std2io5stdio5stdin17hf6f3b1767528ba89E, symObjAddr: 0x27714, symBinAddr: 0x2F87C, symSize: 0x3C }
  - { offset: 0xA163D, size: 0x8, addend: 0x0, symName: __ZN3std2io5stdio5stdin17hf6f3b1767528ba89E, symObjAddr: 0x27714, symBinAddr: 0x2F87C, symSize: 0x3C }
  - { offset: 0xA1652, size: 0x8, addend: 0x0, symName: __ZN3std2io5stdio5stdin17hf6f3b1767528ba89E, symObjAddr: 0x27714, symBinAddr: 0x2F87C, symSize: 0x3C }
  - { offset: 0xA1672, size: 0x8, addend: 0x0, symName: __ZN3std2io5stdio5Stdin4lock17hff6fc7bdb5cdfab8E, symObjAddr: 0x27750, symBinAddr: 0x2F8B8, symSize: 0x68 }
  - { offset: 0xA17D6, size: 0x8, addend: 0x0, symName: __ZN3std2io5stdio5Stdin9read_line17ha846b4109f632a9cE, symObjAddr: 0x277B8, symBinAddr: 0x2F920, symSize: 0x15C }
  - { offset: 0xA1CC9, size: 0x8, addend: 0x0, symName: __ZN3std2io5stdio5Stdin5lines17hc92859298e85e2fdE, symObjAddr: 0x27914, symBinAddr: 0x2FA7C, symSize: 0x68 }
  - { offset: 0xA1E4A, size: 0x8, addend: 0x0, symName: '__ZN62_$LT$std..io..stdio..StdinLock$u20$as$u20$std..io..BufRead$GT$8fill_buf17hce3382878fd1c324E', symObjAddr: 0x28DAC, symBinAddr: 0x30F14, symSize: 0xD0 }
  - { offset: 0xA2043, size: 0x8, addend: 0x0, symName: '__ZN62_$LT$std..io..stdio..StdinLock$u20$as$u20$std..io..BufRead$GT$7consume17h98f86f8d6021d927E', symObjAddr: 0x28E7C, symBinAddr: 0x30FE4, symSize: 0x28 }
  - { offset: 0xA20CF, size: 0x8, addend: 0x0, symName: '__ZN62_$LT$std..io..stdio..StdinLock$u20$as$u20$std..io..BufRead$GT$10read_until17hb1dfb0a55f825e9aE', symObjAddr: 0x28EA4, symBinAddr: 0x3100C, symSize: 0x18 }
  - { offset: 0xA212E, size: 0x8, addend: 0x0, symName: '__ZN62_$LT$std..io..stdio..StdinLock$u20$as$u20$std..io..BufRead$GT$9read_line17hecc5e3cb3dd74ef5E', symObjAddr: 0x28EBC, symBinAddr: 0x31024, symSize: 0xC4 }
  - { offset: 0xA238B, size: 0x8, addend: 0x0, symName: '__ZN58_$LT$std..io..stdio..Stdin$u20$as$u20$core..fmt..Debug$GT$3fmt17h468056c8561a3e2cE', symObjAddr: 0x2797C, symBinAddr: 0x2FAE4, symSize: 0x38 }
  - { offset: 0xA23D7, size: 0x8, addend: 0x0, symName: '__ZN59_$LT$std..io..stdio..StdinLock$u20$as$u20$std..io..Read$GT$4read17h8801aeecf351650eE', symObjAddr: 0x28600, symBinAddr: 0x30768, symSize: 0x18 }
  - { offset: 0xA2419, size: 0x8, addend: 0x0, symName: '__ZN59_$LT$std..io..stdio..StdinLock$u20$as$u20$std..io..Read$GT$8read_buf17ha8600c9383040f40E', symObjAddr: 0x28618, symBinAddr: 0x30780, symSize: 0x18 }
  - { offset: 0xA245B, size: 0x8, addend: 0x0, symName: '__ZN59_$LT$std..io..stdio..StdinLock$u20$as$u20$std..io..Read$GT$13read_vectored17h0640021542dac13dE', symObjAddr: 0x28630, symBinAddr: 0x30798, symSize: 0x258 }
  - { offset: 0xA2965, size: 0x8, addend: 0x0, symName: '__ZN59_$LT$std..io..stdio..StdinLock$u20$as$u20$std..io..Read$GT$11read_to_end17h2752da6dcd6dff7dE', symObjAddr: 0x28888, symBinAddr: 0x309F0, symSize: 0x18 }
  - { offset: 0xA29A7, size: 0x8, addend: 0x0, symName: '__ZN59_$LT$std..io..stdio..StdinLock$u20$as$u20$std..io..Read$GT$14read_to_string17h3e20aa84ac73ec0dE', symObjAddr: 0x288A0, symBinAddr: 0x30A08, symSize: 0x1BC }
  - { offset: 0xA2F71, size: 0x8, addend: 0x0, symName: '__ZN59_$LT$std..io..stdio..StdinLock$u20$as$u20$std..io..Read$GT$10read_exact17h4a7159bf9a315b59E', symObjAddr: 0x28A5C, symBinAddr: 0x30BC4, symSize: 0x1C4 }
  - { offset: 0xA3388, size: 0x8, addend: 0x0, symName: '__ZN59_$LT$std..io..stdio..StdinLock$u20$as$u20$std..io..Read$GT$14read_buf_exact17ha88ebc0bb4977fc1E', symObjAddr: 0x28C20, symBinAddr: 0x30D88, symSize: 0x18C }
  - { offset: 0xA3887, size: 0x8, addend: 0x0, symName: '__ZN55_$LT$std..io..stdio..Stdin$u20$as$u20$std..io..Read$GT$4read17h9cb443fc6e03ba59E', symObjAddr: 0x279B4, symBinAddr: 0x2FB1C, symSize: 0xF0 }
  - { offset: 0xA3B26, size: 0x8, addend: 0x0, symName: '__ZN55_$LT$std..io..stdio..Stdin$u20$as$u20$std..io..Read$GT$8read_buf17h14d96f68497235beE', symObjAddr: 0x27AA4, symBinAddr: 0x2FC0C, symSize: 0xD0 }
  - { offset: 0xA3DC5, size: 0x8, addend: 0x0, symName: '__ZN55_$LT$std..io..stdio..Stdin$u20$as$u20$std..io..Read$GT$13read_vectored17h53a905fa59222a10E', symObjAddr: 0x27B74, symBinAddr: 0x2FCDC, symSize: 0xD8 }
  - { offset: 0xA4060, size: 0x8, addend: 0x0, symName: '__ZN55_$LT$std..io..stdio..Stdin$u20$as$u20$std..io..Read$GT$11read_to_end17hae2f3424f4b448fdE', symObjAddr: 0x27C4C, symBinAddr: 0x2FDB4, symSize: 0xD8 }
  - { offset: 0xA433F, size: 0x8, addend: 0x0, symName: '__ZN55_$LT$std..io..stdio..Stdin$u20$as$u20$std..io..Read$GT$14read_to_string17h5641e76214e2be07E', symObjAddr: 0x27D24, symBinAddr: 0x2FE8C, symSize: 0xE8 }
  - { offset: 0xA45DA, size: 0x8, addend: 0x0, symName: '__ZN55_$LT$std..io..stdio..Stdin$u20$as$u20$std..io..Read$GT$10read_exact17hd4f4c767a29f2a80E', symObjAddr: 0x27E0C, symBinAddr: 0x2FF74, symSize: 0xE8 }
  - { offset: 0xA4875, size: 0x8, addend: 0x0, symName: '__ZN55_$LT$std..io..stdio..Stdin$u20$as$u20$std..io..Read$GT$14read_buf_exact17h0044e4ee24e0b718E', symObjAddr: 0x27EF4, symBinAddr: 0x3005C, symSize: 0xD8 }
  - { offset: 0xA4B17, size: 0x8, addend: 0x0, symName: '__ZN59_$LT$$RF$std..io..stdio..Stdin$u20$as$u20$std..io..Read$GT$4read17h13d91820ccdfa1d2E', symObjAddr: 0x27FCC, symBinAddr: 0x30134, symSize: 0xF4 }
  - { offset: 0xA4DB6, size: 0x8, addend: 0x0, symName: '__ZN59_$LT$$RF$std..io..stdio..Stdin$u20$as$u20$std..io..Read$GT$8read_buf17hf0e2e5cc479ae215E', symObjAddr: 0x280C0, symBinAddr: 0x30228, symSize: 0xD4 }
  - { offset: 0xA5055, size: 0x8, addend: 0x0, symName: '__ZN59_$LT$$RF$std..io..stdio..Stdin$u20$as$u20$std..io..Read$GT$13read_vectored17h2af3915f77f8528cE', symObjAddr: 0x28194, symBinAddr: 0x302FC, symSize: 0xDC }
  - { offset: 0xA52F0, size: 0x8, addend: 0x0, symName: '__ZN59_$LT$$RF$std..io..stdio..Stdin$u20$as$u20$std..io..Read$GT$11read_to_end17he5f3222f7cfb9d75E', symObjAddr: 0x28270, symBinAddr: 0x303D8, symSize: 0xDC }
  - { offset: 0xA55CF, size: 0x8, addend: 0x0, symName: '__ZN59_$LT$$RF$std..io..stdio..Stdin$u20$as$u20$std..io..Read$GT$14read_to_string17ha98299cadd699583E', symObjAddr: 0x2834C, symBinAddr: 0x304B4, symSize: 0xEC }
  - { offset: 0xA586A, size: 0x8, addend: 0x0, symName: '__ZN59_$LT$$RF$std..io..stdio..Stdin$u20$as$u20$std..io..Read$GT$10read_exact17hc3e64b085914cd37E', symObjAddr: 0x28438, symBinAddr: 0x305A0, symSize: 0xEC }
  - { offset: 0xA5B05, size: 0x8, addend: 0x0, symName: '__ZN59_$LT$$RF$std..io..stdio..Stdin$u20$as$u20$std..io..Read$GT$14read_buf_exact17h817cc982c757fef1E', symObjAddr: 0x28524, symBinAddr: 0x3068C, symSize: 0xDC }
  - { offset: 0xA5DA7, size: 0x8, addend: 0x0, symName: '__ZN62_$LT$std..io..stdio..StdinLock$u20$as$u20$core..fmt..Debug$GT$3fmt17he6d7e7bbbe197e49E', symObjAddr: 0x28F80, symBinAddr: 0x310E8, symSize: 0x38 }
  - { offset: 0xA5DC3, size: 0x8, addend: 0x0, symName: __ZN3std2io5stdio6stdout17h7438c8d881156829E, symObjAddr: 0x28FB8, symBinAddr: 0x31120, symSize: 0x3C }
  - { offset: 0xA5DF7, size: 0x8, addend: 0x0, symName: __ZN3std2io5stdio6stdout17h7438c8d881156829E, symObjAddr: 0x28FB8, symBinAddr: 0x31120, symSize: 0x3C }
  - { offset: 0xA5E0D, size: 0x8, addend: 0x0, symName: __ZN3std2io5stdio6stdout17h7438c8d881156829E, symObjAddr: 0x28FB8, symBinAddr: 0x31120, symSize: 0x3C }
  - { offset: 0xA5E22, size: 0x8, addend: 0x0, symName: __ZN3std2io5stdio6stdout17h7438c8d881156829E, symObjAddr: 0x28FB8, symBinAddr: 0x31120, symSize: 0x3C }
  - { offset: 0xA5E38, size: 0x8, addend: 0x0, symName: __ZN3std2io5stdio6stdout17h7438c8d881156829E, symObjAddr: 0x28FB8, symBinAddr: 0x31120, symSize: 0x3C }
  - { offset: 0xA5E4E, size: 0x8, addend: 0x0, symName: __ZN3std2io5stdio6stdout17h7438c8d881156829E, symObjAddr: 0x28FB8, symBinAddr: 0x31120, symSize: 0x3C }
  - { offset: 0xA5E63, size: 0x8, addend: 0x0, symName: __ZN3std2io5stdio6stdout17h7438c8d881156829E, symObjAddr: 0x28FB8, symBinAddr: 0x31120, symSize: 0x3C }
  - { offset: 0xA5E83, size: 0x8, addend: 0x0, symName: '__ZN59_$LT$std..io..stdio..Stdout$u20$as$u20$core..fmt..Debug$GT$3fmt17hac6249d8fa29ba23E', symObjAddr: 0x28FF4, symBinAddr: 0x3115C, symSize: 0x38 }
  - { offset: 0xA5ECF, size: 0x8, addend: 0x0, symName: '__ZN61_$LT$$RF$std..io..stdio..Stdout$u20$as$u20$std..io..Write$GT$5write17hefa6fcfcc7ac6e2cE', symObjAddr: 0x29274, symBinAddr: 0x313DC, symSize: 0xA8 }
  - { offset: 0xA60D0, size: 0x8, addend: 0x0, symName: '__ZN61_$LT$$RF$std..io..stdio..Stdout$u20$as$u20$std..io..Write$GT$14write_vectored17h555e9c994cc110bcE', symObjAddr: 0x2931C, symBinAddr: 0x31484, symSize: 0xDC }
  - { offset: 0xA64E8, size: 0x8, addend: 0x0, symName: '__ZN61_$LT$$RF$std..io..stdio..Stdout$u20$as$u20$std..io..Write$GT$5flush17hde14ac068f4e3d79E', symObjAddr: 0x293F8, symBinAddr: 0x31560, symSize: 0xBC }
  - { offset: 0xA6916, size: 0x8, addend: 0x0, symName: '__ZN61_$LT$$RF$std..io..stdio..Stdout$u20$as$u20$std..io..Write$GT$9write_all17h7c65ad0e9a98a703E', symObjAddr: 0x294B4, symBinAddr: 0x3161C, symSize: 0xA0 }
  - { offset: 0xA6B17, size: 0x8, addend: 0x0, symName: '__ZN61_$LT$$RF$std..io..stdio..Stdout$u20$as$u20$std..io..Write$GT$18write_all_vectored17h2498ea313b250ac6E', symObjAddr: 0x29554, symBinAddr: 0x316BC, symSize: 0xA0 }
  - { offset: 0xA6D18, size: 0x8, addend: 0x0, symName: '__ZN61_$LT$$RF$std..io..stdio..Stdout$u20$as$u20$std..io..Write$GT$9write_fmt17h201f7138e565eaecE', symObjAddr: 0x295F4, symBinAddr: 0x3175C, symSize: 0x190 }
  - { offset: 0xA713F, size: 0x8, addend: 0x0, symName: '__ZN57_$LT$std..io..stdio..Stdout$u20$as$u20$std..io..Write$GT$5write17h57c7d36f8cef3d02E', symObjAddr: 0x2902C, symBinAddr: 0x31194, symSize: 0xA4 }
  - { offset: 0xA7356, size: 0x8, addend: 0x0, symName: '__ZN57_$LT$std..io..stdio..Stdout$u20$as$u20$std..io..Write$GT$14write_vectored17hded5034cfd6b5592E', symObjAddr: 0x290D0, symBinAddr: 0x31238, symSize: 0x24 }
  - { offset: 0xA7371, size: 0x8, addend: 0x0, symName: '__ZN57_$LT$std..io..stdio..Stdout$u20$as$u20$std..io..Write$GT$5flush17h8f169b15bea87f67E', symObjAddr: 0x290F4, symBinAddr: 0x3125C, symSize: 0x24 }
  - { offset: 0xA738C, size: 0x8, addend: 0x0, symName: '__ZN57_$LT$std..io..stdio..Stdout$u20$as$u20$std..io..Write$GT$9write_all17hca321caeb490cc9aE', symObjAddr: 0x29118, symBinAddr: 0x31280, symSize: 0x9C }
  - { offset: 0xA75A3, size: 0x8, addend: 0x0, symName: '__ZN57_$LT$std..io..stdio..Stdout$u20$as$u20$std..io..Write$GT$18write_all_vectored17he8d37ba8fa72c6baE', symObjAddr: 0x291B4, symBinAddr: 0x3131C, symSize: 0x9C }
  - { offset: 0xA77BA, size: 0x8, addend: 0x0, symName: '__ZN57_$LT$std..io..stdio..Stdout$u20$as$u20$std..io..Write$GT$9write_fmt17h634ee958d7faa581E', symObjAddr: 0x29250, symBinAddr: 0x313B8, symSize: 0x24 }
  - { offset: 0xA77FF, size: 0x8, addend: 0x0, symName: '__ZN61_$LT$std..io..stdio..StdoutLock$u20$as$u20$std..io..Write$GT$5write17h6eb822dfc1de2d66E', symObjAddr: 0x29784, symBinAddr: 0x318EC, symSize: 0x264 }
  - { offset: 0xA7FC5, size: 0x8, addend: 0x0, symName: '__ZN61_$LT$std..io..stdio..StdoutLock$u20$as$u20$std..io..Write$GT$14write_vectored17h9d3afec4c47394c6E', symObjAddr: 0x299E8, symBinAddr: 0x31B50, symSize: 0x5C }
  - { offset: 0xA81F1, size: 0x8, addend: 0x0, symName: '__ZN61_$LT$std..io..stdio..StdoutLock$u20$as$u20$std..io..Write$GT$5flush17hbe64d79f090e182fE', symObjAddr: 0x29A44, symBinAddr: 0x31BAC, symSize: 0x5C }
  - { offset: 0xA8433, size: 0x8, addend: 0x0, symName: '__ZN61_$LT$std..io..stdio..StdoutLock$u20$as$u20$std..io..Write$GT$9write_all17h29fc49b0b86608d3E', symObjAddr: 0x29AA0, symBinAddr: 0x31C08, symSize: 0x268 }
  - { offset: 0xA8C31, size: 0x8, addend: 0x0, symName: '__ZN61_$LT$std..io..stdio..StdoutLock$u20$as$u20$std..io..Write$GT$18write_all_vectored17he62596f3d9545daaE', symObjAddr: 0x29D08, symBinAddr: 0x31E70, symSize: 0x300 }
  - { offset: 0xA92A0, size: 0x8, addend: 0x0, symName: '__ZN63_$LT$std..io..stdio..StdoutLock$u20$as$u20$core..fmt..Debug$GT$3fmt17hd4425dd1402474bdE', symObjAddr: 0x2A008, symBinAddr: 0x32170, symSize: 0x38 }
  - { offset: 0xA92C2, size: 0x8, addend: 0x0, symName: __ZN3std2io5stdio6Stderr4lock17h212e77c451de99beE, symObjAddr: 0x2A040, symBinAddr: 0x321A8, symSize: 0x10C }
  - { offset: 0xA9578, size: 0x8, addend: 0x0, symName: '__ZN59_$LT$std..io..stdio..Stderr$u20$as$u20$core..fmt..Debug$GT$3fmt17h6bded3602cb9538cE', symObjAddr: 0x2A14C, symBinAddr: 0x322B4, symSize: 0x38 }
  - { offset: 0xA959A, size: 0x8, addend: 0x0, symName: '__ZN57_$LT$std..io..stdio..Stderr$u20$as$u20$std..io..Write$GT$5write17h65ab35c15a21d9d5E', symObjAddr: 0x2A184, symBinAddr: 0x322EC, symSize: 0x24 }
  - { offset: 0xA95B5, size: 0x8, addend: 0x0, symName: '__ZN57_$LT$std..io..stdio..Stderr$u20$as$u20$std..io..Write$GT$14write_vectored17hd410baa545dab989E', symObjAddr: 0x2A1A8, symBinAddr: 0x32310, symSize: 0x24 }
  - { offset: 0xA95D0, size: 0x8, addend: 0x0, symName: '__ZN57_$LT$std..io..stdio..Stderr$u20$as$u20$std..io..Write$GT$5flush17heeb1071c59c86b19E', symObjAddr: 0x2A1CC, symBinAddr: 0x32334, symSize: 0x80 }
  - { offset: 0xA9849, size: 0x8, addend: 0x0, symName: '__ZN57_$LT$std..io..stdio..Stderr$u20$as$u20$std..io..Write$GT$9write_all17h4694b64efb973b53E', symObjAddr: 0x2A24C, symBinAddr: 0x323B4, symSize: 0x9C }
  - { offset: 0xA9A60, size: 0x8, addend: 0x0, symName: '__ZN57_$LT$std..io..stdio..Stderr$u20$as$u20$std..io..Write$GT$18write_all_vectored17hbf5651a6a93ebd0bE', symObjAddr: 0x2A2E8, symBinAddr: 0x32450, symSize: 0x24 }
  - { offset: 0xA9A7B, size: 0x8, addend: 0x0, symName: '__ZN57_$LT$std..io..stdio..Stderr$u20$as$u20$std..io..Write$GT$9write_fmt17h052ad466e2db2545E', symObjAddr: 0x2A30C, symBinAddr: 0x32474, symSize: 0x24 }
  - { offset: 0xA9AC0, size: 0x8, addend: 0x0, symName: '__ZN61_$LT$$RF$std..io..stdio..Stderr$u20$as$u20$std..io..Write$GT$5write17h81918549eada17fbE', symObjAddr: 0x2A330, symBinAddr: 0x32498, symSize: 0x108 }
  - { offset: 0xA9EF9, size: 0x8, addend: 0x0, symName: '__ZN61_$LT$$RF$std..io..stdio..Stderr$u20$as$u20$std..io..Write$GT$14write_vectored17hb90c480dad572ce5E', symObjAddr: 0x2A438, symBinAddr: 0x325A0, symSize: 0x168 }
  - { offset: 0xAA3CD, size: 0x8, addend: 0x0, symName: '__ZN61_$LT$$RF$std..io..stdio..Stderr$u20$as$u20$std..io..Write$GT$5flush17h1645ff7242cb588fE', symObjAddr: 0x2A5A0, symBinAddr: 0x32708, symSize: 0x84 }
  - { offset: 0xAA630, size: 0x8, addend: 0x0, symName: '__ZN61_$LT$$RF$std..io..stdio..Stderr$u20$as$u20$std..io..Write$GT$9write_all17h9a802b40c328574fE', symObjAddr: 0x2A624, symBinAddr: 0x3278C, symSize: 0xA0 }
  - { offset: 0xAA831, size: 0x8, addend: 0x0, symName: '__ZN61_$LT$$RF$std..io..stdio..Stderr$u20$as$u20$std..io..Write$GT$18write_all_vectored17h2ba0b46cb0f4cef9E', symObjAddr: 0x2A6C4, symBinAddr: 0x3282C, symSize: 0xE4 }
  - { offset: 0xAAC41, size: 0x8, addend: 0x0, symName: '__ZN61_$LT$$RF$std..io..stdio..Stderr$u20$as$u20$std..io..Write$GT$9write_fmt17h6a60023e4acd9681E', symObjAddr: 0x2A7A8, symBinAddr: 0x32910, symSize: 0x190 }
  - { offset: 0xAB0A0, size: 0x8, addend: 0x0, symName: '__ZN61_$LT$std..io..stdio..StderrLock$u20$as$u20$std..io..Write$GT$5write17h6513141bb3fde136E', symObjAddr: 0x2A938, symBinAddr: 0x32AA0, symSize: 0xB0 }
  - { offset: 0xAB30D, size: 0x8, addend: 0x0, symName: '__ZN61_$LT$std..io..stdio..StderrLock$u20$as$u20$std..io..Write$GT$14write_vectored17hc40e711a09500a7cE', symObjAddr: 0x2A9E8, symBinAddr: 0x32B50, symSize: 0x110 }
  - { offset: 0xAB5F5, size: 0x8, addend: 0x0, symName: '__ZN61_$LT$std..io..stdio..StderrLock$u20$as$u20$std..io..Write$GT$5flush17he65d1a35910cfe9dE', symObjAddr: 0x2AAF8, symBinAddr: 0x32C60, symSize: 0x28 }
  - { offset: 0xAB60D, size: 0x8, addend: 0x0, symName: '__ZN61_$LT$std..io..stdio..StderrLock$u20$as$u20$std..io..Write$GT$5flush17he65d1a35910cfe9dE', symObjAddr: 0x2AAF8, symBinAddr: 0x32C60, symSize: 0x28 }
  - { offset: 0xAB673, size: 0x8, addend: 0x0, symName: '__ZN61_$LT$std..io..stdio..StderrLock$u20$as$u20$std..io..Write$GT$9write_all17h7eb9be18ae355890E', symObjAddr: 0x2AB20, symBinAddr: 0x32C88, symSize: 0x114 }
  - { offset: 0xAB9BE, size: 0x8, addend: 0x0, symName: '__ZN61_$LT$std..io..stdio..StderrLock$u20$as$u20$std..io..Write$GT$18write_all_vectored17hb00d9d41072462f9E', symObjAddr: 0x2AC34, symBinAddr: 0x32D9C, symSize: 0x6C }
  - { offset: 0xABBF1, size: 0x8, addend: 0x0, symName: '__ZN63_$LT$std..io..stdio..StderrLock$u20$as$u20$core..fmt..Debug$GT$3fmt17hddd624dd23bb7e9dE', symObjAddr: 0x2ACA0, symBinAddr: 0x32E08, symSize: 0x38 }
  - { offset: 0xABC4B, size: 0x8, addend: 0x0, symName: __ZN3std2io5stdio18set_output_capture17h56a2ccce0502f99cE, symObjAddr: 0x2ACD8, symBinAddr: 0x32E40, symSize: 0x128 }
  - { offset: 0xABF0E, size: 0x8, addend: 0x0, symName: __ZN3std2io5stdio22try_set_output_capture17h0bb3c902e67aa285E, symObjAddr: 0x2AE00, symBinAddr: 0x32F68, symSize: 0x118 }
  - { offset: 0xAC1CF, size: 0x8, addend: 0x0, symName: __ZN3std2io5stdio31print_to_buffer_if_capture_used17h3ffa13b7a97b6f42E, symObjAddr: 0x2AF18, symBinAddr: 0x33080, symSize: 0x238 }
  - { offset: 0xAC916, size: 0x8, addend: 0x0, symName: __ZN3std2io5stdio23attempt_print_to_stderr17h9a561ac2a5bfe948E, symObjAddr: 0x2B150, symBinAddr: 0x332B8, symSize: 0xD4 }
  - { offset: 0xACB81, size: 0x8, addend: 0x0, symName: __ZN3std2io5stdio6_print17h7572c80122c5a20bE, symObjAddr: 0x2B224, symBinAddr: 0x3338C, symSize: 0xE4 }
  - { offset: 0xACC93, size: 0x8, addend: 0x0, symName: __ZN3std2io5stdio7_eprint17h3154492d745ebff8E, symObjAddr: 0x2B308, symBinAddr: 0x33470, symSize: 0xC8 }
  - { offset: 0xACE24, size: 0x8, addend: 0x0, symName: '__ZN79_$LT$alloc..vec..Vec$LT$u8$GT$$u20$as$u20$std..io..copy..BufferedWriterSpec$GT$11buffer_size17hbbd749fbc4a3c2cfE', symObjAddr: 0x25B18, symBinAddr: 0x2DC80, symSize: 0x28 }
  - { offset: 0xACED5, size: 0x8, addend: 0x0, symName: __ZN3std2io4pipe10PipeReader9try_clone17h45917c95f8746f45E, symObjAddr: 0x267EC, symBinAddr: 0x2E954, symSize: 0x68 }
  - { offset: 0xACFD1, size: 0x8, addend: 0x0, symName: '__ZN63_$LT$$RF$std..io..pipe..PipeReader$u20$as$u20$std..io..Read$GT$4read17h843c30037b1022daE', symObjAddr: 0x26854, symBinAddr: 0x2E9BC, symSize: 0x5C }
  - { offset: 0xAD0E0, size: 0x8, addend: 0x0, symName: '__ZN63_$LT$$RF$std..io..pipe..PipeReader$u20$as$u20$std..io..Read$GT$13read_vectored17h82fe7ca49191d33bE', symObjAddr: 0x268B0, symBinAddr: 0x2EA18, symSize: 0x5C }
  - { offset: 0xAD1EF, size: 0x8, addend: 0x0, symName: '__ZN63_$LT$$RF$std..io..pipe..PipeReader$u20$as$u20$std..io..Read$GT$11read_to_end17h3f9e1fe0241382faE', symObjAddr: 0x2690C, symBinAddr: 0x2EA74, symSize: 0x14 }
  - { offset: 0xAD209, size: 0x8, addend: 0x0, symName: '__ZN63_$LT$$RF$std..io..pipe..PipeReader$u20$as$u20$std..io..Read$GT$8read_buf17hbad595ee76a595f2E', symObjAddr: 0x26920, symBinAddr: 0x2EA88, symSize: 0x7C }
  - { offset: 0xAD3D8, size: 0x8, addend: 0x0, symName: '__ZN59_$LT$std..io..pipe..PipeReader$u20$as$u20$std..io..Read$GT$11read_to_end17h0767ba4a0a03d943E', symObjAddr: 0x2699C, symBinAddr: 0x2EB04, symSize: 0x10 }
  - { offset: 0xAD3F9, size: 0x8, addend: 0x0, symName: '__ZN64_$LT$$RF$std..io..pipe..PipeWriter$u20$as$u20$std..io..Write$GT$5write17h49c28d7b4db75fb9E', symObjAddr: 0x269AC, symBinAddr: 0x2EB14, symSize: 0x5C }
  - { offset: 0xAD50B, size: 0x8, addend: 0x0, symName: '__ZN64_$LT$$RF$std..io..pipe..PipeWriter$u20$as$u20$std..io..Write$GT$14write_vectored17h9bf2d0d5388663f0E', symObjAddr: 0x26A08, symBinAddr: 0x2EB70, symSize: 0x5C }
  - { offset: 0xAD626, size: 0x8, addend: 0x0, symName: '__ZN60_$LT$std..io..pipe..PipeWriter$u20$as$u20$std..io..Write$GT$5write17he6a2dbbfd289da9cE', symObjAddr: 0x26A64, symBinAddr: 0x2EBCC, symSize: 0x58 }
  - { offset: 0xAD73A, size: 0x8, addend: 0x0, symName: '__ZN60_$LT$std..io..pipe..PipeWriter$u20$as$u20$std..io..Write$GT$14write_vectored17hd75f17e7d0bc6dcfE', symObjAddr: 0x26ABC, symBinAddr: 0x2EC24, symSize: 0x58 }
  - { offset: 0xAD966, size: 0x8, addend: 0x0, symName: '__ZN58_$LT$std..io..util..Repeat$u20$as$u20$core..fmt..Debug$GT$3fmt17h79d6184c31cd63f8E', symObjAddr: 0x2B3D0, symBinAddr: 0x33538, symSize: 0x38 }
  - { offset: 0xAD9B3, size: 0x8, addend: 0x0, symName: __ZN3std2io19default_read_to_end16small_probe_read17had6cbed3c43ef388E, symObjAddr: 0x2BBD8, symBinAddr: 0x33D40, symSize: 0xE8 }
  - { offset: 0xADBDF, size: 0x8, addend: 0x0, symName: __ZN3std2io19default_read_to_end16small_probe_read17hb13e71e4639bde65E, symObjAddr: 0x2BCC0, symBinAddr: 0x33E28, symSize: 0xF0 }
  - { offset: 0xADE0C, size: 0x8, addend: 0x0, symName: __ZN3std2io19default_read_to_end16small_probe_read17hf85bc3807c568216E, symObjAddr: 0x2BEA0, symBinAddr: 0x33F18, symSize: 0xF0 }
  - { offset: 0xAE068, size: 0x8, addend: 0x0, symName: __ZN3std2io19default_read_to_end17h06d3adec9b076c6fE, symObjAddr: 0x2B408, symBinAddr: 0x33570, symSize: 0x2B8 }
  - { offset: 0xAE4BA, size: 0x8, addend: 0x0, symName: __ZN3std2io19default_read_to_end17h5a33f60a9e13b89bE, symObjAddr: 0x2B6C0, symBinAddr: 0x33828, symSize: 0x298 }
  - { offset: 0xAE91B, size: 0x8, addend: 0x0, symName: __ZN3std2io19default_read_to_end17h8cd2c5b7c29027f3E, symObjAddr: 0x2B958, symBinAddr: 0x33AC0, symSize: 0x280 }
  - { offset: 0xAED63, size: 0x8, addend: 0x0, symName: __ZN3std2io10IoSliceMut10into_slice17h62ed3ed37480955bE, symObjAddr: 0x2C300, symBinAddr: 0x34378, symSize: 0x10 }
  - { offset: 0xAED85, size: 0x8, addend: 0x0, symName: '__ZN53_$LT$std..io..IoSlice$u20$as$u20$core..fmt..Debug$GT$3fmt17h3f0e0959283a2eedE', symObjAddr: 0x2C310, symBinAddr: 0x34388, symSize: 0x70 }
  - { offset: 0xAEE49, size: 0x8, addend: 0x0, symName: __ZN3std2io10read_until17hed04444173f1f207E, symObjAddr: 0x2C97C, symBinAddr: 0x349F4, symSize: 0x338 }
  - { offset: 0xAF64B, size: 0x8, addend: 0x0, symName: '__ZN3std4sync6poison4once4Once15call_once_force28_$u7b$$u7b$closure$u7d$$u7d$17h8b6a9223e735a5d7E', symObjAddr: 0x35600, symBinAddr: 0x3D4D4, symSize: 0x60 }
  - { offset: 0xAF709, size: 0x8, addend: 0x0, symName: '__ZN3std4sync6poison4once4Once15call_once_force28_$u7b$$u7b$closure$u7d$$u7d$17hbacbbb00c0c9c01bE', symObjAddr: 0x35660, symBinAddr: 0x3D534, symSize: 0x7C }
  - { offset: 0xAF839, size: 0x8, addend: 0x0, symName: '__ZN3std4sync6poison4once4Once15call_once_force28_$u7b$$u7b$closure$u7d$$u7d$17hcf23a5ec5b3f9862E', symObjAddr: 0x356DC, symBinAddr: 0x3D5B0, symSize: 0x80 }
  - { offset: 0xAF98E, size: 0x8, addend: 0x0, symName: '__ZN3std4sync6poison4once4Once9call_once28_$u7b$$u7b$closure$u7d$$u7d$17ha27e5a148298ddf5E', symObjAddr: 0x35238, symBinAddr: 0x3D10C, symSize: 0x240 }
  - { offset: 0xB00C9, size: 0x8, addend: 0x0, symName: '__ZN3std4sync6poison4once4Once9call_once28_$u7b$$u7b$closure$u7d$$u7d$17hcac5ab26dfef5e05E', symObjAddr: 0x35478, symBinAddr: 0x3D34C, symSize: 0x188 }
  - { offset: 0xB046C, size: 0x8, addend: 0x0, symName: __ZN3std4sync6poison4once4Once4wait17h277b89f864063826E, symObjAddr: 0x3575C, symBinAddr: 0x3D630, symSize: 0x30 }
  - { offset: 0xB04CB, size: 0x8, addend: 0x0, symName: __ZN3std4sync6poison4once4Once10wait_force17hcf792967c78d04c1E, symObjAddr: 0x3578C, symBinAddr: 0x3D660, symSize: 0x30 }
  - { offset: 0xB0558, size: 0x8, addend: 0x0, symName: '__ZN66_$LT$std..sync..poison..once..Once$u20$as$u20$core..fmt..Debug$GT$3fmt17he68d0c01421cce6bE', symObjAddr: 0x357BC, symBinAddr: 0x3D690, symSize: 0x38 }
  - { offset: 0xB058F, size: 0x8, addend: 0x0, symName: '__ZN71_$LT$std..sync..poison..once..OnceState$u20$as$u20$core..fmt..Debug$GT$3fmt17hdaa7e2611fbd1154E', symObjAddr: 0x357F4, symBinAddr: 0x3D6C8, symSize: 0x6C }
  - { offset: 0xB080E, size: 0x8, addend: 0x0, symName: '__ZN3std4sync6poison6rwlock15RwLock$LT$T$GT$5write17h1319e921c7f1968fE', symObjAddr: 0x35860, symBinAddr: 0x3D734, symSize: 0x290 }
  - { offset: 0xB0F19, size: 0x8, addend: 0x0, symName: '__ZN3std4sync6poison6rwlock15RwLock$LT$T$GT$5write17haecfc769a12947b4E', symObjAddr: 0x35AF0, symBinAddr: 0x3D9C4, symSize: 0x290 }
  - { offset: 0xB1694, size: 0x8, addend: 0x0, symName: __ZN3std4sync6poison7condvar7Condvar10notify_one17h6ecd2243d4e8d02eE, symObjAddr: 0x351B0, symBinAddr: 0x3D084, symSize: 0x28 }
  - { offset: 0xB1731, size: 0x8, addend: 0x0, symName: __ZN3std4sync6poison7condvar7Condvar10notify_all17h8bf3bc3f357518aaE, symObjAddr: 0x351D8, symBinAddr: 0x3D0AC, symSize: 0x28 }
  - { offset: 0xB17F6, size: 0x8, addend: 0x0, symName: '__ZN72_$LT$std..sync..poison..condvar..Condvar$u20$as$u20$core..fmt..Debug$GT$3fmt17ha957252fda5da3e9E', symObjAddr: 0x35200, symBinAddr: 0x3D0D4, symSize: 0x38 }
  - { offset: 0xB1835, size: 0x8, addend: 0x0, symName: '__ZN76_$LT$std..sync..poison..PoisonError$LT$T$GT$$u20$as$u20$core..fmt..Debug$GT$3fmt17h08d40ee46d8b7585E', symObjAddr: 0x35D80, symBinAddr: 0x3DC54, symSize: 0x38 }
  - { offset: 0xB1950, size: 0x8, addend: 0x0, symName: '__ZN3std4sync9once_lock17OnceLock$LT$T$GT$10initialize17h60055400e98d1858E', symObjAddr: 0x36114, symBinAddr: 0x8EEA4, symSize: 0x64 }
  - { offset: 0xB197D, size: 0x8, addend: 0x0, symName: '__ZN3std4sync9once_lock17OnceLock$LT$T$GT$10initialize17h60055400e98d1858E', symObjAddr: 0x36114, symBinAddr: 0x8EEA4, symSize: 0x64 }
  - { offset: 0xB1992, size: 0x8, addend: 0x0, symName: '__ZN3std4sync9once_lock17OnceLock$LT$T$GT$10initialize17h60055400e98d1858E', symObjAddr: 0x36114, symBinAddr: 0x8EEA4, symSize: 0x64 }
  - { offset: 0xB19A7, size: 0x8, addend: 0x0, symName: '__ZN3std4sync9once_lock17OnceLock$LT$T$GT$10initialize17h60055400e98d1858E', symObjAddr: 0x36114, symBinAddr: 0x8EEA4, symSize: 0x64 }
  - { offset: 0xB19BD, size: 0x8, addend: 0x0, symName: '__ZN3std4sync9once_lock17OnceLock$LT$T$GT$10initialize17h6fad6f66c80c6543E', symObjAddr: 0x36178, symBinAddr: 0x8EF08, symSize: 0x5C }
  - { offset: 0xB19EA, size: 0x8, addend: 0x0, symName: '__ZN3std4sync9once_lock17OnceLock$LT$T$GT$10initialize17h6fad6f66c80c6543E', symObjAddr: 0x36178, symBinAddr: 0x8EF08, symSize: 0x5C }
  - { offset: 0xB19FF, size: 0x8, addend: 0x0, symName: '__ZN3std4sync9once_lock17OnceLock$LT$T$GT$10initialize17h6fad6f66c80c6543E', symObjAddr: 0x36178, symBinAddr: 0x8EF08, symSize: 0x5C }
  - { offset: 0xB1A14, size: 0x8, addend: 0x0, symName: '__ZN3std4sync9once_lock17OnceLock$LT$T$GT$10initialize17h6fad6f66c80c6543E', symObjAddr: 0x36178, symBinAddr: 0x8EF08, symSize: 0x5C }
  - { offset: 0xB1A2A, size: 0x8, addend: 0x0, symName: '__ZN3std4sync9once_lock17OnceLock$LT$T$GT$10initialize17hbfd5af08fe9852b5E', symObjAddr: 0x361D4, symBinAddr: 0x8EF64, symSize: 0x68 }
  - { offset: 0xB1A57, size: 0x8, addend: 0x0, symName: '__ZN3std4sync9once_lock17OnceLock$LT$T$GT$10initialize17hbfd5af08fe9852b5E', symObjAddr: 0x361D4, symBinAddr: 0x8EF64, symSize: 0x68 }
  - { offset: 0xB1A6C, size: 0x8, addend: 0x0, symName: '__ZN3std4sync9once_lock17OnceLock$LT$T$GT$10initialize17hbfd5af08fe9852b5E', symObjAddr: 0x361D4, symBinAddr: 0x8EF64, symSize: 0x68 }
  - { offset: 0xB1A81, size: 0x8, addend: 0x0, symName: '__ZN3std4sync9once_lock17OnceLock$LT$T$GT$10initialize17hbfd5af08fe9852b5E', symObjAddr: 0x361D4, symBinAddr: 0x8EF64, symSize: 0x68 }
  - { offset: 0xB1C77, size: 0x8, addend: 0x0, symName: __ZN3std4sync9lazy_lock14panic_poisoned17ha7ca7af849e5b3faE, symObjAddr: 0x360DC, symBinAddr: 0x8EE6C, symSize: 0x38 }
  - { offset: 0xB1CBC, size: 0x8, addend: 0x0, symName: __ZN3std4sync4mpmc7context7Context3new17hcd84a6b2c3490013E, symObjAddr: 0x34F48, symBinAddr: 0x8ECE0, symSize: 0x18C }
  - { offset: 0xB203E, size: 0x8, addend: 0x0, symName: '__ZN69_$LT$std..sync..mpmc..zero..ZeroToken$u20$as$u20$core..fmt..Debug$GT$3fmt17hcb58aa7ac16bdf82E', symObjAddr: 0x350D4, symBinAddr: 0x3CFA8, symSize: 0x48 }
  - { offset: 0xB2093, size: 0x8, addend: 0x0, symName: '__ZN65_$LT$std..sync..mpsc..RecvError$u20$as$u20$core..fmt..Display$GT$3fmt17hee548691d6b471e1E', symObjAddr: 0x3511C, symBinAddr: 0x3CFF0, symSize: 0x20 }
  - { offset: 0xB20B5, size: 0x8, addend: 0x0, symName: '__ZN68_$LT$std..sync..mpsc..TryRecvError$u20$as$u20$core..fmt..Display$GT$3fmt17h98592fb637671167E', symObjAddr: 0x3513C, symBinAddr: 0x3D010, symSize: 0x34 }
  - { offset: 0xB20D7, size: 0x8, addend: 0x0, symName: '__ZN72_$LT$std..sync..mpsc..RecvTimeoutError$u20$as$u20$core..fmt..Display$GT$3fmt17hcb35f8e2c88c6e8aE', symObjAddr: 0x35170, symBinAddr: 0x3D044, symSize: 0x40 }
  - { offset: 0xB2100, size: 0x8, addend: 0x0, symName: '__ZN64_$LT$std..sync..barrier..Barrier$u20$as$u20$core..fmt..Debug$GT$3fmt17hbf44ef5f0c2a64d3E', symObjAddr: 0x35DB8, symBinAddr: 0x3DC8C, symSize: 0x38 }
  - { offset: 0xB2121, size: 0x8, addend: 0x0, symName: __ZN3std4sync7barrier7Barrier4wait17h4376f58cc423e647E, symObjAddr: 0x35DF0, symBinAddr: 0x3DCC4, symSize: 0x280 }
  - { offset: 0xB2671, size: 0x8, addend: 0x0, symName: '__ZN74_$LT$std..sync..barrier..BarrierWaitResult$u20$as$u20$core..fmt..Debug$GT$3fmt17hd222cba68243b423E', symObjAddr: 0x36070, symBinAddr: 0x3DF44, symSize: 0x6C }
  - { offset: 0xB26E1, size: 0x8, addend: 0x0, symName: '__ZN64_$LT$std..backtrace..Backtrace$u20$as$u20$core..fmt..Display$GT$3fmt17h0c693230c06fcdabE', symObjAddr: 0x20BD4, symBinAddr: 0x28F5C, symSize: 0x448 }
  - { offset: 0xB30B0, size: 0x8, addend: 0x0, symName: '__ZN62_$LT$std..backtrace..Backtrace$u20$as$u20$core..fmt..Debug$GT$3fmt17h3aab157d1fb583f0E', symObjAddr: 0x200DC, symBinAddr: 0x28464, symSize: 0x1C0 }
  - { offset: 0xB330E, size: 0x8, addend: 0x0, symName: '__ZN67_$LT$std..backtrace..BacktraceFrame$u20$as$u20$core..fmt..Debug$GT$3fmt17h61f4dbadd3726749E', symObjAddr: 0x2029C, symBinAddr: 0x28624, symSize: 0x80 }
  - { offset: 0xB338B, size: 0x8, addend: 0x0, symName: '__ZN68_$LT$std..backtrace..BacktraceSymbol$u20$as$u20$core..fmt..Debug$GT$3fmt17hdef8c08c1f4cc1dfE', symObjAddr: 0x2031C, symBinAddr: 0x286A4, symSize: 0x21C }
  - { offset: 0xB35A4, size: 0x8, addend: 0x0, symName: '__ZN64_$LT$std..backtrace..BytesOrWide$u20$as$u20$core..fmt..Debug$GT$3fmt17h1e39b42b03d8d114E', symObjAddr: 0x20538, symBinAddr: 0x288C0, symSize: 0x120 }
  - { offset: 0xB38AC, size: 0x8, addend: 0x0, symName: __ZN3std9backtrace9Backtrace7capture17hed88703405b73610E, symObjAddr: 0x20658, symBinAddr: 0x289E0, symSize: 0x238 }
  - { offset: 0xB3E0D, size: 0x8, addend: 0x0, symName: __ZN3std9backtrace9Backtrace13force_capture17he4b76b1c8c0dbd2cE, symObjAddr: 0x20890, symBinAddr: 0x28C18, symSize: 0x1C }
  - { offset: 0xB3E28, size: 0x8, addend: 0x0, symName: __ZN3std9backtrace9Backtrace6create17hb899ba25ba82978eE, symObjAddr: 0x208AC, symBinAddr: 0x28C34, symSize: 0x150 }
  - { offset: 0xB41DD, size: 0x8, addend: 0x0, symName: __ZN3std9backtrace9Backtrace6frames17h37e8623e8e9b1ecfE, symObjAddr: 0x20B48, symBinAddr: 0x28ED0, symSize: 0x8C }
  - { offset: 0xB42CD, size: 0x8, addend: 0x0, symName: '__ZN3std9backtrace9Backtrace6create28_$u7b$$u7b$closure$u7d$$u7d$17hb78bb1bd3115a092E', symObjAddr: 0x209FC, symBinAddr: 0x28D84, symSize: 0x14C }
  - { offset: 0xB44D0, size: 0x8, addend: 0x0, symName: '__ZN3std9backtrace6helper12lazy_resolve28_$u7b$$u7b$closure$u7d$$u7d$28_$u7b$$u7b$closure$u7d$$u7d$17hcf83d14a15a643a4E', symObjAddr: 0x3C7F8, symBinAddr: 0x43AC8, symSize: 0x218 }
  - { offset: 0xB4968, size: 0x8, addend: 0x0, symName: '__ZN89_$LT$std..backtrace_rs..symbolize..gimli..mmap..Mmap$u20$as$u20$core..ops..drop..Drop$GT$4drop17h1cb3706a5cd63e54E', symObjAddr: 0x4C00C, symBinAddr: 0x527BC, symSize: 0x18 }
  - { offset: 0xB4997, size: 0x8, addend: 0x0, symName: '__ZN91_$LT$std..backtrace_rs..symbolize..gimli..mmap..Mmap$u20$as$u20$core..ops..deref..Deref$GT$5deref17h15f1d23fecb360fdE', symObjAddr: 0x4BFF4, symBinAddr: 0x527A4, symSize: 0x18 }
  - { offset: 0xB4A79, size: 0x8, addend: 0x0, symName: __ZN3std12backtrace_rs9symbolize5gimli7Context3new17h89460ae187b1084bE, symObjAddr: 0x47380, symBinAddr: 0x4DB30, symSize: 0x1FC4 }
  - { offset: 0xB88AC, size: 0x8, addend: 0x0, symName: __ZN3std12backtrace_rs9symbolize5gimli7Context11find_frames17h20b56075be2c58d2E, symObjAddr: 0x49344, symBinAddr: 0x4FAF4, symSize: 0x38C }
  - { offset: 0xB8D16, size: 0x8, addend: 0x0, symName: __ZN3std12backtrace_rs9symbolize5gimli5macho6Object5parse17ha641d2825394221eE, symObjAddr: 0x4C204, symBinAddr: 0x529B4, symSize: 0xB28 }
  - { offset: 0xBAAE3, size: 0x8, addend: 0x0, symName: __ZN3std12backtrace_rs9symbolize5gimli5macho6Object7section17h710cea69f0a13325E, symObjAddr: 0x4CD2C, symBinAddr: 0x534DC, symSize: 0x148 }
  - { offset: 0xBAF6D, size: 0x8, addend: 0x0, symName: __ZN3std12backtrace_rs9symbolize5gimli5macho11find_header17ha9eb383c7ef21317E, symObjAddr: 0x4C024, symBinAddr: 0x527D4, symSize: 0x1E0 }
  - { offset: 0xBB7A5, size: 0x8, addend: 0x0, symName: __ZN3std12backtrace_rs9symbolize5gimli4mmap17h1955c49d6bfd751bE, symObjAddr: 0x496D0, symBinAddr: 0x4FE80, symSize: 0x174 }
  - { offset: 0xBBE67, size: 0x8, addend: 0x0, symName: __ZN3std12backtrace_rs9symbolize5gimli7resolve17h7516e54a6bdfc92cE, symObjAddr: 0x49844, symBinAddr: 0x4FFF4, symSize: 0x27B0 }
  - { offset: 0xC1F02, size: 0x8, addend: 0x0, symName: __ZN3std12backtrace_rs9symbolize6Symbol4name17hef93d9221fa000d2E, symObjAddr: 0x3BEF4, symBinAddr: 0x431C4, symSize: 0xE4 }
  - { offset: 0xC2027, size: 0x8, addend: 0x0, symName: __ZN3std12backtrace_rs9symbolize6Symbol12filename_raw17hfa685405a39e2c18E, symObjAddr: 0x3BFD8, symBinAddr: 0x432A8, symSize: 0x44 }
  - { offset: 0xC20A4, size: 0x8, addend: 0x0, symName: '__ZN73_$LT$std..backtrace_rs..symbolize..Symbol$u20$as$u20$core..fmt..Debug$GT$3fmt17h12d0eb216c44145eE', symObjAddr: 0x3C01C, symBinAddr: 0x432EC, symSize: 0x100 }
  - { offset: 0xC211D, size: 0x8, addend: 0x0, symName: '__ZN79_$LT$std..backtrace_rs..symbolize..SymbolName$u20$as$u20$core..fmt..Display$GT$3fmt17h63a13df74122b41dE', symObjAddr: 0x3C11C, symBinAddr: 0x433EC, symSize: 0x100 }
  - { offset: 0xC2208, size: 0x8, addend: 0x0, symName: '__ZN77_$LT$std..backtrace_rs..symbolize..SymbolName$u20$as$u20$core..fmt..Debug$GT$3fmt17h858f537d00b13287E', symObjAddr: 0x3C21C, symBinAddr: 0x434EC, symSize: 0x100 }
  - { offset: 0xC232E, size: 0x8, addend: 0x0, symName: '__ZN87_$LT$std..backtrace_rs..backtrace..libunwind..Bomb$u20$as$u20$core..ops..drop..Drop$GT$4drop17h7aea195e9d01ec24E', symObjAddr: 0x472F4, symBinAddr: 0x4DAA4, symSize: 0x44 }
  - { offset: 0xC23A7, size: 0x8, addend: 0x0, symName: '__ZN85_$LT$std..backtrace_rs..backtrace..libunwind..Frame$u20$as$u20$core..clone..Clone$GT$5clone17h997624a56520e23cE', symObjAddr: 0x47288, symBinAddr: 0x4DA38, symSize: 0x6C }
  - { offset: 0xC240D, size: 0x8, addend: 0x0, symName: __ZN3std12backtrace_rs9backtrace9libunwind5trace8trace_fn17h0e780144bc728b5aE, symObjAddr: 0x47338, symBinAddr: 0x4DAE8, symSize: 0x48 }
  - { offset: 0xC2494, size: 0x8, addend: 0x0, symName: '__ZN72_$LT$std..backtrace_rs..backtrace..Frame$u20$as$u20$core..fmt..Debug$GT$3fmt17h966bacba2db92259E', symObjAddr: 0x3BE14, symBinAddr: 0x430E4, symSize: 0xE0 }
  - { offset: 0xC259A, size: 0x8, addend: 0x0, symName: __ZN3std12backtrace_rs5print17BacktraceFrameFmt21print_raw_with_column17hd0cf8f7aef743142E, symObjAddr: 0x3C31C, symBinAddr: 0x435EC, symSize: 0x304 }
  - { offset: 0xC26C9, size: 0x8, addend: 0x0, symName: __ZN3std12backtrace_rs5print17BacktraceFrameFmt14print_fileline17h0bce069288e1112aE, symObjAddr: 0x3C620, symBinAddr: 0x438F0, symSize: 0x198 }
  - { offset: 0xC28B4, size: 0x8, addend: 0x0, symName: __ZN3std6thread7current11set_current17h262f16efc3c374dbE, symObjAddr: 0x1EADC, symBinAddr: 0x270C4, symSize: 0xC0 }
  - { offset: 0xC2A72, size: 0x8, addend: 0x0, symName: __ZN3std6thread7current18current_or_unnamed17he3f26613cddaecf3E, symObjAddr: 0x1EB9C, symBinAddr: 0x27184, symSize: 0xF0 }
  - { offset: 0xC2CC8, size: 0x8, addend: 0x0, symName: __ZN3std6thread7current7current17h86110c0228d80f62E, symObjAddr: 0x1EC8C, symBinAddr: 0x27274, symSize: 0x50 }
  - { offset: 0xC2DD2, size: 0x8, addend: 0x0, symName: __ZN3std6thread7current12init_current17h3c5350aba2e055daE, symObjAddr: 0x1ECDC, symBinAddr: 0x8E848, symSize: 0x1A0 }
  - { offset: 0xC318B, size: 0x8, addend: 0x0, symName: __ZN3std6thread6Thread3new17h524ccf9aea23a8b7E, symObjAddr: 0x1FCB0, symBinAddr: 0x28038, symSize: 0x164 }
  - { offset: 0xC3485, size: 0x8, addend: 0x0, symName: __ZN3std6thread6Thread4park17h4e0779be8e8387bdE, symObjAddr: 0x1FE14, symBinAddr: 0x2819C, symSize: 0x54 }
  - { offset: 0xC357A, size: 0x8, addend: 0x0, symName: __ZN3std6thread6Thread12park_timeout17h9f563e8829b8b70fE, symObjAddr: 0x1FE68, symBinAddr: 0x281F0, symSize: 0xA0 }
  - { offset: 0xC36B0, size: 0x8, addend: 0x0, symName: __ZN3std6thread6Thread4name17h8ddfc3702d3a0cf0E, symObjAddr: 0x1FF08, symBinAddr: 0x28290, symSize: 0x54 }
  - { offset: 0xC37BE, size: 0x8, addend: 0x0, symName: __ZN3std6thread6Thread8from_raw17hc572828e9350247dE, symObjAddr: 0x1FF5C, symBinAddr: 0x282E4, symSize: 0x14 }
  - { offset: 0xC382E, size: 0x8, addend: 0x0, symName: __ZN3std6thread6Thread5cname17h88b99ae26701ee48E, symObjAddr: 0x1FF70, symBinAddr: 0x282F8, symSize: 0x50 }
  - { offset: 0xC3A0B, size: 0x8, addend: 0x0, symName: __ZN3std6thread8ThreadId3new17h8847b581cb98ff79E, symObjAddr: 0x1FB08, symBinAddr: 0x27EC8, symSize: 0x60 }
  - { offset: 0xC3BBC, size: 0x8, addend: 0x0, symName: '__ZN68_$LT$std..thread..local..AccessError$u20$as$u20$core..fmt..Debug$GT$3fmt17h996e6139f95bfc86E', symObjAddr: 0x1F4F0, symBinAddr: 0x27938, symSize: 0x38 }
  - { offset: 0xC3BDD, size: 0x8, addend: 0x0, symName: '__ZN70_$LT$std..thread..local..AccessError$u20$as$u20$core..fmt..Display$GT$3fmt17heabcb02ec18f95ebE', symObjAddr: 0x1F528, symBinAddr: 0x27970, symSize: 0x20 }
  - { offset: 0xC3BF8, size: 0x8, addend: 0x0, symName: __ZN3std6thread5local18panic_access_error17hc3eb7c8c3b3f29f5E, symObjAddr: 0x1F548, symBinAddr: 0x8E9E8, symSize: 0x44 }
  - { offset: 0xC3C36, size: 0x8, addend: 0x0, symName: __ZN3std6thread6scoped9ScopeData29increment_num_running_threads17hcd82101a77defcc0E, symObjAddr: 0x1E958, symBinAddr: 0x26F80, symSize: 0x2C }
  - { offset: 0xC3C93, size: 0x8, addend: 0x0, symName: __ZN3std6thread6scoped9ScopeData8overflow17h5860521dc5aac1d0E, symObjAddr: 0x1E984, symBinAddr: 0x8E808, symSize: 0x40 }
  - { offset: 0xC3CC3, size: 0x8, addend: 0x0, symName: __ZN3std6thread6scoped9ScopeData29decrement_num_running_threads17h6f05a73e545992deE, symObjAddr: 0x1E9C4, symBinAddr: 0x26FAC, symSize: 0x60 }
  - { offset: 0xC3E0D, size: 0x8, addend: 0x0, symName: '__ZN63_$LT$std..thread..scoped..Scope$u20$as$u20$core..fmt..Debug$GT$3fmt17h5e49ec69d54403fcE', symObjAddr: 0x1EA24, symBinAddr: 0x2700C, symSize: 0xB8 }
  - { offset: 0xC3EE9, size: 0x8, addend: 0x0, symName: '__ZN76_$LT$std..thread..spawnhook..SpawnHooks$u20$as$u20$core..ops..drop..Drop$GT$4drop17he519dc597cd2b426E', symObjAddr: 0x1EE7C, symBinAddr: 0x272C4, symSize: 0x10C }
  - { offset: 0xC4292, size: 0x8, addend: 0x0, symName: __ZN3std6thread9spawnhook15run_spawn_hooks17h77e49dca77bce662E, symObjAddr: 0x1EF88, symBinAddr: 0x273D0, symSize: 0x2DC }
  - { offset: 0xC48DA, size: 0x8, addend: 0x0, symName: __ZN3std6thread9spawnhook15ChildSpawnHooks3run17hae0960cef47242b2E, symObjAddr: 0x1F264, symBinAddr: 0x276AC, symSize: 0x28C }
  - { offset: 0xC4FF1, size: 0x8, addend: 0x0, symName: __ZN3std6thread7Builder4name17h7f59535edab45c71E, symObjAddr: 0x1F58C, symBinAddr: 0x27990, symSize: 0x84 }
  - { offset: 0xC50BD, size: 0x8, addend: 0x0, symName: __ZN3std6thread9yield_now17h71b72f744f2c0252E, symObjAddr: 0x1F610, symBinAddr: 0x27A14, symSize: 0x10 }
  - { offset: 0xC50FD, size: 0x8, addend: 0x0, symName: __ZN3std6thread8sleep_ms17hc3c9d47c5636000bE, symObjAddr: 0x1F620, symBinAddr: 0x27A24, symSize: 0xDC }
  - { offset: 0xC5188, size: 0x8, addend: 0x0, symName: __ZN3std6thread5sleep17h86c4c7c79bde5affE, symObjAddr: 0x1F6FC, symBinAddr: 0x27B00, symSize: 0xB8 }
  - { offset: 0xC51EF, size: 0x8, addend: 0x0, symName: __ZN3std6thread11sleep_until17h16d698b37ae73468E, symObjAddr: 0x1F7B4, symBinAddr: 0x27BB8, symSize: 0xEC }
  - { offset: 0xC52E3, size: 0x8, addend: 0x0, symName: '__ZN65_$LT$std..thread..PanicGuard$u20$as$u20$core..ops..drop..Drop$GT$4drop17h2d5bbd1f9f62eab6E', symObjAddr: 0x1F8A0, symBinAddr: 0x8EA2C, symSize: 0x44 }
  - { offset: 0xC5316, size: 0x8, addend: 0x0, symName: __ZN3std6thread4park17h216d74705d1929a8E, symObjAddr: 0x1F8E4, symBinAddr: 0x27CA4, symSize: 0xC8 }
  - { offset: 0xC559E, size: 0x8, addend: 0x0, symName: __ZN3std6thread15park_timeout_ms17h8ce53f7ef6b91116E, symObjAddr: 0x1F9AC, symBinAddr: 0x27D6C, symSize: 0x38 }
  - { offset: 0xC55D0, size: 0x8, addend: 0x0, symName: __ZN3std6thread12park_timeout17h77bd5946f3468a8aE, symObjAddr: 0x1F9E4, symBinAddr: 0x27DA4, symSize: 0x124 }
  - { offset: 0xC58A5, size: 0x8, addend: 0x0, symName: __ZN3std6thread8ThreadId3new9exhausted17hd8d253082ab096bdE, symObjAddr: 0x1FB68, symBinAddr: 0x8EA70, symSize: 0x38 }
  - { offset: 0xC58E5, size: 0x8, addend: 0x0, symName: '__ZN118_$LT$std..thread..thread_name_string..ThreadNameString$u20$as$u20$core..convert..From$LT$alloc..string..String$GT$$GT$4from17h97323749868d7928E', symObjAddr: 0x1FBA0, symBinAddr: 0x27F28, symSize: 0x110 }
  - { offset: 0xC5B06, size: 0x8, addend: 0x0, symName: '__ZN56_$LT$std..thread..Thread$u20$as$u20$core..fmt..Debug$GT$3fmt17h4acd56d398d6bae2E', symObjAddr: 0x1FFC0, symBinAddr: 0x28348, symSize: 0xCC }
  - { offset: 0xC5C4A, size: 0x8, addend: 0x0, symName: __ZN3std6thread21available_parallelism17h48d170739e3bb662E, symObjAddr: 0x2008C, symBinAddr: 0x28414, symSize: 0x50 }
  - { offset: 0xC5D2A, size: 0x8, addend: 0x0, symName: '__ZN58_$LT$std..thread..ThreadId$u20$as$u20$core..fmt..Debug$GT$3fmt17h03193488795d71d2E', symObjAddr: 0x3C7B8, symBinAddr: 0x43A88, symSize: 0x40 }
  - { offset: 0xC5D4D, size: 0x8, addend: 0x0, symName: __ZN3std2rt15handle_rt_panic17hd730a4f646a2d08fE, symObjAddr: 0x1E478, symBinAddr: 0x8E7C4, symSize: 0x44 }
  - { offset: 0xC5D7F, size: 0x8, addend: 0x0, symName: __ZN3std2rt7cleanup17hb10883a58b568050E, symObjAddr: 0x1E4BC, symBinAddr: 0x26AE4, symSize: 0x64 }
  - { offset: 0xC5DA4, size: 0x8, addend: 0x0, symName: __ZN3std2rt7cleanup17hb10883a58b568050E, symObjAddr: 0x1E4BC, symBinAddr: 0x26AE4, symSize: 0x64 }
  - { offset: 0xC5DB9, size: 0x8, addend: 0x0, symName: __ZN3std2rt7cleanup17hb10883a58b568050E, symObjAddr: 0x1E4BC, symBinAddr: 0x26AE4, symSize: 0x64 }
  - { offset: 0xC5DCE, size: 0x8, addend: 0x0, symName: __ZN3std2rt7cleanup17hb10883a58b568050E, symObjAddr: 0x1E4BC, symBinAddr: 0x26AE4, symSize: 0x64 }
  - { offset: 0xC5E47, size: 0x8, addend: 0x0, symName: __ZN3std2rt19lang_start_internal17h9914e464a5ad684fE, symObjAddr: 0x1E520, symBinAddr: 0x26B48, symSize: 0x438 }
  - { offset: 0xC671D, size: 0x8, addend: 0x0, symName: '__ZN64_$LT$std..panic..PanicHookInfo$u20$as$u20$core..fmt..Display$GT$3fmt17heb092b0eabe0c6e2E', symObjAddr: 0x30B2C, symBinAddr: 0x38BA4, symSize: 0x164 }
  - { offset: 0xC6956, size: 0x8, addend: 0x0, symName: __ZN3std5panic13resume_unwind17h2f47b5a3682d4c2fE, symObjAddr: 0x30C90, symBinAddr: 0x8ECC8, symSize: 0xC }
  - { offset: 0xC6971, size: 0x8, addend: 0x0, symName: __ZN3std5panic12always_abort17h475ea95dbbeece0cE, symObjAddr: 0x30C9C, symBinAddr: 0x38D08, symSize: 0x28 }
  - { offset: 0xC69ED, size: 0x8, addend: 0x0, symName: __ZN3std5panic19set_backtrace_style17h1563d06980bec2d4E, symObjAddr: 0x30CC4, symBinAddr: 0x38D30, symSize: 0x1C }
  - { offset: 0xC6A4C, size: 0x8, addend: 0x0, symName: __ZN3std5panic19get_backtrace_style17h1aea8e1c8bfa4862E, symObjAddr: 0x30CE0, symBinAddr: 0x38D4C, symSize: 0x12C }
  - { offset: 0xC6A6B, size: 0x8, addend: 0x0, symName: __ZN3std5panic19get_backtrace_style17h1aea8e1c8bfa4862E, symObjAddr: 0x30CE0, symBinAddr: 0x38D4C, symSize: 0x12C }
  - { offset: 0xC6A81, size: 0x8, addend: 0x0, symName: __ZN3std5panic19get_backtrace_style17h1aea8e1c8bfa4862E, symObjAddr: 0x30CE0, symBinAddr: 0x38D4C, symSize: 0x12C }
  - { offset: 0xC6F38, size: 0x8, addend: 0x0, symName: __ZN3std4time7Instant3now17h25c02d4f02100e4bE, symObjAddr: 0x3623C, symBinAddr: 0x3DFB0, symSize: 0x14 }
  - { offset: 0xC6F63, size: 0x8, addend: 0x0, symName: __ZN3std4time7Instant14duration_since17hcd041d4aaded67c4E, symObjAddr: 0x36250, symBinAddr: 0x3DFC4, symSize: 0x4C }
  - { offset: 0xC6FD2, size: 0x8, addend: 0x0, symName: __ZN3std4time7Instant22checked_duration_since17h8081e48fa055cff4E, symObjAddr: 0x3629C, symBinAddr: 0x3E010, symSize: 0x50 }
  - { offset: 0xC7014, size: 0x8, addend: 0x0, symName: __ZN3std4time7Instant7elapsed17h78d897f9fc9c522cE, symObjAddr: 0x362EC, symBinAddr: 0x3E060, symSize: 0x6C }
  - { offset: 0xC710F, size: 0x8, addend: 0x0, symName: '__ZN60_$LT$std..time..Instant$u20$as$u20$core..ops..arith..Sub$GT$3sub17h6d3ebafc253112aeE', symObjAddr: 0x36500, symBinAddr: 0x3E274, symSize: 0x50 }
  - { offset: 0xC719C, size: 0x8, addend: 0x0, symName: '__ZN88_$LT$std..time..Instant$u20$as$u20$core..ops..arith..Add$LT$core..time..Duration$GT$$GT$3add17hb36c0bc89ec054d4E', symObjAddr: 0x36358, symBinAddr: 0x3E0CC, symSize: 0x64 }
  - { offset: 0xC71B4, size: 0x8, addend: 0x0, symName: '__ZN88_$LT$std..time..Instant$u20$as$u20$core..ops..arith..Add$LT$core..time..Duration$GT$$GT$3add17hb36c0bc89ec054d4E', symObjAddr: 0x36358, symBinAddr: 0x3E0CC, symSize: 0x64 }
  - { offset: 0xC71CA, size: 0x8, addend: 0x0, symName: '__ZN88_$LT$std..time..Instant$u20$as$u20$core..ops..arith..Add$LT$core..time..Duration$GT$$GT$3add17hb36c0bc89ec054d4E', symObjAddr: 0x36358, symBinAddr: 0x3E0CC, symSize: 0x64 }
  - { offset: 0xC71E0, size: 0x8, addend: 0x0, symName: '__ZN88_$LT$std..time..Instant$u20$as$u20$core..ops..arith..Add$LT$core..time..Duration$GT$$GT$3add17hb36c0bc89ec054d4E', symObjAddr: 0x36358, symBinAddr: 0x3E0CC, symSize: 0x64 }
  - { offset: 0xC71F6, size: 0x8, addend: 0x0, symName: '__ZN88_$LT$std..time..Instant$u20$as$u20$core..ops..arith..Add$LT$core..time..Duration$GT$$GT$3add17hb36c0bc89ec054d4E', symObjAddr: 0x36358, symBinAddr: 0x3E0CC, symSize: 0x64 }
  - { offset: 0xC720B, size: 0x8, addend: 0x0, symName: '__ZN88_$LT$std..time..Instant$u20$as$u20$core..ops..arith..Add$LT$core..time..Duration$GT$$GT$3add17hb36c0bc89ec054d4E', symObjAddr: 0x36358, symBinAddr: 0x3E0CC, symSize: 0x64 }
  - { offset: 0xC7221, size: 0x8, addend: 0x0, symName: '__ZN88_$LT$std..time..Instant$u20$as$u20$core..ops..arith..Add$LT$core..time..Duration$GT$$GT$3add17hb36c0bc89ec054d4E', symObjAddr: 0x36358, symBinAddr: 0x3E0CC, symSize: 0x64 }
  - { offset: 0xC72BC, size: 0x8, addend: 0x0, symName: '__ZN94_$LT$std..time..Instant$u20$as$u20$core..ops..arith..AddAssign$LT$core..time..Duration$GT$$GT$10add_assign17hbd14b3712f6ead4fE', symObjAddr: 0x363BC, symBinAddr: 0x3E130, symSize: 0x74 }
  - { offset: 0xC73CC, size: 0x8, addend: 0x0, symName: '__ZN88_$LT$std..time..Instant$u20$as$u20$core..ops..arith..Sub$LT$core..time..Duration$GT$$GT$3sub17ha4171252b41a26a8E', symObjAddr: 0x36430, symBinAddr: 0x3E1A4, symSize: 0x5C }
  - { offset: 0xC740E, size: 0x8, addend: 0x0, symName: '__ZN88_$LT$std..time..Instant$u20$as$u20$core..ops..arith..Sub$LT$core..time..Duration$GT$$GT$3sub17ha4171252b41a26a8E', symObjAddr: 0x36430, symBinAddr: 0x3E1A4, symSize: 0x5C }
  - { offset: 0xC7423, size: 0x8, addend: 0x0, symName: '__ZN88_$LT$std..time..Instant$u20$as$u20$core..ops..arith..Sub$LT$core..time..Duration$GT$$GT$3sub17ha4171252b41a26a8E', symObjAddr: 0x36430, symBinAddr: 0x3E1A4, symSize: 0x5C }
  - { offset: 0xC7439, size: 0x8, addend: 0x0, symName: '__ZN88_$LT$std..time..Instant$u20$as$u20$core..ops..arith..Sub$LT$core..time..Duration$GT$$GT$3sub17ha4171252b41a26a8E', symObjAddr: 0x36430, symBinAddr: 0x3E1A4, symSize: 0x5C }
  - { offset: 0xC74D4, size: 0x8, addend: 0x0, symName: '__ZN94_$LT$std..time..Instant$u20$as$u20$core..ops..arith..SubAssign$LT$core..time..Duration$GT$$GT$10sub_assign17hbff438a5a3277389E', symObjAddr: 0x3648C, symBinAddr: 0x3E200, symSize: 0x74 }
  - { offset: 0xC75E4, size: 0x8, addend: 0x0, symName: '__ZN55_$LT$std..time..Instant$u20$as$u20$core..fmt..Debug$GT$3fmt17hc3c65d452dc1b718E', symObjAddr: 0x36550, symBinAddr: 0x3E2C4, symSize: 0x80 }
  - { offset: 0xC761D, size: 0x8, addend: 0x0, symName: __ZN3std4time10SystemTime3now17h2e570154e8e26651E, symObjAddr: 0x365D0, symBinAddr: 0x3E344, symSize: 0x14 }
  - { offset: 0xC7648, size: 0x8, addend: 0x0, symName: __ZN3std4time10SystemTime14duration_since17h969339335469631fE, symObjAddr: 0x365E4, symBinAddr: 0x3E358, symSize: 0x50 }
  - { offset: 0xC76A5, size: 0x8, addend: 0x0, symName: __ZN3std4time10SystemTime7elapsed17he1332103b4700f9bE, symObjAddr: 0x36634, symBinAddr: 0x3E3A8, symSize: 0x68 }
  - { offset: 0xC7731, size: 0x8, addend: 0x0, symName: __ZN3std4time10SystemTime11checked_add17habd436bdbb7ec5c6E, symObjAddr: 0x3669C, symBinAddr: 0x3E410, symSize: 0x7C }
  - { offset: 0xC77E6, size: 0x8, addend: 0x0, symName: __ZN3std4time10SystemTime11checked_sub17h32b3d460489d6c51E, symObjAddr: 0x36718, symBinAddr: 0x3E48C, symSize: 0x6C }
  - { offset: 0xC78BE, size: 0x8, addend: 0x0, symName: '__ZN91_$LT$std..time..SystemTime$u20$as$u20$core..ops..arith..Add$LT$core..time..Duration$GT$$GT$3add17h2a11f4ba0c4d6c9eE', symObjAddr: 0x36784, symBinAddr: 0x3E4F8, symSize: 0x64 }
  - { offset: 0xC78D6, size: 0x8, addend: 0x0, symName: '__ZN91_$LT$std..time..SystemTime$u20$as$u20$core..ops..arith..Add$LT$core..time..Duration$GT$$GT$3add17h2a11f4ba0c4d6c9eE', symObjAddr: 0x36784, symBinAddr: 0x3E4F8, symSize: 0x64 }
  - { offset: 0xC78EC, size: 0x8, addend: 0x0, symName: '__ZN91_$LT$std..time..SystemTime$u20$as$u20$core..ops..arith..Add$LT$core..time..Duration$GT$$GT$3add17h2a11f4ba0c4d6c9eE', symObjAddr: 0x36784, symBinAddr: 0x3E4F8, symSize: 0x64 }
  - { offset: 0xC7902, size: 0x8, addend: 0x0, symName: '__ZN91_$LT$std..time..SystemTime$u20$as$u20$core..ops..arith..Add$LT$core..time..Duration$GT$$GT$3add17h2a11f4ba0c4d6c9eE', symObjAddr: 0x36784, symBinAddr: 0x3E4F8, symSize: 0x64 }
  - { offset: 0xC7917, size: 0x8, addend: 0x0, symName: '__ZN91_$LT$std..time..SystemTime$u20$as$u20$core..ops..arith..Add$LT$core..time..Duration$GT$$GT$3add17h2a11f4ba0c4d6c9eE', symObjAddr: 0x36784, symBinAddr: 0x3E4F8, symSize: 0x64 }
  - { offset: 0xC792C, size: 0x8, addend: 0x0, symName: '__ZN91_$LT$std..time..SystemTime$u20$as$u20$core..ops..arith..Add$LT$core..time..Duration$GT$$GT$3add17h2a11f4ba0c4d6c9eE', symObjAddr: 0x36784, symBinAddr: 0x3E4F8, symSize: 0x64 }
  - { offset: 0xC7942, size: 0x8, addend: 0x0, symName: '__ZN91_$LT$std..time..SystemTime$u20$as$u20$core..ops..arith..Add$LT$core..time..Duration$GT$$GT$3add17h2a11f4ba0c4d6c9eE', symObjAddr: 0x36784, symBinAddr: 0x3E4F8, symSize: 0x64 }
  - { offset: 0xC79DD, size: 0x8, addend: 0x0, symName: '__ZN97_$LT$std..time..SystemTime$u20$as$u20$core..ops..arith..AddAssign$LT$core..time..Duration$GT$$GT$10add_assign17hb23d4d94de6e358dE', symObjAddr: 0x367E8, symBinAddr: 0x3E55C, symSize: 0x74 }
  - { offset: 0xC7AEC, size: 0x8, addend: 0x0, symName: '__ZN91_$LT$std..time..SystemTime$u20$as$u20$core..ops..arith..Sub$LT$core..time..Duration$GT$$GT$3sub17h64a3705856acddc7E', symObjAddr: 0x3685C, symBinAddr: 0x3E5D0, symSize: 0x5C }
  - { offset: 0xC7B2D, size: 0x8, addend: 0x0, symName: '__ZN91_$LT$std..time..SystemTime$u20$as$u20$core..ops..arith..Sub$LT$core..time..Duration$GT$$GT$3sub17h64a3705856acddc7E', symObjAddr: 0x3685C, symBinAddr: 0x3E5D0, symSize: 0x5C }
  - { offset: 0xC7B42, size: 0x8, addend: 0x0, symName: '__ZN91_$LT$std..time..SystemTime$u20$as$u20$core..ops..arith..Sub$LT$core..time..Duration$GT$$GT$3sub17h64a3705856acddc7E', symObjAddr: 0x3685C, symBinAddr: 0x3E5D0, symSize: 0x5C }
  - { offset: 0xC7B58, size: 0x8, addend: 0x0, symName: '__ZN91_$LT$std..time..SystemTime$u20$as$u20$core..ops..arith..Sub$LT$core..time..Duration$GT$$GT$3sub17h64a3705856acddc7E', symObjAddr: 0x3685C, symBinAddr: 0x3E5D0, symSize: 0x5C }
  - { offset: 0xC7BF3, size: 0x8, addend: 0x0, symName: '__ZN97_$LT$std..time..SystemTime$u20$as$u20$core..ops..arith..SubAssign$LT$core..time..Duration$GT$$GT$10sub_assign17h8adc0c1c3251d5b1E', symObjAddr: 0x368B8, symBinAddr: 0x3E62C, symSize: 0x74 }
  - { offset: 0xC7D02, size: 0x8, addend: 0x0, symName: '__ZN58_$LT$std..time..SystemTime$u20$as$u20$core..fmt..Debug$GT$3fmt17h4e2bb63cf692b933E', symObjAddr: 0x3692C, symBinAddr: 0x3E6A0, symSize: 0x80 }
  - { offset: 0xC7D3B, size: 0x8, addend: 0x0, symName: '__ZN65_$LT$std..time..SystemTimeError$u20$as$u20$core..fmt..Display$GT$3fmt17h85f9a2faec3fe7afE', symObjAddr: 0x369AC, symBinAddr: 0x3E720, symSize: 0x24 }
  - { offset: 0xC7D9D, size: 0x8, addend: 0x0, symName: __ZN3std3env11current_dir17h620be7fb66e4e148E, symObjAddr: 0x2101C, symBinAddr: 0x293A4, symSize: 0x1A8 }
  - { offset: 0xC819A, size: 0x8, addend: 0x0, symName: __ZN3std3env4vars17habae524ebf19d0a4E, symObjAddr: 0x211C4, symBinAddr: 0x2954C, symSize: 0x10 }
  - { offset: 0xC81B4, size: 0x8, addend: 0x0, symName: __ZN3std3env7vars_os17h7c9499f626a3335bE, symObjAddr: 0x211D4, symBinAddr: 0x2955C, symSize: 0x334 }
  - { offset: 0xC888D, size: 0x8, addend: 0x0, symName: '__ZN75_$LT$std..env..VarsOs$u20$as$u20$core..iter..traits..iterator..Iterator$GT$4next17h8660706e85d26e2bE', symObjAddr: 0x2177C, symBinAddr: 0x29B04, symSize: 0x48 }
  - { offset: 0xC8914, size: 0x8, addend: 0x0, symName: '__ZN75_$LT$std..env..VarsOs$u20$as$u20$core..iter..traits..iterator..Iterator$GT$9size_hint17h5418a12ddb6f9c4eE', symObjAddr: 0x217C4, symBinAddr: 0x29B4C, symSize: 0x38 }
  - { offset: 0xC89B3, size: 0x8, addend: 0x0, symName: '__ZN73_$LT$std..env..Vars$u20$as$u20$core..iter..traits..iterator..Iterator$GT$4next17hcba6665d57ade8dcE', symObjAddr: 0x21508, symBinAddr: 0x29890, symSize: 0x1B8 }
  - { offset: 0xC8EEF, size: 0x8, addend: 0x0, symName: '__ZN73_$LT$std..env..Vars$u20$as$u20$core..iter..traits..iterator..Iterator$GT$9size_hint17h208cce23b36243f9E', symObjAddr: 0x216C0, symBinAddr: 0x29A48, symSize: 0x38 }
  - { offset: 0xC8F96, size: 0x8, addend: 0x0, symName: '__ZN51_$LT$std..env..Vars$u20$as$u20$core..fmt..Debug$GT$3fmt17h1361138e974e8b4dE', symObjAddr: 0x216F8, symBinAddr: 0x29A80, symSize: 0x84 }
  - { offset: 0xC9053, size: 0x8, addend: 0x0, symName: '__ZN53_$LT$std..env..VarsOs$u20$as$u20$core..fmt..Debug$GT$3fmt17hf6b6204f280da23bE', symObjAddr: 0x217FC, symBinAddr: 0x29B84, symSize: 0x64 }
  - { offset: 0xC906E, size: 0x8, addend: 0x0, symName: __ZN3std3env4_var17h9b688e2d1c497be8E, symObjAddr: 0x21860, symBinAddr: 0x29BE8, symSize: 0x98 }
  - { offset: 0xC9176, size: 0x8, addend: 0x0, symName: __ZN3std3env7_var_os17h9f49c24429c44191E, symObjAddr: 0x218F8, symBinAddr: 0x29C80, symSize: 0x164 }
  - { offset: 0xC941B, size: 0x8, addend: 0x0, symName: '__ZN57_$LT$std..env..VarError$u20$as$u20$core..fmt..Display$GT$3fmt17h55c9e4f8db206758E', symObjAddr: 0x21A5C, symBinAddr: 0x29DE4, symSize: 0x78 }
  - { offset: 0xC9479, size: 0x8, addend: 0x0, symName: '__ZN79_$LT$std..env..SplitPaths$u20$as$u20$core..iter..traits..iterator..Iterator$GT$4next17h94d5bfce5fa36f62E', symObjAddr: 0x21AD4, symBinAddr: 0x29E5C, symSize: 0xA8 }
  - { offset: 0xC95DE, size: 0x8, addend: 0x0, symName: '__ZN57_$LT$std..env..SplitPaths$u20$as$u20$core..fmt..Debug$GT$3fmt17hd9dd9784659f981eE', symObjAddr: 0x21B7C, symBinAddr: 0x29F04, symSize: 0x38 }
  - { offset: 0xC9600, size: 0x8, addend: 0x0, symName: '__ZN63_$LT$std..env..JoinPathsError$u20$as$u20$core..fmt..Display$GT$3fmt17hb9c91b7a22085ec7E', symObjAddr: 0x21BB4, symBinAddr: 0x29F3C, symSize: 0x5C }
  - { offset: 0xC9682, size: 0x8, addend: 0x0, symName: __ZN3std3env8home_dir17h307bc3589084c4d1E, symObjAddr: 0x21C10, symBinAddr: 0x29F98, symSize: 0x54 }
  - { offset: 0xC96F7, size: 0x8, addend: 0x0, symName: __ZN3std3env8temp_dir17h01ae52c02f773098E, symObjAddr: 0x21C64, symBinAddr: 0x29FEC, symSize: 0x1DC }
  - { offset: 0xC9B5F, size: 0x8, addend: 0x0, symName: __ZN3std3env11current_exe17h4dd920baf35e84a4E, symObjAddr: 0x21E40, symBinAddr: 0x2A1C8, symSize: 0xDC }
  - { offset: 0xC9D5B, size: 0x8, addend: 0x0, symName: __ZN3std3env4args17heb454b543bfe90bcE, symObjAddr: 0x21F1C, symBinAddr: 0x2A2A4, symSize: 0x10 }
  - { offset: 0xC9D76, size: 0x8, addend: 0x0, symName: __ZN3std3env7args_os17h604a8c0dfeb79707E, symObjAddr: 0x21F2C, symBinAddr: 0x2A2B4, symSize: 0x208 }
  - { offset: 0xCA282, size: 0x8, addend: 0x0, symName: '__ZN73_$LT$std..env..Args$u20$as$u20$core..iter..traits..iterator..Iterator$GT$4next17h6df31db67c151b99E', symObjAddr: 0x22134, symBinAddr: 0x2A4BC, symSize: 0xE8 }
  - { offset: 0xCA50D, size: 0x8, addend: 0x0, symName: '__ZN88_$LT$std..env..Args$u20$as$u20$core..iter..traits..double_ended..DoubleEndedIterator$GT$9next_back17h2c1b043ade2f9906E', symObjAddr: 0x2221C, symBinAddr: 0x2A5A4, symSize: 0xE4 }
  - { offset: 0xCA744, size: 0x8, addend: 0x0, symName: '__ZN51_$LT$std..env..Args$u20$as$u20$core..fmt..Debug$GT$3fmt17h56b79dcb432951b1E', symObjAddr: 0x22300, symBinAddr: 0x2A688, symSize: 0x64 }
  - { offset: 0xCA766, size: 0x8, addend: 0x0, symName: '__ZN53_$LT$std..env..ArgsOs$u20$as$u20$core..fmt..Debug$GT$3fmt17hb3598dbbd3ad0ac9E', symObjAddr: 0x22364, symBinAddr: 0x2A6EC, symSize: 0x64 }
  - { offset: 0xCA7F1, size: 0x8, addend: 0x0, symName: __ZN3std2fs11OpenOptions5_open17h708f5c59c4f54c7bE, symObjAddr: 0x23CAC, symBinAddr: 0x2C034, symSize: 0x250 }
  - { offset: 0xCA9DD, size: 0x8, addend: 0x0, symName: __ZN3std2fs4File8sync_all17h52a7665c87337c77E, symObjAddr: 0x22DE4, symBinAddr: 0x2B16C, symSize: 0x58 }
  - { offset: 0xCAAC5, size: 0x8, addend: 0x0, symName: __ZN3std2fs4File4lock17h9cfb76cf6c812a34E, symObjAddr: 0x22E3C, symBinAddr: 0x2B1C4, symSize: 0x3C }
  - { offset: 0xCAB69, size: 0x8, addend: 0x0, symName: __ZN3std2fs4File11lock_shared17h609cfdb83f239179E, symObjAddr: 0x22E78, symBinAddr: 0x2B200, symSize: 0x3C }
  - { offset: 0xCAC0D, size: 0x8, addend: 0x0, symName: __ZN3std2fs4File8try_lock17hff1f54113e437390E, symObjAddr: 0x22EB4, symBinAddr: 0x2B23C, symSize: 0x58 }
  - { offset: 0xCACC7, size: 0x8, addend: 0x0, symName: __ZN3std2fs4File15try_lock_shared17h17a5a601265a4002E, symObjAddr: 0x22F0C, symBinAddr: 0x2B294, symSize: 0x58 }
  - { offset: 0xCAD81, size: 0x8, addend: 0x0, symName: __ZN3std2fs4File6unlock17h6627d443e315fb12E, symObjAddr: 0x22F64, symBinAddr: 0x2B2EC, symSize: 0x3C }
  - { offset: 0xCAE25, size: 0x8, addend: 0x0, symName: __ZN3std2fs4File7set_len17h60f6f98a12d115a8E, symObjAddr: 0x22FA0, symBinAddr: 0x2B328, symSize: 0x7C }
  - { offset: 0xCAF50, size: 0x8, addend: 0x0, symName: __ZN3std2fs4File8metadata17h11630884bc8a6e5bE, symObjAddr: 0x2301C, symBinAddr: 0x2B3A4, symSize: 0xAC }
  - { offset: 0xCB056, size: 0x8, addend: 0x0, symName: __ZN3std2fs4File9try_clone17ha5c14d75dd0ecb01E, symObjAddr: 0x230C8, symBinAddr: 0x2B450, symSize: 0x68 }
  - { offset: 0xCB12C, size: 0x8, addend: 0x0, symName: __ZN3std2fs4File15set_permissions17h13b3178e3570f613E, symObjAddr: 0x23130, symBinAddr: 0x2B4B8, symSize: 0x64 }
  - { offset: 0xCB1F6, size: 0x8, addend: 0x0, symName: __ZN3std2fs4File9set_times17h6b997e265cb7c393E, symObjAddr: 0x23194, symBinAddr: 0x2B51C, symSize: 0xF0 }
  - { offset: 0xCB386, size: 0x8, addend: 0x0, symName: __ZN3std2fs4read5inner17hc146649b40165aceE, symObjAddr: 0x228C4, symBinAddr: 0x2AC4C, symSize: 0x198 }
  - { offset: 0xCB7B4, size: 0x8, addend: 0x0, symName: __ZN3std2fs14read_to_string5inner17h919b254e5db56486E, symObjAddr: 0x22A5C, symBinAddr: 0x2ADE4, symSize: 0x1E8 }
  - { offset: 0xCBD95, size: 0x8, addend: 0x0, symName: '__ZN52_$LT$$RF$std..fs..File$u20$as$u20$std..io..Write$GT$5write17h310c69768859b59fE', symObjAddr: 0x23564, symBinAddr: 0x2B8EC, symSize: 0x5C }
  - { offset: 0xCBE8C, size: 0x8, addend: 0x0, symName: '__ZN52_$LT$$RF$std..fs..File$u20$as$u20$std..io..Write$GT$14write_vectored17h6610949cb3ac48eeE', symObjAddr: 0x235C0, symBinAddr: 0x2B948, symSize: 0x5C }
  - { offset: 0xCBFA6, size: 0x8, addend: 0x0, symName: '__ZN48_$LT$std..fs..File$u20$as$u20$std..io..Write$GT$5write17h2ead06e680a846f7E', symObjAddr: 0x23848, symBinAddr: 0x2BBD0, symSize: 0x58 }
  - { offset: 0xCC0B4, size: 0x8, addend: 0x0, symName: '__ZN48_$LT$std..fs..File$u20$as$u20$std..io..Write$GT$14write_vectored17hac7cdd17ec467cacE', symObjAddr: 0x238A0, symBinAddr: 0x2BC28, symSize: 0x58 }
  - { offset: 0xCC1D7, size: 0x8, addend: 0x0, symName: __ZN3std2fs5write5inner17h0be59729e96fdb48E, symObjAddr: 0x22C44, symBinAddr: 0x2AFCC, symSize: 0x130 }
  - { offset: 0xCC50E, size: 0x8, addend: 0x0, symName: '__ZN58_$LT$std..fs..TryLockError$u20$as$u20$core..fmt..Debug$GT$3fmt17h3102914f375a8233E', symObjAddr: 0x22D74, symBinAddr: 0x2B0FC, symSize: 0x34 }
  - { offset: 0xCC547, size: 0x8, addend: 0x0, symName: '__ZN60_$LT$std..fs..TryLockError$u20$as$u20$core..fmt..Display$GT$3fmt17h77e6ca37ca553a1cE', symObjAddr: 0x22DA8, symBinAddr: 0x2B130, symSize: 0x3C }
  - { offset: 0xCC569, size: 0x8, addend: 0x0, symName: '__ZN50_$LT$std..fs..File$u20$as$u20$core..fmt..Debug$GT$3fmt17h030a04431660c8f2E', symObjAddr: 0x23284, symBinAddr: 0x2B60C, symSize: 0x10 }
  - { offset: 0xCC5A7, size: 0x8, addend: 0x0, symName: '__ZN51_$LT$$RF$std..fs..File$u20$as$u20$std..io..Seek$GT$4seek17h2461c1b56993b893E', symObjAddr: 0x2361C, symBinAddr: 0x2B9A4, symSize: 0x64 }
  - { offset: 0xCC65A, size: 0x8, addend: 0x0, symName: '__ZN51_$LT$$RF$std..fs..File$u20$as$u20$std..io..Seek$GT$15stream_position17h911bc5079dc62e35E', symObjAddr: 0x23680, symBinAddr: 0x2BA08, symSize: 0x58 }
  - { offset: 0xCC739, size: 0x8, addend: 0x0, symName: '__ZN51_$LT$$RF$std..fs..File$u20$as$u20$std..io..Read$GT$11read_to_end17hea01d7787fe34538E', symObjAddr: 0x23294, symBinAddr: 0x2B61C, symSize: 0x16C }
  - { offset: 0xCCA5B, size: 0x8, addend: 0x0, symName: '__ZN51_$LT$$RF$std..fs..File$u20$as$u20$std..io..Read$GT$14read_to_string17h3a36ea907b2384e4E', symObjAddr: 0x23400, symBinAddr: 0x2B788, symSize: 0x164 }
  - { offset: 0xCCE93, size: 0x8, addend: 0x0, symName: '__ZN47_$LT$std..fs..File$u20$as$u20$std..io..Read$GT$4read17h006e8763fe9fa553E', symObjAddr: 0x236D8, symBinAddr: 0x2BA60, symSize: 0x58 }
  - { offset: 0xCCFCB, size: 0x8, addend: 0x0, symName: '__ZN47_$LT$std..fs..File$u20$as$u20$std..io..Read$GT$13read_vectored17h1314382b95a952d2E', symObjAddr: 0x23730, symBinAddr: 0x2BAB8, symSize: 0x58 }
  - { offset: 0xCD103, size: 0x8, addend: 0x0, symName: '__ZN47_$LT$std..fs..File$u20$as$u20$std..io..Read$GT$8read_buf17h29d060bab7cca7e5E', symObjAddr: 0x23788, symBinAddr: 0x2BB10, symSize: 0x78 }
  - { offset: 0xCD2F4, size: 0x8, addend: 0x0, symName: '__ZN47_$LT$std..fs..File$u20$as$u20$std..io..Read$GT$11read_to_end17hd77026634bb79266E', symObjAddr: 0x23800, symBinAddr: 0x2BB88, symSize: 0x24 }
  - { offset: 0xCD308, size: 0x8, addend: 0x0, symName: '__ZN47_$LT$std..fs..File$u20$as$u20$std..io..Read$GT$14read_to_string17h042f20a33761d6b9E', symObjAddr: 0x23824, symBinAddr: 0x2BBAC, symSize: 0x24 }
  - { offset: 0xCD369, size: 0x8, addend: 0x0, symName: '__ZN47_$LT$std..fs..File$u20$as$u20$std..io..Seek$GT$4seek17he1d2fbecb0b6ae0aE', symObjAddr: 0x238F8, symBinAddr: 0x2BC80, symSize: 0x60 }
  - { offset: 0xCD43A, size: 0x8, addend: 0x0, symName: '__ZN47_$LT$std..fs..File$u20$as$u20$std..io..Seek$GT$15stream_position17hbb7d720578739b36E', symObjAddr: 0x23958, symBinAddr: 0x2BCE0, symSize: 0x54 }
  - { offset: 0xCD529, size: 0x8, addend: 0x0, symName: '__ZN3std2fs81_$LT$impl$u20$std..io..Read$u20$for$u20$alloc..sync..Arc$LT$std..fs..File$GT$$GT$4read17h9ea59188d25cb1c4E', symObjAddr: 0x239AC, symBinAddr: 0x2BD34, symSize: 0x5C }
  - { offset: 0xCD6AC, size: 0x8, addend: 0x0, symName: '__ZN3std2fs81_$LT$impl$u20$std..io..Read$u20$for$u20$alloc..sync..Arc$LT$std..fs..File$GT$$GT$13read_vectored17h38ecf34dcb94eedcE', symObjAddr: 0x23A08, symBinAddr: 0x2BD90, symSize: 0x5C }
  - { offset: 0xCD82F, size: 0x8, addend: 0x0, symName: '__ZN3std2fs81_$LT$impl$u20$std..io..Read$u20$for$u20$alloc..sync..Arc$LT$std..fs..File$GT$$GT$8read_buf17h40a1537ca4a74ac1E', symObjAddr: 0x23A64, symBinAddr: 0x2BDEC, symSize: 0x7C }
  - { offset: 0xCDA6B, size: 0x8, addend: 0x0, symName: '__ZN3std2fs81_$LT$impl$u20$std..io..Read$u20$for$u20$alloc..sync..Arc$LT$std..fs..File$GT$$GT$11read_to_end17hb3080a8bfc01de89E', symObjAddr: 0x23AE0, symBinAddr: 0x2BE68, symSize: 0x2C }
  - { offset: 0xCDACB, size: 0x8, addend: 0x0, symName: '__ZN3std2fs81_$LT$impl$u20$std..io..Read$u20$for$u20$alloc..sync..Arc$LT$std..fs..File$GT$$GT$14read_to_string17h6c62d3a3f307f780E', symObjAddr: 0x23B0C, symBinAddr: 0x2BE94, symSize: 0x2C }
  - { offset: 0xCDB32, size: 0x8, addend: 0x0, symName: '__ZN3std2fs82_$LT$impl$u20$std..io..Write$u20$for$u20$alloc..sync..Arc$LT$std..fs..File$GT$$GT$5write17h12d1023655c32474E', symObjAddr: 0x23B38, symBinAddr: 0x2BEC0, symSize: 0x5C }
  - { offset: 0xCDC8B, size: 0x8, addend: 0x0, symName: '__ZN3std2fs82_$LT$impl$u20$std..io..Write$u20$for$u20$alloc..sync..Arc$LT$std..fs..File$GT$$GT$14write_vectored17he6dd89e5a591f109E', symObjAddr: 0x23B94, symBinAddr: 0x2BF1C, symSize: 0x5C }
  - { offset: 0xCDDEB, size: 0x8, addend: 0x0, symName: '__ZN3std2fs81_$LT$impl$u20$std..io..Seek$u20$for$u20$alloc..sync..Arc$LT$std..fs..File$GT$$GT$4seek17ha2ef3b81430f441cE', symObjAddr: 0x23BF0, symBinAddr: 0x2BF78, symSize: 0x64 }
  - { offset: 0xCDF00, size: 0x8, addend: 0x0, symName: '__ZN3std2fs81_$LT$impl$u20$std..io..Seek$u20$for$u20$alloc..sync..Arc$LT$std..fs..File$GT$$GT$15stream_position17hf3354ac381dd19f1E', symObjAddr: 0x23C54, symBinAddr: 0x2BFDC, symSize: 0x58 }
  - { offset: 0xCE033, size: 0x8, addend: 0x0, symName: __ZN3std2fs8Metadata8modified17h926739b711d83c90E, symObjAddr: 0x23EFC, symBinAddr: 0x2C284, symSize: 0x70 }
  - { offset: 0xCE096, size: 0x8, addend: 0x0, symName: __ZN3std2fs8Metadata8accessed17hc78c52a00ac02727E, symObjAddr: 0x23F6C, symBinAddr: 0x2C2F4, symSize: 0x70 }
  - { offset: 0xCE0F9, size: 0x8, addend: 0x0, symName: __ZN3std2fs8Metadata7created17hbd82c70fdce1b88aE, symObjAddr: 0x23FDC, symBinAddr: 0x2C364, symSize: 0x70 }
  - { offset: 0xCE1E1, size: 0x8, addend: 0x0, symName: '__ZN54_$LT$std..fs..Metadata$u20$as$u20$core..fmt..Debug$GT$3fmt17h8b75487f6a39503cE', symObjAddr: 0x2404C, symBinAddr: 0x2C3D4, symSize: 0x1F0 }
  - { offset: 0xCE37D, size: 0x8, addend: 0x0, symName: '__ZN54_$LT$std..fs..FileType$u20$as$u20$core..fmt..Debug$GT$3fmt17h7d26349bc2c795d0E', symObjAddr: 0x2423C, symBinAddr: 0x2C5C4, symSize: 0xC8 }
  - { offset: 0xCE4B0, size: 0x8, addend: 0x0, symName: '__ZN75_$LT$std..fs..ReadDir$u20$as$u20$core..iter..traits..iterator..Iterator$GT$4next17h624b5209b338bae0E', symObjAddr: 0x24304, symBinAddr: 0x2C68C, symSize: 0x184 }
  - { offset: 0xCE7C2, size: 0x8, addend: 0x0, symName: __ZN3std2fs8DirEntry4path17h2823bb6398c783f1E, symObjAddr: 0x24488, symBinAddr: 0x2C810, symSize: 0x24 }
  - { offset: 0xCE971, size: 0x8, addend: 0x0, symName: __ZN3std2fs8DirEntry8metadata17h9009cf444829afc0E, symObjAddr: 0x244AC, symBinAddr: 0x2C834, symSize: 0xA0 }
  - { offset: 0xCE9A3, size: 0x8, addend: 0x0, symName: __ZN3std2fs8DirEntry9file_type17hddf29c69c121e4ebE, symObjAddr: 0x2454C, symBinAddr: 0x2C8D4, symSize: 0x88 }
  - { offset: 0xCE9EA, size: 0x8, addend: 0x0, symName: __ZN3std2fs8DirEntry9file_name17h3719f56faa0eec4aE, symObjAddr: 0x245D4, symBinAddr: 0x2C95C, symSize: 0x80 }
  - { offset: 0xCEB6B, size: 0x8, addend: 0x0, symName: '__ZN54_$LT$std..fs..DirEntry$u20$as$u20$core..fmt..Debug$GT$3fmt17h2af67810dd622c10E', symObjAddr: 0x24654, symBinAddr: 0x2C9DC, symSize: 0xB0 }
  - { offset: 0xCEE9F, size: 0x8, addend: 0x0, symName: __ZN3std2fs10DirBuilder7_create17h77a99ee22fa50f20E, symObjAddr: 0x24704, symBinAddr: 0x2CA8C, symSize: 0xC8 }
  - { offset: 0xCEFC5, size: 0x8, addend: 0x0, symName: __ZN3std2fs10DirBuilder14create_dir_all17hb520a5fe22291acfE, symObjAddr: 0x247CC, symBinAddr: 0x2CB54, symSize: 0x46C }
  - { offset: 0xCF7F3, size: 0x8, addend: 0x0, symName: '__ZN57_$LT$std..fs..Permissions$u20$as$u20$core..fmt..Debug$GT$3fmt17h3345bd8ba1f4a7dfE', symObjAddr: 0x3CA10, symBinAddr: 0x43CE0, symSize: 0x40 }
  - { offset: 0xCF82F, size: 0x8, addend: 0x0, symName: '__ZN67_$LT$std..hash..random..RandomState$u20$as$u20$core..fmt..Debug$GT$3fmt17h6cc5fbbdb9c638b9E', symObjAddr: 0x24C38, symBinAddr: 0x2CFC0, symSize: 0x38 }
  - { offset: 0xCF86C, size: 0x8, addend: 0x0, symName: __ZN3std3net11socket_addr19resolve_socket_addr17he20f62c23b136ddbE, symObjAddr: 0x2CCB4, symBinAddr: 0x34D2C, symSize: 0x35C }
  - { offset: 0xCFE50, size: 0x8, addend: 0x0, symName: '__ZN78_$LT$$LP$$RF$str$C$u16$RP$$u20$as$u20$std..net..socket_addr..ToSocketAddrs$GT$15to_socket_addrs17hb9c340a88391c031E', symObjAddr: 0x2D010, symBinAddr: 0x35088, symSize: 0x1CC }
  - { offset: 0xD004E, size: 0x8, addend: 0x0, symName: '__ZN92_$LT$$LP$alloc..string..String$C$u16$RP$$u20$as$u20$std..net..socket_addr..ToSocketAddrs$GT$15to_socket_addrs17h336d14f57c680a6cE', symObjAddr: 0x2D1DC, symBinAddr: 0x35254, symSize: 0x30 }
  - { offset: 0xD010F, size: 0x8, addend: 0x0, symName: '__ZN60_$LT$str$u20$as$u20$std..net..socket_addr..ToSocketAddrs$GT$15to_socket_addrs17h6769b35b3f5ebf20E', symObjAddr: 0x2D20C, symBinAddr: 0x35284, symSize: 0xCC }
  - { offset: 0xD01FA, size: 0x8, addend: 0x0, symName: '__ZN78_$LT$alloc..string..String$u20$as$u20$std..net..socket_addr..ToSocketAddrs$GT$15to_socket_addrs17h1d00e31400e2281aE', symObjAddr: 0x2D2D8, symBinAddr: 0x35350, symSize: 0x18 }
  - { offset: 0xD02C4, size: 0x8, addend: 0x0, symName: __ZN3std3net3tcp9TcpStream15connect_timeout17h5e5b363ee9b97cdbE, symObjAddr: 0x2D2F0, symBinAddr: 0x35368, symSize: 0x488 }
  - { offset: 0xD0ACA, size: 0x8, addend: 0x0, symName: __ZN3std3net3tcp9TcpStream9peer_addr17had43d26ca97ebb7fE, symObjAddr: 0x2D778, symBinAddr: 0x357F0, symSize: 0x18 }
  - { offset: 0xD0AE4, size: 0x8, addend: 0x0, symName: __ZN3std3net3tcp9TcpStream12read_timeout17h7d58e00c9bd42547E, symObjAddr: 0x2D790, symBinAddr: 0x35808, symSize: 0xE8 }
  - { offset: 0xD0C3F, size: 0x8, addend: 0x0, symName: __ZN3std3net3tcp9TcpStream13write_timeout17h68252ac67d19679eE, symObjAddr: 0x2D878, symBinAddr: 0x358F0, symSize: 0xE8 }
  - { offset: 0xD0D9A, size: 0x8, addend: 0x0, symName: __ZN3std3net3tcp9TcpStream10set_linger17hd3121cb19587af39E, symObjAddr: 0x2D960, symBinAddr: 0x359D8, symSize: 0x68 }
  - { offset: 0xD0E97, size: 0x8, addend: 0x0, symName: __ZN3std3net3tcp9TcpStream6linger17hcdb8490e3be0f5c6E, symObjAddr: 0x2D9C8, symBinAddr: 0x35A40, symSize: 0x88 }
  - { offset: 0xD0FB1, size: 0x8, addend: 0x0, symName: __ZN3std3net3tcp9TcpStream11set_nodelay17hd270da4f2436e35bE, symObjAddr: 0x2DA50, symBinAddr: 0x35AC8, symSize: 0x54 }
  - { offset: 0xD1082, size: 0x8, addend: 0x0, symName: __ZN3std3net3tcp9TcpStream7nodelay17hbd7415649fcf269aE, symObjAddr: 0x2DAA4, symBinAddr: 0x35B1C, symSize: 0x80 }
  - { offset: 0xD11A4, size: 0x8, addend: 0x0, symName: '__ZN58_$LT$std..net..tcp..TcpStream$u20$as$u20$std..io..Read$GT$8read_buf17hc4f79ef5b9600d64E', symObjAddr: 0x2DB24, symBinAddr: 0x35B9C, symSize: 0x70 }
  - { offset: 0xD1348, size: 0x8, addend: 0x0, symName: '__ZN58_$LT$std..net..tcp..TcpStream$u20$as$u20$std..io..Read$GT$13read_vectored17h39ee1d4098fa7a3aE', symObjAddr: 0x2DB94, symBinAddr: 0x35C0C, symSize: 0x58 }
  - { offset: 0xD1462, size: 0x8, addend: 0x0, symName: '__ZN59_$LT$std..net..tcp..TcpStream$u20$as$u20$std..io..Write$GT$14write_vectored17h1da6592fd46c74b9E', symObjAddr: 0x2DBEC, symBinAddr: 0x35C64, symSize: 0x58 }
  - { offset: 0xD157E, size: 0x8, addend: 0x0, symName: '__ZN62_$LT$$RF$std..net..tcp..TcpStream$u20$as$u20$std..io..Read$GT$4read17h8e8044769a518a50E', symObjAddr: 0x2DC44, symBinAddr: 0x35CBC, symSize: 0x48 }
  - { offset: 0xD1650, size: 0x8, addend: 0x0, symName: '__ZN62_$LT$$RF$std..net..tcp..TcpStream$u20$as$u20$std..io..Read$GT$8read_buf17h1b9d00c693b4934bE', symObjAddr: 0x2DC8C, symBinAddr: 0x35D04, symSize: 0x74 }
  - { offset: 0xD17F4, size: 0x8, addend: 0x0, symName: '__ZN62_$LT$$RF$std..net..tcp..TcpStream$u20$as$u20$std..io..Read$GT$13read_vectored17h556fa4c9c4e2a42dE', symObjAddr: 0x2DD00, symBinAddr: 0x35D78, symSize: 0x5C }
  - { offset: 0xD190E, size: 0x8, addend: 0x0, symName: '__ZN63_$LT$$RF$std..net..tcp..TcpStream$u20$as$u20$std..io..Write$GT$5write17hed3ced57195d63d7E', symObjAddr: 0x2DD5C, symBinAddr: 0x35DD4, symSize: 0x54 }
  - { offset: 0xD19CF, size: 0x8, addend: 0x0, symName: '__ZN61_$LT$std..net..tcp..TcpStream$u20$as$u20$core..fmt..Debug$GT$3fmt17h9e09d5eacc3c2a0cE', symObjAddr: 0x2DDB0, symBinAddr: 0x35E28, symSize: 0x10 }
  - { offset: 0xD19F1, size: 0x8, addend: 0x0, symName: __ZN3std3net3tcp11TcpListener10local_addr17haadcfb62be409e62E, symObjAddr: 0x2DDC0, symBinAddr: 0x35E38, symSize: 0x18 }
  - { offset: 0xD1A0C, size: 0x8, addend: 0x0, symName: __ZN3std3net3tcp11TcpListener9try_clone17haae4568e4658fa96E, symObjAddr: 0x2DDD8, symBinAddr: 0x35E50, symSize: 0x68 }
  - { offset: 0xD1AE8, size: 0x8, addend: 0x0, symName: __ZN3std3net3tcp11TcpListener6accept17h61a6cd14b1b85782E, symObjAddr: 0x2DE40, symBinAddr: 0x35EB8, symSize: 0x18C }
  - { offset: 0xD1DD3, size: 0x8, addend: 0x0, symName: __ZN3std3net3tcp11TcpListener7set_ttl17h183164b7fab1c89aE, symObjAddr: 0x2DFCC, symBinAddr: 0x36044, symSize: 0x54 }
  - { offset: 0xD1E8D, size: 0x8, addend: 0x0, symName: __ZN3std3net3tcp11TcpListener3ttl17hb24787cd11540a1cE, symObjAddr: 0x2E020, symBinAddr: 0x36098, symSize: 0x78 }
  - { offset: 0xD1F91, size: 0x8, addend: 0x0, symName: __ZN3std3net3tcp11TcpListener11set_only_v617h09abc99466a9dd3bE, symObjAddr: 0x2E098, symBinAddr: 0x36110, symSize: 0x54 }
  - { offset: 0xD204B, size: 0x8, addend: 0x0, symName: __ZN3std3net3tcp11TcpListener7only_v617h5e5c970bbc15c71dE, symObjAddr: 0x2E0EC, symBinAddr: 0x36164, symSize: 0x80 }
  - { offset: 0xD2156, size: 0x8, addend: 0x0, symName: '__ZN82_$LT$std..net..tcp..Incoming$u20$as$u20$core..iter..traits..iterator..Iterator$GT$4next17h6761eb173b843326E', symObjAddr: 0x2E16C, symBinAddr: 0x361E4, symSize: 0x40 }
  - { offset: 0xD218F, size: 0x8, addend: 0x0, symName: '__ZN86_$LT$std..net..tcp..IntoIncoming$u20$as$u20$core..iter..traits..iterator..Iterator$GT$4next17hae3c8ad90c1c7563E', symObjAddr: 0x2E1AC, symBinAddr: 0x36224, symSize: 0x3C }
  - { offset: 0xD21C8, size: 0x8, addend: 0x0, symName: '__ZN63_$LT$std..net..tcp..TcpListener$u20$as$u20$core..fmt..Debug$GT$3fmt17h9e080a74c8edd095E', symObjAddr: 0x2E1E8, symBinAddr: 0x36260, symSize: 0x10 }
  - { offset: 0xD21F1, size: 0x8, addend: 0x0, symName: __ZN3std3net3udp9UdpSocket9recv_from17h475bae6ad0b476eeE, symObjAddr: 0x2E1F8, symBinAddr: 0x36270, symSize: 0x24 }
  - { offset: 0xD2238, size: 0x8, addend: 0x0, symName: __ZN3std3net3udp9UdpSocket9peek_from17h9487df0eab2921e7E, symObjAddr: 0x2E21C, symBinAddr: 0x36294, symSize: 0x24 }
  - { offset: 0xD227F, size: 0x8, addend: 0x0, symName: __ZN3std3net3udp9UdpSocket9peer_addr17h7cac9c4a6face400E, symObjAddr: 0x2E240, symBinAddr: 0x362B8, symSize: 0x144 }
  - { offset: 0xD2436, size: 0x8, addend: 0x0, symName: __ZN3std3net3udp9UdpSocket13set_broadcast17h0bf7cb563e8476a7E, symObjAddr: 0x2E384, symBinAddr: 0x363FC, symSize: 0x54 }
  - { offset: 0xD24F0, size: 0x8, addend: 0x0, symName: __ZN3std3net3udp9UdpSocket9broadcast17heec372dc9b3814dfE, symObjAddr: 0x2E3D8, symBinAddr: 0x36450, symSize: 0x80 }
  - { offset: 0xD25F4, size: 0x8, addend: 0x0, symName: __ZN3std3net3udp9UdpSocket21set_multicast_loop_v417h927fe04f903ab1a3E, symObjAddr: 0x2E458, symBinAddr: 0x364D0, symSize: 0x54 }
  - { offset: 0xD26AE, size: 0x8, addend: 0x0, symName: __ZN3std3net3udp9UdpSocket17multicast_loop_v417h3cec95b383c3f900E, symObjAddr: 0x2E4AC, symBinAddr: 0x36524, symSize: 0x80 }
  - { offset: 0xD27B2, size: 0x8, addend: 0x0, symName: __ZN3std3net3udp9UdpSocket20set_multicast_ttl_v417h55af5d5526cdd55fE, symObjAddr: 0x2E52C, symBinAddr: 0x365A4, symSize: 0x54 }
  - { offset: 0xD286C, size: 0x8, addend: 0x0, symName: __ZN3std3net3udp9UdpSocket16multicast_ttl_v417hb549029a37183372E, symObjAddr: 0x2E580, symBinAddr: 0x365F8, symSize: 0x78 }
  - { offset: 0xD2970, size: 0x8, addend: 0x0, symName: __ZN3std3net3udp9UdpSocket21set_multicast_loop_v617h447287fb46f43c69E, symObjAddr: 0x2E5F8, symBinAddr: 0x36670, symSize: 0x54 }
  - { offset: 0xD2A2A, size: 0x8, addend: 0x0, symName: __ZN3std3net3udp9UdpSocket17multicast_loop_v617ha24b5a0b439974dbE, symObjAddr: 0x2E64C, symBinAddr: 0x366C4, symSize: 0x80 }
  - { offset: 0xD2B2E, size: 0x8, addend: 0x0, symName: __ZN3std3net3udp9UdpSocket17join_multicast_v417h25091b25d8882f57E, symObjAddr: 0x2E6CC, symBinAddr: 0x36744, symSize: 0x60 }
  - { offset: 0xD2BE8, size: 0x8, addend: 0x0, symName: __ZN3std3net3udp9UdpSocket17join_multicast_v617ha527ac1f3efbc046E, symObjAddr: 0x2E72C, symBinAddr: 0x367A4, symSize: 0x5C }
  - { offset: 0xD2CB8, size: 0x8, addend: 0x0, symName: __ZN3std3net3udp9UdpSocket18leave_multicast_v417h59bdfaf0962e0163E, symObjAddr: 0x2E788, symBinAddr: 0x36800, symSize: 0x60 }
  - { offset: 0xD2D72, size: 0x8, addend: 0x0, symName: __ZN3std3net3udp9UdpSocket18leave_multicast_v617h29e53616c4b4998bE, symObjAddr: 0x2E7E8, symBinAddr: 0x36860, symSize: 0x5C }
  - { offset: 0xD2E42, size: 0x8, addend: 0x0, symName: __ZN3std3net3udp9UdpSocket4send17hee7256193cf188f9E, symObjAddr: 0x2E844, symBinAddr: 0x368BC, symSize: 0x50 }
  - { offset: 0xD2F03, size: 0x8, addend: 0x0, symName: '__ZN61_$LT$std..net..udp..UdpSocket$u20$as$u20$core..fmt..Debug$GT$3fmt17hbad65d1c1f7a6867E', symObjAddr: 0x2E894, symBinAddr: 0x3690C, symSize: 0x10 }
  - { offset: 0xD2F2D, size: 0x8, addend: 0x0, symName: '__ZN79_$LT$std..random..DefaultRandomSource$u20$as$u20$core..random..RandomSource$GT$10fill_bytes17h1673a109df979beeE', symObjAddr: 0x34EE0, symBinAddr: 0x3CF40, symSize: 0x68 }
  - { offset: 0xD2F7E, size: 0x8, addend: 0x0, symName: '__ZN91_$LT$std..sys_common..wstr..WStrUnits$u20$as$u20$core..iter..traits..iterator..Iterator$GT$4next17h1b633786bbb141f3E', symObjAddr: 0x39A18, symBinAddr: 0x40F54, symSize: 0x28 }
  - { offset: 0xD3008, size: 0x8, addend: 0x0, symName: __ZN3std10sys_common4wtf87Wtf8Buf25push_code_point_unchecked17h15d12c5f1ffb52aeE, symObjAddr: 0x39A88, symBinAddr: 0x40FC4, symSize: 0x134 }
  - { offset: 0xD31B1, size: 0x8, addend: 0x0, symName: '__ZN74_$LT$std..sys_common..wtf8..Wtf8Buf$u20$as$u20$core..ops..deref..Deref$GT$5deref17hc2b669616683f5f5E', symObjAddr: 0x39A40, symBinAddr: 0x40F7C, symSize: 0x18 }
  - { offset: 0xD3275, size: 0x8, addend: 0x0, symName: '__ZN69_$LT$std..sys_common..wtf8..Wtf8Buf$u20$as$u20$core..fmt..Display$GT$3fmt17h76d5aa826dcdd5dcE', symObjAddr: 0x39A58, symBinAddr: 0x40F94, symSize: 0x30 }
  - { offset: 0xD32CB, size: 0x8, addend: 0x0, symName: '__ZN64_$LT$std..sys_common..wtf8..Wtf8$u20$as$u20$core..fmt..Debug$GT$3fmt17hfdcc3c205e994dd1E', symObjAddr: 0x39BBC, symBinAddr: 0x410F8, symSize: 0x224 }
  - { offset: 0xD3580, size: 0x8, addend: 0x0, symName: '__ZN64_$LT$std..sys_common..wtf8..Wtf8$u20$as$u20$core..fmt..Debug$GT$3fmt17write_str_escaped17h4e65629692a71165E', symObjAddr: 0x39DE0, symBinAddr: 0x4131C, symSize: 0x3C4 }
  - { offset: 0xD38C5, size: 0x8, addend: 0x0, symName: '__ZN66_$LT$std..sys_common..wtf8..Wtf8$u20$as$u20$core..fmt..Display$GT$3fmt17h90571202aa459157E', symObjAddr: 0x3A1A4, symBinAddr: 0x416E0, symSize: 0x1E4 }
  - { offset: 0xD3ABA, size: 0x8, addend: 0x0, symName: __ZN3std10sys_common4wtf816slice_error_fail17he01fa77ef06bf827E, symObjAddr: 0x3A388, symBinAddr: 0x8F804, symSize: 0x8C }
  - { offset: 0xD3B05, size: 0x8, addend: 0x0, symName: __ZN3std5alloc20set_alloc_error_hook17h6b4cbd8dcf0e6502E, symObjAddr: 0x3A414, symBinAddr: 0x418C4, symSize: 0x1C }
  - { offset: 0xD3B50, size: 0x8, addend: 0x0, symName: __ZN3std5alloc21take_alloc_error_hook17h62490216cf7e1687E, symObjAddr: 0x3A430, symBinAddr: 0x418E0, symSize: 0x34 }
  - { offset: 0xD3B9B, size: 0x8, addend: 0x0, symName: __ZN3std5alloc24default_alloc_error_hook17h237d5b6d679f7c3cE, symObjAddr: 0x3A464, symBinAddr: 0x41914, symSize: 0x140 }
  - { offset: 0xD3DF8, size: 0x8, addend: 0x0, symName: __RNvCs691rhTbG0Ee_7___rustc11___rdl_alloc, symObjAddr: 0x3A5A4, symBinAddr: 0x41A54, symSize: 0x6C }
  - { offset: 0xD3E7C, size: 0x8, addend: 0x0, symName: __RNvCs691rhTbG0Ee_7___rustc13___rdl_dealloc, symObjAddr: 0x3A610, symBinAddr: 0x41AC0, symSize: 0x10 }
  - { offset: 0xD3EB0, size: 0x8, addend: 0x0, symName: __RNvCs691rhTbG0Ee_7___rustc13___rdl_realloc, symObjAddr: 0x3A620, symBinAddr: 0x41AD0, symSize: 0xB0 }
  - { offset: 0xD3F8F, size: 0x8, addend: 0x0, symName: __RNvCs691rhTbG0Ee_7___rustc18___rdl_alloc_zeroed, symObjAddr: 0x3A6D0, symBinAddr: 0x41B80, symSize: 0x90 }
  - { offset: 0xD4037, size: 0x8, addend: 0x0, symName: __ZN3std5alloc8rust_oom17h615f5f8590b316f0E, symObjAddr: 0x47244, symBinAddr: 0x9054C, symSize: 0x2C }
  - { offset: 0xD4088, size: 0x8, addend: 0x0, symName: __RNvCs691rhTbG0Ee_7___rustc8___rg_oom, symObjAddr: 0x47270, symBinAddr: 0x90578, symSize: 0x18 }
  - { offset: 0xD41BA, size: 0x8, addend: 0x0, symName: '__ZN9addr2line8function17Function$LT$R$GT$14parse_children17heb95cb480348a860E', symObjAddr: 0x1D3A0, symBinAddr: 0x25A0C, symSize: 0xF18 }
  - { offset: 0xD5B3F, size: 0x8, addend: 0x0, symName: __ZN9addr2line8function10name_entry17h268848d5bab0269bE, symObjAddr: 0x1D034, symBinAddr: 0x256A0, symSize: 0x36C }
  - { offset: 0xD603D, size: 0x8, addend: 0x0, symName: __ZN9addr2line8function9name_attr17h1ae862012653e1e2E, symObjAddr: 0x1E2B8, symBinAddr: 0x26924, symSize: 0x1C0 }
  - { offset: 0xD6278, size: 0x8, addend: 0x0, symName: '__ZN9addr2line4unit16ResUnit$LT$R$GT$25find_function_or_location17hfa052480ac47e1c7E', symObjAddr: 0x1B0C0, symBinAddr: 0x2372C, symSize: 0x3D8 }
  - { offset: 0xD680D, size: 0x8, addend: 0x0, symName: '__ZN9addr2line4unit16ResUnit$LT$R$GT$25find_function_or_location28_$u7b$$u7b$closure$u7d$$u7d$17he0fd37f360aa0a3bE', symObjAddr: 0x1B498, symBinAddr: 0x23B04, symSize: 0x14D8 }
  - { offset: 0xD9348, size: 0x8, addend: 0x0, symName: '__ZN9addr2line16Context$LT$R$GT$9find_unit17h84c7720af4582fc3E', symObjAddr: 0x18F54, symBinAddr: 0x215C0, symSize: 0x168 }
  - { offset: 0xD94F1, size: 0x8, addend: 0x0, symName: __ZN9addr2line4line11render_file17h115e896abc0fa95dE, symObjAddr: 0x190BC, symBinAddr: 0x21728, symSize: 0x4B8 }
  - { offset: 0xD9E65, size: 0x8, addend: 0x0, symName: __ZN9addr2line4line9LazyLines6borrow17h165f4d886dd11ef9E, symObjAddr: 0x19574, symBinAddr: 0x21BE0, symSize: 0x1B4C }
  - { offset: 0xDD4A1, size: 0x8, addend: 0x0, symName: '__ZN9addr2line6lookup30LoopingLookup$LT$T$C$L$C$F$GT$10new_lookup17h1448d3dfe9bf87bbE', symObjAddr: 0x1CBF4, symBinAddr: 0x25260, symSize: 0x440 }
  - { offset: 0xDDA6B, size: 0x8, addend: 0x0, symName: '__ZN9addr2line5frame18FrameIter$LT$R$GT$4next17h7add115a007b0ea8E', symObjAddr: 0x1C970, symBinAddr: 0x24FDC, symSize: 0x284 }
  - { offset: 0xDDF37, size: 0x8, addend: 0x0, symName: '__ZN5gimli4read4unit32AttributeValue$LT$R$C$Offset$GT$11udata_value17hd0bc8c6fb1d6edc3E', symObjAddr: 0x14534, symBinAddr: 0x1CBA0, symSize: 0x90 }
  - { offset: 0xDDF92, size: 0x8, addend: 0x0, symName: __ZN5gimli4read4unit15parse_attribute17h04b52307de5b261dE, symObjAddr: 0x12828, symBinAddr: 0x1AE94, symSize: 0xF74 }
  - { offset: 0xE0F08, size: 0x8, addend: 0x0, symName: __ZN5gimli4read4unit15skip_attributes17hecc6b242f72d92c9E, symObjAddr: 0x1379C, symBinAddr: 0x1BE08, symSize: 0x548 }
  - { offset: 0xE19B5, size: 0x8, addend: 0x0, symName: '__ZN5gimli4read4unit18Attribute$LT$R$GT$5value17h5b86182921bcb0b1E', symObjAddr: 0x13CE4, symBinAddr: 0x1C350, symSize: 0x598 }
  - { offset: 0xE1F93, size: 0x8, addend: 0x0, symName: '__ZN5gimli4read4unit22EntriesCursor$LT$R$GT$10next_entry17h2a4d1a6b48f7e48aE', symObjAddr: 0x1427C, symBinAddr: 0x1C8E8, symSize: 0x2B8 }
  - { offset: 0xE25AF, size: 0x8, addend: 0x0, symName: '__ZN5gimli4read4unit33DebugInfoUnitHeadersIter$LT$R$GT$4next17h032dab73c017dbe6E', symObjAddr: 0x145C4, symBinAddr: 0x1CC30, symSize: 0x524 }
  - { offset: 0xE383C, size: 0x8, addend: 0x0, symName: '__ZN90_$LT$gimli..read..unit..AttributeValue$LT$R$C$Offset$GT$$u20$as$u20$core..clone..Clone$GT$5clone17hc4ef9664911caf77E', symObjAddr: 0x18E34, symBinAddr: 0x214A0, symSize: 0x68 }
  - { offset: 0xE3A94, size: 0x8, addend: 0x0, symName: __ZN5gimli4read6reader6Reader11read_offset17he6e24d001cc955a9E, symObjAddr: 0x16FE0, symBinAddr: 0x1F64C, symSize: 0xBC }
  - { offset: 0xE3CF2, size: 0x8, addend: 0x0, symName: __ZN5gimli4read6reader6Reader12read_sleb12817hda340a9626db38c6E, symObjAddr: 0x1709C, symBinAddr: 0x1F708, symSize: 0x21C }
  - { offset: 0xE3DEE, size: 0x8, addend: 0x0, symName: __ZN5gimli4read6reader6Reader12read_uleb12817h45a8a8eac9a97fa0E, symObjAddr: 0x172B8, symBinAddr: 0x1F924, symSize: 0xB0 }
  - { offset: 0xE3EAC, size: 0x8, addend: 0x0, symName: __ZN5gimli4read6reader6Reader17read_sized_offset17h28ef1869069679b6E, symObjAddr: 0x17368, symBinAddr: 0x1F9D4, symSize: 0xEC }
  - { offset: 0xE42EF, size: 0x8, addend: 0x0, symName: __ZN5gimli4read4line13parse_file_v517hfe0179bc1be16119E, symObjAddr: 0x11688, symBinAddr: 0x19CF4, symSize: 0x2B4 }
  - { offset: 0xE4479, size: 0x8, addend: 0x0, symName: __ZN5gimli4read4line15FileEntryFormat5parse17h722864984991e0a1E, symObjAddr: 0x1193C, symBinAddr: 0x19FA8, symSize: 0x378 }
  - { offset: 0xE4CEF, size: 0x8, addend: 0x0, symName: __ZN5gimli4read4line15parse_attribute17h7c1a441d98581548E, symObjAddr: 0x11CB4, symBinAddr: 0x1A320, symSize: 0x874 }
  - { offset: 0xE66C3, size: 0x8, addend: 0x0, symName: __ZN5gimli4read4line18parse_directory_v517h89760a067818548cE, symObjAddr: 0x12528, symBinAddr: 0x1AB94, symSize: 0xE8 }
  - { offset: 0xE675A, size: 0x8, addend: 0x0, symName: '__ZN5gimli4read4line27FileEntry$LT$R$C$Offset$GT$5parse17hb8b28b0526d9305bE', symObjAddr: 0x12610, symBinAddr: 0x1AC7C, symSize: 0x218 }
  - { offset: 0xE6EC2, size: 0x8, addend: 0x0, symName: '__ZN5gimli4read5dwarf14Dwarf$LT$R$GT$11attr_string17hda44e14bebe7ec07E', symObjAddr: 0x16720, symBinAddr: 0x1ED8C, symSize: 0x1F4 }
  - { offset: 0xE7796, size: 0x8, addend: 0x0, symName: '__ZN5gimli4read5dwarf13Unit$LT$R$GT$3new17h52e4de0572aec21fE', symObjAddr: 0x14AE8, symBinAddr: 0x1D154, symSize: 0x1C38 }
  - { offset: 0xEB3A0, size: 0x8, addend: 0x0, symName: '__ZN5gimli4read5index18UnitIndex$LT$R$GT$5parse17heed456ba57e1446bE', symObjAddr: 0x16914, symBinAddr: 0x1EF80, symSize: 0x6CC }
  - { offset: 0xEB991, size: 0x8, addend: 0x0, symName: '__ZN5gimli4read7aranges30ArangeHeader$LT$R$C$Offset$GT$5parse17he2b57c369afcd9e4E', symObjAddr: 0x17454, symBinAddr: 0x1FAC0, symSize: 0x2B4 }
  - { offset: 0xEC30F, size: 0x8, addend: 0x0, symName: '__ZN5gimli4read8rnglists20RngListIter$LT$R$GT$4next17h6f0f4fb29fc49217E', symObjAddr: 0x17708, symBinAddr: 0x1FD74, symSize: 0xC74 }
  - { offset: 0xEF4E6, size: 0x8, addend: 0x0, symName: __ZN6object4read7archive13ArchiveMember5parse17h0b83a0f296a52c5cE, symObjAddr: 0x18840, symBinAddr: 0x20EAC, symSize: 0x304 }
  - { offset: 0xEF505, size: 0x8, addend: 0x0, symName: __ZN6object4read7archive13ArchiveMember5parse17h0b83a0f296a52c5cE, symObjAddr: 0x18840, symBinAddr: 0x20EAC, symSize: 0x304 }
  - { offset: 0xEF51B, size: 0x8, addend: 0x0, symName: __ZN6object4read7archive13ArchiveMember5parse17h0b83a0f296a52c5cE, symObjAddr: 0x18840, symBinAddr: 0x20EAC, symSize: 0x304 }
  - { offset: 0xEFD62, size: 0x8, addend: 0x0, symName: __ZN6object4read7archive23parse_bsd_extended_name17hf8a22d41a5a72d82E, symObjAddr: 0x18B44, symBinAddr: 0x211B0, symSize: 0x24C }
  - { offset: 0xF0C82, size: 0x8, addend: 0x0, symName: _OUTLINED_FUNCTION_0, symObjAddr: 0x4CE74, symBinAddr: 0x53624, symSize: 0x8 }
  - { offset: 0xF0C9A, size: 0x8, addend: 0x0, symName: _OUTLINED_FUNCTION_1, symObjAddr: 0x4CE7C, symBinAddr: 0x5362C, symSize: 0xC }
  - { offset: 0xF0CB2, size: 0x8, addend: 0x0, symName: _OUTLINED_FUNCTION_2, symObjAddr: 0x4CE88, symBinAddr: 0x53638, symSize: 0xC }
  - { offset: 0xF0CCA, size: 0x8, addend: 0x0, symName: _OUTLINED_FUNCTION_3, symObjAddr: 0x4CE94, symBinAddr: 0x53644, symSize: 0xC }
  - { offset: 0xF0CE2, size: 0x8, addend: 0x0, symName: _OUTLINED_FUNCTION_4, symObjAddr: 0x4CEA0, symBinAddr: 0x53650, symSize: 0x8 }
  - { offset: 0xF0CFA, size: 0x8, addend: 0x0, symName: _OUTLINED_FUNCTION_5, symObjAddr: 0x4CEA8, symBinAddr: 0x53658, symSize: 0x24 }
  - { offset: 0xF0D12, size: 0x8, addend: 0x0, symName: _OUTLINED_FUNCTION_6, symObjAddr: 0x4CECC, symBinAddr: 0x5367C, symSize: 0xC }
  - { offset: 0xF0D2A, size: 0x8, addend: 0x0, symName: _OUTLINED_FUNCTION_7, symObjAddr: 0x4CED8, symBinAddr: 0x53688, symSize: 0x8 }
  - { offset: 0xF0D42, size: 0x8, addend: 0x0, symName: _OUTLINED_FUNCTION_8, symObjAddr: 0x4CEE0, symBinAddr: 0x53690, symSize: 0x10 }
  - { offset: 0xF0D5A, size: 0x8, addend: 0x0, symName: _OUTLINED_FUNCTION_9, symObjAddr: 0x4CEF0, symBinAddr: 0x536A0, symSize: 0x24 }
  - { offset: 0xF0D72, size: 0x8, addend: 0x0, symName: _OUTLINED_FUNCTION_10, symObjAddr: 0x4CF14, symBinAddr: 0x536C4, symSize: 0x8 }
  - { offset: 0xF0D8A, size: 0x8, addend: 0x0, symName: _OUTLINED_FUNCTION_11, symObjAddr: 0x4CF1C, symBinAddr: 0x536CC, symSize: 0x20 }
  - { offset: 0xF0DA2, size: 0x8, addend: 0x0, symName: _OUTLINED_FUNCTION_12, symObjAddr: 0x4CF3C, symBinAddr: 0x536EC, symSize: 0x8 }
  - { offset: 0xF0DBA, size: 0x8, addend: 0x0, symName: _OUTLINED_FUNCTION_13, symObjAddr: 0x4CF44, symBinAddr: 0x536F4, symSize: 0x8 }
  - { offset: 0xF0DD2, size: 0x8, addend: 0x0, symName: _OUTLINED_FUNCTION_14, symObjAddr: 0x4CF4C, symBinAddr: 0x536FC, symSize: 0x8 }
  - { offset: 0xF0DEA, size: 0x8, addend: 0x0, symName: _OUTLINED_FUNCTION_15, symObjAddr: 0x4CF54, symBinAddr: 0x53704, symSize: 0x8 }
  - { offset: 0xF0E02, size: 0x8, addend: 0x0, symName: _OUTLINED_FUNCTION_16, symObjAddr: 0x4CF5C, symBinAddr: 0x5370C, symSize: 0x10 }
  - { offset: 0xF0E1A, size: 0x8, addend: 0x0, symName: _OUTLINED_FUNCTION_17, symObjAddr: 0x4CF6C, symBinAddr: 0x5371C, symSize: 0x10 }
  - { offset: 0xF0E32, size: 0x8, addend: 0x0, symName: _OUTLINED_FUNCTION_18, symObjAddr: 0x4CF7C, symBinAddr: 0x5372C, symSize: 0x10 }
  - { offset: 0xF0E4A, size: 0x8, addend: 0x0, symName: _OUTLINED_FUNCTION_19, symObjAddr: 0x4CF8C, symBinAddr: 0x5373C, symSize: 0x10 }
  - { offset: 0xF0E62, size: 0x8, addend: 0x0, symName: _OUTLINED_FUNCTION_20, symObjAddr: 0x4CF9C, symBinAddr: 0x5374C, symSize: 0x18 }
  - { offset: 0xF0E7A, size: 0x8, addend: 0x0, symName: _OUTLINED_FUNCTION_21, symObjAddr: 0x4CFB4, symBinAddr: 0x53764, symSize: 0xC }
  - { offset: 0xF0E92, size: 0x8, addend: 0x0, symName: _OUTLINED_FUNCTION_22, symObjAddr: 0x4CFC0, symBinAddr: 0x53770, symSize: 0xC }
  - { offset: 0xF0EAA, size: 0x8, addend: 0x0, symName: _OUTLINED_FUNCTION_23, symObjAddr: 0x4CFCC, symBinAddr: 0x5377C, symSize: 0x8 }
  - { offset: 0xF0EC2, size: 0x8, addend: 0x0, symName: _OUTLINED_FUNCTION_24, symObjAddr: 0x4CFD4, symBinAddr: 0x53784, symSize: 0x8 }
  - { offset: 0xF0EDA, size: 0x8, addend: 0x0, symName: _OUTLINED_FUNCTION_25, symObjAddr: 0x4CFDC, symBinAddr: 0x5378C, symSize: 0x8 }
  - { offset: 0xF0EF2, size: 0x8, addend: 0x0, symName: _OUTLINED_FUNCTION_26, symObjAddr: 0x4CFE4, symBinAddr: 0x53794, symSize: 0x8 }
  - { offset: 0xF0F0A, size: 0x8, addend: 0x0, symName: _OUTLINED_FUNCTION_27, symObjAddr: 0x4CFEC, symBinAddr: 0x5379C, symSize: 0x14 }
  - { offset: 0xF0F22, size: 0x8, addend: 0x0, symName: _OUTLINED_FUNCTION_28, symObjAddr: 0x4D000, symBinAddr: 0x537B0, symSize: 0x14 }
  - { offset: 0xF0F3A, size: 0x8, addend: 0x0, symName: _OUTLINED_FUNCTION_29, symObjAddr: 0x4D014, symBinAddr: 0x537C4, symSize: 0xC }
  - { offset: 0xF0F52, size: 0x8, addend: 0x0, symName: _OUTLINED_FUNCTION_30, symObjAddr: 0x4D020, symBinAddr: 0x537D0, symSize: 0x14 }
  - { offset: 0xF0F6A, size: 0x8, addend: 0x0, symName: _OUTLINED_FUNCTION_31, symObjAddr: 0x4D034, symBinAddr: 0x537E4, symSize: 0x14 }
  - { offset: 0xF0FA0, size: 0x8, addend: 0x0, symName: '__ZN4core3ptr49drop_in_place$LT$panic_unwind..imp..Exception$GT$17hf001468b52c7df66E', symObjAddr: 0x0, symBinAddr: 0x537F8, symSize: 0x78 }
  - { offset: 0xF0FC8, size: 0x8, addend: 0x0, symName: '__ZN4core3ptr49drop_in_place$LT$panic_unwind..imp..Exception$GT$17hf001468b52c7df66E', symObjAddr: 0x0, symBinAddr: 0x537F8, symSize: 0x78 }
  - { offset: 0xF10DA, size: 0x8, addend: 0x0, symName: '__ZN4core3ptr74drop_in_place$LT$alloc..boxed..Box$LT$panic_unwind..imp..Exception$GT$$GT$17he8c7d78ad6355e51E', symObjAddr: 0x78, symBinAddr: 0x53870, symSize: 0x8C }
  - { offset: 0xF13D2, size: 0x8, addend: 0x0, symName: __ZN12panic_unwind3imp5panic17exception_cleanup17ha14c3d180f49aae8E, symObjAddr: 0x214, symBinAddr: 0x53A0C, symSize: 0x18 }
  - { offset: 0xF13EE, size: 0x8, addend: 0x0, symName: __RNvCs691rhTbG0Ee_7___rustc20___rust_panic_cleanup, symObjAddr: 0x104, symBinAddr: 0x538FC, symSize: 0x68 }
  - { offset: 0xF149B, size: 0x8, addend: 0x0, symName: __RNvCs691rhTbG0Ee_7___rustc18___rust_start_panic, symObjAddr: 0x16C, symBinAddr: 0x53964, symSize: 0xA8 }
  - { offset: 0xF1560, size: 0x8, addend: 0x0, symName: '__ZN42_$LT$$RF$T$u20$as$u20$core..fmt..Debug$GT$3fmt17h6c6e479e52f9a7c2E', symObjAddr: 0x0, symBinAddr: 0x6D648, symSize: 0x30 }
  - { offset: 0xF15BE, size: 0x8, addend: 0x0, symName: '__ZN42_$LT$$RF$T$u20$as$u20$core..fmt..Debug$GT$3fmt17h6c6e479e52f9a7c2E', symObjAddr: 0x0, symBinAddr: 0x6D648, symSize: 0x30 }
  - { offset: 0xF1606, size: 0x8, addend: 0x0, symName: '__ZN42_$LT$$RF$T$u20$as$u20$core..fmt..Debug$GT$3fmt17h8c697f8f00ab5cd9E', symObjAddr: 0x30, symBinAddr: 0x6D678, symSize: 0x1C }
  - { offset: 0xF1621, size: 0x8, addend: 0x0, symName: '__ZN42_$LT$$RF$T$u20$as$u20$core..fmt..Debug$GT$3fmt17hed3d250ea6c5d26dE', symObjAddr: 0x4C, symBinAddr: 0x6D694, symSize: 0x68 }
  - { offset: 0xF166D, size: 0x8, addend: 0x0, symName: __ZN4core3fmt5Write9write_fmt17hbc6f48ff4ff5452fE, symObjAddr: 0xB4, symBinAddr: 0x6D6FC, symSize: 0x1C }
  - { offset: 0xF16B1, size: 0x8, addend: 0x0, symName: '__ZN53_$LT$core..fmt..Error$u20$as$u20$core..fmt..Debug$GT$3fmt17h8ab6c3a6dbcfa435E', symObjAddr: 0x414, symBinAddr: 0x6DA2C, symSize: 0x20 }
  - { offset: 0xF17FD, size: 0x8, addend: 0x0, symName: '__ZN4core3ptr238drop_in_place$LT$alloc..boxed..convert..$LT$impl$u20$core..convert..From$LT$alloc..string..String$GT$$u20$for$u20$alloc..boxed..Box$LT$dyn$u20$core..error..Error$u2b$core..marker..Send$u2b$core..marker..Sync$GT$$GT$..from..StringError$GT$17h3f3536596e4725d7E', symObjAddr: 0xD0, symBinAddr: 0x6D718, symSize: 0x28 }
  - { offset: 0xF18A8, size: 0x8, addend: 0x0, symName: '__ZN4core3ptr42drop_in_place$LT$alloc..string..String$GT$17h5fea6cc46c0a4573E', symObjAddr: 0xF8, symBinAddr: 0x6D740, symSize: 0x28 }
  - { offset: 0xF1F6A, size: 0x8, addend: 0x0, symName: __ZN4core4iter6traits8iterator8Iterator7collect17hc39b1190ae9c5554E, symObjAddr: 0x120, symBinAddr: 0x6D768, symSize: 0x270 }
  - { offset: 0xF28B2, size: 0x8, addend: 0x0, symName: __ZN4core5error5Error5cause17h3fb280d930cfdfe3E, symObjAddr: 0x390, symBinAddr: 0x6D9D8, symSize: 0x14 }
  - { offset: 0xF28CC, size: 0x8, addend: 0x0, symName: __ZN4core5error5Error7provide17h561fee628a50b254E, symObjAddr: 0x3A4, symBinAddr: 0x6D9EC, symSize: 0x10 }
  - { offset: 0xF28E6, size: 0x8, addend: 0x0, symName: __ZN4core5error5Error7type_id17ha6b0353807f6b017E, symObjAddr: 0x3B4, symBinAddr: 0x6D9FC, symSize: 0x30 }
  - { offset: 0xF2908, size: 0x8, addend: 0x0, symName: __ZN4core9panicking13assert_failed17hbb345fb208d7bdfaE, symObjAddr: 0x3E4, symBinAddr: 0x906F4, symSize: 0x30 }
  - { offset: 0xF2936, size: 0x8, addend: 0x0, symName: '__ZN69_$LT$core..alloc..layout..LayoutError$u20$as$u20$core..fmt..Debug$GT$3fmt17h2d313cb77ed303a2E', symObjAddr: 0x434, symBinAddr: 0x6DA4C, symSize: 0x20 }
  - { offset: 0xF2AE5, size: 0x8, addend: 0x0, symName: '__ZN5alloc3ffi5c_str40_$LT$impl$u20$core..ffi..c_str..CStr$GT$15to_string_lossy17h7ff17315ce0f9b24E', symObjAddr: 0x1BA4, symBinAddr: 0x6EF38, symSize: 0x14 }
  - { offset: 0xF2B17, size: 0x8, addend: 0x0, symName: '__ZN5alloc3ffi5c_str40_$LT$impl$u20$core..ffi..c_str..CStr$GT$13into_c_string17hdf895c3f95ceb789E', symObjAddr: 0x1BB8, symBinAddr: 0x6EF4C, symSize: 0x10 }
  - { offset: 0xF302A, size: 0x8, addend: 0x0, symName: '__ZN5alloc7raw_vec19RawVec$LT$T$C$A$GT$8grow_one17h5c1e4701af62691cE', symObjAddr: 0x488, symBinAddr: 0x6DA6C, symSize: 0xA0 }
  - { offset: 0xF3245, size: 0x8, addend: 0x0, symName: __ZN5alloc7raw_vec17capacity_overflow17hd4c9f746d969546dE, symObjAddr: 0x454, symBinAddr: 0x90724, symSize: 0x34 }
  - { offset: 0xF328F, size: 0x8, addend: 0x0, symName: '__ZN5alloc7raw_vec20RawVecInner$LT$A$GT$7reserve21do_reserve_and_handle17hda500f94eda776a1E', symObjAddr: 0x528, symBinAddr: 0x90758, symSize: 0xB0 }
  - { offset: 0xF33A3, size: 0x8, addend: 0x0, symName: __ZN5alloc7raw_vec12handle_error17h902fd9be81c355dbE, symObjAddr: 0x660, symBinAddr: 0x90808, symSize: 0x18 }
  - { offset: 0xF3487, size: 0x8, addend: 0x0, symName: __ZN5alloc5alloc18handle_alloc_error8ct_error17h8b4ab9d329c0a766E, symObjAddr: 0x690, symBinAddr: 0x90838, symSize: 0x38 }
  - { offset: 0xF34BA, size: 0x8, addend: 0x0, symName: __ZN5alloc5alloc18handle_alloc_error17h6124ba9cf41f1a87E, symObjAddr: 0x678, symBinAddr: 0x90820, symSize: 0x18 }
  - { offset: 0xF34F2, size: 0x8, addend: 0x0, symName: __RNvCs691rhTbG0Ee_7___rustc9___rdl_oom, symObjAddr: 0x6C8, symBinAddr: 0x90870, symSize: 0xA4 }
  - { offset: 0xF3652, size: 0x8, addend: 0x0, symName: __ZN5alloc6string6String15from_utf8_lossy17h8a2865791ac0dcb2E, symObjAddr: 0x31F4, symBinAddr: 0x70588, symSize: 0x244 }
  - { offset: 0xF3BD4, size: 0x8, addend: 0x0, symName: __ZN5alloc6string6String21from_utf8_lossy_owned17hbeeb774260905b47E, symObjAddr: 0x3438, symBinAddr: 0x707CC, symSize: 0xB8 }
  - { offset: 0xF3DDB, size: 0x8, addend: 0x0, symName: __ZN5alloc6string6String10from_utf1617h0c5f30115a8da246E, symObjAddr: 0x34F0, symBinAddr: 0x70884, symSize: 0x284 }
  - { offset: 0xF4211, size: 0x8, addend: 0x0, symName: __ZN5alloc6string6String12from_utf16le17hfe82068307c855acE, symObjAddr: 0x3774, symBinAddr: 0x70B08, symSize: 0x3F0 }
  - { offset: 0xF4683, size: 0x8, addend: 0x0, symName: __ZN5alloc6string6String18from_utf16le_lossy17hd706eb3967260a25E, symObjAddr: 0x3B64, symBinAddr: 0x70EF8, symSize: 0x3C8 }
  - { offset: 0xF506E, size: 0x8, addend: 0x0, symName: __ZN5alloc6string6String12from_utf16be17h330270bc481b7a60E, symObjAddr: 0x3F2C, symBinAddr: 0x712C0, symSize: 0x3C4 }
  - { offset: 0xF548F, size: 0x8, addend: 0x0, symName: __ZN5alloc6string6String18from_utf16be_lossy17h08672180096eb9b5E, symObjAddr: 0x42F0, symBinAddr: 0x71684, symSize: 0x2F8 }
  - { offset: 0xF5B01, size: 0x8, addend: 0x0, symName: __ZN5alloc6string6String11try_reserve17hc448e10533b71d59E, symObjAddr: 0x45E8, symBinAddr: 0x7197C, symSize: 0xC4 }
  - { offset: 0xF5C82, size: 0x8, addend: 0x0, symName: __ZN5alloc6string6String17try_reserve_exact17h1977a0af7e1b48c2E, symObjAddr: 0x46AC, symBinAddr: 0x71A40, symSize: 0xAC }
  - { offset: 0xF5FAF, size: 0x8, addend: 0x0, symName: '__ZN98_$LT$alloc..string..String$u20$as$u20$core..convert..From$LT$alloc..borrow..Cow$LT$str$GT$$GT$$GT$4from17h8dd80b2eba1a04e8E', symObjAddr: 0x4B70, symBinAddr: 0x71F04, symSize: 0xBC }
  - { offset: 0xF6143, size: 0x8, addend: 0x0, symName: __ZN5alloc6string13FromUtf8Error8as_bytes17h950369c49be3c962E, symObjAddr: 0x4758, symBinAddr: 0x71AEC, symSize: 0x18 }
  - { offset: 0xF61FF, size: 0x8, addend: 0x0, symName: __ZN5alloc6string13FromUtf8Error15into_utf8_lossy17hb01cf60f1cd6e013E, symObjAddr: 0x4770, symBinAddr: 0x71B04, symSize: 0x200 }
  - { offset: 0xF688C, size: 0x8, addend: 0x0, symName: '__ZN67_$LT$alloc..string..FromUtf8Error$u20$as$u20$core..fmt..Display$GT$3fmt17h55ef0f10e446ef65E', symObjAddr: 0x4970, symBinAddr: 0x71D04, symSize: 0x14 }
  - { offset: 0xF68AE, size: 0x8, addend: 0x0, symName: '__ZN68_$LT$alloc..string..FromUtf16Error$u20$as$u20$core..fmt..Display$GT$3fmt17hbc1f9cd084849781E', symObjAddr: 0x4984, symBinAddr: 0x71D18, symSize: 0x20 }
  - { offset: 0xF68D0, size: 0x8, addend: 0x0, symName: '__ZN60_$LT$alloc..string..String$u20$as$u20$core..clone..Clone$GT$5clone17h660f3c7c55bef858E', symObjAddr: 0x49A4, symBinAddr: 0x71D38, symSize: 0x98 }
  - { offset: 0xF6A0E, size: 0x8, addend: 0x0, symName: '__ZN60_$LT$alloc..string..String$u20$as$u20$core..clone..Clone$GT$10clone_from17h662cc73fad92e82eE', symObjAddr: 0x4A3C, symBinAddr: 0x71DD0, symSize: 0x7C }
  - { offset: 0xF6B9D, size: 0x8, addend: 0x0, symName: '__ZN73_$LT$$RF$alloc..string..String$u20$as$u20$core..str..pattern..Pattern$GT$13into_searcher17hc6adfa35c33c71a2E', symObjAddr: 0x4AB8, symBinAddr: 0x71E4C, symSize: 0x20 }
  - { offset: 0xF6C76, size: 0x8, addend: 0x0, symName: '__ZN5alloc6string107_$LT$impl$u20$core..convert..From$LT$alloc..string..String$GT$$u20$for$u20$alloc..boxed..Box$LT$str$GT$$GT$4from17hcb5734eabbd01d6eE', symObjAddr: 0x4AD8, symBinAddr: 0x71E6C, symSize: 0x98 }
  - { offset: 0xF6E19, size: 0x8, addend: 0x0, symName: '__ZN97_$LT$alloc..string..String$u20$as$u20$core..convert..TryFrom$LT$alloc..vec..Vec$LT$u8$GT$$GT$$GT$8try_from17h75abbbbdf78c0c11E', symObjAddr: 0x4C2C, symBinAddr: 0x71FC0, symSize: 0xAC }
  - { offset: 0xF6F73, size: 0x8, addend: 0x0, symName: '__ZN58_$LT$alloc..string..String$u20$as$u20$core..fmt..Write$GT$9write_str17he8b8e479d4981e28E', symObjAddr: 0x4CD8, symBinAddr: 0x7206C, symSize: 0x78 }
  - { offset: 0xF70D7, size: 0x8, addend: 0x0, symName: '__ZN58_$LT$alloc..string..String$u20$as$u20$core..fmt..Write$GT$10write_char17hc05bb0c5ec75d476E', symObjAddr: 0x4D50, symBinAddr: 0x720E4, symSize: 0x130 }
  - { offset: 0xF72A9, size: 0x8, addend: 0x0, symName: '__ZN61_$LT$alloc..string..IntoChars$u20$as$u20$core..fmt..Debug$GT$3fmt17h20aadaac20cd2e5eE', symObjAddr: 0x4E80, symBinAddr: 0x72214, symSize: 0x68 }
  - { offset: 0xF738D, size: 0x8, addend: 0x0, symName: __ZN5alloc6string5Drain6as_str17h006daf14baeee0aaE, symObjAddr: 0x4FC4, symBinAddr: 0x72358, symSize: 0x1C }
  - { offset: 0xF742F, size: 0x8, addend: 0x0, symName: '__ZN57_$LT$alloc..string..Drain$u20$as$u20$core..fmt..Debug$GT$3fmt17he54a83ede05c8778E', symObjAddr: 0x4EE8, symBinAddr: 0x7227C, symSize: 0x64 }
  - { offset: 0xF74EF, size: 0x8, addend: 0x0, symName: '__ZN62_$LT$alloc..string..Drain$u20$as$u20$core..ops..drop..Drop$GT$4drop17ha53f3386b0bb6a04E', symObjAddr: 0x4F4C, symBinAddr: 0x722E0, symSize: 0x78 }
  - { offset: 0xF7664, size: 0x8, addend: 0x0, symName: '__ZN72_$LT$alloc..string..Drain$u20$as$u20$core..convert..AsRef$LT$str$GT$$GT$6as_ref17h40c5440c1776967eE', symObjAddr: 0x4FE0, symBinAddr: 0x72374, symSize: 0x1C }
  - { offset: 0xF7724, size: 0x8, addend: 0x0, symName: '__ZN79_$LT$alloc..string..Drain$u20$as$u20$core..iter..traits..iterator..Iterator$GT$9size_hint17ha2ef1a256e213cebE', symObjAddr: 0x4FFC, symBinAddr: 0x72390, symSize: 0x2C }
  - { offset: 0xF7C8F, size: 0x8, addend: 0x0, symName: '__ZN5alloc3vec16Vec$LT$T$C$A$GT$11swap_remove13assert_failed17ha3ad9d59928717a4E', symObjAddr: 0x509C, symBinAddr: 0x90920, symSize: 0x34 }
  - { offset: 0xF7CC9, size: 0x8, addend: 0x0, symName: '__ZN5alloc3vec16Vec$LT$T$C$A$GT$6insert13assert_failed17h10edacd37dd15d4cE', symObjAddr: 0x50D0, symBinAddr: 0x90954, symSize: 0x34 }
  - { offset: 0xF7D03, size: 0x8, addend: 0x0, symName: '__ZN5alloc3vec16Vec$LT$T$C$A$GT$6remove13assert_failed17h682af97be3f47ce7E', symObjAddr: 0x5104, symBinAddr: 0x90988, symSize: 0x34 }
  - { offset: 0xF7D3D, size: 0x8, addend: 0x0, symName: '__ZN5alloc3vec16Vec$LT$T$C$A$GT$9split_off13assert_failed17h6d39992275c3c871E', symObjAddr: 0x5138, symBinAddr: 0x909BC, symSize: 0x34 }
  - { offset: 0xF7D8D, size: 0x8, addend: 0x0, symName: '__ZN80_$LT$alloc..vec..Vec$LT$u8$GT$$u20$as$u20$core..convert..From$LT$$RF$str$GT$$GT$4from17h20cca7fedc30de2aE', symObjAddr: 0x516C, symBinAddr: 0x72430, symSize: 0x98 }
  - { offset: 0xF7F1C, size: 0x8, addend: 0x0, symName: '__ZN88_$LT$alloc..collections..btree..map..UnorderedKeyError$u20$as$u20$core..fmt..Display$GT$3fmt17hef281e6cf631058fE', symObjAddr: 0x1054, symBinAddr: 0x6E3F4, symSize: 0x24 }
  - { offset: 0xF7F62, size: 0x8, addend: 0x0, symName: '__ZN93_$LT$alloc..collections..btree..mem..replace..PanicGuard$u20$as$u20$core..ops..drop..Drop$GT$4drop17h9027823f439739abE', symObjAddr: 0x1078, symBinAddr: 0x90914, symSize: 0xC }
  - { offset: 0xF7F86, size: 0x8, addend: 0x0, symName: '__ZN74_$LT$alloc..collections..TryReserveError$u20$as$u20$core..fmt..Display$GT$3fmt17h6fe4b8c42c529122E', symObjAddr: 0x1084, symBinAddr: 0x6E418, symSize: 0x74 }
  - { offset: 0xF800A, size: 0x8, addend: 0x0, symName: '__ZN92_$LT$alloc..borrow..Cow$LT$str$GT$$u20$as$u20$core..ops..arith..AddAssign$LT$$RF$str$GT$$GT$10add_assign17hddba5ea63d4129c3E', symObjAddr: 0x76C, symBinAddr: 0x6DB0C, symSize: 0x20C }
  - { offset: 0xF8598, size: 0x8, addend: 0x0, symName: '__ZN77_$LT$alloc..borrow..Cow$LT$str$GT$$u20$as$u20$core..ops..arith..AddAssign$GT$10add_assign17hd7d3c2ec188eed69E', symObjAddr: 0x978, symBinAddr: 0x6DD18, symSize: 0x2B8 }
  - { offset: 0xF8E77, size: 0x8, addend: 0x0, symName: '__ZN5alloc3str21_$LT$impl$u20$str$GT$12to_lowercase17h53f192b8dfd4fe7eE', symObjAddr: 0x1DD8, symBinAddr: 0x6F16C, symSize: 0xBC8 }
  - { offset: 0xF9CD2, size: 0x8, addend: 0x0, symName: '__ZN5alloc3str21_$LT$impl$u20$str$GT$12to_uppercase17hcab038663fdb600fE', symObjAddr: 0x29A0, symBinAddr: 0x6FD34, symSize: 0x854 }
  - { offset: 0xFA805, size: 0x8, addend: 0x0, symName: '__ZN256_$LT$alloc..boxed..convert..$LT$impl$u20$core..convert..From$LT$alloc..string..String$GT$$u20$for$u20$alloc..boxed..Box$LT$dyn$u20$core..error..Error$u2b$core..marker..Send$u2b$core..marker..Sync$GT$$GT$..from..StringError$u20$as$u20$core..error..Error$GT$11description17h77f7db6f0a22bec4E', symObjAddr: 0xC30, symBinAddr: 0x6DFD0, symSize: 0x18 }
  - { offset: 0xFA8C8, size: 0x8, addend: 0x0, symName: '__ZN256_$LT$alloc..boxed..convert..$LT$impl$u20$core..convert..From$LT$alloc..string..String$GT$$u20$for$u20$alloc..boxed..Box$LT$dyn$u20$core..error..Error$u2b$core..marker..Send$u2b$core..marker..Sync$GT$$GT$..from..StringError$u20$as$u20$core..fmt..Display$GT$3fmt17hdb291f731628f366E', symObjAddr: 0xC48, symBinAddr: 0x6DFE8, symSize: 0x1C }
  - { offset: 0xFA9A2, size: 0x8, addend: 0x0, symName: '__ZN254_$LT$alloc..boxed..convert..$LT$impl$u20$core..convert..From$LT$alloc..string..String$GT$$u20$for$u20$alloc..boxed..Box$LT$dyn$u20$core..error..Error$u2b$core..marker..Send$u2b$core..marker..Sync$GT$$GT$..from..StringError$u20$as$u20$core..fmt..Debug$GT$3fmt17h8865ab00cca9b597E', symObjAddr: 0xC64, symBinAddr: 0x6E004, symSize: 0x1C }
  - { offset: 0xFAA9A, size: 0x8, addend: 0x0, symName: '__ZN5alloc5boxed7convert130_$LT$impl$u20$core..convert..From$LT$alloc..string..String$GT$$u20$for$u20$alloc..boxed..Box$LT$dyn$u20$core..error..Error$GT$$GT$4from17hdeb580c6e8dc828aE', symObjAddr: 0xC80, symBinAddr: 0x6E020, symSize: 0x84 }
  - { offset: 0xFAC16, size: 0x8, addend: 0x0, symName: '__ZN5alloc5boxed7convert116_$LT$impl$u20$core..convert..From$LT$$RF$str$GT$$u20$for$u20$alloc..boxed..Box$LT$dyn$u20$core..error..Error$GT$$GT$4from17hf7148d111c6e6853E', symObjAddr: 0xD04, symBinAddr: 0x6E0A4, symSize: 0xE0 }
  - { offset: 0xFAEE8, size: 0x8, addend: 0x0, symName: '__ZN5alloc5boxed7convert184_$LT$impl$u20$core..convert..From$LT$alloc..borrow..Cow$LT$str$GT$$GT$$u20$for$u20$alloc..boxed..Box$LT$dyn$u20$core..error..Error$u2b$core..marker..Send$u2b$core..marker..Sync$GT$$GT$4from17h078d0a546ac06a40E', symObjAddr: 0xDE4, symBinAddr: 0x6E184, symSize: 0xF4 }
  - { offset: 0xFB1BA, size: 0x8, addend: 0x0, symName: '__ZN5alloc5boxed7convert138_$LT$impl$u20$core..convert..From$LT$alloc..borrow..Cow$LT$str$GT$$GT$$u20$for$u20$alloc..boxed..Box$LT$dyn$u20$core..error..Error$GT$$GT$4from17h91d24936a62f04c2E', symObjAddr: 0xED8, symBinAddr: 0x6E278, symSize: 0xF4 }
  - { offset: 0xFB516, size: 0x8, addend: 0x0, symName: '__ZN67_$LT$alloc..boxed..Box$LT$str$GT$$u20$as$u20$core..clone..Clone$GT$5clone17hfc43a2158bed8434E', symObjAddr: 0xFCC, symBinAddr: 0x6E36C, symSize: 0x88 }
  - { offset: 0xFB63E, size: 0x8, addend: 0x0, symName: __ZN5alloc3ffi5c_str19FromVecWithNulError8as_bytes17hc2c4bd027a3eec6bE, symObjAddr: 0x10F8, symBinAddr: 0x6E48C, symSize: 0x18 }
  - { offset: 0xFB719, size: 0x8, addend: 0x0, symName: '__ZN72_$LT$$RF$str$u20$as$u20$alloc..ffi..c_str..CString..new..SpecNewImpl$GT$13spec_new_impl17h5342f55e02432f13E', symObjAddr: 0x1110, symBinAddr: 0x6E4A4, symSize: 0x11C }
  - { offset: 0xFB974, size: 0x8, addend: 0x0, symName: '__ZN89_$LT$$RF$mut$u20$$u5b$u8$u5d$$u20$as$u20$alloc..ffi..c_str..CString..new..SpecNewImpl$GT$13spec_new_impl17h7da66be7c60810cdE', symObjAddr: 0x122C, symBinAddr: 0x6E5C0, symSize: 0x11C }
  - { offset: 0xFBBE6, size: 0x8, addend: 0x0, symName: __ZN5alloc3ffi5c_str7CString18from_vec_unchecked17h00eed5de2d515133E, symObjAddr: 0x1348, symBinAddr: 0x6E6DC, symSize: 0x30 }
  - { offset: 0xFBC01, size: 0x8, addend: 0x0, symName: __ZN5alloc3ffi5c_str7CString19_from_vec_unchecked17h938c353f97a5f8f9E, symObjAddr: 0x1378, symBinAddr: 0x6E70C, symSize: 0x160 }
  - { offset: 0xFBF4D, size: 0x8, addend: 0x0, symName: __ZN5alloc3ffi5c_str7CString8from_raw17h82353e6f7e51c2f5E, symObjAddr: 0x14D8, symBinAddr: 0x6E86C, symSize: 0x28 }
  - { offset: 0xFBF76, size: 0x8, addend: 0x0, symName: __ZN5alloc3ffi5c_str7CString11into_string17hd96a730f8ac54b0bE, symObjAddr: 0x1500, symBinAddr: 0x6E894, symSize: 0xF8 }
  - { offset: 0xFC092, size: 0x8, addend: 0x0, symName: __ZN5alloc3ffi5c_str7CString10into_bytes17h4f23e124c6c5c696E, symObjAddr: 0x15F8, symBinAddr: 0x6E98C, symSize: 0x20 }
  - { offset: 0xFC0BD, size: 0x8, addend: 0x0, symName: __ZN5alloc3ffi5c_str7CString19into_bytes_with_nul17h922fa7abde176e78E, symObjAddr: 0x1618, symBinAddr: 0x6E9AC, symSize: 0x18 }
  - { offset: 0xFC114, size: 0x8, addend: 0x0, symName: __ZN5alloc3ffi5c_str7CString27from_vec_with_nul_unchecked17hdfa2e1b75907a7ccE, symObjAddr: 0x1630, symBinAddr: 0x6E9C4, symSize: 0x98 }
  - { offset: 0xFC2B0, size: 0x8, addend: 0x0, symName: __ZN5alloc3ffi5c_str7CString17from_vec_with_nul17h40d9b1b8405f1713E, symObjAddr: 0x16C8, symBinAddr: 0x6EA5C, symSize: 0x130 }
  - { offset: 0xFC505, size: 0x8, addend: 0x0, symName: '__ZN63_$LT$alloc..ffi..c_str..CString$u20$as$u20$core..fmt..Debug$GT$3fmt17hbeee97c80e0ba0dbE', symObjAddr: 0x17F8, symBinAddr: 0x6EB8C, symSize: 0x1C }
  - { offset: 0xFC563, size: 0x8, addend: 0x0, symName: '__ZN5alloc3ffi5c_str75_$LT$impl$u20$alloc..borrow..ToOwned$u20$for$u20$core..ffi..c_str..CStr$GT$10clone_into17h195d72582fbb8766E', symObjAddr: 0x1A08, symBinAddr: 0x6ED9C, symSize: 0x114 }
  - { offset: 0xFC891, size: 0x8, addend: 0x0, symName: '__ZN69_$LT$alloc..ffi..c_str..CString$u20$as$u20$core..default..Default$GT$7default17h09b5d204c144da8dE', symObjAddr: 0x1814, symBinAddr: 0x6EBA8, symSize: 0x40 }
  - { offset: 0xFC9A3, size: 0x8, addend: 0x0, symName: '__ZN5alloc3ffi5c_str131_$LT$impl$u20$core..convert..From$LT$$RF$core..ffi..c_str..CStr$GT$$u20$for$u20$alloc..boxed..Box$LT$core..ffi..c_str..CStr$GT$$GT$4from17hb16330b681b875a2E', symObjAddr: 0x1854, symBinAddr: 0x6EBE8, symSize: 0x88 }
  - { offset: 0xFCAAF, size: 0x8, addend: 0x0, symName: '__ZN5alloc3ffi5c_str100_$LT$impl$u20$core..default..Default$u20$for$u20$alloc..boxed..Box$LT$core..ffi..c_str..CStr$GT$$GT$7default17h1931cf86dc4434acE', symObjAddr: 0x18DC, symBinAddr: 0x6EC70, symSize: 0x40 }
  - { offset: 0xFCB57, size: 0x8, addend: 0x0, symName: '__ZN66_$LT$alloc..ffi..c_str..NulError$u20$as$u20$core..fmt..Display$GT$3fmt17h56c940b7426157d7E', symObjAddr: 0x191C, symBinAddr: 0x6ECB0, symSize: 0x50 }
  - { offset: 0xFCBD3, size: 0x8, addend: 0x0, symName: '__ZN77_$LT$alloc..ffi..c_str..FromVecWithNulError$u20$as$u20$core..fmt..Display$GT$3fmt17h2dea7599f2577217E', symObjAddr: 0x196C, symBinAddr: 0x6ED00, symSize: 0x7C }
  - { offset: 0xFCC39, size: 0x8, addend: 0x0, symName: '__ZN73_$LT$alloc..ffi..c_str..IntoStringError$u20$as$u20$core..fmt..Display$GT$3fmt17h1f87eb14e3cf60aaE', symObjAddr: 0x19E8, symBinAddr: 0x6ED7C, symSize: 0x20 }
  - { offset: 0xFCC5B, size: 0x8, addend: 0x0, symName: '__ZN100_$LT$alloc..ffi..c_str..CString$u20$as$u20$core..convert..From$LT$$RF$core..ffi..c_str..CStr$GT$$GT$4from17h00fa6b98789f5030E', symObjAddr: 0x1B1C, symBinAddr: 0x6EEB0, symSize: 0x88 }
  - { offset: 0xFCD8D, size: 0x8, addend: 0x0, symName: __ZN5alloc3fmt6format12format_inner17h92b02cadc1f29f68E, symObjAddr: 0x1BC8, symBinAddr: 0x6EF5C, symSize: 0x19C }
  - { offset: 0xFD000, size: 0x8, addend: 0x0, symName: __ZN5alloc2rc32rc_inner_layout_for_value_layout17h87cbd3b1855dbc3aE, symObjAddr: 0x1D64, symBinAddr: 0x6F0F8, symSize: 0x74 }
  - { offset: 0xFD0D5, size: 0x8, addend: 0x0, symName: __ZN5alloc4sync32arcinner_layout_for_value_layout17h1719bf3cc02b2b54E, symObjAddr: 0x5028, symBinAddr: 0x723BC, symSize: 0x74 }
  - { offset: 0xFD1A5, size: 0x8, addend: 0x0, symName: _OUTLINED_FUNCTION_0, symObjAddr: 0x5204, symBinAddr: 0x724C8, symSize: 0x24 }
  - { offset: 0xFD1DB, size: 0x8, addend: 0x0, symName: __ZN4core3num7dec2flt11decimal_seq10DecimalSeq4trim17h8f92683de14fd11eE, symObjAddr: 0x0, symBinAddr: 0x724EC, symSize: 0x50 }
  - { offset: 0xFD207, size: 0x8, addend: 0x0, symName: __ZN4core3num7dec2flt11decimal_seq10DecimalSeq4trim17h8f92683de14fd11eE, symObjAddr: 0x0, symBinAddr: 0x724EC, symSize: 0x50 }
  - { offset: 0xFD21B, size: 0x8, addend: 0x0, symName: __ZN4core3num7dec2flt11decimal_seq10DecimalSeq5round17h7d380840b4f1549dE, symObjAddr: 0x50, symBinAddr: 0x7253C, symSize: 0xBC }
  - { offset: 0xFD26A, size: 0x8, addend: 0x0, symName: __ZN4core3num7dec2flt11decimal_seq10DecimalSeq10left_shift17he3591319a05ee19dE, symObjAddr: 0x10C, symBinAddr: 0x725F8, symSize: 0x210 }
  - { offset: 0xFD316, size: 0x8, addend: 0x0, symName: __ZN4core3num7dec2flt11decimal_seq10DecimalSeq11right_shift17h625c530387a2153fE, symObjAddr: 0x31C, symBinAddr: 0x72808, symSize: 0x1C0 }
  - { offset: 0xFD3AA, size: 0x8, addend: 0x0, symName: __ZN4core3num7dec2flt11decimal_seq17parse_decimal_seq17hae3b6f4e8f0a777eE, symObjAddr: 0x4DC, symBinAddr: 0x729C8, symSize: 0x3CC }
  - { offset: 0xFD787, size: 0x8, addend: 0x0, symName: '__ZN59_$LT$f32$u20$as$u20$core..num..dec2flt..float..RawFloat$GT$15pow10_fast_path17h9be3146907c31a52E', symObjAddr: 0x8A8, symBinAddr: 0x72D94, symSize: 0x20 }
  - { offset: 0xFD7E3, size: 0x8, addend: 0x0, symName: '__ZN59_$LT$f64$u20$as$u20$core..num..dec2flt..float..RawFloat$GT$15pow10_fast_path17h452a1933b5e56b01E', symObjAddr: 0x8C8, symBinAddr: 0x72DB4, symSize: 0x20 }
  - { offset: 0xFD87F, size: 0x8, addend: 0x0, symName: __ZN4core3num7dec2flt6lemire13compute_float17h0af3ead68fabd9f8E, symObjAddr: 0x8E8, symBinAddr: 0x72DD4, symSize: 0x158 }
  - { offset: 0xFD93C, size: 0x8, addend: 0x0, symName: __ZN4core3num7dec2flt6lemire13compute_float17h1ffb6d763f7d557fE, symObjAddr: 0xA40, symBinAddr: 0x72F2C, symSize: 0x15C }
  - { offset: 0xFD9EC, size: 0x8, addend: 0x0, symName: __ZN4core3num7dec2flt6lemire22compute_product_approx17h0a9c7655bb820738E, symObjAddr: 0xB9C, symBinAddr: 0x73088, symSize: 0x6C }
  - { offset: 0xFDAB0, size: 0x8, addend: 0x0, symName: __ZN4core3num7dec2flt5parse12parse_number17h828abd1503de1044E, symObjAddr: 0xC08, symBinAddr: 0x730F4, symSize: 0x43C }
  - { offset: 0xFE0A5, size: 0x8, addend: 0x0, symName: '__ZN74_$LT$core..num..dec2flt..ParseFloatError$u20$as$u20$core..fmt..Display$GT$3fmt17h9f8bbcd55d28baceE', symObjAddr: 0x1044, symBinAddr: 0x73530, symSize: 0x48 }
  - { offset: 0xFE1A4, size: 0x8, addend: 0x0, symName: '__ZN4core3num7dec2flt60_$LT$impl$u20$core..str..traits..FromStr$u20$for$u20$f32$GT$8from_str17h74a6839b09d0ab0bE', symObjAddr: 0x148F8, symBinAddr: 0x86470, symSize: 0x470 }
  - { offset: 0xFE1CF, size: 0x8, addend: 0x0, symName: '__ZN4core3num7dec2flt60_$LT$impl$u20$core..str..traits..FromStr$u20$for$u20$f32$GT$8from_str17h74a6839b09d0ab0bE', symObjAddr: 0x148F8, symBinAddr: 0x86470, symSize: 0x470 }
  - { offset: 0xFE481, size: 0x8, addend: 0x0, symName: '__ZN4core3num7dec2flt60_$LT$impl$u20$core..str..traits..FromStr$u20$for$u20$f64$GT$8from_str17h0a2997939c0e5268E', symObjAddr: 0x14D68, symBinAddr: 0x868E0, symSize: 0x44C }
  - { offset: 0xFEB3C, size: 0x8, addend: 0x0, symName: __ZN4core3num9diy_float2Fp3mul17h6a22db6f0b8edd1cE, symObjAddr: 0x108C, symBinAddr: 0x73578, symSize: 0x24 }
  - { offset: 0xFEB7D, size: 0x8, addend: 0x0, symName: __ZN4core3num9diy_float2Fp9normalize17h2b23a47e2318abbfE, symObjAddr: 0x10B0, symBinAddr: 0x7359C, symSize: 0x1C }
  - { offset: 0xFEBA7, size: 0x8, addend: 0x0, symName: __ZN4core3num9diy_float2Fp12normalize_to17h4d5f1e99f18a11d3E, symObjAddr: 0x10CC, symBinAddr: 0x735B8, symSize: 0x80 }
  - { offset: 0xFEBF0, size: 0x8, addend: 0x0, symName: __ZN4core3num7flt2dec9estimator23estimate_scaling_factor17h7092e15e9fe285a8E, symObjAddr: 0x114C, symBinAddr: 0x73638, symSize: 0x3C }
  - { offset: 0xFEC34, size: 0x8, addend: 0x0, symName: __ZN4core3num7flt2dec8strategy6dragon9mul_pow1017h158d67acd69489c1E, symObjAddr: 0x1188, symBinAddr: 0x73674, symSize: 0x1E4 }
  - { offset: 0xFEED4, size: 0x8, addend: 0x0, symName: __ZN4core3num7flt2dec8strategy6dragon15format_shortest17h6defe25d7aad41b8E, symObjAddr: 0x136C, symBinAddr: 0x73858, symSize: 0xBF8 }
  - { offset: 0x1006DD, size: 0x8, addend: 0x0, symName: __ZN4core3num7flt2dec8strategy6dragon12format_exact17h717bed3ec5e11067E, symObjAddr: 0x1F64, symBinAddr: 0x74450, symSize: 0xAB8 }
  - { offset: 0x101C6D, size: 0x8, addend: 0x0, symName: __ZN4core3num7flt2dec8strategy5grisu12cached_power17h19d488cf55a5e104E, symObjAddr: 0x2A1C, symBinAddr: 0x74F08, symSize: 0x74 }
  - { offset: 0x101CB0, size: 0x8, addend: 0x0, symName: __ZN4core3num7flt2dec8strategy5grisu19format_shortest_opt17h70ca76855cc905ccE, symObjAddr: 0x2A90, symBinAddr: 0x74F7C, symSize: 0x5D4 }
  - { offset: 0x101E51, size: 0x8, addend: 0x0, symName: __ZN4core3num7flt2dec8strategy5grisu15format_shortest17h4f0b6c8a0cedd50cE, symObjAddr: 0x3064, symBinAddr: 0x75550, symSize: 0x7C }
  - { offset: 0x101E65, size: 0x8, addend: 0x0, symName: __ZN4core3num7flt2dec8strategy5grisu16format_exact_opt17h89cdfa697eaf7579E, symObjAddr: 0x30E0, symBinAddr: 0x755CC, symSize: 0x36C }
  - { offset: 0x101F0A, size: 0x8, addend: 0x0, symName: __ZN4core3num7flt2dec8strategy5grisu16format_exact_opt14possibly_round17hd4d611f8748fdce2E, symObjAddr: 0x344C, symBinAddr: 0x75938, symSize: 0x1E0 }
  - { offset: 0x102076, size: 0x8, addend: 0x0, symName: __ZN4core3num7flt2dec8strategy5grisu12format_exact17h42997022f4c7de45E, symObjAddr: 0x362C, symBinAddr: 0x75B18, symSize: 0x90 }
  - { offset: 0x1020B5, size: 0x8, addend: 0x0, symName: __ZN4core3num7flt2dec8round_up17h92fd474178fde96eE, symObjAddr: 0x36BC, symBinAddr: 0x75BA8, symSize: 0xB4 }
  - { offset: 0x10216E, size: 0x8, addend: 0x0, symName: __ZN4core3num7flt2dec17digits_to_dec_str17h0eea40313fe4d4eaE, symObjAddr: 0x3770, symBinAddr: 0x75C5C, symSize: 0x14C }
  - { offset: 0x10220F, size: 0x8, addend: 0x0, symName: __ZN4core3num7flt2dec17digits_to_exp_str17hbcb60327511c1088E, symObjAddr: 0x38BC, symBinAddr: 0x75DA8, symSize: 0x168 }
  - { offset: 0x102475, size: 0x8, addend: 0x0, symName: __ZN4core3num6bignum8Big32x408from_u6417hdd21fe9d31d64379E, symObjAddr: 0x121C4, symBinAddr: 0x83D3C, symSize: 0x68 }
  - { offset: 0x102489, size: 0x8, addend: 0x0, symName: __ZN4core3num6bignum8Big32x406digits17h0912b6c8028a792fE, symObjAddr: 0x1222C, symBinAddr: 0x83DA4, symSize: 0x2C }
  - { offset: 0x1024D7, size: 0x8, addend: 0x0, symName: __ZN4core3num6bignum8Big32x407get_bit17h92a7f3ea1c7bf45aE, symObjAddr: 0x12258, symBinAddr: 0x83DD0, symSize: 0x38 }
  - { offset: 0x1024EB, size: 0x8, addend: 0x0, symName: __ZN4core3num6bignum8Big32x407is_zero17h578d00115e35eb40E, symObjAddr: 0x12290, symBinAddr: 0x83E08, symSize: 0x50 }
  - { offset: 0x102581, size: 0x8, addend: 0x0, symName: __ZN4core3num6bignum8Big32x4010bit_length17h82dba472ee153a3aE, symObjAddr: 0x122E0, symBinAddr: 0x83E58, symSize: 0x80 }
  - { offset: 0x10269D, size: 0x8, addend: 0x0, symName: __ZN4core3num6bignum8Big32x403add17h5dc9dd16a552c1c9E, symObjAddr: 0x12360, symBinAddr: 0x83ED8, symSize: 0xA0 }
  - { offset: 0x102748, size: 0x8, addend: 0x0, symName: __ZN4core3num6bignum8Big32x409add_small17h14970b717439bfc6E, symObjAddr: 0x12400, symBinAddr: 0x83F78, symSize: 0x3EC }
  - { offset: 0x1027AC, size: 0x8, addend: 0x0, symName: __ZN4core3num6bignum8Big32x403sub17he21ef4a150220feeE, symObjAddr: 0x127EC, symBinAddr: 0x84364, symSize: 0x98 }
  - { offset: 0x102857, size: 0x8, addend: 0x0, symName: __ZN4core3num6bignum8Big32x409mul_small17heba32105e34ff341E, symObjAddr: 0x12884, symBinAddr: 0x843FC, symSize: 0x88 }
  - { offset: 0x1028E4, size: 0x8, addend: 0x0, symName: __ZN4core3num6bignum8Big32x408mul_pow217hfbc9ba8184430414E, symObjAddr: 0x1290C, symBinAddr: 0x84484, symSize: 0x3BC }
  - { offset: 0x10299C, size: 0x8, addend: 0x0, symName: __ZN4core3num6bignum8Big32x408mul_pow517h5f3e04c646405243E, symObjAddr: 0x12CC8, symBinAddr: 0x84840, symSize: 0x18C }
  - { offset: 0x102BC6, size: 0x8, addend: 0x0, symName: __ZN4core3num6bignum8Big32x4010mul_digits17h8a1135ded2fe20a4E, symObjAddr: 0x12E54, symBinAddr: 0x849CC, symSize: 0x2EC }
  - { offset: 0x102ED4, size: 0x8, addend: 0x0, symName: __ZN4core3num6bignum8Big32x4013div_rem_small17h5c2fcfe95d4301e8E, symObjAddr: 0x13140, symBinAddr: 0x84CB8, symSize: 0x88 }
  - { offset: 0x102F86, size: 0x8, addend: 0x0, symName: __ZN4core3num6bignum8Big32x407div_rem17h5784106bbae21822E, symObjAddr: 0x131C8, symBinAddr: 0x84D40, symSize: 0x268 }
  - { offset: 0x103432, size: 0x8, addend: 0x0, symName: '__ZN62_$LT$core..num..bignum..Big32x40$u20$as$u20$core..cmp..Ord$GT$3cmp17h80f219af45a206aaE', symObjAddr: 0x134C0, symBinAddr: 0x85038, symSize: 0x70 }
  - { offset: 0x103629, size: 0x8, addend: 0x0, symName: '__ZN69_$LT$core..num..bignum..Big32x40$u20$as$u20$core..cmp..PartialOrd$GT$11partial_cmp17h1cd3ead1671d805cE', symObjAddr: 0x13450, symBinAddr: 0x84FC8, symSize: 0x70 }
  - { offset: 0x10382E, size: 0x8, addend: 0x0, symName: '__ZN50_$LT$u32$u20$as$u20$core..num..bignum..FullOps$GT$12full_div_rem17h1ea9406bfc283319E', symObjAddr: 0x12190, symBinAddr: 0x83D08, symSize: 0x34 }
  - { offset: 0x103856, size: 0x8, addend: 0x0, symName: '__ZN49_$LT$u8$u20$as$u20$core..num..bignum..FullOps$GT$12full_div_rem17h28bbe86f4cfc89bcE', symObjAddr: 0x12124, symBinAddr: 0x83C9C, symSize: 0x38 }
  - { offset: 0x10388B, size: 0x8, addend: 0x0, symName: '__ZN50_$LT$u16$u20$as$u20$core..num..bignum..FullOps$GT$12full_div_rem17h1f6d6d81d5baac80E', symObjAddr: 0x1215C, symBinAddr: 0x83CD4, symSize: 0x34 }
  - { offset: 0x1038C8, size: 0x8, addend: 0x0, symName: '__ZN68_$LT$core..num..bignum..Big32x40$u20$as$u20$core..cmp..PartialEq$GT$2eq17h47cef473eaf4716cE', symObjAddr: 0x13430, symBinAddr: 0x84FA8, symSize: 0x20 }
  - { offset: 0x103917, size: 0x8, addend: 0x0, symName: '__ZN64_$LT$core..num..bignum..Big32x40$u20$as$u20$core..fmt..Debug$GT$3fmt17hd5ee9e25a6b85f99E', symObjAddr: 0x13530, symBinAddr: 0x850A8, symSize: 0x14C }
  - { offset: 0x1039F3, size: 0x8, addend: 0x0, symName: __ZN4core3num6bignum5tests6Big8x38from_u6417h0d814b198d1cca83E, symObjAddr: 0x1367C, symBinAddr: 0x851F4, symSize: 0xB4 }
  - { offset: 0x103A0D, size: 0x8, addend: 0x0, symName: __ZN4core3num6bignum5tests6Big8x36digits17hb95675aba25c938cE, symObjAddr: 0x13730, symBinAddr: 0x852A8, symSize: 0x30 }
  - { offset: 0x103A5B, size: 0x8, addend: 0x0, symName: __ZN4core3num6bignum5tests6Big8x37get_bit17hd4b6ffbb0c9475c8E, symObjAddr: 0x13760, symBinAddr: 0x852D8, symSize: 0x40 }
  - { offset: 0x103A7C, size: 0x8, addend: 0x0, symName: __ZN4core3num6bignum5tests6Big8x37is_zero17h3fcf55b723ddb93dE, symObjAddr: 0x137A0, symBinAddr: 0x85318, symSize: 0x7C }
  - { offset: 0x103AF4, size: 0x8, addend: 0x0, symName: __ZN4core3num6bignum5tests6Big8x310bit_length17hc488bee5d49247dbE, symObjAddr: 0x1381C, symBinAddr: 0x85394, symSize: 0xC0 }
  - { offset: 0x103BF8, size: 0x8, addend: 0x0, symName: __ZN4core3num6bignum5tests6Big8x33add17hd92c34d833045729E, symObjAddr: 0x138DC, symBinAddr: 0x85454, symSize: 0xB4 }
  - { offset: 0x103CD6, size: 0x8, addend: 0x0, symName: __ZN4core3num6bignum5tests6Big8x39add_small17hb83637199ed365dcE, symObjAddr: 0x13990, symBinAddr: 0x85508, symSize: 0x8C }
  - { offset: 0x103D3A, size: 0x8, addend: 0x0, symName: __ZN4core3num6bignum5tests6Big8x33sub17h96313fc51b008ab1E, symObjAddr: 0x13A1C, symBinAddr: 0x85594, symSize: 0xA4 }
  - { offset: 0x103E12, size: 0x8, addend: 0x0, symName: __ZN4core3num6bignum5tests6Big8x39mul_small17h5acea510efb169aeE, symObjAddr: 0x13AC0, symBinAddr: 0x85638, symSize: 0xA8 }
  - { offset: 0x103E89, size: 0x8, addend: 0x0, symName: __ZN4core3num6bignum5tests6Big8x38mul_pow217hd49fef99884e405bE, symObjAddr: 0x13B68, symBinAddr: 0x856E0, symSize: 0x24C }
  - { offset: 0x103F38, size: 0x8, addend: 0x0, symName: __ZN4core3num6bignum5tests6Big8x38mul_pow517h1fc79f2d853d80f1E, symObjAddr: 0x13DB4, symBinAddr: 0x8592C, symSize: 0x178 }
  - { offset: 0x1040F1, size: 0x8, addend: 0x0, symName: __ZN4core3num6bignum5tests6Big8x310mul_digits17h3bdaa7a0d72ac742E, symObjAddr: 0x13F2C, symBinAddr: 0x85AA4, symSize: 0x36C }
  - { offset: 0x1043D3, size: 0x8, addend: 0x0, symName: __ZN4core3num6bignum5tests6Big8x313div_rem_small17h850b7d36cb3c47e3E, symObjAddr: 0x14298, symBinAddr: 0x85E10, symSize: 0xBC }
  - { offset: 0x1044C2, size: 0x8, addend: 0x0, symName: __ZN4core3num6bignum5tests6Big8x37div_rem17h20b45b515ec201cfE, symObjAddr: 0x14354, symBinAddr: 0x85ECC, symSize: 0x2DC }
  - { offset: 0x1049CC, size: 0x8, addend: 0x0, symName: '__ZN67_$LT$core..num..bignum..tests..Big8x3$u20$as$u20$core..cmp..Ord$GT$3cmp17h4f02a5e3416a5e8cE', symObjAddr: 0x1470C, symBinAddr: 0x86284, symSize: 0xB0 }
  - { offset: 0x104B8A, size: 0x8, addend: 0x0, symName: '__ZN74_$LT$core..num..bignum..tests..Big8x3$u20$as$u20$core..cmp..PartialOrd$GT$11partial_cmp17hab9d2cc97c490ef4E', symObjAddr: 0x1465C, symBinAddr: 0x861D4, symSize: 0xB0 }
  - { offset: 0x104D49, size: 0x8, addend: 0x0, symName: '__ZN73_$LT$core..num..bignum..tests..Big8x3$u20$as$u20$core..cmp..PartialEq$GT$2eq17habc634dd8c52e676E', symObjAddr: 0x14630, symBinAddr: 0x861A8, symSize: 0x2C }
  - { offset: 0x104D98, size: 0x8, addend: 0x0, symName: '__ZN69_$LT$core..num..bignum..tests..Big8x3$u20$as$u20$core..fmt..Debug$GT$3fmt17h0cde3f74f25aeea9E', symObjAddr: 0x147BC, symBinAddr: 0x86334, symSize: 0x13C }
  - { offset: 0x104F69, size: 0x8, addend: 0x0, symName: __ZN4core3num3fmt4Part5write17h25c2dd690a915f39E, symObjAddr: 0x3A24, symBinAddr: 0x75F10, symSize: 0x164 }
  - { offset: 0x10508A, size: 0x8, addend: 0x0, symName: __ZN4core3num3fmt9Formatted3len17h94b374e85631aa11E, symObjAddr: 0x3B88, symBinAddr: 0x76074, symSize: 0x98 }
  - { offset: 0x1050CF, size: 0x8, addend: 0x0, symName: __ZN4core3num3fmt9Formatted5write17h1ab50c5dda3ada26E, symObjAddr: 0x3C20, symBinAddr: 0x7610C, symSize: 0xBC }
  - { offset: 0x1051F3, size: 0x8, addend: 0x0, symName: '__ZN72_$LT$core..num..error..TryFromIntError$u20$as$u20$core..fmt..Display$GT$3fmt17hc99b5b5eff2fd826E', symObjAddr: 0x3CDC, symBinAddr: 0x761C8, symSize: 0x20 }
  - { offset: 0x10523E, size: 0x8, addend: 0x0, symName: '__ZN70_$LT$core..num..error..ParseIntError$u20$as$u20$core..fmt..Display$GT$3fmt17hfdd208a26106d8a2E', symObjAddr: 0x3CFC, symBinAddr: 0x761E8, symSize: 0x34 }
  - { offset: 0x10528B, size: 0x8, addend: 0x0, symName: __ZN4core3num9int_log1030panic_for_nonpositive_argument17hc2511d68b2e7d2ddE, symObjAddr: 0x3D30, symBinAddr: 0x909F0, symSize: 0x34 }
  - { offset: 0x105303, size: 0x8, addend: 0x0, symName: __ZN4core3num8int_sqrt27panic_for_negative_argument17h026b3c581500c336E, symObjAddr: 0x3D64, symBinAddr: 0x90A24, symSize: 0x34 }
  - { offset: 0x10533C, size: 0x8, addend: 0x0, symName: __ZN4core3num14overflow_panic3add17ha0bac9c18f98b8b0E, symObjAddr: 0x3D98, symBinAddr: 0x90A58, symSize: 0x34 }
  - { offset: 0x10536C, size: 0x8, addend: 0x0, symName: __ZN4core3num14overflow_panic3sub17h20afa31dc7198f20E, symObjAddr: 0x3DCC, symBinAddr: 0x90A8C, symSize: 0x34 }
  - { offset: 0x10539C, size: 0x8, addend: 0x0, symName: __ZN4core3num14overflow_panic3mul17h0b5fc927288c8fe6E, symObjAddr: 0x3E00, symBinAddr: 0x90AC0, symSize: 0x34 }
  - { offset: 0x1053CC, size: 0x8, addend: 0x0, symName: __ZN4core3num14overflow_panic3div17h0a88d56e694cb658E, symObjAddr: 0x3E34, symBinAddr: 0x90AF4, symSize: 0x34 }
  - { offset: 0x1053FC, size: 0x8, addend: 0x0, symName: __ZN4core3num14overflow_panic3rem17hf4acf657a6bd47d9E, symObjAddr: 0x3E68, symBinAddr: 0x90B28, symSize: 0x34 }
  - { offset: 0x10542C, size: 0x8, addend: 0x0, symName: __ZN4core3num14overflow_panic3neg17h75c0b2ac97ffe295E, symObjAddr: 0x3E9C, symBinAddr: 0x90B5C, symSize: 0x34 }
  - { offset: 0x10545C, size: 0x8, addend: 0x0, symName: __ZN4core3num14overflow_panic3shr17hf585a15e50041746E, symObjAddr: 0x3ED0, symBinAddr: 0x90B90, symSize: 0x34 }
  - { offset: 0x10548C, size: 0x8, addend: 0x0, symName: __ZN4core3num14overflow_panic3shl17h49668be24c601f28E, symObjAddr: 0x3F04, symBinAddr: 0x90BC4, symSize: 0x34 }
  - { offset: 0x1054D6, size: 0x8, addend: 0x0, symName: __ZN4core3num22from_ascii_radix_panic8do_panic7runtime17hf7c0f1936975f0cfE, symObjAddr: 0x16D98, symBinAddr: 0x91364, symSize: 0x44 }
  - { offset: 0x10550A, size: 0x8, addend: 0x0, symName: __ZN4core3num22from_ascii_radix_panic17h13e5bb07ac8121ecE, symObjAddr: 0x3F38, symBinAddr: 0x90BF8, symSize: 0xC }
  - { offset: 0x1055DA, size: 0x8, addend: 0x0, symName: '__ZN73_$LT$core..num..nonzero..NonZero$LT$T$GT$$u20$as$u20$core..fmt..Debug$GT$3fmt17h623e6012a8b4bcb6E', symObjAddr: 0x151B4, symBinAddr: 0x86D2C, symSize: 0xE0 }
  - { offset: 0x10571C, size: 0x8, addend: 0x0, symName: '__ZN84_$LT$core..num..nonzero..NonZero$LT$u8$GT$$u20$as$u20$core..str..traits..FromStr$GT$8from_str17h0bb52c83cb00421aE', symObjAddr: 0x15294, symBinAddr: 0x86E0C, symSize: 0x108 }
  - { offset: 0x1057FA, size: 0x8, addend: 0x0, symName: '__ZN85_$LT$core..num..nonzero..NonZero$LT$u16$GT$$u20$as$u20$core..str..traits..FromStr$GT$8from_str17h175b62f9ebf1ae34E', symObjAddr: 0x1539C, symBinAddr: 0x86F14, symSize: 0x108 }
  - { offset: 0x1058E8, size: 0x8, addend: 0x0, symName: '__ZN85_$LT$core..num..nonzero..NonZero$LT$u32$GT$$u20$as$u20$core..str..traits..FromStr$GT$8from_str17h447aaf784727b09fE', symObjAddr: 0x154A4, symBinAddr: 0x8701C, symSize: 0x138 }
  - { offset: 0x1059EA, size: 0x8, addend: 0x0, symName: '__ZN85_$LT$core..num..nonzero..NonZero$LT$u64$GT$$u20$as$u20$core..str..traits..FromStr$GT$8from_str17hfdf8a719fced9368E', symObjAddr: 0x155DC, symBinAddr: 0x87154, symSize: 0xFC }
  - { offset: 0x105ADE, size: 0x8, addend: 0x0, symName: '__ZN86_$LT$core..num..nonzero..NonZero$LT$u128$GT$$u20$as$u20$core..str..traits..FromStr$GT$8from_str17h5a813c7a15e1d7a8E', symObjAddr: 0x156D8, symBinAddr: 0x87250, symSize: 0x130 }
  - { offset: 0x105BDA, size: 0x8, addend: 0x0, symName: '__ZN84_$LT$core..num..nonzero..NonZero$LT$i8$GT$$u20$as$u20$core..str..traits..FromStr$GT$8from_str17hfcba5ea94342c809E', symObjAddr: 0x15808, symBinAddr: 0x87380, symSize: 0x1D8 }
  - { offset: 0x105D4E, size: 0x8, addend: 0x0, symName: '__ZN85_$LT$core..num..nonzero..NonZero$LT$i16$GT$$u20$as$u20$core..str..traits..FromStr$GT$8from_str17hcd6ff62c1d03bbf2E', symObjAddr: 0x159E0, symBinAddr: 0x87558, symSize: 0x1FC }
  - { offset: 0x105EC4, size: 0x8, addend: 0x0, symName: '__ZN85_$LT$core..num..nonzero..NonZero$LT$i32$GT$$u20$as$u20$core..str..traits..FromStr$GT$8from_str17h0a7881139e767727E', symObjAddr: 0x15BDC, symBinAddr: 0x87754, symSize: 0x1E8 }
  - { offset: 0x10602B, size: 0x8, addend: 0x0, symName: '__ZN85_$LT$core..num..nonzero..NonZero$LT$i64$GT$$u20$as$u20$core..str..traits..FromStr$GT$8from_str17hdc7b790fe29b0136E', symObjAddr: 0x15DC4, symBinAddr: 0x8793C, symSize: 0x1AC }
  - { offset: 0x1061A0, size: 0x8, addend: 0x0, symName: '__ZN86_$LT$core..num..nonzero..NonZero$LT$i128$GT$$u20$as$u20$core..str..traits..FromStr$GT$8from_str17hf7ff50a90e3ccb02E', symObjAddr: 0x15F70, symBinAddr: 0x87AE8, symSize: 0x22C }
  - { offset: 0x1069E4, size: 0x8, addend: 0x0, symName: '__ZN72_$LT$core..num..niche_types..Nanoseconds$u20$as$u20$core..fmt..Debug$GT$3fmt17h19708718c7861663E', symObjAddr: 0x1619C, symBinAddr: 0x87D14, symSize: 0xE0 }
  - { offset: 0x106B26, size: 0x8, addend: 0x0, symName: '__ZN75_$LT$core..num..niche_types..NonZeroU8Inner$u20$as$u20$core..fmt..Debug$GT$3fmt17h9ee194ca28c07aa6E', symObjAddr: 0x1627C, symBinAddr: 0x87DF4, symSize: 0x14 }
  - { offset: 0x106B47, size: 0x8, addend: 0x0, symName: '__ZN76_$LT$core..num..niche_types..NonZeroU16Inner$u20$as$u20$core..fmt..Debug$GT$3fmt17h36aa036d263f64ebE', symObjAddr: 0x16290, symBinAddr: 0x87E08, symSize: 0xE0 }
  - { offset: 0x106C79, size: 0x8, addend: 0x0, symName: '__ZN76_$LT$core..num..niche_types..NonZeroU32Inner$u20$as$u20$core..fmt..Debug$GT$3fmt17hc5dbc9278601475eE', symObjAddr: 0x16370, symBinAddr: 0x87EE8, symSize: 0xE0 }
  - { offset: 0x106DBB, size: 0x8, addend: 0x0, symName: '__ZN76_$LT$core..num..niche_types..NonZeroU64Inner$u20$as$u20$core..fmt..Debug$GT$3fmt17h48ab0dafb7ec7764E', symObjAddr: 0x16450, symBinAddr: 0x87FC8, symSize: 0xE0 }
  - { offset: 0x106EFD, size: 0x8, addend: 0x0, symName: '__ZN77_$LT$core..num..niche_types..NonZeroU128Inner$u20$as$u20$core..fmt..Debug$GT$3fmt17h11cebf619ef1622fE', symObjAddr: 0x16530, symBinAddr: 0x880A8, symSize: 0x18 }
  - { offset: 0x106F1E, size: 0x8, addend: 0x0, symName: '__ZN75_$LT$core..num..niche_types..NonZeroI8Inner$u20$as$u20$core..fmt..Debug$GT$3fmt17hd2544ea2e6400aa7E', symObjAddr: 0x16548, symBinAddr: 0x880C0, symSize: 0x14 }
  - { offset: 0x106F3F, size: 0x8, addend: 0x0, symName: '__ZN76_$LT$core..num..niche_types..NonZeroI16Inner$u20$as$u20$core..fmt..Debug$GT$3fmt17hf0c92ce9e25c981cE', symObjAddr: 0x1655C, symBinAddr: 0x880D4, symSize: 0xEC }
  - { offset: 0x10709E, size: 0x8, addend: 0x0, symName: '__ZN76_$LT$core..num..niche_types..NonZeroI32Inner$u20$as$u20$core..fmt..Debug$GT$3fmt17h86cc5eff3eb1d396E', symObjAddr: 0x16648, symBinAddr: 0x881C0, symSize: 0xF0 }
  - { offset: 0x10720D, size: 0x8, addend: 0x0, symName: '__ZN76_$LT$core..num..niche_types..NonZeroI64Inner$u20$as$u20$core..fmt..Debug$GT$3fmt17he71bf0940d6ae556E', symObjAddr: 0x16738, symBinAddr: 0x882B0, symSize: 0xEC }
  - { offset: 0x10737C, size: 0x8, addend: 0x0, symName: '__ZN77_$LT$core..num..niche_types..NonZeroI128Inner$u20$as$u20$core..fmt..Debug$GT$3fmt17h49208bff9c1bfb09E', symObjAddr: 0x16824, symBinAddr: 0x8839C, symSize: 0x18 }
  - { offset: 0x10739D, size: 0x8, addend: 0x0, symName: '__ZN75_$LT$core..num..niche_types..UsizeNoHighBit$u20$as$u20$core..fmt..Debug$GT$3fmt17h90cf69eedf5f8ae6E', symObjAddr: 0x1683C, symBinAddr: 0x883B4, symSize: 0xE0 }
  - { offset: 0x1074DF, size: 0x8, addend: 0x0, symName: '__ZN78_$LT$core..num..niche_types..NonZeroUsizeInner$u20$as$u20$core..fmt..Debug$GT$3fmt17hd54373dd971883f1E', symObjAddr: 0x1691C, symBinAddr: 0x88494, symSize: 0xE0 }
  - { offset: 0x107621, size: 0x8, addend: 0x0, symName: '__ZN74_$LT$core..num..niche_types..U32NotAllOnes$u20$as$u20$core..fmt..Debug$GT$3fmt17hd770118ef495b217E', symObjAddr: 0x169FC, symBinAddr: 0x88574, symSize: 0xE0 }
  - { offset: 0x107763, size: 0x8, addend: 0x0, symName: '__ZN74_$LT$core..num..niche_types..I32NotAllOnes$u20$as$u20$core..fmt..Debug$GT$3fmt17h1fd17c628005ff5aE', symObjAddr: 0x16ADC, symBinAddr: 0x88654, symSize: 0xF0 }
  - { offset: 0x1078D2, size: 0x8, addend: 0x0, symName: '__ZN74_$LT$core..num..niche_types..U64NotAllOnes$u20$as$u20$core..fmt..Debug$GT$3fmt17h3b458be338fcf77cE', symObjAddr: 0x16BCC, symBinAddr: 0x88744, symSize: 0xE0 }
  - { offset: 0x107A14, size: 0x8, addend: 0x0, symName: '__ZN74_$LT$core..num..niche_types..I64NotAllOnes$u20$as$u20$core..fmt..Debug$GT$3fmt17hf4168ef2e12560beE', symObjAddr: 0x16CAC, symBinAddr: 0x88824, symSize: 0xEC }
  - { offset: 0x10939E, size: 0x8, addend: 0x0, symName: __ZN4core5slice5index26slice_start_index_len_fail8do_panic7runtime17h15c72e8330714503E, symObjAddr: 0x1B018, symBinAddr: 0x91904, symSize: 0x50 }
  - { offset: 0x1093D2, size: 0x8, addend: 0x0, symName: __ZN4core5slice5index26slice_start_index_len_fail17h26cdb0018c4a30c3E, symObjAddr: 0xE780, symBinAddr: 0x911AC, symSize: 0xC }
  - { offset: 0x10941B, size: 0x8, addend: 0x0, symName: __ZN4core5slice5index24slice_end_index_len_fail8do_panic7runtime17h80bad96a74670472E, symObjAddr: 0x1B068, symBinAddr: 0x91954, symSize: 0x50 }
  - { offset: 0x10944F, size: 0x8, addend: 0x0, symName: __ZN4core5slice5index24slice_end_index_len_fail17h08819c10a693bdedE, symObjAddr: 0xE78C, symBinAddr: 0x911B8, symSize: 0xC }
  - { offset: 0x109498, size: 0x8, addend: 0x0, symName: __ZN4core5slice5index22slice_index_order_fail8do_panic7runtime17h15393e9855311454E, symObjAddr: 0x1B0B8, symBinAddr: 0x919A4, symSize: 0x50 }
  - { offset: 0x1094CC, size: 0x8, addend: 0x0, symName: __ZN4core5slice5index22slice_index_order_fail17hfd24cbcab30dd522E, symObjAddr: 0xE798, symBinAddr: 0x911C4, symSize: 0xC }
  - { offset: 0x1094FC, size: 0x8, addend: 0x0, symName: __ZN4core5slice5index31slice_start_index_overflow_fail17hfb8c95000c6ec22eE, symObjAddr: 0xE7A4, symBinAddr: 0x911D0, symSize: 0x34 }
  - { offset: 0x10952C, size: 0x8, addend: 0x0, symName: __ZN4core5slice5index29slice_end_index_overflow_fail17h0d3d8819fb8e4f86E, symObjAddr: 0xE7D8, symBinAddr: 0x91204, symSize: 0x34 }
  - { offset: 0x10955C, size: 0x8, addend: 0x0, symName: __ZN4core5slice5index10into_range17h7ab664acfd73e9afE, symObjAddr: 0xE80C, symBinAddr: 0x804B0, symSize: 0x68 }
  - { offset: 0x1095E6, size: 0x8, addend: 0x0, symName: __ZN4core5slice5index16into_slice_range17hf664efee6c351b72E, symObjAddr: 0xE874, symBinAddr: 0x80518, symSize: 0x70 }
  - { offset: 0x109CCD, size: 0x8, addend: 0x0, symName: '__ZN4core5slice29_$LT$impl$u20$$u5b$T$u5d$$GT$15copy_from_slice17len_mismatch_fail8do_panic7runtime17hd7d3634c1971585eE', symObjAddr: 0x1B108, symBinAddr: 0x919F4, symSize: 0x54 }
  - { offset: 0x109D01, size: 0x8, addend: 0x0, symName: '__ZN4core5slice29_$LT$impl$u20$$u5b$T$u5d$$GT$15copy_from_slice17len_mismatch_fail17hf6f10918db27398eE', symObjAddr: 0xE8E4, symBinAddr: 0x91238, symSize: 0x18 }
  - { offset: 0x109D39, size: 0x8, addend: 0x0, symName: '__ZN4core5slice29_$LT$impl$u20$$u5b$T$u5d$$GT$16align_to_offsets3gcd17hd7cebd250253008dE', symObjAddr: 0xE8FC, symBinAddr: 0x80588, symSize: 0x34 }
  - { offset: 0x10A14C, size: 0x8, addend: 0x0, symName: '__ZN105_$LT$core..slice..ascii..EscapeAscii$u20$as$u20$core..iter..traits..double_ended..DoubleEndedIterator$GT$9next_back17hc786e8738cde5b1cE', symObjAddr: 0xE340, symBinAddr: 0x80070, symSize: 0x15C }
  - { offset: 0x10A46A, size: 0x8, addend: 0x0, symName: '__ZN70_$LT$core..slice..ascii..EscapeAscii$u20$as$u20$core..fmt..Display$GT$3fmt17h73d2dd8b8fe96619E', symObjAddr: 0xE49C, symBinAddr: 0x801CC, symSize: 0x278 }
  - { offset: 0x10A979, size: 0x8, addend: 0x0, symName: '__ZN68_$LT$core..slice..ascii..EscapeAscii$u20$as$u20$core..fmt..Debug$GT$3fmt17h26bbda1e1617383bE', symObjAddr: 0xE714, symBinAddr: 0x80444, symSize: 0x6C }
  - { offset: 0x10AA7F, size: 0x8, addend: 0x0, symName: __ZN4core5slice6memchr14memchr_aligned17h4d3a26c8aca34a95E, symObjAddr: 0xE0C8, symBinAddr: 0x7FE30, symSize: 0xE8 }
  - { offset: 0x10AB64, size: 0x8, addend: 0x0, symName: __ZN4core5slice6memchr7memrchr17hdf1024d40086040eE, symObjAddr: 0xE1B0, symBinAddr: 0x7FF18, symSize: 0x120 }
  - { offset: 0x10ACF5, size: 0x8, addend: 0x0, symName: __ZN4core5slice4sort6stable5drift11sqrt_approx17h586a60e28934e918E, symObjAddr: 0xE2D0, symBinAddr: 0x80038, symSize: 0x38 }
  - { offset: 0x10AD78, size: 0x8, addend: 0x0, symName: __ZN4core5slice4sort6shared9smallsort22panic_on_ord_violation17hd5f0adbd587ca590E, symObjAddr: 0xE308, symBinAddr: 0x91174, symSize: 0x38 }
  - { offset: 0x10ADB3, size: 0x8, addend: 0x0, symName: '__ZN71_$LT$core..slice..GetDisjointMutError$u20$as$u20$core..fmt..Display$GT$3fmt17h381df141a33ac8e3E', symObjAddr: 0xE930, symBinAddr: 0x805BC, symSize: 0x48 }
  - { offset: 0x10B27E, size: 0x8, addend: 0x0, symName: __ZN4core10intrinsics3mir11PtrMetadata19panic_cold_explicit17hb954bf65775baf46E, symObjAddr: 0x16DDC, symBinAddr: 0x913A8, symSize: 0xC }
  - { offset: 0x10B46A, size: 0x8, addend: 0x0, symName: '__ZN68_$LT$core..ptr..alignment..Alignment$u20$as$u20$core..fmt..Debug$GT$3fmt17h5d1a9187a626ca20E', symObjAddr: 0x3F5C, symBinAddr: 0x76234, symSize: 0x78 }
  - { offset: 0x10B6EA, size: 0x8, addend: 0x0, symName: '__ZN42_$LT$str$u20$as$u20$core..fmt..Display$GT$3fmt17hffcb5557cd9cc63eE', symObjAddr: 0xDD8C, symBinAddr: 0x7FAF4, symSize: 0x20 }
  - { offset: 0x10BD46, size: 0x8, addend: 0x0, symName: __ZN4core3fmt9Formatter12pad_integral17he0c721840e7e5330E, symObjAddr: 0xB650, symBinAddr: 0x7D3B8, symSize: 0x3B4 }
  - { offset: 0x10C06C, size: 0x8, addend: 0x0, symName: __ZN4core3fmt9Formatter3pad17h575c11a14ffcca7aE, symObjAddr: 0xBA80, symBinAddr: 0x7D7E8, symSize: 0x304 }
  - { offset: 0x10C3E5, size: 0x8, addend: 0x0, symName: __ZN4core3fmt9Formatter19pad_formatted_parts17hd0a8e0c8ddf89406E, symObjAddr: 0xBD84, symBinAddr: 0x7DAEC, symSize: 0x218 }
  - { offset: 0x10C60C, size: 0x8, addend: 0x0, symName: __ZN4core3fmt9Formatter21write_formatted_parts17h5923101e70b9265bE, symObjAddr: 0xBF9C, symBinAddr: 0x7DD04, symSize: 0x23C }
  - { offset: 0x10C6FA, size: 0x8, addend: 0x0, symName: __ZN4core3fmt9Formatter9write_str17h9660191123c6e852E, symObjAddr: 0xC1D8, symBinAddr: 0x7DF40, symSize: 0x1C }
  - { offset: 0x10C70E, size: 0x8, addend: 0x0, symName: __ZN4core3fmt9Formatter4fill17h649d2dd875ed7f5dE, symObjAddr: 0xC1F4, symBinAddr: 0x7DF5C, symSize: 0x18 }
  - { offset: 0x10C739, size: 0x8, addend: 0x0, symName: __ZN4core3fmt9Formatter12debug_struct17h49deaef3ecceb13aE, symObjAddr: 0xC20C, symBinAddr: 0x7DF74, symSize: 0x3C }
  - { offset: 0x10C77A, size: 0x8, addend: 0x0, symName: __ZN4core3fmt9Formatter26debug_struct_field1_finish17h9e3545909ab1e330E, symObjAddr: 0xC248, symBinAddr: 0x7DFB0, symSize: 0xD0 }
  - { offset: 0x10C859, size: 0x8, addend: 0x0, symName: __ZN4core3fmt9Formatter26debug_struct_field2_finish17h33b4bcf37ad454deE, symObjAddr: 0xC318, symBinAddr: 0x7E080, symSize: 0x104 }
  - { offset: 0x10C938, size: 0x8, addend: 0x0, symName: __ZN4core3fmt9Formatter26debug_struct_field3_finish17hbc8c799730439c33E, symObjAddr: 0xC41C, symBinAddr: 0x7E184, symSize: 0x12C }
  - { offset: 0x10CA17, size: 0x8, addend: 0x0, symName: __ZN4core3fmt9Formatter26debug_struct_field4_finish17h2d2c276335f36288E, symObjAddr: 0xC548, symBinAddr: 0x7E2B0, symSize: 0x15C }
  - { offset: 0x10CAF6, size: 0x8, addend: 0x0, symName: __ZN4core3fmt9Formatter26debug_struct_field5_finish17h94c683a9f67e2b9dE, symObjAddr: 0xC6A4, symBinAddr: 0x7E40C, symSize: 0x180 }
  - { offset: 0x10CBD5, size: 0x8, addend: 0x0, symName: __ZN4core3fmt9Formatter26debug_struct_fields_finish17hd6600cb20c27e235E, symObjAddr: 0xC824, symBinAddr: 0x7E58C, symSize: 0x108 }
  - { offset: 0x10CCD1, size: 0x8, addend: 0x0, symName: __ZN4core3fmt9Formatter11debug_tuple17h6763c412ff7ae31dE, symObjAddr: 0xC92C, symBinAddr: 0x7E694, symSize: 0x50 }
  - { offset: 0x10CD28, size: 0x8, addend: 0x0, symName: __ZN4core3fmt9Formatter25debug_tuple_field1_finish17h43a2c67d8df07667E, symObjAddr: 0xC97C, symBinAddr: 0x7E6E4, symSize: 0x160 }
  - { offset: 0x10CF43, size: 0x8, addend: 0x0, symName: __ZN4core3fmt9Formatter25debug_tuple_field2_finish17hae68702dd0e2ec95E, symObjAddr: 0xCADC, symBinAddr: 0x7E844, symSize: 0x1D8 }
  - { offset: 0x10D261, size: 0x8, addend: 0x0, symName: __ZN4core3fmt9Formatter25debug_tuple_field3_finish17h01f0a36b2e4c4becE, symObjAddr: 0xCCB4, symBinAddr: 0x7EA1C, symSize: 0x284 }
  - { offset: 0x10D6AE, size: 0x8, addend: 0x0, symName: __ZN4core3fmt9Formatter25debug_tuple_field4_finish17hf70fe07f21d952a1E, symObjAddr: 0xCF38, symBinAddr: 0x7ECA0, symSize: 0x324 }
  - { offset: 0x10DC2A, size: 0x8, addend: 0x0, symName: __ZN4core3fmt9Formatter25debug_tuple_field5_finish17hc201ba46d2aefa4aE, symObjAddr: 0xD25C, symBinAddr: 0x7EFC4, symSize: 0x3C4 }
  - { offset: 0x10E2D5, size: 0x8, addend: 0x0, symName: __ZN4core3fmt9Formatter25debug_tuple_fields_finish17h9ffd28b7b8807d0bE, symObjAddr: 0xD620, symBinAddr: 0x7F388, symSize: 0x270 }
  - { offset: 0x10E4E2, size: 0x8, addend: 0x0, symName: __ZN4core3fmt9Formatter10debug_list17h2ec9851680b3229dE, symObjAddr: 0xD890, symBinAddr: 0x7F5F8, symSize: 0x48 }
  - { offset: 0x10E524, size: 0x8, addend: 0x0, symName: __ZN4core3fmt9Formatter9debug_set17h62e7adb0104b398eE, symObjAddr: 0xD8D8, symBinAddr: 0x7F640, symSize: 0x48 }
  - { offset: 0x10E56D, size: 0x8, addend: 0x0, symName: __ZN4core3fmt9Formatter9debug_map17ha89e9c94feec6a2aE, symObjAddr: 0xD920, symBinAddr: 0x7F688, symSize: 0x58 }
  - { offset: 0x10E745, size: 0x8, addend: 0x0, symName: __ZN4core3fmt8builders11DebugStruct5field17h0535b4c5585717e7E, symObjAddr: 0x837C, symBinAddr: 0x7A0E4, symSize: 0x1B4 }
  - { offset: 0x10E95D, size: 0x8, addend: 0x0, symName: __ZN4core3fmt8builders11DebugStruct21finish_non_exhaustive17he2af4ac4f86913deE, symObjAddr: 0x8530, symBinAddr: 0x7A298, symSize: 0xC4 }
  - { offset: 0x10EA79, size: 0x8, addend: 0x0, symName: __ZN4core3fmt8builders11DebugStruct6finish17hae87027de811ea27E, symObjAddr: 0x85F4, symBinAddr: 0x7A35C, symSize: 0x80 }
  - { offset: 0x10EB87, size: 0x8, addend: 0x0, symName: __ZN4core3fmt8builders10PadAdapter4wrap17ha6c7158bb73727bcE, symObjAddr: 0x8074, symBinAddr: 0x79DDC, symSize: 0x30 }
  - { offset: 0x10EBF2, size: 0x8, addend: 0x0, symName: '__ZN68_$LT$core..fmt..builders..PadAdapter$u20$as$u20$core..fmt..Write$GT$9write_str17hd6cc070a06e282f4E', symObjAddr: 0x80A4, symBinAddr: 0x79E0C, symSize: 0x258 }
  - { offset: 0x10EEBE, size: 0x8, addend: 0x0, symName: '__ZN68_$LT$core..fmt..builders..PadAdapter$u20$as$u20$core..fmt..Write$GT$10write_char17h6752a4b830cafb48E', symObjAddr: 0x82FC, symBinAddr: 0x7A064, symSize: 0x80 }
  - { offset: 0x10EF94, size: 0x8, addend: 0x0, symName: __ZN4core3fmt8builders10DebugTuple5field17h728c13d4b3c91844E, symObjAddr: 0x8674, symBinAddr: 0x7A3DC, symSize: 0x148 }
  - { offset: 0x10F123, size: 0x8, addend: 0x0, symName: __ZN4core3fmt8builders10DebugTuple21finish_non_exhaustive17h03774d4272d16b78E, symObjAddr: 0x87BC, symBinAddr: 0x7A524, symSize: 0xC0 }
  - { offset: 0x10F264, size: 0x8, addend: 0x0, symName: __ZN4core3fmt8builders10DebugTuple6finish17h339e5b15511b2a2eE, symObjAddr: 0x887C, symBinAddr: 0x7A5E4, symSize: 0xB0 }
  - { offset: 0x10F41E, size: 0x8, addend: 0x0, symName: __ZN4core3fmt8builders8DebugSet5entry17h81b7d415eb28dc21E, symObjAddr: 0x892C, symBinAddr: 0x7A694, symSize: 0x148 }
  - { offset: 0x10F5B4, size: 0x8, addend: 0x0, symName: __ZN4core3fmt8builders8DebugSet21finish_non_exhaustive17h57ee2aa3e947b053E, symObjAddr: 0x8A74, symBinAddr: 0x7A7DC, symSize: 0xC4 }
  - { offset: 0x10F6DF, size: 0x8, addend: 0x0, symName: __ZN4core3fmt8builders8DebugSet6finish17h67a8e0c6977d1ebaE, symObjAddr: 0x8B38, symBinAddr: 0x7A8A0, symSize: 0x4C }
  - { offset: 0x10F784, size: 0x8, addend: 0x0, symName: __ZN4core3fmt8builders9DebugList21finish_non_exhaustive17ha51eae2fadff8de8E, symObjAddr: 0x8B84, symBinAddr: 0x7A8EC, symSize: 0xC8 }
  - { offset: 0x10F8B7, size: 0x8, addend: 0x0, symName: __ZN4core3fmt8builders9DebugList6finish17h7b603dcf4276b196E, symObjAddr: 0x8C4C, symBinAddr: 0x7A9B4, symSize: 0x4C }
  - { offset: 0x10F963, size: 0x8, addend: 0x0, symName: __ZN4core3fmt8builders8DebugMap5entry17h10b18c052884d637E, symObjAddr: 0x8C98, symBinAddr: 0x7AA00, symSize: 0x110 }
  - { offset: 0x10FAE0, size: 0x8, addend: 0x0, symName: __ZN4core3fmt8builders8DebugMap3key17h3b05536259613f13E, symObjAddr: 0x8DA8, symBinAddr: 0x7AB10, symSize: 0x1C8 }
  - { offset: 0x10FCAE, size: 0x8, addend: 0x0, symName: __ZN4core3fmt8builders8DebugMap5value17h2f43c6968f057220E, symObjAddr: 0x8F70, symBinAddr: 0x7ACD8, symSize: 0x108 }
  - { offset: 0x10FDF9, size: 0x8, addend: 0x0, symName: __ZN4core3fmt8builders8DebugMap21finish_non_exhaustive17hc5e29f1fab312254E, symObjAddr: 0x9078, symBinAddr: 0x7ADE0, symSize: 0xF8 }
  - { offset: 0x10FF3A, size: 0x8, addend: 0x0, symName: __ZN4core3fmt8builders8DebugMap6finish17hf264b3bb52a75ff2E, symObjAddr: 0x9170, symBinAddr: 0x7AED8, symSize: 0x88 }
  - { offset: 0x110078, size: 0x8, addend: 0x0, symName: '__ZN4core3fmt3num52_$LT$impl$u20$core..fmt..Debug$u20$for$u20$usize$GT$3fmt17hcd6e8a8f4bb8fc06E', symObjAddr: 0x19690, symBinAddr: 0x8AC68, symSize: 0xE8 }
  - { offset: 0x1101C5, size: 0x8, addend: 0x0, symName: '__ZN4core3fmt3num3imp52_$LT$impl$u20$core..fmt..Display$u20$for$u20$u32$GT$3fmt17h37de028911cc7087E', symObjAddr: 0x19A4C, symBinAddr: 0x8B024, symSize: 0x1C }
  - { offset: 0x1101ED, size: 0x8, addend: 0x0, symName: '__ZN4core3fmt3num3imp52_$LT$impl$u20$core..fmt..Display$u20$for$u20$u16$GT$3fmt17h2a5be5ffe05a7f8dE', symObjAddr: 0x198F8, symBinAddr: 0x8AED0, symSize: 0x1C }
  - { offset: 0x110215, size: 0x8, addend: 0x0, symName: '__ZN4core3fmt3num3imp52_$LT$impl$u20$core..fmt..Display$u20$for$u20$u64$GT$3fmt17ha605904a8d109c3fE', symObjAddr: 0x19BB4, symBinAddr: 0x8B18C, symSize: 0x1C }
  - { offset: 0x11023D, size: 0x8, addend: 0x0, symName: '__ZN4core3fmt3num3imp52_$LT$impl$u20$core..fmt..Display$u20$for$u20$i16$GT$3fmt17h0d294404ce8d249bE', symObjAddr: 0x19914, symBinAddr: 0x8AEEC, symSize: 0x2C }
  - { offset: 0x110292, size: 0x8, addend: 0x0, symName: '__ZN4core3fmt3num3imp52_$LT$impl$u20$core..fmt..Display$u20$for$u20$i32$GT$3fmt17hba0fadf67ba3c59dE', symObjAddr: 0x19A68, symBinAddr: 0x8B040, symSize: 0x28 }
  - { offset: 0x1102E7, size: 0x8, addend: 0x0, symName: '__ZN4core3fmt3num3imp52_$LT$impl$u20$core..fmt..Display$u20$for$u20$i64$GT$3fmt17hb5f09893913ecd23E', symObjAddr: 0x19BD0, symBinAddr: 0x8B1A8, symSize: 0x28 }
  - { offset: 0x11033C, size: 0x8, addend: 0x0, symName: '__ZN4core3fmt3num3imp51_$LT$impl$u20$core..fmt..Display$u20$for$u20$i8$GT$3fmt17h81a2bc1dfe6260aeE', symObjAddr: 0x19828, symBinAddr: 0x8AE00, symSize: 0xD0 }
  - { offset: 0x110440, size: 0x8, addend: 0x0, symName: '__ZN4core3fmt3num3imp51_$LT$impl$u20$core..fmt..Display$u20$for$u20$u8$GT$3fmt17h41751fb7bc1586a9E', symObjAddr: 0x19778, symBinAddr: 0x8AD50, symSize: 0xB0 }
  - { offset: 0x11050F, size: 0x8, addend: 0x0, symName: '__ZN4core3fmt3num3imp21_$LT$impl$u20$u16$GT$4_fmt17hbd0ecadceeae74abE', symObjAddr: 0x19940, symBinAddr: 0x8AF18, symSize: 0x10C }
  - { offset: 0x1105DA, size: 0x8, addend: 0x0, symName: '__ZN4core3fmt3num3imp21_$LT$impl$u20$u32$GT$4_fmt17hc61d67a16304cd84E', symObjAddr: 0x19A90, symBinAddr: 0x8B068, symSize: 0x124 }
  - { offset: 0x1106C5, size: 0x8, addend: 0x0, symName: '__ZN4core3fmt3num3imp21_$LT$impl$u20$u64$GT$4_fmt17had967dc173ab1b8cE', symObjAddr: 0x19BF8, symBinAddr: 0x8B1D0, symSize: 0x130 }
  - { offset: 0x1107AA, size: 0x8, addend: 0x0, symName: __ZN4core3fmt3num3imp7exp_u6417hb8c8a884e0dd9c27E, symObjAddr: 0x19D28, symBinAddr: 0x8B300, symSize: 0x488 }
  - { offset: 0x11099D, size: 0x8, addend: 0x0, symName: '__ZN4core3fmt3num3imp52_$LT$impl$u20$core..fmt..LowerExp$u20$for$u20$i8$GT$3fmt17h4e385fb33949ea6bE', symObjAddr: 0x1A1B0, symBinAddr: 0x8B788, symSize: 0x2C }
  - { offset: 0x1109BF, size: 0x8, addend: 0x0, symName: '__ZN4core3fmt3num3imp52_$LT$impl$u20$core..fmt..LowerExp$u20$for$u20$u8$GT$3fmt17ha3dca937ca1f7e1aE', symObjAddr: 0x1A1DC, symBinAddr: 0x8B7B4, symSize: 0x20 }
  - { offset: 0x1109E1, size: 0x8, addend: 0x0, symName: '__ZN4core3fmt3num3imp53_$LT$impl$u20$core..fmt..LowerExp$u20$for$u20$i16$GT$3fmt17h6cede6e61b407fd7E', symObjAddr: 0x1A1FC, symBinAddr: 0x8B7D4, symSize: 0x2C }
  - { offset: 0x110A03, size: 0x8, addend: 0x0, symName: '__ZN4core3fmt3num3imp53_$LT$impl$u20$core..fmt..LowerExp$u20$for$u20$u16$GT$3fmt17he90f497dd932f3f8E', symObjAddr: 0x1A228, symBinAddr: 0x8B800, symSize: 0x20 }
  - { offset: 0x110A25, size: 0x8, addend: 0x0, symName: '__ZN4core3fmt3num3imp53_$LT$impl$u20$core..fmt..LowerExp$u20$for$u20$i32$GT$3fmt17h8db45e2260daae58E', symObjAddr: 0x1A248, symBinAddr: 0x8B820, symSize: 0x2C }
  - { offset: 0x110A47, size: 0x8, addend: 0x0, symName: '__ZN4core3fmt3num3imp53_$LT$impl$u20$core..fmt..LowerExp$u20$for$u20$u32$GT$3fmt17h84a3e8cc977adad3E', symObjAddr: 0x1A274, symBinAddr: 0x8B84C, symSize: 0x20 }
  - { offset: 0x110A69, size: 0x8, addend: 0x0, symName: '__ZN4core3fmt3num3imp53_$LT$impl$u20$core..fmt..LowerExp$u20$for$u20$i64$GT$3fmt17h306423a84c3509acE', symObjAddr: 0x1A294, symBinAddr: 0x8B86C, symSize: 0x2C }
  - { offset: 0x110A8B, size: 0x8, addend: 0x0, symName: '__ZN4core3fmt3num3imp53_$LT$impl$u20$core..fmt..LowerExp$u20$for$u20$u64$GT$3fmt17h996c29c43756e9acE', symObjAddr: 0x1A2C0, symBinAddr: 0x8B898, symSize: 0x20 }
  - { offset: 0x110AAD, size: 0x8, addend: 0x0, symName: '__ZN4core3fmt3num3imp52_$LT$impl$u20$core..fmt..UpperExp$u20$for$u20$i8$GT$3fmt17h3a21de567a90bbd5E', symObjAddr: 0x1A2E0, symBinAddr: 0x8B8B8, symSize: 0x2C }
  - { offset: 0x110ACF, size: 0x8, addend: 0x0, symName: '__ZN4core3fmt3num3imp52_$LT$impl$u20$core..fmt..UpperExp$u20$for$u20$u8$GT$3fmt17hfc776ce652e41d8bE', symObjAddr: 0x1A30C, symBinAddr: 0x8B8E4, symSize: 0x20 }
  - { offset: 0x110AF1, size: 0x8, addend: 0x0, symName: '__ZN4core3fmt3num3imp53_$LT$impl$u20$core..fmt..UpperExp$u20$for$u20$i16$GT$3fmt17h6aa963a564fd946bE', symObjAddr: 0x1A32C, symBinAddr: 0x8B904, symSize: 0x2C }
  - { offset: 0x110B13, size: 0x8, addend: 0x0, symName: '__ZN4core3fmt3num3imp53_$LT$impl$u20$core..fmt..UpperExp$u20$for$u20$u16$GT$3fmt17h95aca6d25d366d8bE', symObjAddr: 0x1A358, symBinAddr: 0x8B930, symSize: 0x20 }
  - { offset: 0x110B35, size: 0x8, addend: 0x0, symName: '__ZN4core3fmt3num3imp53_$LT$impl$u20$core..fmt..UpperExp$u20$for$u20$i32$GT$3fmt17h9230263d74444367E', symObjAddr: 0x1A378, symBinAddr: 0x8B950, symSize: 0x2C }
  - { offset: 0x110B57, size: 0x8, addend: 0x0, symName: '__ZN4core3fmt3num3imp53_$LT$impl$u20$core..fmt..UpperExp$u20$for$u20$u32$GT$3fmt17hae6076ea6a409f40E', symObjAddr: 0x1A3A4, symBinAddr: 0x8B97C, symSize: 0x20 }
  - { offset: 0x110B79, size: 0x8, addend: 0x0, symName: '__ZN4core3fmt3num3imp53_$LT$impl$u20$core..fmt..UpperExp$u20$for$u20$i64$GT$3fmt17ha707429b2ea5b501E', symObjAddr: 0x1A3C4, symBinAddr: 0x8B99C, symSize: 0x2C }
  - { offset: 0x110B9B, size: 0x8, addend: 0x0, symName: '__ZN4core3fmt3num3imp53_$LT$impl$u20$core..fmt..UpperExp$u20$for$u20$u64$GT$3fmt17heb3430837fc1e29aE', symObjAddr: 0x1A3F0, symBinAddr: 0x8B9C8, symSize: 0x20 }
  - { offset: 0x110D18, size: 0x8, addend: 0x0, symName: '__ZN73_$LT$core..fmt..num..LowerHex$u20$as$u20$core..fmt..num..GenericRadix$GT$5digit17h7ad2b35740c81371E', symObjAddr: 0x185BC, symBinAddr: 0x89B94, symSize: 0x7C }
  - { offset: 0x110D6B, size: 0x8, addend: 0x0, symName: '__ZN73_$LT$core..fmt..num..UpperHex$u20$as$u20$core..fmt..num..GenericRadix$GT$5digit17h29102eb948d76c62E', symObjAddr: 0x18638, symBinAddr: 0x89C10, symSize: 0x7C }
  - { offset: 0x110D97, size: 0x8, addend: 0x0, symName: __ZN4core3fmt3num14parse_u64_into17hd7a084e6353f7e72E, symObjAddr: 0xA8F8, symBinAddr: 0x7C660, symSize: 0x394 }
  - { offset: 0x110F7F, size: 0x8, addend: 0x0, symName: '__ZN4core3fmt3num53_$LT$impl$u20$core..fmt..Display$u20$for$u20$u128$GT$3fmt17h1de81915d38fc415E', symObjAddr: 0xAC8C, symBinAddr: 0x7C9F4, symSize: 0x1C }
  - { offset: 0x110FA8, size: 0x8, addend: 0x0, symName: '__ZN4core3fmt3num53_$LT$impl$u20$core..fmt..Display$u20$for$u20$i128$GT$3fmt17hdb1745b289002db0E', symObjAddr: 0xACA8, symBinAddr: 0x7CA10, symSize: 0x34 }
  - { offset: 0x110FD9, size: 0x8, addend: 0x0, symName: __ZN4core3fmt3num8fmt_u12817h917ba22f4ecf2aeaE, symObjAddr: 0xACDC, symBinAddr: 0x7CA44, symSize: 0x188 }
  - { offset: 0x1110D0, size: 0x8, addend: 0x0, symName: '__ZN4core3fmt3num50_$LT$impl$u20$core..fmt..Debug$u20$for$u20$u32$GT$3fmt17h577cd307379ea479E', symObjAddr: 0x19498, symBinAddr: 0x8AA70, symSize: 0xE8 }
  - { offset: 0x1112F3, size: 0x8, addend: 0x0, symName: '__ZN4core3fmt3num53_$LT$impl$u20$core..fmt..LowerHex$u20$for$u20$i16$GT$3fmt17h0546b99d5ffe3f82E', symObjAddr: 0x18974, symBinAddr: 0x89F4C, symSize: 0x80 }
  - { offset: 0x111399, size: 0x8, addend: 0x0, symName: '__ZN4core3fmt3num53_$LT$impl$u20$core..fmt..UpperHex$u20$for$u20$i16$GT$3fmt17h557ba630e54e8bb4E', symObjAddr: 0x189F4, symBinAddr: 0x89FCC, symSize: 0x80 }
  - { offset: 0x111453, size: 0x8, addend: 0x0, symName: '__ZN4core3fmt3num53_$LT$impl$u20$core..fmt..LowerHex$u20$for$u20$i32$GT$3fmt17hbdc65cb99326e722E', symObjAddr: 0x18B54, symBinAddr: 0x8A12C, symSize: 0x80 }
  - { offset: 0x111501, size: 0x8, addend: 0x0, symName: '__ZN4core3fmt3num53_$LT$impl$u20$core..fmt..UpperHex$u20$for$u20$i32$GT$3fmt17h8737aea513bd0bbaE', symObjAddr: 0x18BD4, symBinAddr: 0x8A1AC, symSize: 0x80 }
  - { offset: 0x1115C3, size: 0x8, addend: 0x0, symName: '__ZN4core3fmt3num53_$LT$impl$u20$core..fmt..LowerHex$u20$for$u20$i64$GT$3fmt17ha599a48c112675deE', symObjAddr: 0x18D34, symBinAddr: 0x8A30C, symSize: 0x80 }
  - { offset: 0x111671, size: 0x8, addend: 0x0, symName: '__ZN4core3fmt3num53_$LT$impl$u20$core..fmt..UpperHex$u20$for$u20$i64$GT$3fmt17h00d670e6b80e0423E', symObjAddr: 0x18DB4, symBinAddr: 0x8A38C, symSize: 0x80 }
  - { offset: 0x111712, size: 0x8, addend: 0x0, symName: '__ZN71_$LT$core..fmt..num..Binary$u20$as$u20$core..fmt..num..GenericRadix$GT$5digit17h59af19cfe961ff0dE', symObjAddr: 0x184E4, symBinAddr: 0x89ABC, symSize: 0x6C }
  - { offset: 0x111751, size: 0x8, addend: 0x0, symName: '__ZN70_$LT$core..fmt..num..Octal$u20$as$u20$core..fmt..num..GenericRadix$GT$5digit17h2ecd6a0f6f626b08E', symObjAddr: 0x18550, symBinAddr: 0x89B28, symSize: 0x6C }
  - { offset: 0x111790, size: 0x8, addend: 0x0, symName: '__ZN4core3fmt3num50_$LT$impl$u20$core..fmt..Binary$u20$for$u20$i8$GT$3fmt17h8bec686c39ea3e37E', symObjAddr: 0x186B4, symBinAddr: 0x89C8C, symSize: 0x70 }
  - { offset: 0x11182A, size: 0x8, addend: 0x0, symName: '__ZN4core3fmt3num49_$LT$impl$u20$core..fmt..Octal$u20$for$u20$i8$GT$3fmt17hb1494b7cace7b4fdE', symObjAddr: 0x18724, symBinAddr: 0x89CFC, symSize: 0x70 }
  - { offset: 0x1118C4, size: 0x8, addend: 0x0, symName: '__ZN4core3fmt3num52_$LT$impl$u20$core..fmt..LowerHex$u20$for$u20$i8$GT$3fmt17h7418ce33cca286f2E', symObjAddr: 0x18794, symBinAddr: 0x89D6C, symSize: 0x80 }
  - { offset: 0x11197A, size: 0x8, addend: 0x0, symName: '__ZN4core3fmt3num52_$LT$impl$u20$core..fmt..UpperHex$u20$for$u20$i8$GT$3fmt17h0c34ba6455a13038E', symObjAddr: 0x18814, symBinAddr: 0x89DEC, symSize: 0x80 }
  - { offset: 0x111A30, size: 0x8, addend: 0x0, symName: '__ZN4core3fmt3num51_$LT$impl$u20$core..fmt..Binary$u20$for$u20$i16$GT$3fmt17h2c49576ac8da7b6eE', symObjAddr: 0x18894, symBinAddr: 0x89E6C, symSize: 0x70 }
  - { offset: 0x111AE7, size: 0x8, addend: 0x0, symName: '__ZN4core3fmt3num50_$LT$impl$u20$core..fmt..Octal$u20$for$u20$i16$GT$3fmt17hc77abe82b0dfc3e7E', symObjAddr: 0x18904, symBinAddr: 0x89EDC, symSize: 0x70 }
  - { offset: 0x111B9E, size: 0x8, addend: 0x0, symName: '__ZN4core3fmt3num51_$LT$impl$u20$core..fmt..Binary$u20$for$u20$i32$GT$3fmt17h8b88896d998818d6E', symObjAddr: 0x18A74, symBinAddr: 0x8A04C, symSize: 0x70 }
  - { offset: 0x111C55, size: 0x8, addend: 0x0, symName: '__ZN4core3fmt3num50_$LT$impl$u20$core..fmt..Octal$u20$for$u20$i32$GT$3fmt17hb954370c0b7e0b86E', symObjAddr: 0x18AE4, symBinAddr: 0x8A0BC, symSize: 0x70 }
  - { offset: 0x111D0C, size: 0x8, addend: 0x0, symName: '__ZN4core3fmt3num51_$LT$impl$u20$core..fmt..Binary$u20$for$u20$i64$GT$3fmt17h7d0a74608019f8a3E', symObjAddr: 0x18C54, symBinAddr: 0x8A22C, symSize: 0x70 }
  - { offset: 0x111DC3, size: 0x8, addend: 0x0, symName: '__ZN4core3fmt3num50_$LT$impl$u20$core..fmt..Octal$u20$for$u20$i64$GT$3fmt17hfa6a269fd9539fd9E', symObjAddr: 0x18CC4, symBinAddr: 0x8A29C, symSize: 0x70 }
  - { offset: 0x111E8E, size: 0x8, addend: 0x0, symName: '__ZN4core3fmt3num52_$LT$impl$u20$core..fmt..Binary$u20$for$u20$i128$GT$3fmt17h0a5fa88022532535E', symObjAddr: 0x18E34, symBinAddr: 0x8A40C, symSize: 0x90 }
  - { offset: 0x111F42, size: 0x8, addend: 0x0, symName: '__ZN4core3fmt3num51_$LT$impl$u20$core..fmt..Octal$u20$for$u20$i128$GT$3fmt17hbae9d8def8f56955E', symObjAddr: 0x18EC4, symBinAddr: 0x8A49C, symSize: 0x90 }
  - { offset: 0x111FF6, size: 0x8, addend: 0x0, symName: '__ZN4core3fmt3num54_$LT$impl$u20$core..fmt..LowerHex$u20$for$u20$i128$GT$3fmt17h7f5d8811df1627b4E', symObjAddr: 0x18F54, symBinAddr: 0x8A52C, symSize: 0xA0 }
  - { offset: 0x1120A9, size: 0x8, addend: 0x0, symName: '__ZN4core3fmt3num54_$LT$impl$u20$core..fmt..UpperHex$u20$for$u20$i128$GT$3fmt17hcba49a2668e2adddE', symObjAddr: 0x18FF4, symBinAddr: 0x8A5CC, symSize: 0xA0 }
  - { offset: 0x11215C, size: 0x8, addend: 0x0, symName: '__ZN4core3fmt3num49_$LT$impl$u20$core..fmt..Debug$u20$for$u20$i8$GT$3fmt17h056f3c91fc658abeE', symObjAddr: 0x19094, symBinAddr: 0x8A66C, symSize: 0x178 }
  - { offset: 0x112340, size: 0x8, addend: 0x0, symName: '__ZN4core3fmt3num51_$LT$impl$u20$core..fmt..Debug$u20$for$u20$i128$GT$3fmt17h9a44ffabb8d109c0E', symObjAddr: 0x1920C, symBinAddr: 0x8A7E4, symSize: 0x12C }
  - { offset: 0x1124AE, size: 0x8, addend: 0x0, symName: '__ZN4core3fmt3num49_$LT$impl$u20$core..fmt..Debug$u20$for$u20$u8$GT$3fmt17h299646da3782e6adE', symObjAddr: 0x19338, symBinAddr: 0x8A910, symSize: 0x160 }
  - { offset: 0x1126A6, size: 0x8, addend: 0x0, symName: '__ZN4core3fmt3num51_$LT$impl$u20$core..fmt..Debug$u20$for$u20$u128$GT$3fmt17hc4b3c3a9dc10cfbcE', symObjAddr: 0x19580, symBinAddr: 0x8AB58, symSize: 0x110 }
  - { offset: 0x1127E6, size: 0x8, addend: 0x0, symName: __ZN4core3fmt3num8exp_u12817h839619d9710133ecE, symObjAddr: 0x1A410, symBinAddr: 0x8B9E8, symSize: 0x84C }
  - { offset: 0x112A0D, size: 0x8, addend: 0x0, symName: '__ZN4core3fmt3num54_$LT$impl$u20$core..fmt..LowerExp$u20$for$u20$i128$GT$3fmt17h9cf6c8448db3d2a8E', symObjAddr: 0x1AC5C, symBinAddr: 0x8C234, symSize: 0x38 }
  - { offset: 0x112A2F, size: 0x8, addend: 0x0, symName: '__ZN4core3fmt3num54_$LT$impl$u20$core..fmt..LowerExp$u20$for$u20$u128$GT$3fmt17h97e3626f2b6bd372E', symObjAddr: 0x1AC94, symBinAddr: 0x8C26C, symSize: 0x20 }
  - { offset: 0x112A51, size: 0x8, addend: 0x0, symName: '__ZN4core3fmt3num54_$LT$impl$u20$core..fmt..UpperExp$u20$for$u20$i128$GT$3fmt17h6891f27e9078914cE', symObjAddr: 0x1ACB4, symBinAddr: 0x8C28C, symSize: 0x38 }
  - { offset: 0x112A73, size: 0x8, addend: 0x0, symName: '__ZN4core3fmt3num54_$LT$impl$u20$core..fmt..UpperExp$u20$for$u20$u128$GT$3fmt17h9622107490795894E', symObjAddr: 0x1ACEC, symBinAddr: 0x8C2C4, symSize: 0x20 }
  - { offset: 0x112AB2, size: 0x8, addend: 0x0, symName: __ZN4core3fmt17FormattingOptions8get_fill17h8e9e5c9cc3e83950E, symObjAddr: 0xB420, symBinAddr: 0x7D188, symSize: 0x18 }
  - { offset: 0x112B9F, size: 0x8, addend: 0x0, symName: '__ZN57_$LT$core..fmt..Formatter$u20$as$u20$core..fmt..Write$GT$10write_char17ha5e5b0902e8cc9eeE', symObjAddr: 0xD978, symBinAddr: 0x7F6E0, symSize: 0x1C }
  - { offset: 0x112C3D, size: 0x8, addend: 0x0, symName: __ZN4core3fmt5Write10write_char17h6ffe892625b3cf33E, symObjAddr: 0xAE64, symBinAddr: 0x7CBCC, symSize: 0x14C }
  - { offset: 0x112D50, size: 0x8, addend: 0x0, symName: __ZN4core3fmt5Write10write_char17h900b631f64b16887E, symObjAddr: 0xAFB0, symBinAddr: 0x7CD18, symSize: 0x14C }
  - { offset: 0x112E63, size: 0x8, addend: 0x0, symName: __ZN4core3fmt5Write10write_char17hc4440a9dc066be0cE, symObjAddr: 0xB0FC, symBinAddr: 0x7CE64, symSize: 0x14C }
  - { offset: 0x112F76, size: 0x8, addend: 0x0, symName: __ZN4core3fmt5Write10write_char17heb50729c473f1c0aE, symObjAddr: 0xB248, symBinAddr: 0x7CFB0, symSize: 0x14C }
  - { offset: 0x113089, size: 0x8, addend: 0x0, symName: __ZN4core3fmt5Write9write_fmt17h4826003d345180bcE, symObjAddr: 0xB394, symBinAddr: 0x7D0FC, symSize: 0x1C }
  - { offset: 0x1130B9, size: 0x8, addend: 0x0, symName: __ZN4core3fmt5Write9write_fmt17h6a7730401e0fa878E, symObjAddr: 0xB3B0, symBinAddr: 0x7D118, symSize: 0x1C }
  - { offset: 0x1130E9, size: 0x8, addend: 0x0, symName: __ZN4core3fmt5Write9write_fmt17h9b7b191e437c6ab2E, symObjAddr: 0xB3CC, symBinAddr: 0x7D134, symSize: 0x1C }
  - { offset: 0x113119, size: 0x8, addend: 0x0, symName: __ZN4core3fmt5Write9write_fmt17hec4b69c6715c955fE, symObjAddr: 0xB3E8, symBinAddr: 0x7D150, symSize: 0x1C }
  - { offset: 0x113149, size: 0x8, addend: 0x0, symName: __ZN4core3fmt5Write9write_fmt17hf46fd8cc14dcbcf4E, symObjAddr: 0xB404, symBinAddr: 0x7D16C, symSize: 0x1C }
  - { offset: 0x1131DD, size: 0x8, addend: 0x0, symName: '__ZN43_$LT$bool$u20$as$u20$core..fmt..Display$GT$3fmt17h70e834258d17beeaE', symObjAddr: 0xD9B4, symBinAddr: 0x7F71C, symSize: 0x44 }
  - { offset: 0x11323A, size: 0x8, addend: 0x0, symName: __ZN4core3fmt5float29float_to_decimal_common_exact17h6f38171555ca9e72E, symObjAddr: 0x91F8, symBinAddr: 0x7AF60, symSize: 0x300 }
  - { offset: 0x1132EB, size: 0x8, addend: 0x0, symName: __ZN4core3fmt5float29float_to_decimal_common_exact17hc490077fb64f8ac7E, symObjAddr: 0x94F8, symBinAddr: 0x7B260, symSize: 0x304 }
  - { offset: 0x1133B2, size: 0x8, addend: 0x0, symName: __ZN4core3fmt5float32float_to_decimal_common_shortest17h4f10cc36d2d8b381E, symObjAddr: 0x97FC, symBinAddr: 0x7B564, symSize: 0x248 }
  - { offset: 0x113497, size: 0x8, addend: 0x0, symName: __ZN4core3fmt5float32float_to_decimal_common_shortest17h92a58a8922600e3aE, symObjAddr: 0x9A44, symBinAddr: 0x7B7AC, symSize: 0x244 }
  - { offset: 0x113566, size: 0x8, addend: 0x0, symName: __ZN4core3fmt5float33float_to_exponential_common_exact17h33cfdc14af46094fE, symObjAddr: 0x9C88, symBinAddr: 0x7B9F0, symSize: 0x344 }
  - { offset: 0x113684, size: 0x8, addend: 0x0, symName: __ZN4core3fmt5float33float_to_exponential_common_exact17hcaca34fda94987b3E, symObjAddr: 0x9FCC, symBinAddr: 0x7BD34, symSize: 0x340 }
  - { offset: 0x11378C, size: 0x8, addend: 0x0, symName: __ZN4core3fmt5float36float_to_exponential_common_shortest17hbc140ddd04b037daE, symObjAddr: 0xA30C, symBinAddr: 0x7C074, symSize: 0x2F4 }
  - { offset: 0x1138C5, size: 0x8, addend: 0x0, symName: __ZN4core3fmt5float36float_to_exponential_common_shortest17hfd8e95b3b1956b69E, symObjAddr: 0xA600, symBinAddr: 0x7C368, symSize: 0x2F8 }
  - { offset: 0x113A1A, size: 0x8, addend: 0x0, symName: '__ZN55_$LT$f32$u20$as$u20$core..fmt..float..GeneralFormat$GT$44already_rounded_value_should_use_exponential17h13cdbbeb7aecebddE', symObjAddr: 0x181A8, symBinAddr: 0x89780, symSize: 0x4C }
  - { offset: 0x113A58, size: 0x8, addend: 0x0, symName: '__ZN55_$LT$f64$u20$as$u20$core..fmt..float..GeneralFormat$GT$44already_rounded_value_should_use_exponential17haead052d312b7337E', symObjAddr: 0x181F4, symBinAddr: 0x897CC, symSize: 0x40 }
  - { offset: 0x113AA3, size: 0x8, addend: 0x0, symName: '__ZN4core3fmt5float50_$LT$impl$u20$core..fmt..Debug$u20$for$u20$f32$GT$3fmt17h2f3ef8d23bbfb59fE', symObjAddr: 0x18234, symBinAddr: 0x8980C, symSize: 0x8C }
  - { offset: 0x113B3D, size: 0x8, addend: 0x0, symName: '__ZN4core3fmt5float52_$LT$impl$u20$core..fmt..Display$u20$for$u20$f32$GT$3fmt17h623f49300bb9624dE', symObjAddr: 0x182C0, symBinAddr: 0x89898, symSize: 0x40 }
  - { offset: 0x113BAC, size: 0x8, addend: 0x0, symName: '__ZN4core3fmt5float53_$LT$impl$u20$core..fmt..LowerExp$u20$for$u20$f32$GT$3fmt17h2b04462fd6b983eeE', symObjAddr: 0x18300, symBinAddr: 0x898D8, symSize: 0x48 }
  - { offset: 0x113C06, size: 0x8, addend: 0x0, symName: '__ZN4core3fmt5float53_$LT$impl$u20$core..fmt..UpperExp$u20$for$u20$f32$GT$3fmt17h8393b95532fd0149E', symObjAddr: 0x18348, symBinAddr: 0x89920, symSize: 0x48 }
  - { offset: 0x113C6D, size: 0x8, addend: 0x0, symName: '__ZN4core3fmt5float50_$LT$impl$u20$core..fmt..Debug$u20$for$u20$f64$GT$3fmt17hf4019a5504bda174E', symObjAddr: 0x18390, symBinAddr: 0x89968, symSize: 0x84 }
  - { offset: 0x113D07, size: 0x8, addend: 0x0, symName: '__ZN4core3fmt5float52_$LT$impl$u20$core..fmt..Display$u20$for$u20$f64$GT$3fmt17h06a7f4f11c02d716E', symObjAddr: 0x18414, symBinAddr: 0x899EC, symSize: 0x40 }
  - { offset: 0x113D76, size: 0x8, addend: 0x0, symName: '__ZN4core3fmt5float53_$LT$impl$u20$core..fmt..LowerExp$u20$for$u20$f64$GT$3fmt17h754a2e21587c3327E', symObjAddr: 0x18454, symBinAddr: 0x89A2C, symSize: 0x48 }
  - { offset: 0x113DD0, size: 0x8, addend: 0x0, symName: '__ZN4core3fmt5float53_$LT$impl$u20$core..fmt..UpperExp$u20$for$u20$f64$GT$3fmt17hbda612934b902684E', symObjAddr: 0x1849C, symBinAddr: 0x89A74, symSize: 0x48 }
  - { offset: 0x113E39, size: 0x8, addend: 0x0, symName: '__ZN59_$LT$core..fmt..Arguments$u20$as$u20$core..fmt..Display$GT$3fmt17h0dde584251a3402bE', symObjAddr: 0xB450, symBinAddr: 0x7D1B8, symSize: 0x18 }
  - { offset: 0x113E54, size: 0x8, addend: 0x0, symName: '__ZN57_$LT$core..fmt..Arguments$u20$as$u20$core..fmt..Debug$GT$3fmt17h5a04b8e3ad21d7f4E', symObjAddr: 0xB438, symBinAddr: 0x7D1A0, symSize: 0x18 }
  - { offset: 0x113EA3, size: 0x8, addend: 0x0, symName: __ZN4core3fmt5write17h265c39741fcf14a5E, symObjAddr: 0xB468, symBinAddr: 0x7D1D0, symSize: 0x1E8 }
  - { offset: 0x1140E0, size: 0x8, addend: 0x0, symName: __ZN4core3fmt9Formatter12pad_integral12write_prefix17h033f42324a1fcacbE, symObjAddr: 0xBA04, symBinAddr: 0x7D76C, symSize: 0x7C }
  - { offset: 0x11413D, size: 0x8, addend: 0x0, symName: '__ZN42_$LT$$RF$T$u20$as$u20$core..fmt..Debug$GT$3fmt17h37f7c46e3023e8d3E', symObjAddr: 0x1AD30, symBinAddr: 0x8C308, symSize: 0x1C }
  - { offset: 0x114151, size: 0x8, addend: 0x0, symName: '__ZN42_$LT$$RF$T$u20$as$u20$core..fmt..Debug$GT$3fmt17h58ef36369dcff0c8E', symObjAddr: 0x1AD4C, symBinAddr: 0x8C324, symSize: 0xEC }
  - { offset: 0x11428E, size: 0x8, addend: 0x0, symName: '__ZN42_$LT$$RF$T$u20$as$u20$core..fmt..Debug$GT$3fmt17hc014d52571a93a67E', symObjAddr: 0x1AE38, symBinAddr: 0x8C410, symSize: 0xE4 }
  - { offset: 0x1143CB, size: 0x8, addend: 0x0, symName: '__ZN42_$LT$$RF$T$u20$as$u20$core..fmt..Debug$GT$3fmt17hcc0de229795fca8dE', symObjAddr: 0x1AF1C, symBinAddr: 0x8C4F4, symSize: 0x14 }
  - { offset: 0x1143ED, size: 0x8, addend: 0x0, symName: '__ZN55_$LT$core..fmt..Error$u20$as$u20$core..fmt..Display$GT$3fmt17h941bc919bb7d288eE', symObjAddr: 0xD994, symBinAddr: 0x7F6FC, symSize: 0x20 }
  - { offset: 0x114449, size: 0x8, addend: 0x0, symName: '__ZN40_$LT$str$u20$as$u20$core..fmt..Debug$GT$3fmt17h66aefde43f9d80a7E', symObjAddr: 0xD9F8, symBinAddr: 0x7F760, symSize: 0x394 }
  - { offset: 0x114887, size: 0x8, addend: 0x0, symName: '__ZN41_$LT$char$u20$as$u20$core..fmt..Debug$GT$3fmt17h6a9618120349f649E', symObjAddr: 0xDDAC, symBinAddr: 0x7FB14, symSize: 0xAC }
  - { offset: 0x11499A, size: 0x8, addend: 0x0, symName: '__ZN43_$LT$char$u20$as$u20$core..fmt..Display$GT$3fmt17h831548fa23aae131E', symObjAddr: 0xDE58, symBinAddr: 0x7FBC0, symSize: 0xEC }
  - { offset: 0x114A1E, size: 0x8, addend: 0x0, symName: __ZN4core3fmt17pointer_fmt_inner17h670ad824b4fd9e57E, symObjAddr: 0xDF44, symBinAddr: 0x7FCAC, symSize: 0xC0 }
  - { offset: 0x114B24, size: 0x8, addend: 0x0, symName: '__ZN52_$LT$$BP$const$u20$T$u20$as$u20$core..fmt..Debug$GT$3fmt17h68961a804f69b373E', symObjAddr: 0xE004, symBinAddr: 0x7FD6C, symSize: 0xC4 }
  - { offset: 0x114C3D, size: 0x8, addend: 0x0, symName: '__ZN53_$LT$core..fmt..Error$u20$as$u20$core..fmt..Debug$GT$3fmt17h8ab6c3a6dbcfa435E', symObjAddr: 0x1AD0C, symBinAddr: 0x8C2E4, symSize: 0x24 }
  - { offset: 0x114C74, size: 0x8, addend: 0x0, symName: '__ZN44_$LT$$RF$T$u20$as$u20$core..fmt..Display$GT$3fmt17h3d36bdf6849ad57cE', symObjAddr: 0x1AF30, symBinAddr: 0x8C508, symSize: 0x14 }
  - { offset: 0x114C8F, size: 0x8, addend: 0x0, symName: '__ZN44_$LT$$RF$T$u20$as$u20$core..fmt..Display$GT$3fmt17h5124b6b43ef61bc5E', symObjAddr: 0x1AF44, symBinAddr: 0x8C51C, symSize: 0x14 }
  - { offset: 0x114CAA, size: 0x8, addend: 0x0, symName: '__ZN44_$LT$$RF$T$u20$as$u20$core..fmt..Display$GT$3fmt17hb59a3c4fb517191dE', symObjAddr: 0x1AF58, symBinAddr: 0x8C530, symSize: 0x1C }
  - { offset: 0x114CDC, size: 0x8, addend: 0x0, symName: '__ZN44_$LT$$RF$T$u20$as$u20$core..fmt..Display$GT$3fmt17hded69040fb75ee59E', symObjAddr: 0x1AF74, symBinAddr: 0x8C54C, symSize: 0x20 }
  - { offset: 0x114D15, size: 0x8, addend: 0x0, symName: '__ZN45_$LT$$RF$T$u20$as$u20$core..fmt..LowerHex$GT$3fmt17h42808aa17b2205f8E', symObjAddr: 0x1AF94, symBinAddr: 0x8C56C, symSize: 0x84 }
  - { offset: 0x11506B, size: 0x8, addend: 0x0, symName: '__ZN69_$LT$core..ffi..c_str..CStr$u20$as$u20$core..clone..CloneToUninit$GT$15clone_to_uninit17h6a1bb65d6965af85E', symObjAddr: 0x3FD4, symBinAddr: 0x762AC, symSize: 0x20 }
  - { offset: 0x115467, size: 0x8, addend: 0x0, symName: __ZN4core6option13unwrap_failed17hcab07fcc32ce35d7E, symObjAddr: 0x7A1C, symBinAddr: 0x90CC4, symSize: 0x1C }
  - { offset: 0x115482, size: 0x8, addend: 0x0, symName: __ZN4core6option13expect_failed17h2f7972f24a6d9f34E, symObjAddr: 0x7A38, symBinAddr: 0x90CE0, symSize: 0x48 }
  - { offset: 0x115684, size: 0x8, addend: 0x0, symName: '__ZN64_$LT$core..ops..range..RangeFull$u20$as$u20$core..fmt..Debug$GT$3fmt17he8a762d5dca897e2E', symObjAddr: 0x40AC, symBinAddr: 0x76384, symSize: 0x24 }
  - { offset: 0x1156BC, size: 0x8, addend: 0x0, symName: '__ZN71_$LT$core..ops..range..Range$LT$Idx$GT$$u20$as$u20$core..fmt..Debug$GT$3fmt17hc315cdc158287904E', symObjAddr: 0x40D0, symBinAddr: 0x763A8, symSize: 0x1FC }
  - { offset: 0x115C00, size: 0x8, addend: 0x0, symName: '__ZN76_$LT$core..mem..transmutability..Assume$u20$as$u20$core..ops..arith..Sub$GT$3sub17h49c692bdf1d44ed0E', symObjAddr: 0x3F44, symBinAddr: 0x7621C, symSize: 0x18 }
  - { offset: 0x116166, size: 0x8, addend: 0x0, symName: __ZN4core6result13unwrap_failed17hb2ec801bc5795a40E, symObjAddr: 0x7FD4, symBinAddr: 0x91118, symSize: 0x5C }
  - { offset: 0x1161E5, size: 0x8, addend: 0x0, symName: '__ZN57_$LT$core..error..Request$u20$as$u20$core..fmt..Debug$GT$3fmt17hd8c1fcc2b863312cE', symObjAddr: 0x3FF4, symBinAddr: 0x762CC, symSize: 0x6C }
  - { offset: 0x116294, size: 0x8, addend: 0x0, symName: '__ZN78_$LT$core..error..Source$u20$as$u20$core..iter..traits..iterator..Iterator$GT$4next17h4ffe4a97aada938aE', symObjAddr: 0x4060, symBinAddr: 0x76338, symSize: 0x4C }
  - { offset: 0x1162EB, size: 0x8, addend: 0x0, symName: '__ZN105_$LT$dyn$u20$core..any..Any$u2b$core..marker..Send$u2b$core..marker..Sync$u20$as$u20$core..fmt..Debug$GT$3fmt17h3934b02ddfa3d992E', symObjAddr: 0x42CC, symBinAddr: 0x765A4, symSize: 0x6C }
  - { offset: 0x1163AC, size: 0x8, addend: 0x0, symName: '__ZN54_$LT$core..any..TypeId$u20$as$u20$core..fmt..Debug$GT$3fmt17hd3e31a14ff5bfa4dE', symObjAddr: 0x4338, symBinAddr: 0x76610, symSize: 0x64 }
  - { offset: 0x11641F, size: 0x8, addend: 0x0, symName: '__ZN73_$LT$core..ascii..ascii_char..AsciiChar$u20$as$u20$core..fmt..Display$GT$3fmt17hd9d95844a3cf0371E', symObjAddr: 0x439C, symBinAddr: 0x76674, symSize: 0x20 }
  - { offset: 0x116458, size: 0x8, addend: 0x0, symName: '__ZN71_$LT$core..ascii..ascii_char..AsciiChar$u20$as$u20$core..fmt..Debug$GT$3fmt17h33baaf775b4adcafE', symObjAddr: 0x43BC, symBinAddr: 0x76694, symSize: 0x158 }
  - { offset: 0x1164B6, size: 0x8, addend: 0x0, symName: __ZN4core5ascii14escape_default17hc54ea533b79b7c89E, symObjAddr: 0x4514, symBinAddr: 0x767EC, symSize: 0x78 }
  - { offset: 0x11653D, size: 0x8, addend: 0x0, symName: '__ZN65_$LT$core..ascii..EscapeDefault$u20$as$u20$core..fmt..Display$GT$3fmt17h29e416711bf43402E', symObjAddr: 0x458C, symBinAddr: 0x76864, symSize: 0x2C }
  - { offset: 0x1165D1, size: 0x8, addend: 0x0, symName: '__ZN63_$LT$core..ascii..EscapeDefault$u20$as$u20$core..fmt..Debug$GT$3fmt17hc711f43c831a3042E', symObjAddr: 0x45B8, symBinAddr: 0x76890, symSize: 0x6C }
  - { offset: 0x1168BE, size: 0x8, addend: 0x0, symName: '__ZN4core3str21_$LT$impl$u20$str$GT$9from_utf817h837d9ce26be54185E', symObjAddr: 0x1106C, symBinAddr: 0x82C84, symSize: 0x10 }
  - { offset: 0x1168D8, size: 0x8, addend: 0x0, symName: '__ZN4core3str21_$LT$impl$u20$str$GT$13from_utf8_mut17h561a9114ee2a7b00E', symObjAddr: 0x1107C, symBinAddr: 0x82C94, symSize: 0x10 }
  - { offset: 0x1168F3, size: 0x8, addend: 0x0, symName: '__ZN4core3str21_$LT$impl$u20$str$GT$18split_at_unchecked17h347498d49940a9c4E', symObjAddr: 0x1108C, symBinAddr: 0x82CA4, symSize: 0x20 }
  - { offset: 0x116925, size: 0x8, addend: 0x0, symName: '__ZN4core3str21_$LT$impl$u20$str$GT$22split_at_mut_unchecked17h0fe98239b9cd7a1eE', symObjAddr: 0x110AC, symBinAddr: 0x82CC4, symSize: 0x20 }
  - { offset: 0x11697A, size: 0x8, addend: 0x0, symName: '__ZN4core3str21_$LT$impl$u20$str$GT$12escape_debug17h8f24da24847e1e5bE', symObjAddr: 0x110CC, symBinAddr: 0x82CE4, symSize: 0x104 }
  - { offset: 0x116AC2, size: 0x8, addend: 0x0, symName: '__ZN4core3str21_$LT$impl$u20$str$GT$12substr_range17h7596465cbb5335b3E', symObjAddr: 0x111D0, symBinAddr: 0x82DE8, symSize: 0x38 }
  - { offset: 0x116C4D, size: 0x8, addend: 0x0, symName: '__ZN59_$LT$core..str..iter..Chars$u20$as$u20$core..fmt..Debug$GT$3fmt17h63bef4d4134c6e67E', symObjAddr: 0xF744, symBinAddr: 0x813D0, symSize: 0x610 }
  - { offset: 0x11718C, size: 0x8, addend: 0x0, symName: '__ZN65_$LT$core..str..iter..EncodeUtf16$u20$as$u20$core..fmt..Debug$GT$3fmt17ha06cf3139a8535bfE', symObjAddr: 0xFD54, symBinAddr: 0x819E0, symSize: 0x6C }
  - { offset: 0x11727A, size: 0x8, addend: 0x0, symName: '__ZN67_$LT$core..str..iter..EscapeDebug$u20$as$u20$core..fmt..Display$GT$3fmt17h4471b3c6fcd598e8E', symObjAddr: 0x1B15C, symBinAddr: 0x8C5F0, symSize: 0x8C0 }
  - { offset: 0x117C71, size: 0x8, addend: 0x0, symName: '__ZN69_$LT$core..str..iter..EscapeDefault$u20$as$u20$core..fmt..Display$GT$3fmt17h739c0c3f8045fdceE', symObjAddr: 0x1BA1C, symBinAddr: 0x8CEB0, symSize: 0x48C }
  - { offset: 0x11825E, size: 0x8, addend: 0x0, symName: '__ZN69_$LT$core..str..iter..EscapeUnicode$u20$as$u20$core..fmt..Display$GT$3fmt17h7a160773aadd896aE', symObjAddr: 0x1BEA8, symBinAddr: 0x8D33C, symSize: 0x338 }
  - { offset: 0x11885D, size: 0x8, addend: 0x0, symName: __ZN4core3str5count14do_count_chars17h275a5f35c4be0598E, symObjAddr: 0xEE00, symBinAddr: 0x80A8C, symSize: 0x5E8 }
  - { offset: 0x118BD5, size: 0x8, addend: 0x0, symName: __ZN4core3str5count23char_count_general_case17hb9e9000c9601b018E, symObjAddr: 0xF3E8, symBinAddr: 0x81074, symSize: 0x2B0 }
  - { offset: 0x118D2C, size: 0x8, addend: 0x0, symName: __ZN4core3str7pattern11StrSearcher3new17h9e6a21edb410ad1dE, symObjAddr: 0xFDF4, symBinAddr: 0x81A4C, symSize: 0x8BC }
  - { offset: 0x119089, size: 0x8, addend: 0x0, symName: __ZN4core3str6traits23str_index_overflow_fail17h99928894426e9ffaE, symObjAddr: 0xFDC0, symBinAddr: 0x91250, symSize: 0x34 }
  - { offset: 0x1190E3, size: 0x8, addend: 0x0, symName: __ZN4core3str8converts9from_utf817h7111093859b6b513E, symObjAddr: 0xE978, symBinAddr: 0x80604, symSize: 0x244 }
  - { offset: 0x11914B, size: 0x8, addend: 0x0, symName: __ZN4core3str8converts13from_utf8_mut17hf2438e13e8d0f077E, symObjAddr: 0xEBBC, symBinAddr: 0x80848, symSize: 0x244 }
  - { offset: 0x1191CD, size: 0x8, addend: 0x0, symName: '__ZN66_$LT$core..str..error..Utf8Error$u20$as$u20$core..fmt..Display$GT$3fmt17h243dc94a6469cc87E', symObjAddr: 0xF698, symBinAddr: 0x81324, symSize: 0x8C }
  - { offset: 0x119233, size: 0x8, addend: 0x0, symName: '__ZN71_$LT$core..str..error..ParseBoolError$u20$as$u20$core..fmt..Display$GT$3fmt17h134841feabd2a815E', symObjAddr: 0xF724, symBinAddr: 0x813B0, symSize: 0x20 }
  - { offset: 0x119271, size: 0x8, addend: 0x0, symName: '__ZN60_$LT$core..str..lossy..Debug$u20$as$u20$core..fmt..Debug$GT$3fmt17hfd0ed02e8ab4a063E', symObjAddr: 0x106B0, symBinAddr: 0x82308, symSize: 0x39C }
  - { offset: 0x119606, size: 0x8, addend: 0x0, symName: '__ZN87_$LT$core..str..lossy..Utf8Chunks$u20$as$u20$core..iter..traits..iterator..Iterator$GT$4next17h6e1899cb971edd4bE', symObjAddr: 0x10A4C, symBinAddr: 0x826A4, symSize: 0x1CC }
  - { offset: 0x11983A, size: 0x8, addend: 0x0, symName: '__ZN65_$LT$core..str..lossy..Utf8Chunks$u20$as$u20$core..fmt..Debug$GT$3fmt17hf0887efd710a0297E', symObjAddr: 0x10C18, symBinAddr: 0x82870, symSize: 0xCC }
  - { offset: 0x119948, size: 0x8, addend: 0x0, symName: __ZN4core3str16slice_error_fail17h8797f2779603ccf8E, symObjAddr: 0x10CE4, symBinAddr: 0x91284, symSize: 0xC }
  - { offset: 0x119962, size: 0x8, addend: 0x0, symName: __ZN4core3str19slice_error_fail_ct17haaa7178aac07d766E, symObjAddr: 0x10CF0, symBinAddr: 0x91290, symSize: 0x34 }
  - { offset: 0x119992, size: 0x8, addend: 0x0, symName: __ZN4core3str19slice_error_fail_rt17heb32bb11f36a694fE, symObjAddr: 0x10D24, symBinAddr: 0x8293C, symSize: 0x348 }
  - { offset: 0x119C5C, size: 0x8, addend: 0x0, symName: '__ZN4core4char7methods22_$LT$impl$u20$char$GT$16escape_debug_ext17ha02e91854125ac8bE', symObjAddr: 0x4EF4, symBinAddr: 0x7710C, symSize: 0x268 }
  - { offset: 0x119F35, size: 0x8, addend: 0x0, symName: __ZN4core4char7methods15encode_utf8_raw8do_panic7runtime17h97bfa38c194e7623E, symObjAddr: 0x16E54, symBinAddr: 0x913B4, symSize: 0x6C }
  - { offset: 0x119F75, size: 0x8, addend: 0x0, symName: __ZN4core4char7methods16encode_utf16_raw8do_panic7runtime17h91aad70489748ce2E, symObjAddr: 0x16EC0, symBinAddr: 0x91420, symSize: 0x6C }
  - { offset: 0x119FCA, size: 0x8, addend: 0x0, symName: '__ZN74_$LT$core..char..convert..ParseCharError$u20$as$u20$core..fmt..Display$GT$3fmt17haafc9ceea09a7454E', symObjAddr: 0x4E40, symBinAddr: 0x77058, symSize: 0x48 }
  - { offset: 0x11A02B, size: 0x8, addend: 0x0, symName: '__ZN76_$LT$core..char..convert..CharTryFromError$u20$as$u20$core..fmt..Display$GT$3fmt17h0123d81ad7bbb06eE', symObjAddr: 0x4E88, symBinAddr: 0x770A0, symSize: 0x20 }
  - { offset: 0x11A0B9, size: 0x8, addend: 0x0, symName: '__ZN75_$LT$core..char..decode..DecodeUtf16Error$u20$as$u20$core..fmt..Display$GT$3fmt17hbd0538f33dbed126E', symObjAddr: 0x4EA8, symBinAddr: 0x770C0, symSize: 0x4C }
  - { offset: 0x11A156, size: 0x8, addend: 0x0, symName: '__ZN64_$LT$core..char..EscapeDefault$u20$as$u20$core..fmt..Display$GT$3fmt17hafd5eef9461c22c4E', symObjAddr: 0x515C, symBinAddr: 0x77374, symSize: 0x2C }
  - { offset: 0x11A1ED, size: 0x8, addend: 0x0, symName: '__ZN62_$LT$core..char..EscapeDebug$u20$as$u20$core..fmt..Display$GT$3fmt17hd4500aa416dd61fdE', symObjAddr: 0x5188, symBinAddr: 0x773A0, symSize: 0x50 }
  - { offset: 0x11A2A1, size: 0x8, addend: 0x0, symName: '__ZN86_$LT$core..char..CaseMappingIter$u20$as$u20$core..iter..traits..iterator..Iterator$GT$4next17h36d7c58955dc4d08E', symObjAddr: 0x51D8, symBinAddr: 0x773F0, symSize: 0x34 }
  - { offset: 0x11A3D5, size: 0x8, addend: 0x0, symName: '__ZN86_$LT$core..char..CaseMappingIter$u20$as$u20$core..iter..traits..iterator..Iterator$GT$5count17h2d362e464ecfac18E', symObjAddr: 0x520C, symBinAddr: 0x77424, symSize: 0x18 }
  - { offset: 0x11A444, size: 0x8, addend: 0x0, symName: '__ZN86_$LT$core..char..CaseMappingIter$u20$as$u20$core..iter..traits..iterator..Iterator$GT$4last17hfedd25cfa8fcb004E', symObjAddr: 0x5224, symBinAddr: 0x7743C, symSize: 0x48 }
  - { offset: 0x11A590, size: 0x8, addend: 0x0, symName: '__ZN86_$LT$core..char..CaseMappingIter$u20$as$u20$core..iter..traits..iterator..Iterator$GT$10advance_by17h6020a00590546fadE', symObjAddr: 0x526C, symBinAddr: 0x77484, symSize: 0x2C }
  - { offset: 0x11A62A, size: 0x8, addend: 0x0, symName: '__ZN86_$LT$core..char..CaseMappingIter$u20$as$u20$core..iter..traits..iterator..Iterator$GT$24__iterator_get_unchecked17hd21c35145ab70759E', symObjAddr: 0x5298, symBinAddr: 0x774B0, symSize: 0x20 }
  - { offset: 0x11A754, size: 0x8, addend: 0x0, symName: '__ZN101_$LT$core..char..CaseMappingIter$u20$as$u20$core..iter..traits..double_ended..DoubleEndedIterator$GT$9next_back17hfdf17baf7b89071aE', symObjAddr: 0x52B8, symBinAddr: 0x774D0, symSize: 0x34 }
  - { offset: 0x11A889, size: 0x8, addend: 0x0, symName: '__ZN101_$LT$core..char..CaseMappingIter$u20$as$u20$core..iter..traits..double_ended..DoubleEndedIterator$GT$15advance_back_by17h99be05636bc36320E', symObjAddr: 0x52EC, symBinAddr: 0x77504, symSize: 0x30 }
  - { offset: 0x11A95B, size: 0x8, addend: 0x0, symName: '__ZN67_$LT$core..char..TryFromCharError$u20$as$u20$core..fmt..Display$GT$3fmt17h964c69b75282521bE', symObjAddr: 0x531C, symBinAddr: 0x77534, symSize: 0x20 }
  - { offset: 0x11A9DA, size: 0x8, addend: 0x0, symName: '__ZN82_$LT$core..char..ToLowercase$u20$as$u20$core..iter..traits..iterator..Iterator$GT$4next17h337792acc246baebE', symObjAddr: 0x16F2C, symBinAddr: 0x8897C, symSize: 0x34 }
  - { offset: 0x11AB2C, size: 0x8, addend: 0x0, symName: '__ZN82_$LT$core..char..ToLowercase$u20$as$u20$core..iter..traits..iterator..Iterator$GT$5count17hbca16023bcc31e63E', symObjAddr: 0x16F60, symBinAddr: 0x889B0, symSize: 0x18 }
  - { offset: 0x11ABB9, size: 0x8, addend: 0x0, symName: '__ZN82_$LT$core..char..ToLowercase$u20$as$u20$core..iter..traits..iterator..Iterator$GT$4last17h6f7e4c7de4dd55ebE', symObjAddr: 0x16F78, symBinAddr: 0x889C8, symSize: 0x48 }
  - { offset: 0x11AD23, size: 0x8, addend: 0x0, symName: '__ZN82_$LT$core..char..ToLowercase$u20$as$u20$core..iter..traits..iterator..Iterator$GT$10advance_by17h932b8bcc60119e39E', symObjAddr: 0x16FC0, symBinAddr: 0x88A10, symSize: 0x2C }
  - { offset: 0x11ADDB, size: 0x8, addend: 0x0, symName: '__ZN82_$LT$core..char..ToLowercase$u20$as$u20$core..iter..traits..iterator..Iterator$GT$24__iterator_get_unchecked17hc1c0643dae662339E', symObjAddr: 0x16FEC, symBinAddr: 0x88A3C, symSize: 0x20 }
  - { offset: 0x11AEDD, size: 0x8, addend: 0x0, symName: '__ZN97_$LT$core..char..ToLowercase$u20$as$u20$core..iter..traits..double_ended..DoubleEndedIterator$GT$9next_back17h3b1e9b8d87632161E', symObjAddr: 0x1700C, symBinAddr: 0x88A5C, symSize: 0x34 }
  - { offset: 0x11B030, size: 0x8, addend: 0x0, symName: '__ZN97_$LT$core..char..ToLowercase$u20$as$u20$core..iter..traits..double_ended..DoubleEndedIterator$GT$15advance_back_by17h841de36d8155a28aE', symObjAddr: 0x17040, symBinAddr: 0x88A90, symSize: 0x30 }
  - { offset: 0x11B119, size: 0x8, addend: 0x0, symName: '__ZN62_$LT$core..char..ToLowercase$u20$as$u20$core..fmt..Display$GT$3fmt17he54498e258dcf8d2E', symObjAddr: 0x17070, symBinAddr: 0x88AC0, symSize: 0xDC }
  - { offset: 0x11B369, size: 0x8, addend: 0x0, symName: '__ZN56_$LT$core..bstr..ByteStr$u20$as$u20$core..fmt..Debug$GT$3fmt17h32a1b8f6dc567dbbE', symObjAddr: 0x4624, symBinAddr: 0x768FC, symSize: 0x298 }
  - { offset: 0x11B614, size: 0x8, addend: 0x0, symName: '__ZN58_$LT$core..bstr..ByteStr$u20$as$u20$core..fmt..Display$GT$3fmt17h6c6c71b7e6d622deE', symObjAddr: 0x48BC, symBinAddr: 0x76B94, symSize: 0x43C }
  - { offset: 0x11B9D4, size: 0x8, addend: 0x0, symName: __ZN4core4cell4lazy14panic_poisoned17h97b73264bcf08478E, symObjAddr: 0x4CF8, symBinAddr: 0x90C04, symSize: 0x38 }
  - { offset: 0x11BA0D, size: 0x8, addend: 0x0, symName: '__ZN60_$LT$core..cell..BorrowError$u20$as$u20$core..fmt..Debug$GT$3fmt17h57c4f839ddbba2f2E', symObjAddr: 0x4D30, symBinAddr: 0x76FD0, symSize: 0x24 }
  - { offset: 0x11BA73, size: 0x8, addend: 0x0, symName: '__ZN62_$LT$core..cell..BorrowError$u20$as$u20$core..fmt..Display$GT$3fmt17h73f0b31bbab321a8E', symObjAddr: 0x4D54, symBinAddr: 0x76FF4, symSize: 0x20 }
  - { offset: 0x11BAAC, size: 0x8, addend: 0x0, symName: '__ZN63_$LT$core..cell..BorrowMutError$u20$as$u20$core..fmt..Debug$GT$3fmt17h83d0c6b4d08da358E', symObjAddr: 0x4D74, symBinAddr: 0x77014, symSize: 0x24 }
  - { offset: 0x11BB12, size: 0x8, addend: 0x0, symName: '__ZN65_$LT$core..cell..BorrowMutError$u20$as$u20$core..fmt..Display$GT$3fmt17hcc17e7d64056db00E', symObjAddr: 0x4D98, symBinAddr: 0x77038, symSize: 0x20 }
  - { offset: 0x11BB45, size: 0x8, addend: 0x0, symName: __ZN4core4cell22panic_already_borrowed17ha93b08466e9de953E, symObjAddr: 0x4DB8, symBinAddr: 0x90C3C, symSize: 0x44 }
  - { offset: 0x11BB78, size: 0x8, addend: 0x0, symName: __ZN4core4cell30panic_already_mutably_borrowed17h23b6cddf7e6254fdE, symObjAddr: 0x4DFC, symBinAddr: 0x90C80, symSize: 0x44 }
  - { offset: 0x11BBCC, size: 0x8, addend: 0x0, symName: __ZN4core7unicode12unicode_data15grapheme_extend11lookup_slow17h9990ce5e65f3e87aE, symObjAddr: 0x1C52C, symBinAddr: 0x8D9C0, symSize: 0x114 }
  - { offset: 0x11BE8B, size: 0x8, addend: 0x0, symName: __ZN4core7unicode12unicode_data10alphabetic6lookup17h527ba46f9be220edE, symObjAddr: 0x1C1E0, symBinAddr: 0x8D674, symSize: 0x110 }
  - { offset: 0x11C036, size: 0x8, addend: 0x0, symName: __ZN4core7unicode12unicode_data14case_ignorable6lookup17h17910d4d812e6b5eE, symObjAddr: 0x1C2F0, symBinAddr: 0x8D784, symSize: 0x118 }
  - { offset: 0x11C1E3, size: 0x8, addend: 0x0, symName: __ZN4core7unicode12unicode_data5cased6lookup17h84c49db4c3433258E, symObjAddr: 0x1C408, symBinAddr: 0x8D89C, symSize: 0x100 }
  - { offset: 0x11C390, size: 0x8, addend: 0x0, symName: __ZN4core7unicode12unicode_data2cc6lookup17h039ab60f294862cdE, symObjAddr: 0x1C508, symBinAddr: 0x8D99C, symSize: 0x24 }
  - { offset: 0x11C3E3, size: 0x8, addend: 0x0, symName: __ZN4core7unicode12unicode_data9lowercase6lookup17hf0a8a210d8c451fbE, symObjAddr: 0x1C640, symBinAddr: 0x8DAD4, symSize: 0x104 }
  - { offset: 0x11C437, size: 0x8, addend: 0x0, symName: __ZN4core7unicode12unicode_data1n6lookup17hf4741e9bab1f633fE, symObjAddr: 0x1C744, symBinAddr: 0x8DBD8, symSize: 0x118 }
  - { offset: 0x11C5E4, size: 0x8, addend: 0x0, symName: __ZN4core7unicode12unicode_data9uppercase6lookup17hb169f5870a3a6ceeE, symObjAddr: 0x1C85C, symBinAddr: 0x8DCF0, symSize: 0x104 }
  - { offset: 0x11C640, size: 0x8, addend: 0x0, symName: __ZN4core7unicode12unicode_data11conversions8to_lower17hfcaa730d2e25f018E, symObjAddr: 0x1C960, symBinAddr: 0x8DDF4, symSize: 0x184 }
  - { offset: 0x11C7B0, size: 0x8, addend: 0x0, symName: __ZN4core7unicode12unicode_data11conversions8to_upper17hafb02ec21c8c07a5E, symObjAddr: 0x1CAE4, symBinAddr: 0x8DF78, symSize: 0x1A4 }
  - { offset: 0x11C97D, size: 0x8, addend: 0x0, symName: __ZN4core7unicode9printable12is_printable17h923eee1baf455be7E, symObjAddr: 0x11AC0, symBinAddr: 0x836D8, symSize: 0x2B4 }
  - { offset: 0x11CCE5, size: 0x8, addend: 0x0, symName: '__ZN79_$LT$core..ffi..c_str..FromBytesUntilNulError$u20$as$u20$core..fmt..Display$GT$3fmt17h5783272cf3b6ff33E', symObjAddr: 0x533C, symBinAddr: 0x77554, symSize: 0x24 }
  - { offset: 0x11CD1D, size: 0x8, addend: 0x0, symName: '__ZN59_$LT$core..ffi..c_str..CStr$u20$as$u20$core..fmt..Debug$GT$3fmt17hd347583b322848f9E', symObjAddr: 0x5360, symBinAddr: 0x77578, symSize: 0x6C }
  - { offset: 0x11CDD8, size: 0x8, addend: 0x0, symName: '__ZN78_$LT$core..ffi..c_str..FromBytesWithNulError$u20$as$u20$core..fmt..Display$GT$3fmt17h2d1d81fc20e35777E', symObjAddr: 0x53CC, symBinAddr: 0x775E4, symSize: 0xC4 }
  - { offset: 0x11CE73, size: 0x8, addend: 0x0, symName: __ZN4core3ffi5c_str4CStr20from_bytes_until_nul17h5ea4fa062367eff0E, symObjAddr: 0x5490, symBinAddr: 0x776A8, symSize: 0xE0 }
  - { offset: 0x11CF4B, size: 0x8, addend: 0x0, symName: __ZN4core3ffi5c_str4CStr19from_bytes_with_nul17hfcc837a95c97ef0aE, symObjAddr: 0x5570, symBinAddr: 0x77788, symSize: 0xFC }
  - { offset: 0x11D039, size: 0x8, addend: 0x0, symName: __ZN4core3ffi5c_str4CStr6to_str17h9b7328f846372256E, symObjAddr: 0x566C, symBinAddr: 0x77884, symSize: 0x14 }
  - { offset: 0x11D079, size: 0x8, addend: 0x0, symName: '__ZN67_$LT$core..ffi..va_list..VaListImpl$u20$as$u20$core..fmt..Debug$GT$3fmt17h7fee459665ca2102E', symObjAddr: 0x5680, symBinAddr: 0x77898, symSize: 0x4C }
  - { offset: 0x11D0C9, size: 0x8, addend: 0x0, symName: '__ZN54_$LT$core..ffi..c_void$u20$as$u20$core..fmt..Debug$GT$3fmt17h42056c8e8e98ec17E', symObjAddr: 0x56CC, symBinAddr: 0x778E4, symSize: 0x24 }
  - { offset: 0x11D14E, size: 0x8, addend: 0x0, symName: '__ZN72_$LT$core..io..borrowed_buf..BorrowedBuf$u20$as$u20$core..fmt..Debug$GT$3fmt17he6f04f6a75a3fb32E', symObjAddr: 0x56F0, symBinAddr: 0x77908, symSize: 0x108 }
  - { offset: 0x11D26B, size: 0x8, addend: 0x0, symName: '__ZN86_$LT$core..net..display_buffer..DisplayBuffer$LT$_$GT$$u20$as$u20$core..fmt..Write$GT$9write_str17h02d6529eede33f99E', symObjAddr: 0x57F8, symBinAddr: 0x77A10, symSize: 0x50 }
  - { offset: 0x11D322, size: 0x8, addend: 0x0, symName: '__ZN86_$LT$core..net..display_buffer..DisplayBuffer$LT$_$GT$$u20$as$u20$core..fmt..Write$GT$9write_str17h0a2acee7b1e41cb6E', symObjAddr: 0x5848, symBinAddr: 0x77A60, symSize: 0x50 }
  - { offset: 0x11D3D9, size: 0x8, addend: 0x0, symName: '__ZN86_$LT$core..net..display_buffer..DisplayBuffer$LT$_$GT$$u20$as$u20$core..fmt..Write$GT$9write_str17hc37451dc9953ff6cE', symObjAddr: 0x5898, symBinAddr: 0x77AB0, symSize: 0x50 }
  - { offset: 0x11D490, size: 0x8, addend: 0x0, symName: '__ZN86_$LT$core..net..display_buffer..DisplayBuffer$LT$_$GT$$u20$as$u20$core..fmt..Write$GT$9write_str17hf39a1489708f229cE', symObjAddr: 0x58E8, symBinAddr: 0x77B00, symSize: 0x50 }
  - { offset: 0x11D5F8, size: 0x8, addend: 0x0, symName: '__ZN65_$LT$core..net..ip_addr..IpAddr$u20$as$u20$core..fmt..Display$GT$3fmt17haa6ceaa097ee1125E', symObjAddr: 0x5938, symBinAddr: 0x77B50, symSize: 0x24 }
  - { offset: 0x11D621, size: 0x8, addend: 0x0, symName: '__ZN63_$LT$core..net..ip_addr..IpAddr$u20$as$u20$core..fmt..Debug$GT$3fmt17h24a73beeb73728b1E', symObjAddr: 0x595C, symBinAddr: 0x77B74, symSize: 0x24 }
  - { offset: 0x11D668, size: 0x8, addend: 0x0, symName: '__ZN4core3net6parser46_$LT$impl$u20$core..net..ip_addr..Ipv4Addr$GT$11parse_ascii17h88be1fca45fc7abaE', symObjAddr: 0x6F74, symBinAddr: 0x7918C, symSize: 0x8C }
  - { offset: 0x11D6E9, size: 0x8, addend: 0x0, symName: '__ZN67_$LT$core..net..ip_addr..Ipv4Addr$u20$as$u20$core..fmt..Display$GT$3fmt17h1e9a50b7bf5f03a9E', symObjAddr: 0x5980, symBinAddr: 0x77B98, symSize: 0x148 }
  - { offset: 0x11D7F6, size: 0x8, addend: 0x0, symName: '__ZN65_$LT$core..net..ip_addr..Ipv4Addr$u20$as$u20$core..fmt..Debug$GT$3fmt17hebfa18b1f456ba87E', symObjAddr: 0x5AC8, symBinAddr: 0x77CE0, symSize: 0x10 }
  - { offset: 0x11D850, size: 0x8, addend: 0x0, symName: '__ZN4core3net6parser46_$LT$impl$u20$core..net..ip_addr..Ipv6Addr$GT$11parse_ascii17hfb37a98f05cc5f0bE', symObjAddr: 0x708C, symBinAddr: 0x792A4, symSize: 0x70 }
  - { offset: 0x11D8DD, size: 0x8, addend: 0x0, symName: '__ZN67_$LT$core..net..ip_addr..Ipv6Addr$u20$as$u20$core..fmt..Display$GT$3fmt12fmt_subslice17h14aa96dea4c86bb8E', symObjAddr: 0x6204, symBinAddr: 0x7841C, symSize: 0x104 }
  - { offset: 0x11DA38, size: 0x8, addend: 0x0, symName: '__ZN67_$LT$core..net..ip_addr..Ipv6Addr$u20$as$u20$core..fmt..Display$GT$3fmt17ha6901103cf41ebcbE', symObjAddr: 0x5AD8, symBinAddr: 0x77CF0, symSize: 0x72C }
  - { offset: 0x11DDD3, size: 0x8, addend: 0x0, symName: '__ZN65_$LT$core..net..ip_addr..Ipv6Addr$u20$as$u20$core..fmt..Debug$GT$3fmt17hb4b0b02e9ca3cc75E', symObjAddr: 0x6308, symBinAddr: 0x78520, symSize: 0x10 }
  - { offset: 0x11DE0A, size: 0x8, addend: 0x0, symName: '__ZN4core3net6parser44_$LT$impl$u20$core..net..ip_addr..IpAddr$GT$11parse_ascii17h18897cc7b3639643E', symObjAddr: 0x6E04, symBinAddr: 0x7901C, symSize: 0xB8 }
  - { offset: 0x11DEE2, size: 0x8, addend: 0x0, symName: '__ZN77_$LT$core..net..ip_addr..Ipv4Addr$u20$as$u20$core..ops..bit..BitAndAssign$GT$13bitand_assign17hc6b284ca898794a1E', symObjAddr: 0x1714C, symBinAddr: 0x88B9C, symSize: 0x40 }
  - { offset: 0x11DF22, size: 0x8, addend: 0x0, symName: '__ZN117_$LT$core..net..ip_addr..Ipv4Addr$u20$as$u20$core..ops..bit..BitAndAssign$LT$$RF$core..net..ip_addr..Ipv4Addr$GT$$GT$13bitand_assign17h83160a3b5bd829bdE', symObjAddr: 0x1718C, symBinAddr: 0x88BDC, symSize: 0x48 }
  - { offset: 0x11E03C, size: 0x8, addend: 0x0, symName: '__ZN76_$LT$core..net..ip_addr..Ipv4Addr$u20$as$u20$core..ops..bit..BitOrAssign$GT$12bitor_assign17h76e0829a0ac69810E', symObjAddr: 0x171D4, symBinAddr: 0x88C24, symSize: 0x40 }
  - { offset: 0x11E07C, size: 0x8, addend: 0x0, symName: '__ZN116_$LT$core..net..ip_addr..Ipv4Addr$u20$as$u20$core..ops..bit..BitOrAssign$LT$$RF$core..net..ip_addr..Ipv4Addr$GT$$GT$12bitor_assign17h046ceffcbcb46ed2E', symObjAddr: 0x17214, symBinAddr: 0x88C64, symSize: 0x48 }
  - { offset: 0x11E196, size: 0x8, addend: 0x0, symName: '__ZN77_$LT$core..net..ip_addr..Ipv6Addr$u20$as$u20$core..ops..bit..BitAndAssign$GT$13bitand_assign17hb3ae581de7e21fbaE', symObjAddr: 0x1725C, symBinAddr: 0x88CAC, symSize: 0xA0 }
  - { offset: 0x11E218, size: 0x8, addend: 0x0, symName: '__ZN117_$LT$core..net..ip_addr..Ipv6Addr$u20$as$u20$core..ops..bit..BitAndAssign$LT$$RF$core..net..ip_addr..Ipv6Addr$GT$$GT$13bitand_assign17h594ff4b5b12c8648E', symObjAddr: 0x172FC, symBinAddr: 0x88D4C, symSize: 0x20 }
  - { offset: 0x11E2AA, size: 0x8, addend: 0x0, symName: '__ZN76_$LT$core..net..ip_addr..Ipv6Addr$u20$as$u20$core..ops..bit..BitOrAssign$GT$12bitor_assign17hb1fece0c15937cb5E', symObjAddr: 0x1731C, symBinAddr: 0x88D6C, symSize: 0xA0 }
  - { offset: 0x11E32C, size: 0x8, addend: 0x0, symName: '__ZN116_$LT$core..net..ip_addr..Ipv6Addr$u20$as$u20$core..ops..bit..BitOrAssign$LT$$RF$core..net..ip_addr..Ipv6Addr$GT$$GT$12bitor_assign17h9b914abf5c482c46E', symObjAddr: 0x173BC, symBinAddr: 0x88E0C, symSize: 0x20 }
  - { offset: 0x11E46E, size: 0x8, addend: 0x0, symName: __ZN4core3net6parser6Parser14read_ipv4_addr17hbca6859ce08556e7E, symObjAddr: 0x65A0, symBinAddr: 0x787B8, symSize: 0x3A0 }
  - { offset: 0x11E635, size: 0x8, addend: 0x0, symName: __ZN4core3net6parser6Parser14read_ipv6_addr17h7978f2568ee97c5aE, symObjAddr: 0x6940, symBinAddr: 0x78B58, symSize: 0x13C }
  - { offset: 0x11E9B0, size: 0x8, addend: 0x0, symName: __ZN4core3net6parser6Parser19read_socket_addr_v617h2bf57917302e7364E, symObjAddr: 0x6C40, symBinAddr: 0x78E58, symSize: 0x1C4 }
  - { offset: 0x11EF88, size: 0x8, addend: 0x0, symName: '__ZN4core3net6parser6Parser11read_number28_$u7b$$u7b$closure$u7d$$u7d$17hd6a703206a464d50E', symObjAddr: 0x6318, symBinAddr: 0x78530, symSize: 0x288 }
  - { offset: 0x11F213, size: 0x8, addend: 0x0, symName: __ZN4core3net6parser6Parser14read_ipv6_addr11read_groups17ha524aafe08808649E, symObjAddr: 0x6A7C, symBinAddr: 0x78C94, symSize: 0x1C4 }
  - { offset: 0x11F511, size: 0x8, addend: 0x0, symName: '__ZN4core3net6parser83_$LT$impl$u20$core..str..traits..FromStr$u20$for$u20$core..net..ip_addr..IpAddr$GT$8from_str17h1d812b2c8a2385d5E', symObjAddr: 0x6EBC, symBinAddr: 0x790D4, symSize: 0xB8 }
  - { offset: 0x11F615, size: 0x8, addend: 0x0, symName: '__ZN4core3net6parser85_$LT$impl$u20$core..str..traits..FromStr$u20$for$u20$core..net..ip_addr..Ipv4Addr$GT$8from_str17hbfd6903b32438b76E', symObjAddr: 0x7000, symBinAddr: 0x79218, symSize: 0x8C }
  - { offset: 0x11F6BA, size: 0x8, addend: 0x0, symName: '__ZN4core3net6parser85_$LT$impl$u20$core..str..traits..FromStr$u20$for$u20$core..net..ip_addr..Ipv6Addr$GT$8from_str17h196a554c98516521E', symObjAddr: 0x70FC, symBinAddr: 0x79314, symSize: 0x70 }
  - { offset: 0x11F75F, size: 0x8, addend: 0x0, symName: '__ZN4core3net6parser93_$LT$impl$u20$core..str..traits..FromStr$u20$for$u20$core..net..socket_addr..SocketAddrV4$GT$8from_str17h6159e546c6a0e930E', symObjAddr: 0x7278, symBinAddr: 0x79490, symSize: 0x108 }
  - { offset: 0x11F970, size: 0x8, addend: 0x0, symName: '__ZN4core3net6parser93_$LT$impl$u20$core..str..traits..FromStr$u20$for$u20$core..net..socket_addr..SocketAddrV6$GT$8from_str17hb32972c1f2a6fc45E', symObjAddr: 0x73EC, symBinAddr: 0x79604, symSize: 0x6C }
  - { offset: 0x11FA15, size: 0x8, addend: 0x0, symName: '__ZN4core3net6parser91_$LT$impl$u20$core..str..traits..FromStr$u20$for$u20$core..net..socket_addr..SocketAddr$GT$8from_str17hcdede7a73a0f8814E', symObjAddr: 0x75E8, symBinAddr: 0x79800, symSize: 0x10 }
  - { offset: 0x11FA4C, size: 0x8, addend: 0x0, symName: '__ZN72_$LT$core..net..parser..AddrParseError$u20$as$u20$core..fmt..Display$GT$3fmt17h8c2ed768dac542eaE', symObjAddr: 0x75F8, symBinAddr: 0x79810, symSize: 0x38 }
  - { offset: 0x11FAB0, size: 0x8, addend: 0x0, symName: '__ZN4core3net6parser54_$LT$impl$u20$core..net..socket_addr..SocketAddrV6$GT$11parse_ascii17h4284af4eed8d5ab6E', symObjAddr: 0x7380, symBinAddr: 0x79598, symSize: 0x6C }
  - { offset: 0x11FB53, size: 0x8, addend: 0x0, symName: '__ZN4core3net6parser54_$LT$impl$u20$core..net..socket_addr..SocketAddrV4$GT$11parse_ascii17ha29af5fece9a497eE', symObjAddr: 0x716C, symBinAddr: 0x79384, symSize: 0x10C }
  - { offset: 0x11FD60, size: 0x8, addend: 0x0, symName: '__ZN4core3net6parser52_$LT$impl$u20$core..net..socket_addr..SocketAddr$GT$11parse_ascii17he13450aab1215e16E', symObjAddr: 0x7458, symBinAddr: 0x79670, symSize: 0x190 }
  - { offset: 0x11FF94, size: 0x8, addend: 0x0, symName: '__ZN73_$LT$core..net..socket_addr..SocketAddr$u20$as$u20$core..fmt..Display$GT$3fmt17h574a473f164633eaE', symObjAddr: 0x7630, symBinAddr: 0x79848, symSize: 0x2C }
  - { offset: 0x11FFBD, size: 0x8, addend: 0x0, symName: '__ZN71_$LT$core..net..socket_addr..SocketAddr$u20$as$u20$core..fmt..Debug$GT$3fmt17hf765ef8a81446c68E', symObjAddr: 0x765C, symBinAddr: 0x79874, symSize: 0x2C }
  - { offset: 0x11FFF6, size: 0x8, addend: 0x0, symName: '__ZN75_$LT$core..net..socket_addr..SocketAddrV4$u20$as$u20$core..fmt..Display$GT$3fmt17hcb77332df280f5b2E', symObjAddr: 0x7688, symBinAddr: 0x798A0, symSize: 0x144 }
  - { offset: 0x120145, size: 0x8, addend: 0x0, symName: '__ZN73_$LT$core..net..socket_addr..SocketAddrV4$u20$as$u20$core..fmt..Debug$GT$3fmt17h4fef6dd16ee6290bE', symObjAddr: 0x77CC, symBinAddr: 0x799E4, symSize: 0x10 }
  - { offset: 0x120167, size: 0x8, addend: 0x0, symName: '__ZN75_$LT$core..net..socket_addr..SocketAddrV6$u20$as$u20$core..fmt..Display$GT$3fmt17h971b0873f7613ff8E', symObjAddr: 0x77DC, symBinAddr: 0x799F4, symSize: 0x230 }
  - { offset: 0x1203C1, size: 0x8, addend: 0x0, symName: '__ZN73_$LT$core..net..socket_addr..SocketAddrV6$u20$as$u20$core..fmt..Debug$GT$3fmt17he7840d0bcbfe9b26E', symObjAddr: 0x7A0C, symBinAddr: 0x79C24, symSize: 0x10 }
  - { offset: 0x1204C1, size: 0x8, addend: 0x0, symName: __ZN4core9panicking9panic_fmt17ha2c69e580b34bc99E, symObjAddr: 0x7B70, symBinAddr: 0x90D28, symSize: 0x20 }
  - { offset: 0x120506, size: 0x8, addend: 0x0, symName: __ZN4core9panicking18panic_nounwind_fmt17h4095907116aac7c7E, symObjAddr: 0x7B90, symBinAddr: 0x90D48, symSize: 0x3C }
  - { offset: 0x12054D, size: 0x8, addend: 0x0, symName: __ZN4core9panicking5panic17h73ac7719bc471a24E, symObjAddr: 0x7BCC, symBinAddr: 0x90D84, symSize: 0x34 }
  - { offset: 0x12057D, size: 0x8, addend: 0x0, symName: __ZN4core9panicking14panic_nounwind17heee9f1136808c909E, symObjAddr: 0x7C00, symBinAddr: 0x90DB8, symSize: 0x3C }
  - { offset: 0x1205AD, size: 0x8, addend: 0x0, symName: __ZN4core9panicking26panic_nounwind_nobacktrace17h51995693bfc3133cE, symObjAddr: 0x7C3C, symBinAddr: 0x90DF4, symSize: 0x3C }
  - { offset: 0x1205EB, size: 0x8, addend: 0x0, symName: __ZN4core9panicking14panic_explicit17h38b8fb0c1850513bE, symObjAddr: 0x7C78, symBinAddr: 0x90E30, symSize: 0x48 }
  - { offset: 0x120633, size: 0x8, addend: 0x0, symName: __ZN4core9panicking18panic_bounds_check17h67e4c8569351d5d7E, symObjAddr: 0x7CC0, symBinAddr: 0x90E78, symSize: 0x50 }
  - { offset: 0x120666, size: 0x8, addend: 0x0, symName: __ZN4core9panicking36panic_misaligned_pointer_dereference17h00dd4ba00d5eef22E, symObjAddr: 0x7D10, symBinAddr: 0x90EC8, symSize: 0x58 }
  - { offset: 0x120699, size: 0x8, addend: 0x0, symName: __ZN4core9panicking30panic_null_pointer_dereference17h891df54bc1d3b43eE, symObjAddr: 0x7D68, symBinAddr: 0x90F20, symSize: 0x38 }
  - { offset: 0x1206CB, size: 0x8, addend: 0x0, symName: __ZN4core9panicking19panic_cannot_unwind17hc5c879a2b124e18bE, symObjAddr: 0x7DA0, symBinAddr: 0x90F58, symSize: 0x18 }
  - { offset: 0x1206E6, size: 0x8, addend: 0x0, symName: __ZN4core9panicking16panic_in_cleanup17h4dc52fdc8746d308E, symObjAddr: 0x7DB8, symBinAddr: 0x90F70, symSize: 0x18 }
  - { offset: 0x12070F, size: 0x8, addend: 0x0, symName: __ZN4core9panicking15const_panic_fmt17hf2158beb0c7e6594E, symObjAddr: 0x7DD0, symBinAddr: 0x90F88, symSize: 0x64 }
  - { offset: 0x12072E, size: 0x8, addend: 0x0, symName: __ZN4core9panicking15const_panic_fmt17hf2158beb0c7e6594E, symObjAddr: 0x7DD0, symBinAddr: 0x90F88, symSize: 0x64 }
  - { offset: 0x12076F, size: 0x8, addend: 0x0, symName: __ZN4core9panicking13assert_failed17hb7423e27c33aa8c8E, symObjAddr: 0x7E34, symBinAddr: 0x90FEC, symSize: 0x24 }
  - { offset: 0x12078A, size: 0x8, addend: 0x0, symName: __ZN4core9panicking13assert_failed17hef377f1097a6b10aE, symObjAddr: 0x7E58, symBinAddr: 0x91010, symSize: 0x24 }
  - { offset: 0x1207B1, size: 0x8, addend: 0x0, symName: '__ZN84_$LT$core..panicking..assert_matches_failed..Pattern$u20$as$u20$core..fmt..Debug$GT$3fmt17hd48c2ef1dfb32d02E', symObjAddr: 0x7E7C, symBinAddr: 0x79D24, symSize: 0x20 }
  - { offset: 0x1207E5, size: 0x8, addend: 0x0, symName: __ZN4core9panicking19assert_failed_inner17h36a925db511ce066E, symObjAddr: 0x7E9C, symBinAddr: 0x91034, symSize: 0xE4 }
  - { offset: 0x120835, size: 0x8, addend: 0x0, symName: __ZN4core9panicking11panic_const24panic_const_add_overflow17hb713ae9d1d4b328bE, symObjAddr: 0x173DC, symBinAddr: 0x9148C, symSize: 0x34 }
  - { offset: 0x120865, size: 0x8, addend: 0x0, symName: __ZN4core9panicking11panic_const24panic_const_sub_overflow17h2b6da31c407b21ccE, symObjAddr: 0x17410, symBinAddr: 0x914C0, symSize: 0x34 }
  - { offset: 0x120895, size: 0x8, addend: 0x0, symName: __ZN4core9panicking11panic_const24panic_const_mul_overflow17h64d991b829f83b9dE, symObjAddr: 0x17444, symBinAddr: 0x914F4, symSize: 0x34 }
  - { offset: 0x1208C5, size: 0x8, addend: 0x0, symName: __ZN4core9panicking11panic_const24panic_const_div_overflow17h08198564fb711b92E, symObjAddr: 0x17478, symBinAddr: 0x91528, symSize: 0x34 }
  - { offset: 0x1208F5, size: 0x8, addend: 0x0, symName: __ZN4core9panicking11panic_const24panic_const_rem_overflow17h1296e1d17555537bE, symObjAddr: 0x174AC, symBinAddr: 0x9155C, symSize: 0x34 }
  - { offset: 0x120925, size: 0x8, addend: 0x0, symName: __ZN4core9panicking11panic_const24panic_const_neg_overflow17hc80d668c2e69ff06E, symObjAddr: 0x174E0, symBinAddr: 0x91590, symSize: 0x34 }
  - { offset: 0x120955, size: 0x8, addend: 0x0, symName: __ZN4core9panicking11panic_const24panic_const_shr_overflow17hbe4bf5f224b5dee4E, symObjAddr: 0x17514, symBinAddr: 0x915C4, symSize: 0x34 }
  - { offset: 0x120985, size: 0x8, addend: 0x0, symName: __ZN4core9panicking11panic_const24panic_const_shl_overflow17ha29fd0c84cf97753E, symObjAddr: 0x17548, symBinAddr: 0x915F8, symSize: 0x34 }
  - { offset: 0x1209B5, size: 0x8, addend: 0x0, symName: __ZN4core9panicking11panic_const23panic_const_div_by_zero17hf55a13c89599bb8cE, symObjAddr: 0x1757C, symBinAddr: 0x9162C, symSize: 0x34 }
  - { offset: 0x1209E5, size: 0x8, addend: 0x0, symName: __ZN4core9panicking11panic_const23panic_const_rem_by_zero17h0c175f04d3e39e80E, symObjAddr: 0x175B0, symBinAddr: 0x91660, symSize: 0x34 }
  - { offset: 0x120A15, size: 0x8, addend: 0x0, symName: __ZN4core9panicking11panic_const29panic_const_coroutine_resumed17h9e3e3430a3d423a1E, symObjAddr: 0x175E4, symBinAddr: 0x91694, symSize: 0x34 }
  - { offset: 0x120A45, size: 0x8, addend: 0x0, symName: __ZN4core9panicking11panic_const28panic_const_async_fn_resumed17h2642cf1e7f69d089E, symObjAddr: 0x17618, symBinAddr: 0x916C8, symSize: 0x34 }
  - { offset: 0x120A75, size: 0x8, addend: 0x0, symName: __ZN4core9panicking11panic_const32panic_const_async_gen_fn_resumed17h987cd903513e2eddE, symObjAddr: 0x1764C, symBinAddr: 0x916FC, symSize: 0x34 }
  - { offset: 0x120AA5, size: 0x8, addend: 0x0, symName: __ZN4core9panicking11panic_const23panic_const_gen_fn_none17heac4e4063fad99bfE, symObjAddr: 0x17680, symBinAddr: 0x91730, symSize: 0x34 }
  - { offset: 0x120AD5, size: 0x8, addend: 0x0, symName: __ZN4core9panicking11panic_const35panic_const_coroutine_resumed_panic17haa7ea1fe2fb80c65E, symObjAddr: 0x176B4, symBinAddr: 0x91764, symSize: 0x34 }
  - { offset: 0x120B05, size: 0x8, addend: 0x0, symName: __ZN4core9panicking11panic_const34panic_const_async_fn_resumed_panic17h0e05a71b93580b2eE, symObjAddr: 0x176E8, symBinAddr: 0x91798, symSize: 0x34 }
  - { offset: 0x120B35, size: 0x8, addend: 0x0, symName: __ZN4core9panicking11panic_const38panic_const_async_gen_fn_resumed_panic17h445c3c5a3e05d894E, symObjAddr: 0x1771C, symBinAddr: 0x917CC, symSize: 0x34 }
  - { offset: 0x120B65, size: 0x8, addend: 0x0, symName: __ZN4core9panicking11panic_const29panic_const_gen_fn_none_panic17hbaad84cfb8c62beeE, symObjAddr: 0x17750, symBinAddr: 0x91800, symSize: 0x34 }
  - { offset: 0x120B95, size: 0x8, addend: 0x0, symName: __ZN4core9panicking11panic_const34panic_const_coroutine_resumed_drop17h48595e80d6bd9ce8E, symObjAddr: 0x17784, symBinAddr: 0x91834, symSize: 0x34 }
  - { offset: 0x120BC5, size: 0x8, addend: 0x0, symName: __ZN4core9panicking11panic_const33panic_const_async_fn_resumed_drop17h6710360b22ef6436E, symObjAddr: 0x177B8, symBinAddr: 0x91868, symSize: 0x34 }
  - { offset: 0x120BF5, size: 0x8, addend: 0x0, symName: __ZN4core9panicking11panic_const37panic_const_async_gen_fn_resumed_drop17h2c2171da3f33f374E, symObjAddr: 0x177EC, symBinAddr: 0x9189C, symSize: 0x34 }
  - { offset: 0x120C25, size: 0x8, addend: 0x0, symName: __ZN4core9panicking11panic_const28panic_const_gen_fn_none_drop17hc6091d23c619aa7bE, symObjAddr: 0x17820, symBinAddr: 0x918D0, symSize: 0x34 }
  - { offset: 0x120C84, size: 0x8, addend: 0x0, symName: '__ZN73_$LT$core..panic..panic_info..PanicInfo$u20$as$u20$core..fmt..Display$GT$3fmt17h0d497737d0325b2bE', symObjAddr: 0x7A80, symBinAddr: 0x79C34, symSize: 0xF0 }
  - { offset: 0x120DEC, size: 0x8, addend: 0x0, symName: '__ZN48_$LT$char$u20$as$u20$core..pat..RangePattern$GT$7sub_one17h63daa55ea2906309E', symObjAddr: 0x7F80, symBinAddr: 0x79D44, symSize: 0x54 }
  - { offset: 0x120E64, size: 0x8, addend: 0x0, symName: '__ZN46_$LT$i8$u20$as$u20$core..pat..RangePattern$GT$7sub_one17h50feeee4f7e1f581E', symObjAddr: 0x17854, symBinAddr: 0x88E2C, symSize: 0x48 }
  - { offset: 0x120EDD, size: 0x8, addend: 0x0, symName: '__ZN47_$LT$i16$u20$as$u20$core..pat..RangePattern$GT$7sub_one17h33fbae08d22ef31aE', symObjAddr: 0x1789C, symBinAddr: 0x88E74, symSize: 0x48 }
  - { offset: 0x120F56, size: 0x8, addend: 0x0, symName: '__ZN47_$LT$i32$u20$as$u20$core..pat..RangePattern$GT$7sub_one17hfa500421d220a96cE', symObjAddr: 0x178E4, symBinAddr: 0x88EBC, symSize: 0x3C }
  - { offset: 0x120F74, size: 0x8, addend: 0x0, symName: '__ZN47_$LT$i32$u20$as$u20$core..pat..RangePattern$GT$7sub_one17hfa500421d220a96cE', symObjAddr: 0x178E4, symBinAddr: 0x88EBC, symSize: 0x3C }
  - { offset: 0x120F89, size: 0x8, addend: 0x0, symName: '__ZN47_$LT$i32$u20$as$u20$core..pat..RangePattern$GT$7sub_one17hfa500421d220a96cE', symObjAddr: 0x178E4, symBinAddr: 0x88EBC, symSize: 0x3C }
  - { offset: 0x120FCF, size: 0x8, addend: 0x0, symName: '__ZN47_$LT$i64$u20$as$u20$core..pat..RangePattern$GT$7sub_one17hc9a6959123979f6bE', symObjAddr: 0x17920, symBinAddr: 0x88EF8, symSize: 0x3C }
  - { offset: 0x120FED, size: 0x8, addend: 0x0, symName: '__ZN47_$LT$i64$u20$as$u20$core..pat..RangePattern$GT$7sub_one17hc9a6959123979f6bE', symObjAddr: 0x17920, symBinAddr: 0x88EF8, symSize: 0x3C }
  - { offset: 0x121002, size: 0x8, addend: 0x0, symName: '__ZN47_$LT$i64$u20$as$u20$core..pat..RangePattern$GT$7sub_one17hc9a6959123979f6bE', symObjAddr: 0x17920, symBinAddr: 0x88EF8, symSize: 0x3C }
  - { offset: 0x121048, size: 0x8, addend: 0x0, symName: '__ZN48_$LT$i128$u20$as$u20$core..pat..RangePattern$GT$7sub_one17h9d2d3d50b9ac36dcE', symObjAddr: 0x1795C, symBinAddr: 0x88F34, symSize: 0x4C }
  - { offset: 0x121066, size: 0x8, addend: 0x0, symName: '__ZN48_$LT$i128$u20$as$u20$core..pat..RangePattern$GT$7sub_one17h9d2d3d50b9ac36dcE', symObjAddr: 0x1795C, symBinAddr: 0x88F34, symSize: 0x4C }
  - { offset: 0x12107B, size: 0x8, addend: 0x0, symName: '__ZN48_$LT$i128$u20$as$u20$core..pat..RangePattern$GT$7sub_one17h9d2d3d50b9ac36dcE', symObjAddr: 0x1795C, symBinAddr: 0x88F34, symSize: 0x4C }
  - { offset: 0x1210C1, size: 0x8, addend: 0x0, symName: '__ZN46_$LT$u8$u20$as$u20$core..pat..RangePattern$GT$7sub_one17hc4fa0b87f09a1921E', symObjAddr: 0x179A8, symBinAddr: 0x88F80, symSize: 0x40 }
  - { offset: 0x12110D, size: 0x8, addend: 0x0, symName: '__ZN47_$LT$u16$u20$as$u20$core..pat..RangePattern$GT$7sub_one17h33417808c4d3ec00E', symObjAddr: 0x179E8, symBinAddr: 0x88FC0, symSize: 0x40 }
  - { offset: 0x121159, size: 0x8, addend: 0x0, symName: '__ZN47_$LT$u32$u20$as$u20$core..pat..RangePattern$GT$7sub_one17h75b1cf83d58abcb2E', symObjAddr: 0x17A28, symBinAddr: 0x89000, symSize: 0x3C }
  - { offset: 0x121177, size: 0x8, addend: 0x0, symName: '__ZN47_$LT$u32$u20$as$u20$core..pat..RangePattern$GT$7sub_one17h75b1cf83d58abcb2E', symObjAddr: 0x17A28, symBinAddr: 0x89000, symSize: 0x3C }
  - { offset: 0x1211A5, size: 0x8, addend: 0x0, symName: '__ZN47_$LT$u64$u20$as$u20$core..pat..RangePattern$GT$7sub_one17h05c4b7f4a4507de7E', symObjAddr: 0x17A64, symBinAddr: 0x8903C, symSize: 0x3C }
  - { offset: 0x1211C3, size: 0x8, addend: 0x0, symName: '__ZN47_$LT$u64$u20$as$u20$core..pat..RangePattern$GT$7sub_one17h05c4b7f4a4507de7E', symObjAddr: 0x17A64, symBinAddr: 0x8903C, symSize: 0x3C }
  - { offset: 0x1211F1, size: 0x8, addend: 0x0, symName: '__ZN48_$LT$u128$u20$as$u20$core..pat..RangePattern$GT$7sub_one17h9ea66318555c4607E', symObjAddr: 0x17AA0, symBinAddr: 0x89078, symSize: 0x4C }
  - { offset: 0x12120F, size: 0x8, addend: 0x0, symName: '__ZN48_$LT$u128$u20$as$u20$core..pat..RangePattern$GT$7sub_one17h9ea66318555c4607E', symObjAddr: 0x17AA0, symBinAddr: 0x89078, symSize: 0x4C }
  - { offset: 0x12126D, size: 0x8, addend: 0x0, symName: '__ZN67_$LT$core..sync..atomic..AtomicBool$u20$as$u20$core..fmt..Debug$GT$3fmt17h5f43971b4d3e4da5E', symObjAddr: 0x8030, symBinAddr: 0x79D98, symSize: 0x44 }
  - { offset: 0x12133A, size: 0x8, addend: 0x0, symName: '__ZN65_$LT$core..sync..atomic..AtomicI8$u20$as$u20$core..fmt..Debug$GT$3fmt17h78a656a6f11f6391E', symObjAddr: 0x17AEC, symBinAddr: 0x890C4, symSize: 0x14 }
  - { offset: 0x12139F, size: 0x8, addend: 0x0, symName: '__ZN65_$LT$core..sync..atomic..AtomicU8$u20$as$u20$core..fmt..Debug$GT$3fmt17h26829ef3bb25115dE', symObjAddr: 0x17B00, symBinAddr: 0x890D8, symSize: 0x14 }
  - { offset: 0x121412, size: 0x8, addend: 0x0, symName: '__ZN66_$LT$core..sync..atomic..AtomicI16$u20$as$u20$core..fmt..Debug$GT$3fmt17h575207853dc9f4acE', symObjAddr: 0x17B14, symBinAddr: 0x890EC, symSize: 0xF0 }
  - { offset: 0x1215C3, size: 0x8, addend: 0x0, symName: '__ZN66_$LT$core..sync..atomic..AtomicU16$u20$as$u20$core..fmt..Debug$GT$3fmt17h08170121a284aab4E', symObjAddr: 0x17C04, symBinAddr: 0x891DC, symSize: 0xE0 }
  - { offset: 0x121747, size: 0x8, addend: 0x0, symName: '__ZN66_$LT$core..sync..atomic..AtomicI32$u20$as$u20$core..fmt..Debug$GT$3fmt17he958f8cce6c3cd7cE', symObjAddr: 0x17CE4, symBinAddr: 0x892BC, symSize: 0xF0 }
  - { offset: 0x121908, size: 0x8, addend: 0x0, symName: '__ZN66_$LT$core..sync..atomic..AtomicU32$u20$as$u20$core..fmt..Debug$GT$3fmt17h9dfb9f055dd3fedeE', symObjAddr: 0x17DD4, symBinAddr: 0x893AC, symSize: 0xE0 }
  - { offset: 0x121A9C, size: 0x8, addend: 0x0, symName: '__ZN66_$LT$core..sync..atomic..AtomicI64$u20$as$u20$core..fmt..Debug$GT$3fmt17hdb5b9a1cfc4f8f3bE', symObjAddr: 0x17EB4, symBinAddr: 0x8948C, symSize: 0xEC }
  - { offset: 0x121C5D, size: 0x8, addend: 0x0, symName: '__ZN66_$LT$core..sync..atomic..AtomicU64$u20$as$u20$core..fmt..Debug$GT$3fmt17h88a9aeeec80095e9E', symObjAddr: 0x17FA0, symBinAddr: 0x89578, symSize: 0xE0 }
  - { offset: 0x121DF1, size: 0x8, addend: 0x0, symName: '__ZN67_$LT$core..sync..atomic..AtomicI128$u20$as$u20$core..fmt..Debug$GT$3fmt17hecde419897a5c969E', symObjAddr: 0x18080, symBinAddr: 0x89658, symSize: 0x24 }
  - { offset: 0x121E64, size: 0x8, addend: 0x0, symName: '__ZN67_$LT$core..sync..atomic..AtomicU128$u20$as$u20$core..fmt..Debug$GT$3fmt17h5feeb234ea0c55f1E', symObjAddr: 0x180A4, symBinAddr: 0x8967C, symSize: 0x24 }
  - { offset: 0x121ED7, size: 0x8, addend: 0x0, symName: '__ZN68_$LT$core..sync..atomic..AtomicUsize$u20$as$u20$core..fmt..Debug$GT$3fmt17h5b3033432e8bfa8aE', symObjAddr: 0x180C8, symBinAddr: 0x896A0, symSize: 0xE0 }
  - { offset: 0x122078, size: 0x8, addend: 0x0, symName: '__ZN4core3f3221_$LT$impl$u20$f32$GT$5clamp8do_panic7runtime17hbd40eb3d8aa5ac57E', symObjAddr: 0x12084, symBinAddr: 0x912C4, symSize: 0x50 }
  - { offset: 0x1220FE, size: 0x8, addend: 0x0, symName: '__ZN4core3f6421_$LT$impl$u20$f64$GT$5clamp8do_panic7runtime17hf8845e08677f1aa5E', symObjAddr: 0x120D4, symBinAddr: 0x91314, symSize: 0x50 }
  - { offset: 0x12214E, size: 0x8, addend: 0x0, symName: '__ZN57_$LT$core..time..Duration$u20$as$u20$core..fmt..Debug$GT$3fmt17h0d987b32edbf6f74E', symObjAddr: 0x11208, symBinAddr: 0x82E20, symSize: 0xF4 }
  - { offset: 0x122186, size: 0x8, addend: 0x0, symName: '__ZN57_$LT$core..time..Duration$u20$as$u20$core..fmt..Debug$GT$3fmt11fmt_decimal17h0a89dd2488e97992E', symObjAddr: 0x112FC, symBinAddr: 0x82F14, symSize: 0x56C }
  - { offset: 0x122489, size: 0x8, addend: 0x0, symName: '__ZN57_$LT$core..time..Duration$u20$as$u20$core..fmt..Debug$GT$3fmt11fmt_decimal28_$u7b$$u7b$closure$u7d$$u7d$17h0c408a474a4f951aE', symObjAddr: 0x11868, symBinAddr: 0x83480, symSize: 0x210 }
  - { offset: 0x122618, size: 0x8, addend: 0x0, symName: '__ZN72_$LT$core..time..TryFromFloatSecsError$u20$as$u20$core..fmt..Display$GT$3fmt17hb7d595bc7f56c64aE', symObjAddr: 0x11A78, symBinAddr: 0x83690, symSize: 0x48 }
  - { offset: 0x12268A, size: 0x8, addend: 0x0, symName: '__ZN62_$LT$core..task..wake..Context$u20$as$u20$core..fmt..Debug$GT$3fmt17hbb7d949572b440bfE', symObjAddr: 0x11D74, symBinAddr: 0x8398C, symSize: 0xC4 }
  - { offset: 0x122787, size: 0x8, addend: 0x0, symName: '__ZN60_$LT$core..task..wake..Waker$u20$as$u20$core..fmt..Debug$GT$3fmt17h4cad4f78f04f416aE', symObjAddr: 0x11E38, symBinAddr: 0x83A50, symSize: 0xEC }
  - { offset: 0x122884, size: 0x8, addend: 0x0, symName: '__ZN65_$LT$core..task..wake..LocalWaker$u20$as$u20$core..fmt..Debug$GT$3fmt17h9e8289df1d793668E', symObjAddr: 0x11F24, symBinAddr: 0x83B3C, symSize: 0xEC }
  - { offset: 0x12298F, size: 0x8, addend: 0x0, symName: __ZN4core5alloc6layout6Layout19is_size_align_valid17hd2334eb538a55786E, symObjAddr: 0x12010, symBinAddr: 0x83C28, symSize: 0x2C }
  - { offset: 0x1229C6, size: 0x8, addend: 0x0, symName: '__ZN71_$LT$core..alloc..layout..LayoutError$u20$as$u20$core..fmt..Display$GT$3fmt17h8977642bf9843e39E', symObjAddr: 0x1203C, symBinAddr: 0x83C54, symSize: 0x24 }
  - { offset: 0x122A00, size: 0x8, addend: 0x0, symName: '__ZN62_$LT$core..alloc..AllocError$u20$as$u20$core..fmt..Display$GT$3fmt17ha8d14471a6e35989E', symObjAddr: 0x12060, symBinAddr: 0x83C78, symSize: 0x24 }
  - { offset: 0x122A44, size: 0x8, addend: 0x0, symName: '__ZN85_$LT$core..marker..variance..PhantomCovariantLifetime$u20$as$u20$core..fmt..Debug$GT$3fmt17h15106863ea528262E', symObjAddr: 0x16DE8, symBinAddr: 0x88910, symSize: 0x24 }
  - { offset: 0x122A7C, size: 0x8, addend: 0x0, symName: '__ZN89_$LT$core..marker..variance..PhantomContravariantLifetime$u20$as$u20$core..fmt..Debug$GT$3fmt17h94b59fb0cc697d2cE', symObjAddr: 0x16E0C, symBinAddr: 0x88934, symSize: 0x24 }
  - { offset: 0x122AB4, size: 0x8, addend: 0x0, symName: '__ZN85_$LT$core..marker..variance..PhantomInvariantLifetime$u20$as$u20$core..fmt..Debug$GT$3fmt17h0fdb50882b100db9E', symObjAddr: 0x16E30, symBinAddr: 0x88958, symSize: 0x24 }
  - { offset: 0x122B1C, size: 0x8, addend: 0x0, symName: __ZN17compiler_builtins3int19specialized_div_rem12u128_div_rem17h167ba6f69733af3dE, symObjAddr: 0x0, symBinAddr: 0x8E11C, symSize: 0x334 }
  - { offset: 0x122BEE, size: 0x8, addend: 0x0, symName: __ZN17compiler_builtins3int19specialized_div_rem12u128_div_rem17h167ba6f69733af3dE, symObjAddr: 0x0, symBinAddr: 0x8E11C, symSize: 0x334 }
  - { offset: 0x122C0C, size: 0x8, addend: 0x0, symName: __ZN17compiler_builtins3int19specialized_div_rem12u128_div_rem17h167ba6f69733af3dE, symObjAddr: 0x0, symBinAddr: 0x8E11C, symSize: 0x334 }
  - { offset: 0x122F40, size: 0x8, addend: 0x0, symName: ___udivti3, symObjAddr: 0x0, symBinAddr: 0x8E450, symSize: 0x28 }
  - { offset: 0x122F66, size: 0x8, addend: 0x0, symName: ___udivti3, symObjAddr: 0x0, symBinAddr: 0x8E450, symSize: 0x28 }
...
