---
triple:          'arm64-apple-darwin'
binary-path:     '/Users/klaus/Library/Developer/Xcode/DerivedData/OPAQUEAAWaaSModule-fuqdibrybtakesgrgcfiezbbnsbb/Build/Intermediates.noindex/ArchiveIntermediates/OPAQUEAAWaaSModule/InstallationBuildProductsLocation/Library/Frameworks/OPAQUEAAWaaSModule.framework/OPAQUEAAWaaSModule'
relocations:
  - { offset: 0x37351, size: 0x8, addend: 0x0, symName: '__ZN108_$LT$alloc..collections..btree..map..Iter$LT$K$C$V$GT$$u20$as$u20$core..iter..traits..iterator..Iterator$GT$4next17h1fdfe875b80018aaE', symObjAddr: 0x0, symBinAddr: 0x5A34, symSize: 0x13C }
  - { offset: 0x3784F, size: 0x8, addend: 0x0, symName: '__ZN5alloc11collections5btree4node208Handle$LT$alloc..collections..btree..node..NodeRef$LT$alloc..collections..btree..node..marker..Mut$C$K$C$V$C$alloc..collections..btree..node..marker..Leaf$GT$$C$alloc..collections..btree..node..marker..KV$GT$5split17haaa626f3f95904beE', symObjAddr: 0xEA7C, symBinAddr: 0x14200, symSize: 0x1D4 }
  - { offset: 0x37D72, size: 0x8, addend: 0x0, symName: '__ZN5alloc11collections5btree4node208Handle$LT$alloc..collections..btree..node..NodeRef$LT$alloc..collections..btree..node..marker..Mut$C$K$C$V$C$alloc..collections..btree..node..marker..Leaf$GT$$C$alloc..collections..btree..node..marker..KV$GT$5split17he2a526d56ea5bac2E', symObjAddr: 0xEC50, symBinAddr: 0x143D4, symSize: 0x1C8 }
  - { offset: 0x3826C, size: 0x8, addend: 0x0, symName: '__ZN5alloc11collections5btree4node212Handle$LT$alloc..collections..btree..node..NodeRef$LT$alloc..collections..btree..node..marker..Mut$C$K$C$V$C$alloc..collections..btree..node..marker..Internal$GT$$C$alloc..collections..btree..node..marker..KV$GT$5split17hb52f15d2a2e2e3c7E', symObjAddr: 0xEE18, symBinAddr: 0x1459C, symSize: 0x2A0 }
  - { offset: 0x389CB, size: 0x8, addend: 0x0, symName: '__ZN5alloc11collections5btree4node212Handle$LT$alloc..collections..btree..node..NodeRef$LT$alloc..collections..btree..node..marker..Mut$C$K$C$V$C$alloc..collections..btree..node..marker..Internal$GT$$C$alloc..collections..btree..node..marker..KV$GT$5split17hd9e5f4361b1ccf02E', symObjAddr: 0xF0B8, symBinAddr: 0x1483C, symSize: 0x294 }
  - { offset: 0x39139, size: 0x8, addend: 0x0, symName: '__ZN5alloc11collections5btree6remove259_$LT$impl$u20$alloc..collections..btree..node..Handle$LT$alloc..collections..btree..node..NodeRef$LT$alloc..collections..btree..node..marker..Mut$C$K$C$V$C$alloc..collections..btree..node..marker..Leaf$GT$$C$alloc..collections..btree..node..marker..KV$GT$$GT$14remove_leaf_kv17h5bfd62a41fdc1dceE', symObjAddr: 0xFAF4, symBinAddr: 0x15278, symSize: 0x570 }
  - { offset: 0x39E76, size: 0x8, addend: 0x0, symName: '__ZN5alloc11collections5btree6remove259_$LT$impl$u20$alloc..collections..btree..node..Handle$LT$alloc..collections..btree..node..NodeRef$LT$alloc..collections..btree..node..marker..Mut$C$K$C$V$C$alloc..collections..btree..node..marker..Leaf$GT$$C$alloc..collections..btree..node..marker..KV$GT$$GT$14remove_leaf_kv17h849fa30dc95e6dc5E', symObjAddr: 0x10064, symBinAddr: 0x157E8, symSize: 0x570 }
  - { offset: 0x3BA40, size: 0x8, addend: 0x0, symName: '__ZN5alloc11collections5btree4node29BalancingContext$LT$K$C$V$GT$15bulk_steal_left17h7d7ac3378f57bceaE', symObjAddr: 0xF34C, symBinAddr: 0x14AD0, symSize: 0x284 }
  - { offset: 0x3C081, size: 0x8, addend: 0x0, symName: '__ZN5alloc11collections5btree4node29BalancingContext$LT$K$C$V$GT$16bulk_steal_right17h2fe251ca43368085E', symObjAddr: 0xF5D0, symBinAddr: 0x14D54, symSize: 0x2CC }
  - { offset: 0x3C78A, size: 0x8, addend: 0x0, symName: '__ZN5alloc11collections5btree4node29BalancingContext$LT$K$C$V$GT$8do_merge17h5bda57c86970150cE', symObjAddr: 0xF89C, symBinAddr: 0x15020, symSize: 0x258 }
  - { offset: 0x3CFB9, size: 0x8, addend: 0x0, symName: '__ZN108_$LT$alloc..collections..btree..map..Iter$LT$K$C$V$GT$$u20$as$u20$core..iter..traits..iterator..Iterator$GT$4next17h1fdfe875b80018aaE', symObjAddr: 0x0, symBinAddr: 0x5A34, symSize: 0x13C }
  - { offset: 0x3D3BE, size: 0x8, addend: 0x0, symName: '__ZN5alloc11collections5btree3map25BTreeMap$LT$K$C$V$C$A$GT$6insert17h42bce7b8e88d7a51E', symObjAddr: 0xD050, symBinAddr: 0x127D4, symSize: 0x9BC }
  - { offset: 0x3EC84, size: 0x8, addend: 0x0, symName: '__ZN5alloc11collections5btree3map25BTreeMap$LT$K$C$V$C$A$GT$6insert17h67a0f7ceaec21487E', symObjAddr: 0xDA0C, symBinAddr: 0x13190, symSize: 0x9F8 }
  - { offset: 0x406F3, size: 0x8, addend: 0x0, symName: '__ZN5alloc11collections5btree3map25IntoIter$LT$K$C$V$C$A$GT$10dying_next17h0d77637ffefebacdE', symObjAddr: 0xE404, symBinAddr: 0x13B88, symSize: 0x228 }
  - { offset: 0x40ADD, size: 0x8, addend: 0x0, symName: '__ZN5alloc11collections5btree3map25IntoIter$LT$K$C$V$C$A$GT$10dying_next17h6f95bfc7fef83618E', symObjAddr: 0xE62C, symBinAddr: 0x13DB0, symSize: 0x228 }
  - { offset: 0x40EC7, size: 0x8, addend: 0x0, symName: '__ZN5alloc11collections5btree3map25IntoIter$LT$K$C$V$C$A$GT$10dying_next17hbb758ad41af1b2ccE', symObjAddr: 0xE854, symBinAddr: 0x13FD8, symSize: 0x228 }
  - { offset: 0x412B8, size: 0x8, addend: 0x0, symName: '__ZN94_$LT$alloc..collections..btree..map..BTreeMap$LT$K$C$V$C$A$GT$$u20$as$u20$core..fmt..Debug$GT$3fmt17hf1261873e5fe9716E', symObjAddr: 0x18E14, symBinAddr: 0x1E420, symSize: 0xB8 }
  - { offset: 0x42814, size: 0x8, addend: 0x0, symName: '__ZN5alloc7raw_vec19RawVec$LT$T$C$A$GT$8grow_one17h00d421e5a6515456E', symObjAddr: 0x10BD8, symBinAddr: 0x162D4, symSize: 0xB4 }
  - { offset: 0x42936, size: 0x8, addend: 0x0, symName: '__ZN5alloc7raw_vec19RawVec$LT$T$C$A$GT$8grow_one17h0605120e3707f8bcE', symObjAddr: 0x10C8C, symBinAddr: 0x16388, symSize: 0xB4 }
  - { offset: 0x42A58, size: 0x8, addend: 0x0, symName: '__ZN5alloc7raw_vec19RawVec$LT$T$C$A$GT$8grow_one17h092b8f61c2e1adabE', symObjAddr: 0x10D40, symBinAddr: 0x1643C, symSize: 0xB4 }
  - { offset: 0x42B7A, size: 0x8, addend: 0x0, symName: '__ZN5alloc7raw_vec19RawVec$LT$T$C$A$GT$8grow_one17h410afea66ad7f984E', symObjAddr: 0x10DF4, symBinAddr: 0x164F0, symSize: 0xC4 }
  - { offset: 0x42C9C, size: 0x8, addend: 0x0, symName: '__ZN5alloc7raw_vec19RawVec$LT$T$C$A$GT$8grow_one17h690083bf72b153c3E', symObjAddr: 0x10EB8, symBinAddr: 0x165B4, symSize: 0xC4 }
  - { offset: 0x42DBE, size: 0x8, addend: 0x0, symName: '__ZN5alloc7raw_vec19RawVec$LT$T$C$A$GT$8grow_one17h7d8c382906727abdE', symObjAddr: 0x10F7C, symBinAddr: 0x16678, symSize: 0xC4 }
  - { offset: 0x42EE0, size: 0x8, addend: 0x0, symName: '__ZN5alloc7raw_vec19RawVec$LT$T$C$A$GT$8grow_one17h8bf20c1db76453b3E', symObjAddr: 0x11040, symBinAddr: 0x1673C, symSize: 0xC4 }
  - { offset: 0x43002, size: 0x8, addend: 0x0, symName: '__ZN5alloc7raw_vec19RawVec$LT$T$C$A$GT$8grow_one17h9d9df645db394ba5E', symObjAddr: 0x11104, symBinAddr: 0x16800, symSize: 0xC4 }
  - { offset: 0x43124, size: 0x8, addend: 0x0, symName: '__ZN5alloc7raw_vec19RawVec$LT$T$C$A$GT$8grow_one17ha0e6b73146821d34E', symObjAddr: 0x111C8, symBinAddr: 0x168C4, symSize: 0xB4 }
  - { offset: 0x43246, size: 0x8, addend: 0x0, symName: '__ZN5alloc7raw_vec19RawVec$LT$T$C$A$GT$8grow_one17hab3f5e9f3b216d21E', symObjAddr: 0x1127C, symBinAddr: 0x16978, symSize: 0xC0 }
  - { offset: 0x43368, size: 0x8, addend: 0x0, symName: '__ZN5alloc7raw_vec19RawVec$LT$T$C$A$GT$8grow_one17he1100fca64d9ed81E', symObjAddr: 0x1133C, symBinAddr: 0x16A38, symSize: 0xC0 }
  - { offset: 0x4348A, size: 0x8, addend: 0x0, symName: '__ZN5alloc7raw_vec19RawVec$LT$T$C$A$GT$8grow_one17hed22e3edd7f3dd42E', symObjAddr: 0x113FC, symBinAddr: 0x16AF8, symSize: 0xC0 }
  - { offset: 0x44161, size: 0x8, addend: 0x0, symName: '__ZN5alloc7raw_vec20RawVecInner$LT$A$GT$7reserve21do_reserve_and_handle17ha2a172fadd07a591E', symObjAddr: 0x114BC, symBinAddr: 0x8AEC0, symSize: 0xF0 }
  - { offset: 0x459D2, size: 0x8, addend: 0x0, symName: '__ZN65_$LT$alloc..vec..Vec$LT$T$C$A$GT$$u20$as$u20$core..fmt..Debug$GT$3fmt17h31dd5fa6b0ebb3a7E', symObjAddr: 0x1835C, symBinAddr: 0x1D968, symSize: 0x70 }
  - { offset: 0x45AD7, size: 0x8, addend: 0x0, symName: '__ZN65_$LT$alloc..vec..Vec$LT$T$C$A$GT$$u20$as$u20$core..fmt..Debug$GT$3fmt17hc2d0347cc4c890b5E', symObjAddr: 0x183CC, symBinAddr: 0x1D9D8, symSize: 0x74 }
  - { offset: 0x46240, size: 0x8, addend: 0x0, symName: __ZN5alloc5alloc15exchange_malloc17h3165a7d123b7a5abE, symObjAddr: 0x10AFC, symBinAddr: 0x16280, symSize: 0x54 }
  - { offset: 0x46312, size: 0x8, addend: 0x0, symName: '__ZN5alloc4sync16Arc$LT$T$C$A$GT$9drop_slow17h0896f1b317461857E', symObjAddr: 0x105D4, symBinAddr: 0x15D58, symSize: 0xA0 }
  - { offset: 0x4662E, size: 0x8, addend: 0x0, symName: '__ZN5alloc4sync16Arc$LT$T$C$A$GT$9drop_slow17h0c1f4a583177e1f8E', symObjAddr: 0x10674, symBinAddr: 0x15DF8, symSize: 0x130 }
  - { offset: 0x469EA, size: 0x8, addend: 0x0, symName: '__ZN5alloc4sync16Arc$LT$T$C$A$GT$9drop_slow17h376fbd044f7bd65bE', symObjAddr: 0x107A4, symBinAddr: 0x15F28, symSize: 0x98 }
  - { offset: 0x46B9A, size: 0x8, addend: 0x0, symName: '__ZN5alloc4sync16Arc$LT$T$C$A$GT$9drop_slow17h55809d49aaec2259E', symObjAddr: 0x1083C, symBinAddr: 0x15FC0, symSize: 0xC0 }
  - { offset: 0x46EE7, size: 0x8, addend: 0x0, symName: '__ZN5alloc4sync16Arc$LT$T$C$A$GT$9drop_slow17h5b155dcf1355aae8E', symObjAddr: 0x108FC, symBinAddr: 0x16080, symSize: 0x74 }
  - { offset: 0x470AF, size: 0x8, addend: 0x0, symName: '__ZN5alloc4sync16Arc$LT$T$C$A$GT$9drop_slow17ha4d77f87439b20c1E', symObjAddr: 0x10970, symBinAddr: 0x160F4, symSize: 0xD0 }
  - { offset: 0x472F5, size: 0x8, addend: 0x0, symName: '__ZN5alloc4sync16Arc$LT$T$C$A$GT$9drop_slow17hbe150753b2907f93E', symObjAddr: 0x10A40, symBinAddr: 0x161C4, symSize: 0x44 }
  - { offset: 0x473DB, size: 0x8, addend: 0x0, symName: '__ZN5alloc4sync16Arc$LT$T$C$A$GT$9drop_slow17hcd3cffc1aa0d67deE', symObjAddr: 0x10A84, symBinAddr: 0x16208, symSize: 0x78 }
  - { offset: 0x47BFD, size: 0x8, addend: 0x0, symName: '__ZN64_$LT$alloc..ffi..c_str..NulError$u20$as$u20$core..fmt..Debug$GT$3fmt17h81c58a0d6b970387E', symObjAddr: 0x18310, symBinAddr: 0x1D91C, symSize: 0x4C }
  - { offset: 0x48388, size: 0x8, addend: 0x0, symName: '__ZN58_$LT$alloc..string..String$u20$as$u20$core..fmt..Debug$GT$3fmt17h168e5b7449a92849E', symObjAddr: 0xCE7C, symBinAddr: 0x12600, symSize: 0x1C }
  - { offset: 0x4844B, size: 0x8, addend: 0x0, symName: '__ZN58_$LT$alloc..string..String$u20$as$u20$core..fmt..Write$GT$10write_char17h05ecec41f1a2343bE', symObjAddr: 0xCE98, symBinAddr: 0x1261C, symSize: 0x138 }
  - { offset: 0x48601, size: 0x8, addend: 0x0, symName: '__ZN58_$LT$alloc..string..String$u20$as$u20$core..fmt..Write$GT$9write_str17h11b280593fea37deE', symObjAddr: 0xCFD0, symBinAddr: 0x12754, symSize: 0x80 }
  - { offset: 0x4876C, size: 0x8, addend: 0x0, symName: '__ZN60_$LT$alloc..string..String$u20$as$u20$core..fmt..Display$GT$3fmt17hdd845a95ccb31f9eE', symObjAddr: 0x182F4, symBinAddr: 0x1D900, symSize: 0x1C }
  - { offset: 0x4888A, size: 0x8, addend: 0x0, symName: '__ZN66_$LT$alloc..borrow..Cow$LT$B$GT$$u20$as$u20$core..fmt..Display$GT$3fmt17h00743cabcb2e19c9E', symObjAddr: 0x18440, symBinAddr: 0x1DA4C, symSize: 0x1C }
  - { offset: 0x49682, size: 0x8, addend: 0x0, symName: '__ZN66_$LT$core..option..Option$LT$T$GT$$u20$as$u20$core..fmt..Debug$GT$3fmt17h205e43781ef26e74E', symObjAddr: 0x1845C, symBinAddr: 0x1DA68, symSize: 0x60 }
  - { offset: 0x4969D, size: 0x8, addend: 0x0, symName: '__ZN66_$LT$core..option..Option$LT$T$GT$$u20$as$u20$core..fmt..Debug$GT$3fmt17h72cf101449b33a25E', symObjAddr: 0x184BC, symBinAddr: 0x1DAC8, symSize: 0x5C }
  - { offset: 0x496B8, size: 0x8, addend: 0x0, symName: '__ZN66_$LT$core..option..Option$LT$T$GT$$u20$as$u20$core..fmt..Debug$GT$3fmt17h78e43b6120fc7121E', symObjAddr: 0x18518, symBinAddr: 0x1DB24, symSize: 0x64 }
  - { offset: 0x496D3, size: 0x8, addend: 0x0, symName: '__ZN66_$LT$core..option..Option$LT$T$GT$$u20$as$u20$core..fmt..Debug$GT$3fmt17h8153c7c11ebd6d1cE', symObjAddr: 0x1857C, symBinAddr: 0x1DB88, symSize: 0x5C }
  - { offset: 0x496EE, size: 0x8, addend: 0x0, symName: '__ZN66_$LT$core..option..Option$LT$T$GT$$u20$as$u20$core..fmt..Debug$GT$3fmt17h9b3b4c21dd5cb035E', symObjAddr: 0x185D8, symBinAddr: 0x1DBE4, symSize: 0x60 }
  - { offset: 0x49709, size: 0x8, addend: 0x0, symName: '__ZN66_$LT$core..option..Option$LT$T$GT$$u20$as$u20$core..fmt..Debug$GT$3fmt17hc613ae3bee912d02E', symObjAddr: 0x18638, symBinAddr: 0x1DC44, symSize: 0x60 }
  - { offset: 0x49724, size: 0x8, addend: 0x0, symName: '__ZN66_$LT$core..option..Option$LT$T$GT$$u20$as$u20$core..fmt..Debug$GT$3fmt17hcb1cb6476a48f690E', symObjAddr: 0x18698, symBinAddr: 0x1DCA4, symSize: 0x5C }
  - { offset: 0x4973F, size: 0x8, addend: 0x0, symName: '__ZN66_$LT$core..option..Option$LT$T$GT$$u20$as$u20$core..fmt..Debug$GT$3fmt17hdd25b0c41a09a54fE', symObjAddr: 0x186F4, symBinAddr: 0x1DD00, symSize: 0x60 }
  - { offset: 0x4975A, size: 0x8, addend: 0x0, symName: '__ZN66_$LT$core..option..Option$LT$T$GT$$u20$as$u20$core..fmt..Debug$GT$3fmt17hdeda895e40acda21E', symObjAddr: 0x18754, symBinAddr: 0x1DD60, symSize: 0x64 }
  - { offset: 0x4ABDD, size: 0x8, addend: 0x0, symName: '__ZN4core3ptr107drop_in_place$LT$alloc..vec..Vec$LT$$LP$std..ffi..os_str..OsString$C$std..ffi..os_str..OsString$RP$$GT$$GT$17h64e8baa8422f3942E', symObjAddr: 0x1E70, symBinAddr: 0x7890, symSize: 0x94 }
  - { offset: 0x4AE2B, size: 0x8, addend: 0x0, symName: '__ZN4core3ptr107drop_in_place$LT$core..pin..Pin$LT$alloc..boxed..Box$LT$std..sys..pal..unix..sync..mutex..Mutex$GT$$GT$$GT$17h20994a68f6528507E', symObjAddr: 0x1F04, symBinAddr: 0x7924, symSize: 0x2C }
  - { offset: 0x4AED6, size: 0x8, addend: 0x0, symName: '__ZN4core3ptr112drop_in_place$LT$$LP$std..ffi..os_str..OsString$C$core..option..Option$LT$std..ffi..os_str..OsString$GT$$RP$$GT$17hfd120d6f57514fc1E', symObjAddr: 0x1F30, symBinAddr: 0x7950, symSize: 0x58 }
  - { offset: 0x4B05D, size: 0x8, addend: 0x0, symName: '__ZN4core3ptr118drop_in_place$LT$$LT$std..backtrace..Backtrace$u20$as$u20$core..fmt..Display$GT$..fmt..$u7b$$u7b$closure$u7d$$u7d$$GT$17h78cf3dd225875c81E', symObjAddr: 0x1F88, symBinAddr: 0x79A8, symSize: 0x40 }
  - { offset: 0x4B145, size: 0x8, addend: 0x0, symName: '__ZN4core3ptr119drop_in_place$LT$std..io..default_write_fmt..Adapter$LT$std..io..cursor..Cursor$LT$$RF$mut$u20$$u5b$u8$u5d$$GT$$GT$$GT$17h5d32617a0b9f0df5E', symObjAddr: 0x1FC8, symBinAddr: 0x79E8, symSize: 0x20 }
  - { offset: 0x4B17E, size: 0x8, addend: 0x0, symName: '__ZN4core3ptr123drop_in_place$LT$addr2line..Context$LT$gimli..read..endian_slice..EndianSlice$LT$gimli..endianity..LittleEndian$GT$$GT$$GT$17h5d6249e3887f1f00E', symObjAddr: 0x1FE8, symBinAddr: 0x7A08, symSize: 0x70 }
  - { offset: 0x4B25A, size: 0x8, addend: 0x0, symName: '__ZN4core3ptr124drop_in_place$LT$alloc..collections..btree..map..BTreeMap$LT$std..ffi..os_str..OsString$C$std..ffi..os_str..OsString$GT$$GT$17hff854953d6a4a37fE', symObjAddr: 0x2058, symBinAddr: 0x7A78, symSize: 0xB8 }
  - { offset: 0x4B4A8, size: 0x8, addend: 0x0, symName: '__ZN4core3ptr124drop_in_place$LT$alloc..collections..btree..map..IntoIter$LT$std..ffi..os_str..OsString$C$std..ffi..os_str..OsString$GT$$GT$17h4fc4ab95432440f0E', symObjAddr: 0x2110, symBinAddr: 0x7B30, symSize: 0x90 }
  - { offset: 0x4B6C9, size: 0x8, addend: 0x0, symName: '__ZN4core3ptr128drop_in_place$LT$core..result..Result$LT$$RF$std..thread..Thread$C$$LP$$RF$std..thread..Thread$C$std..thread..Thread$RP$$GT$$GT$17hecc33b046f3192e4E', symObjAddr: 0x21A0, symBinAddr: 0x7BC0, symSize: 0x38 }
  - { offset: 0x4B87D, size: 0x8, addend: 0x0, symName: '__ZN4core3ptr129drop_in_place$LT$addr2line..unit..ResUnit$LT$gimli..read..endian_slice..EndianSlice$LT$gimli..endianity..LittleEndian$GT$$GT$$GT$17h4398976efc77572cE', symObjAddr: 0x21D8, symBinAddr: 0x7BF8, symSize: 0xE4 }
  - { offset: 0x4BAB9, size: 0x8, addend: 0x0, symName: '__ZN4core3ptr129drop_in_place$LT$addr2line..unit..SupUnit$LT$gimli..read..endian_slice..EndianSlice$LT$gimli..endianity..LittleEndian$GT$$GT$$GT$17h568593172e0b7eb5E', symObjAddr: 0x22BC, symBinAddr: 0x7CDC, symSize: 0x54 }
  - { offset: 0x4BB9C, size: 0x8, addend: 0x0, symName: '__ZN4core3ptr130drop_in_place$LT$addr2line..unit..ResUnits$LT$gimli..read..endian_slice..EndianSlice$LT$gimli..endianity..LittleEndian$GT$$GT$$GT$17h08a5eec565358571E', symObjAddr: 0x2310, symBinAddr: 0x7D30, symSize: 0xD0 }
  - { offset: 0x4BD56, size: 0x8, addend: 0x0, symName: '__ZN4core3ptr130drop_in_place$LT$addr2line..unit..SupUnits$LT$gimli..read..endian_slice..EndianSlice$LT$gimli..endianity..LittleEndian$GT$$GT$$GT$17h24a981952c6de896E', symObjAddr: 0x23E0, symBinAddr: 0x7E00, symSize: 0xE4 }
  - { offset: 0x4BF29, size: 0x8, addend: 0x0, symName: '__ZN4core3ptr130drop_in_place$LT$gimli..read..dwarf..Dwarf$LT$gimli..read..endian_slice..EndianSlice$LT$gimli..endianity..LittleEndian$GT$$GT$$GT$17h8492b8613aa70f2eE', symObjAddr: 0x24C4, symBinAddr: 0x7EE4, symSize: 0x58 }
  - { offset: 0x4BFFD, size: 0x8, addend: 0x0, symName: '__ZN4core3ptr131drop_in_place$LT$$u5b$core..option..Option$LT$core..option..Option$LT$std..backtrace_rs..symbolize..gimli..Mapping$GT$$GT$$u5d$$GT$17h04ddf1832575b55fE', symObjAddr: 0x251C, symBinAddr: 0x7F3C, symSize: 0xCC }
  - { offset: 0x4C0AF, size: 0x8, addend: 0x0, symName: '__ZN4core3ptr131drop_in_place$LT$alloc..boxed..Box$LT$dyn$u20$core..ops..function..FnOnce$LT$$LP$$RP$$GT$$u2b$Output$u20$$u3d$$u20$$LP$$RP$$GT$$GT$17h71ffb2d17c3e8e96E', symObjAddr: 0x25E8, symBinAddr: 0x8008, symSize: 0x78 }
  - { offset: 0x4C1B2, size: 0x8, addend: 0x0, symName: '__ZN4core3ptr135drop_in_place$LT$std..sync..poison..PoisonError$LT$std..sync..poison..mutex..MutexGuard$LT$std..sync..barrier..BarrierState$GT$$GT$$GT$17he1b7b0b43d0910bbE', symObjAddr: 0x2660, symBinAddr: 0x8080, symSize: 0x4C }
  - { offset: 0x4C2FE, size: 0x8, addend: 0x0, symName: '__ZN4core3ptr137drop_in_place$LT$gimli..read..dwarf..Unit$LT$gimli..read..endian_slice..EndianSlice$LT$gimli..endianity..LittleEndian$GT$$C$usize$GT$$GT$17hb3d1f44782438904E', symObjAddr: 0x26AC, symBinAddr: 0x80CC, symSize: 0x54 }
  - { offset: 0x4C402, size: 0x8, addend: 0x0, symName: '__ZN4core3ptr138drop_in_place$LT$addr2line..function..LazyFunction$LT$gimli..read..endian_slice..EndianSlice$LT$gimli..endianity..LittleEndian$GT$$GT$$GT$17hbb0fe25e9f56641dE', symObjAddr: 0x2700, symBinAddr: 0x8120, symSize: 0x64 }
  - { offset: 0x4C41A, size: 0x8, addend: 0x0, symName: '__ZN4core3ptr138drop_in_place$LT$addr2line..function..LazyFunction$LT$gimli..read..endian_slice..EndianSlice$LT$gimli..endianity..LittleEndian$GT$$GT$$GT$17hbb0fe25e9f56641dE', symObjAddr: 0x2700, symBinAddr: 0x8120, symSize: 0x64 }
  - { offset: 0x4C430, size: 0x8, addend: 0x0, symName: '__ZN4core3ptr138drop_in_place$LT$addr2line..function..LazyFunction$LT$gimli..read..endian_slice..EndianSlice$LT$gimli..endianity..LittleEndian$GT$$GT$$GT$17hbb0fe25e9f56641dE', symObjAddr: 0x2700, symBinAddr: 0x8120, symSize: 0x64 }
  - { offset: 0x4C446, size: 0x8, addend: 0x0, symName: '__ZN4core3ptr138drop_in_place$LT$addr2line..function..LazyFunction$LT$gimli..read..endian_slice..EndianSlice$LT$gimli..endianity..LittleEndian$GT$$GT$$GT$17hbb0fe25e9f56641dE', symObjAddr: 0x2700, symBinAddr: 0x8120, symSize: 0x64 }
  - { offset: 0x4C596, size: 0x8, addend: 0x0, symName: '__ZN4core3ptr144drop_in_place$LT$alloc..vec..Vec$LT$core..option..Option$LT$core..option..Option$LT$std..backtrace_rs..symbolize..gimli..Mapping$GT$$GT$$GT$$GT$17hdbfcb28a5fd31aa0E', symObjAddr: 0x2764, symBinAddr: 0x8184, symSize: 0x78 }
  - { offset: 0x4C729, size: 0x8, addend: 0x0, symName: '__ZN4core3ptr152drop_in_place$LT$alloc..collections..btree..map..BTreeMap$LT$std..ffi..os_str..OsString$C$core..option..Option$LT$std..ffi..os_str..OsString$GT$$GT$$GT$17h9afffd4dcffe35b8E', symObjAddr: 0x27DC, symBinAddr: 0x81FC, symSize: 0xCC }
  - { offset: 0x4C99F, size: 0x8, addend: 0x0, symName: '__ZN4core3ptr152drop_in_place$LT$alloc..vec..Vec$LT$addr2line..unit..ResUnit$LT$gimli..read..endian_slice..EndianSlice$LT$gimli..endianity..LittleEndian$GT$$GT$$GT$$GT$17hc2c8307dfcb233e4E', symObjAddr: 0x28A8, symBinAddr: 0x82C8, symSize: 0xC4 }
  - { offset: 0x4CB1D, size: 0x8, addend: 0x0, symName: '__ZN4core3ptr152drop_in_place$LT$alloc..vec..Vec$LT$addr2line..unit..SupUnit$LT$gimli..read..endian_slice..EndianSlice$LT$gimli..endianity..LittleEndian$GT$$GT$$GT$$GT$17ha8c5f89701d213f5E', symObjAddr: 0x296C, symBinAddr: 0x838C, symSize: 0xF4 }
  - { offset: 0x4CD4E, size: 0x8, addend: 0x0, symName: '__ZN4core3ptr156drop_in_place$LT$alloc..boxed..Box$LT$$u5b$core..option..Option$LT$core..option..Option$LT$std..backtrace_rs..symbolize..gimli..Mapping$GT$$GT$$u5d$$GT$$GT$17h7d8f710be0d04c12E', symObjAddr: 0x2A60, symBinAddr: 0x8480, symSize: 0xF8 }
  - { offset: 0x4CE84, size: 0x8, addend: 0x0, symName: '__ZN4core3ptr159drop_in_place$LT$alloc..sync..ArcInner$LT$gimli..read..dwarf..Dwarf$LT$gimli..read..endian_slice..EndianSlice$LT$gimli..endianity..LittleEndian$GT$$GT$$GT$$GT$17he0cf8cbc58aad126E', symObjAddr: 0x2B58, symBinAddr: 0x8578, symSize: 0x58 }
  - { offset: 0x4CF68, size: 0x8, addend: 0x0, symName: '__ZN4core3ptr161drop_in_place$LT$alloc..vec..Vec$LT$addr2line..function..LazyFunction$LT$gimli..read..endian_slice..EndianSlice$LT$gimli..endianity..LittleEndian$GT$$GT$$GT$$GT$17hef5aefb38d8b7f6fE', symObjAddr: 0x2BB0, symBinAddr: 0x85D0, symSize: 0xAC }
  - { offset: 0x4D1C0, size: 0x8, addend: 0x0, symName: '__ZN4core3ptr164drop_in_place$LT$$u5b$alloc..boxed..Box$LT$dyn$u20$core..ops..function..FnOnce$LT$$LP$$RP$$GT$$u2b$Output$u20$$u3d$$u20$$LP$$RP$$u2b$core..marker..Send$GT$$u5d$$GT$17he9f3f4e1c573183eE', symObjAddr: 0x2C5C, symBinAddr: 0x867C, symSize: 0xAC }
  - { offset: 0x4D2D9, size: 0x8, addend: 0x0, symName: '__ZN4core3ptr172drop_in_place$LT$core..result..Result$LT$addr2line..Context$LT$gimli..read..endian_slice..EndianSlice$LT$gimli..endianity..LittleEndian$GT$$GT$$C$gimli..read..Error$GT$$GT$17hd967222a33a1cd09E', symObjAddr: 0x2D08, symBinAddr: 0x8728, symSize: 0x80 }
  - { offset: 0x4D374, size: 0x8, addend: 0x0, symName: '__ZN4core3ptr173drop_in_place$LT$alloc..boxed..Box$LT$$u5b$addr2line..function..LazyFunction$LT$gimli..read..endian_slice..EndianSlice$LT$gimli..endianity..LittleEndian$GT$$GT$$u5d$$GT$$GT$17h2b70a76b623d78d0E', symObjAddr: 0x2D88, symBinAddr: 0x87A8, symSize: 0x9C }
  - { offset: 0x4D38C, size: 0x8, addend: 0x0, symName: '__ZN4core3ptr173drop_in_place$LT$alloc..boxed..Box$LT$$u5b$addr2line..function..LazyFunction$LT$gimli..read..endian_slice..EndianSlice$LT$gimli..endianity..LittleEndian$GT$$GT$$u5d$$GT$$GT$17h2b70a76b623d78d0E', symObjAddr: 0x2D88, symBinAddr: 0x87A8, symSize: 0x9C }
  - { offset: 0x4D586, size: 0x8, addend: 0x0, symName: '__ZN4core3ptr177drop_in_place$LT$alloc..vec..Vec$LT$alloc..boxed..Box$LT$dyn$u20$core..ops..function..FnOnce$LT$$LP$$RP$$GT$$u2b$Output$u20$$u3d$$u20$$LP$$RP$$u2b$core..marker..Send$GT$$GT$$GT$17h75767e227bc5a2ffE', symObjAddr: 0x2E24, symBinAddr: 0x8844, symSize: 0x70 }
  - { offset: 0x4D766, size: 0x8, addend: 0x0, symName: '__ZN4core3ptr181drop_in_place$LT$core..option..Option$LT$gimli..read..line..IncompleteLineProgram$LT$gimli..read..endian_slice..EndianSlice$LT$gimli..endianity..LittleEndian$GT$$C$usize$GT$$GT$$GT$17h8a7cd046a16c830eE', symObjAddr: 0x2E94, symBinAddr: 0x88B4, symSize: 0x98 }
  - { offset: 0x4DA43, size: 0x8, addend: 0x0, symName: '__ZN4core3ptr181drop_in_place$LT$core..result..Result$LT$addr2line..frame..FrameIter$LT$gimli..read..endian_slice..EndianSlice$LT$gimli..endianity..LittleEndian$GT$$GT$$C$gimli..read..Error$GT$$GT$17h1687d3823323d31bE', symObjAddr: 0x2F2C, symBinAddr: 0x894C, symSize: 0x44 }
  - { offset: 0x4DB90, size: 0x8, addend: 0x0, symName: '__ZN4core3ptr184drop_in_place$LT$core..result..Result$LT$addr2line..function..Functions$LT$gimli..read..endian_slice..EndianSlice$LT$gimli..endianity..LittleEndian$GT$$GT$$C$gimli..read..Error$GT$$GT$17h9d023a7dbfa8cb04E', symObjAddr: 0x2F70, symBinAddr: 0x8990, symSize: 0xD8 }
  - { offset: 0x4E728, size: 0x8, addend: 0x0, symName: '__ZN4core3ptr193drop_in_place$LT$alloc..vec..into_iter..IntoIter$LT$alloc..boxed..Box$LT$dyn$u20$core..ops..function..FnOnce$LT$$LP$$RP$$GT$$u2b$Output$u20$$u3d$$u20$$LP$$RP$$u2b$core..marker..Send$GT$$GT$$GT$17h24aa2868351e9cb0E', symObjAddr: 0x3048, symBinAddr: 0x8A68, symSize: 0x74 }
  - { offset: 0x4E95E, size: 0x8, addend: 0x0, symName: '__ZN4core3ptr199drop_in_place$LT$core..result..Result$LT$core..option..Option$LT$alloc..sync..Arc$LT$std..sync..poison..mutex..Mutex$LT$alloc..vec..Vec$LT$u8$GT$$GT$$GT$$GT$$C$std..thread..local..AccessError$GT$$GT$17hf664106f116af561E', symObjAddr: 0x30BC, symBinAddr: 0x8ADC, symSize: 0x3C }
  - { offset: 0x4EA2B, size: 0x8, addend: 0x0, symName: '__ZN4core3ptr231drop_in_place$LT$core..result..Result$LT$core..option..Option$LT$alloc..boxed..Box$LT$addr2line..unit..DwoUnit$LT$gimli..read..endian_slice..EndianSlice$LT$gimli..endianity..LittleEndian$GT$$GT$$GT$$GT$$C$gimli..read..Error$GT$$GT$17hd9ff79ffa0d8b775E', symObjAddr: 0x30F8, symBinAddr: 0x8B18, symSize: 0xD4 }
  - { offset: 0x4EC2B, size: 0x8, addend: 0x0, symName: '__ZN4core3ptr238drop_in_place$LT$alloc..boxed..convert..$LT$impl$u20$core..convert..From$LT$alloc..string..String$GT$$u20$for$u20$alloc..boxed..Box$LT$dyn$u20$core..error..Error$u2b$core..marker..Sync$u2b$core..marker..Send$GT$$GT$..from..StringError$GT$17h706889aba61b7038E', symObjAddr: 0x31CC, symBinAddr: 0x8BEC, symSize: 0x28 }
  - { offset: 0x4ECDE, size: 0x8, addend: 0x0, symName: '__ZN4core3ptr275drop_in_place$LT$gimli..read..line..LineRows$LT$gimli..read..endian_slice..EndianSlice$LT$gimli..endianity..LittleEndian$GT$$C$gimli..read..line..IncompleteLineProgram$LT$gimli..read..endian_slice..EndianSlice$LT$gimli..endianity..LittleEndian$GT$$C$usize$GT$$C$usize$GT$$GT$17hbbdba8adf24a1425E', symObjAddr: 0x31F4, symBinAddr: 0x8C14, symSize: 0x8C }
  - { offset: 0x4EF75, size: 0x8, addend: 0x0, symName: '__ZN4core3ptr280drop_in_place$LT$$LT$alloc..collections..btree..map..IntoIter$LT$K$C$V$C$A$GT$$u20$as$u20$core..ops..drop..Drop$GT$..drop..DropGuard$LT$u64$C$core..result..Result$LT$alloc..sync..Arc$LT$gimli..read..abbrev..Abbreviations$GT$$C$gimli..read..Error$GT$$C$alloc..alloc..Global$GT$$GT$17h2d85f029d49ae982E', symObjAddr: 0x3280, symBinAddr: 0x8CA0, symSize: 0x84 }
  - { offset: 0x4F128, size: 0x8, addend: 0x0, symName: '__ZN4core3ptr37drop_in_place$LT$std..env..VarsOs$GT$17he7a550511d7da6f0E', symObjAddr: 0x3304, symBinAddr: 0x8D24, symSize: 0xAC }
  - { offset: 0x4F423, size: 0x8, addend: 0x0, symName: '__ZN4core3ptr39drop_in_place$LT$std..path..PathBuf$GT$17habee77a25af5d622E', symObjAddr: 0x33B0, symBinAddr: 0x8DD0, symSize: 0x28 }
  - { offset: 0x4F55B, size: 0x8, addend: 0x0, symName: '__ZN4core3ptr40drop_in_place$LT$std..process..Child$GT$17h537eaea5a4f748bbE', symObjAddr: 0x33D8, symBinAddr: 0x8DF8, symSize: 0x54 }
  - { offset: 0x4F70B, size: 0x8, addend: 0x0, symName: '__ZN4core3ptr40drop_in_place$LT$std..thread..Thread$GT$17h5ce5de972617d5e0E', symObjAddr: 0x342C, symBinAddr: 0x8E4C, symSize: 0x30 }
  - { offset: 0x4F7E2, size: 0x8, addend: 0x0, symName: '__ZN4core3ptr41drop_in_place$LT$std..panicking..Hook$GT$17hfcfe3c4a72d69166E', symObjAddr: 0x345C, symBinAddr: 0x8E7C, symSize: 0x7C }
  - { offset: 0x4F8E6, size: 0x8, addend: 0x0, symName: '__ZN4core3ptr42drop_in_place$LT$alloc..string..String$GT$17h3c0b0217debf75ffE', symObjAddr: 0x34D8, symBinAddr: 0x8EF8, symSize: 0x28 }
  - { offset: 0x4F9C8, size: 0x8, addend: 0x0, symName: '__ZN4core3ptr42drop_in_place$LT$std..io..error..Error$GT$17h8313d216f71df1a1E', symObjAddr: 0x3500, symBinAddr: 0x8F20, symSize: 0xAC }
  - { offset: 0x4FC09, size: 0x8, addend: 0x0, symName: '__ZN4core3ptr44drop_in_place$LT$object..read..ObjectMap$GT$17he8d52ca62364ba83E', symObjAddr: 0x35AC, symBinAddr: 0x8FCC, symSize: 0x58 }
  - { offset: 0x4FD73, size: 0x8, addend: 0x0, symName: '__ZN4core3ptr44drop_in_place$LT$std..backtrace..Capture$GT$17hc9b863e961be8311E', symObjAddr: 0x3604, symBinAddr: 0x9024, symSize: 0x6C }
  - { offset: 0x4FE72, size: 0x8, addend: 0x0, symName: '__ZN4core3ptr46drop_in_place$LT$alloc..vec..Vec$LT$u8$GT$$GT$17h93e76c1d680537ccE', symObjAddr: 0x3670, symBinAddr: 0x9090, symSize: 0x28 }
  - { offset: 0x4FF05, size: 0x8, addend: 0x0, symName: '__ZN4core3ptr46drop_in_place$LT$std..io..stdio..StdinLock$GT$17h8b4db6df02430120E', symObjAddr: 0x3698, symBinAddr: 0x90B8, symSize: 0x54 }
  - { offset: 0x4FF1D, size: 0x8, addend: 0x0, symName: '__ZN4core3ptr46drop_in_place$LT$std..io..stdio..StdinLock$GT$17h8b4db6df02430120E', symObjAddr: 0x3698, symBinAddr: 0x90B8, symSize: 0x54 }
  - { offset: 0x4FF33, size: 0x8, addend: 0x0, symName: '__ZN4core3ptr46drop_in_place$LT$std..io..stdio..StdinLock$GT$17h8b4db6df02430120E', symObjAddr: 0x3698, symBinAddr: 0x90B8, symSize: 0x54 }
  - { offset: 0x50030, size: 0x8, addend: 0x0, symName: '__ZN4core3ptr47drop_in_place$LT$alloc..ffi..c_str..CString$GT$17h0e3f3fae0a14186eE', symObjAddr: 0x36EC, symBinAddr: 0x910C, symSize: 0x30 }
  - { offset: 0x500B6, size: 0x8, addend: 0x0, symName: '__ZN4core3ptr47drop_in_place$LT$std..ffi..os_str..OsString$GT$17h74594f9b17376924E', symObjAddr: 0x371C, symBinAddr: 0x913C, symSize: 0x28 }
  - { offset: 0x50159, size: 0x8, addend: 0x0, symName: '__ZN4core3ptr47drop_in_place$LT$std..sys..env..common..Env$GT$17hddd643b9a331b9baE', symObjAddr: 0x3744, symBinAddr: 0x9164, symSize: 0xAC }
  - { offset: 0x5043D, size: 0x8, addend: 0x0, symName: '__ZN4core3ptr48drop_in_place$LT$alloc..ffi..c_str..NulError$GT$17h8785405b91c92b62E', symObjAddr: 0x37F0, symBinAddr: 0x9210, symSize: 0x28 }
  - { offset: 0x50511, size: 0x8, addend: 0x0, symName: '__ZN4core3ptr49drop_in_place$LT$std..sys..args..common..Args$GT$17hd110784b0b51270dE', symObjAddr: 0x3818, symBinAddr: 0x9238, symSize: 0x98 }
  - { offset: 0x50748, size: 0x8, addend: 0x0, symName: '__ZN4core3ptr49drop_in_place$LT$std..sys..fd..unix..FileDesc$GT$17h028fb39cfaafe3ddE', symObjAddr: 0x38B0, symBinAddr: 0x92D0, symSize: 0x14 }
  - { offset: 0x50808, size: 0x8, addend: 0x0, symName: '__ZN4core3ptr51drop_in_place$LT$std..backtrace..BacktraceFrame$GT$17h1f10f9e8ef20c364E', symObjAddr: 0x38C4, symBinAddr: 0x92E4, symSize: 0xE4 }
  - { offset: 0x50AE2, size: 0x8, addend: 0x0, symName: '__ZN4core3ptr52drop_in_place$LT$std..backtrace..BacktraceSymbol$GT$17h570bebf63e4e2391E', symObjAddr: 0x39A8, symBinAddr: 0x93C8, symSize: 0x90 }
  - { offset: 0x50D64, size: 0x8, addend: 0x0, symName: '__ZN4core3ptr55drop_in_place$LT$gimli..read..abbrev..Abbreviations$GT$17h4ebbab7b1bdfe94fE', symObjAddr: 0x3A38, symBinAddr: 0x9458, symSize: 0x118 }
  - { offset: 0x510FA, size: 0x8, addend: 0x0, symName: '__ZN4core3ptr55drop_in_place$LT$std..sys..process..env..CommandEnv$GT$17hb808b868ddbf5085E', symObjAddr: 0x3B50, symBinAddr: 0x9570, symSize: 0x10 }
  - { offset: 0x51131, size: 0x8, addend: 0x0, symName: '__ZN4core3ptr55drop_in_place$LT$std..thread..spawnhook..SpawnHooks$GT$17hff89c8f6595a4e32E', symObjAddr: 0x3B60, symBinAddr: 0x9580, symSize: 0x80 }
  - { offset: 0x5127E, size: 0x8, addend: 0x0, symName: '__ZN4core3ptr60drop_in_place$LT$gimli..read..abbrev..AbbreviationsCache$GT$17h4546ad47a44684d3E', symObjAddr: 0x3BE0, symBinAddr: 0x9600, symSize: 0xCC }
  - { offset: 0x51454, size: 0x8, addend: 0x0, symName: '__ZN4core3ptr64drop_in_place$LT$std..sys..pal..unix..sync..mutex..AttrGuard$GT$17h59b30a2f123be6d4E', symObjAddr: 0x3CAC, symBinAddr: 0x96CC, symSize: 0x48 }
  - { offset: 0x51485, size: 0x8, addend: 0x0, symName: '__ZN4core3ptr64drop_in_place$LT$std..sys..process..unix..common..ChildPipes$GT$17h8aa96d85f7352874E', symObjAddr: 0x3CF4, symBinAddr: 0x9714, symSize: 0x78 }
  - { offset: 0x515A1, size: 0x8, addend: 0x0, symName: '__ZN4core3ptr64drop_in_place$LT$std..sys..process..unix..common..StdioPipes$GT$17he340a0e47db84b75E', symObjAddr: 0x3D6C, symBinAddr: 0x978C, symSize: 0x54 }
  - { offset: 0x5176E, size: 0x8, addend: 0x0, symName: '__ZN4core3ptr65drop_in_place$LT$std..backtrace_rs..symbolize..gimli..Context$GT$17hd1b406e126240668E', symObjAddr: 0x3E40, symBinAddr: 0x97E0, symSize: 0xE8 }
  - { offset: 0x51A24, size: 0x8, addend: 0x0, symName: '__ZN4core3ptr66drop_in_place$LT$std..backtrace_rs..backtrace..libunwind..Bomb$GT$17h85cd6b9347e52b61E', symObjAddr: 0x3F28, symBinAddr: 0x98C8, symSize: 0x40 }
  - { offset: 0x51AB8, size: 0x8, addend: 0x0, symName: '__ZN4core3ptr66drop_in_place$LT$std..sys..process..unix..common..CStringArray$GT$17h44a2d232656f9c26E', symObjAddr: 0x3F68, symBinAddr: 0x9908, symSize: 0x94 }
  - { offset: 0x51CAF, size: 0x8, addend: 0x0, symName: '__ZN4core3ptr70drop_in_place$LT$alloc..vec..Vec$LT$alloc..ffi..c_str..CString$GT$$GT$17hf23f6c6201130083E', symObjAddr: 0x3FFC, symBinAddr: 0x999C, symSize: 0x7C }
  - { offset: 0x51E71, size: 0x8, addend: 0x0, symName: '__ZN4core3ptr70drop_in_place$LT$std..backtrace_rs..symbolize..gimli..stash..Stash$GT$17hb267215047390fb3E', symObjAddr: 0x40F8, symBinAddr: 0x9A18, symSize: 0xB8 }
  - { offset: 0x52135, size: 0x8, addend: 0x0, symName: '__ZN4core3ptr71drop_in_place$LT$std..backtrace_rs..symbolize..gimli..macho..Object$GT$17ha257086a896270dfE', symObjAddr: 0x41B0, symBinAddr: 0x9AD0, symSize: 0xD8 }
  - { offset: 0x5242E, size: 0x8, addend: 0x0, symName: '__ZN4core3ptr71drop_in_place$LT$std..panicking..rust_panic_without_hook..RewrapBox$GT$17hc716f8b080691d4dE', symObjAddr: 0x4288, symBinAddr: 0x9BA8, symSize: 0x6C }
  - { offset: 0x52532, size: 0x8, addend: 0x0, symName: '__ZN4core3ptr72drop_in_place$LT$core..option..Option$LT$object..read..ObjectMap$GT$$GT$17haab1ff928e89fe35E', symObjAddr: 0x42F4, symBinAddr: 0x9C14, symSize: 0x64 }
  - { offset: 0x526C1, size: 0x8, addend: 0x0, symName: '__ZN4core3ptr73drop_in_place$LT$alloc..vec..Vec$LT$addr2line..line..LineSequence$GT$$GT$17h92ecd6c54bd6dc13E', symObjAddr: 0x4358, symBinAddr: 0x9C78, symSize: 0x84 }
  - { offset: 0x52829, size: 0x8, addend: 0x0, symName: '__ZN4core3ptr73drop_in_place$LT$core..option..Option$LT$std..process..ChildStdin$GT$$GT$17h499fed1fdf363478E', symObjAddr: 0x43DC, symBinAddr: 0x9CFC, symSize: 0x24 }
  - { offset: 0x528B0, size: 0x8, addend: 0x0, symName: '__ZN4core3ptr75drop_in_place$LT$core..option..Option$LT$alloc..ffi..c_str..CString$GT$$GT$17h73f0d72753ce5026E', symObjAddr: 0x4400, symBinAddr: 0x9D20, symSize: 0x34 }
  - { offset: 0x5294D, size: 0x8, addend: 0x0, symName: '__ZN4core3ptr77drop_in_place$LT$alloc..boxed..Box$LT$$u5b$alloc..string..String$u5d$$GT$$GT$17hd47570f41dbe2359E', symObjAddr: 0x4434, symBinAddr: 0x9D54, symSize: 0x70 }
  - { offset: 0x52965, size: 0x8, addend: 0x0, symName: '__ZN4core3ptr77drop_in_place$LT$alloc..boxed..Box$LT$$u5b$alloc..string..String$u5d$$GT$$GT$17hd47570f41dbe2359E', symObjAddr: 0x4434, symBinAddr: 0x9D54, symSize: 0x70 }
  - { offset: 0x52A7D, size: 0x8, addend: 0x0, symName: '__ZN4core3ptr77drop_in_place$LT$std..panicking..begin_panic_handler..FormatStringPayload$GT$17hc32c2cb4b62beb43E', symObjAddr: 0x44A4, symBinAddr: 0x9DC4, symSize: 0x34 }
  - { offset: 0x52B41, size: 0x8, addend: 0x0, symName: '__ZN4core3ptr78drop_in_place$LT$core..result..Result$LT$usize$C$std..io..error..Error$GT$$GT$17h7d7449adf3aa95edE', symObjAddr: 0x44D8, symBinAddr: 0x9DF8, symSize: 0x24 }
  - { offset: 0x52B55, size: 0x8, addend: 0x0, symName: '__ZN4core3ptr79drop_in_place$LT$std..sync..poison..rwlock..RwLockReadGuard$LT$$LP$$RP$$GT$$GT$17h93fe530bd663e155E', symObjAddr: 0x44FC, symBinAddr: 0x9E1C, symSize: 0x68 }
  - { offset: 0x52BF7, size: 0x8, addend: 0x0, symName: '__ZN4core3ptr81drop_in_place$LT$core..result..Result$LT$$LP$$RP$$C$std..io..error..Error$GT$$GT$17h07d9c924cee2a3f9E', symObjAddr: 0x4564, symBinAddr: 0x9E84, symSize: 0x20 }
  - { offset: 0x52C27, size: 0x8, addend: 0x0, symName: '__ZN4core3ptr82drop_in_place$LT$alloc..sync..ArcInner$LT$std..sys..fs..unix..InnerReadDir$GT$$GT$17h06cc244ec36bba89E', symObjAddr: 0x4584, symBinAddr: 0x9EA4, symSize: 0x60 }
  - { offset: 0x52DE0, size: 0x8, addend: 0x0, symName: '__ZN4core3ptr84drop_in_place$LT$$LP$std..ffi..os_str..OsString$C$std..ffi..os_str..OsString$RP$$GT$17h59247978aabc5ab1E', symObjAddr: 0x45E4, symBinAddr: 0x9F04, symSize: 0x4C }
  - { offset: 0x52F4D, size: 0x8, addend: 0x0, symName: '__ZN4core3ptr87drop_in_place$LT$core..option..Option$LT$alloc..boxed..Box$LT$$u5b$u32$u5d$$GT$$GT$$GT$17h4e4d9e8ab1dfc2c6E', symObjAddr: 0x4630, symBinAddr: 0x9F50, symSize: 0x34 }
  - { offset: 0x52FF7, size: 0x8, addend: 0x0, symName: '__ZN4core3ptr87drop_in_place$LT$core..option..Option$LT$std..sys..process..unix..common..Stdio$GT$$GT$17hf46ae64a1ebb37d2E', symObjAddr: 0x4664, symBinAddr: 0x9F84, symSize: 0x28 }
  - { offset: 0x53083, size: 0x8, addend: 0x0, symName: '__ZN4core3ptr90drop_in_place$LT$std..io..buffered..bufwriter..BufWriter$LT$W$GT$..flush_buf..BufGuard$GT$17h4f714f20ba77656dE', symObjAddr: 0x468C, symBinAddr: 0x9FAC, symSize: 0x60 }
  - { offset: 0x531FF, size: 0x8, addend: 0x0, symName: '__ZN4core3ptr91drop_in_place$LT$core..result..Result$LT$alloc..string..String$C$std..env..VarError$GT$$GT$17h7445565e0a4612bdE', symObjAddr: 0x46EC, symBinAddr: 0xA00C, symSize: 0x3C }
  - { offset: 0x532B3, size: 0x8, addend: 0x0, symName: '__ZN4core3ptr91drop_in_place$LT$core..result..Result$LT$std..path..PathBuf$C$std..io..error..Error$GT$$GT$17hf1151dabc5d4fe1fE', symObjAddr: 0x4728, symBinAddr: 0xA048, symSize: 0x40 }
  - { offset: 0x533AE, size: 0x8, addend: 0x0, symName: '__ZN4core3ptr92drop_in_place$LT$core..result..Result$LT$addr2line..line..Lines$C$gimli..read..Error$GT$$GT$17hea7f3b4baa346e4aE', symObjAddr: 0x4768, symBinAddr: 0xA088, symSize: 0xE4 }
  - { offset: 0x53611, size: 0x8, addend: 0x0, symName: '__ZN4core3ptr93drop_in_place$LT$core..option..Option$LT$std..backtrace_rs..symbolize..gimli..Mapping$GT$$GT$17h14f83cf21b66e9cbE', symObjAddr: 0x484C, symBinAddr: 0xA16C, symSize: 0x6C }
  - { offset: 0x536A5, size: 0x8, addend: 0x0, symName: '__ZN4core3ptr94drop_in_place$LT$core..option..Option$LT$std..sys..process..unix..common..CStringArray$GT$$GT$17h422d8a1d334eacc6E', symObjAddr: 0x48B8, symBinAddr: 0xA1D8, symSize: 0xAC }
  - { offset: 0x538CF, size: 0x8, addend: 0x0, symName: '__ZN4core3ptr95drop_in_place$LT$std..io..buffered..linewriter..LineWriter$LT$std..io..stdio..StdoutRaw$GT$$GT$17h1dff5d00d625bc3fE', symObjAddr: 0x4964, symBinAddr: 0xA284, symSize: 0xF8 }
  - { offset: 0x56FBE, size: 0x8, addend: 0x0, symName: __ZN4core5slice4sort6shared5pivot11median3_rec17h68f8649a72e363e0E, symObjAddr: 0x4D34, symBinAddr: 0xA534, symSize: 0xD0 }
  - { offset: 0x570C2, size: 0x8, addend: 0x0, symName: __ZN4core5slice4sort6shared5pivot11median3_rec17h7635be389c665d77E, symObjAddr: 0x4E04, symBinAddr: 0xA604, symSize: 0xCC }
  - { offset: 0x571C4, size: 0x8, addend: 0x0, symName: __ZN4core5slice4sort6shared5pivot11median3_rec17h7ad1a2e6c8a036b3E, symObjAddr: 0x4ED0, symBinAddr: 0xA6D0, symSize: 0xCC }
  - { offset: 0x572F4, size: 0x8, addend: 0x0, symName: __ZN4core5slice4sort6shared5pivot11median3_rec17h9fcd7f3f04d61799E, symObjAddr: 0x4F9C, symBinAddr: 0xA79C, symSize: 0xD0 }
  - { offset: 0x573F6, size: 0x8, addend: 0x0, symName: __ZN4core5slice4sort6shared5pivot11median3_rec17hbf8ee2fbdd87ddc3E, symObjAddr: 0x506C, symBinAddr: 0xA86C, symSize: 0xCC }
  - { offset: 0x574F8, size: 0x8, addend: 0x0, symName: __ZN4core5slice4sort6shared5pivot11median3_rec17hd57b39f3cde0529aE, symObjAddr: 0x5138, symBinAddr: 0xA938, symSize: 0x134 }
  - { offset: 0x57736, size: 0x8, addend: 0x0, symName: __ZN4core5slice4sort6shared5pivot11median3_rec17hee8e86c7973db20eE, symObjAddr: 0x526C, symBinAddr: 0xAA6C, symSize: 0xD0 }
  - { offset: 0x57838, size: 0x8, addend: 0x0, symName: __ZN4core5slice4sort6shared5pivot11median3_rec17hf8199962151a5eadE, symObjAddr: 0x533C, symBinAddr: 0xAB3C, symSize: 0x11C }
  - { offset: 0x5799F, size: 0x8, addend: 0x0, symName: __ZN4core5slice4sort6shared9smallsort12sort4_stable17h651f2a25ec864256E, symObjAddr: 0x5458, symBinAddr: 0xAC58, symSize: 0x180 }
  - { offset: 0x57DB6, size: 0x8, addend: 0x0, symName: __ZN4core5slice4sort6shared9smallsort12sort4_stable17hc2995ab1f1045b1fE, symObjAddr: 0x55D8, symBinAddr: 0xADD8, symSize: 0x1A0 }
  - { offset: 0x57FAA, size: 0x8, addend: 0x0, symName: __ZN4core5slice4sort6shared9smallsort12sort8_stable17hc7fffb30a3d43da9E, symObjAddr: 0x5778, symBinAddr: 0xAF78, symSize: 0x2B8 }
  - { offset: 0x5853E, size: 0x8, addend: 0x0, symName: __ZN4core5slice4sort6shared9smallsort18small_sort_general17h218a8fce923da49fE, symObjAddr: 0x5A30, symBinAddr: 0xB230, symSize: 0x4A4 }
  - { offset: 0x58CCD, size: 0x8, addend: 0x0, symName: __ZN4core5slice4sort6shared9smallsort18small_sort_general17h9cbad9a41207aa66E, symObjAddr: 0x5ED4, symBinAddr: 0xB6D4, symSize: 0x400 }
  - { offset: 0x59223, size: 0x8, addend: 0x0, symName: __ZN4core5slice4sort6shared9smallsort25insertion_sort_shift_left17h99e297b76a3fa51fE, symObjAddr: 0x62D4, symBinAddr: 0xBAD4, symSize: 0xF4 }
  - { offset: 0x593FC, size: 0x8, addend: 0x0, symName: __ZN4core5slice4sort6shared9smallsort25insertion_sort_shift_left17ha373783793f52803E, symObjAddr: 0x63C8, symBinAddr: 0xBBC8, symSize: 0xB4 }
  - { offset: 0x594DB, size: 0x8, addend: 0x0, symName: __ZN4core5slice4sort6shared9smallsort25insertion_sort_shift_left17ha98788cf8f4b7c33E, symObjAddr: 0x647C, symBinAddr: 0xBC7C, symSize: 0xC4 }
  - { offset: 0x59614, size: 0x8, addend: 0x0, symName: __ZN4core5slice4sort6shared9smallsort25insertion_sort_shift_left17he0b93c8bb8b4e502E, symObjAddr: 0x6540, symBinAddr: 0xBD40, symSize: 0xA0 }
  - { offset: 0x599A6, size: 0x8, addend: 0x0, symName: __ZN4core5slice4sort6stable14driftsort_main17h1a3eff2610b27b2dE, symObjAddr: 0x65E0, symBinAddr: 0xBDE0, symSize: 0x16C }
  - { offset: 0x59CC3, size: 0x8, addend: 0x0, symName: __ZN4core5slice4sort6stable14driftsort_main17h1b537cbb9e756a69E, symObjAddr: 0x674C, symBinAddr: 0xBF4C, symSize: 0x16C }
  - { offset: 0x59FE0, size: 0x8, addend: 0x0, symName: __ZN4core5slice4sort6stable14driftsort_main17h3b5b0c52457d70c4E, symObjAddr: 0x68B8, symBinAddr: 0xC0B8, symSize: 0x148 }
  - { offset: 0x5A2A3, size: 0x8, addend: 0x0, symName: __ZN4core5slice4sort6stable14driftsort_main17h3dc37144a2f2e337E, symObjAddr: 0x6A00, symBinAddr: 0xC200, symSize: 0x148 }
  - { offset: 0x5A4DE, size: 0x8, addend: 0x0, symName: __ZN4core5slice4sort6stable14driftsort_main17h716c026edbb16518E, symObjAddr: 0x6B48, symBinAddr: 0xC348, symSize: 0x148 }
  - { offset: 0x5A7A1, size: 0x8, addend: 0x0, symName: __ZN4core5slice4sort6stable14driftsort_main17h9c9fc32f4ec01ce8E, symObjAddr: 0x6C90, symBinAddr: 0xC490, symSize: 0x148 }
  - { offset: 0x5AC57, size: 0x8, addend: 0x0, symName: __ZN4core5slice4sort6stable5drift4sort17h06c89401927238a2E, symObjAddr: 0x6DD8, symBinAddr: 0xC5D8, symSize: 0x530 }
  - { offset: 0x5B357, size: 0x8, addend: 0x0, symName: __ZN4core5slice4sort6stable5drift4sort17h0d35e7ad39c0ca4eE, symObjAddr: 0x7308, symBinAddr: 0xCB08, symSize: 0x4E0 }
  - { offset: 0x5B9E6, size: 0x8, addend: 0x0, symName: __ZN4core5slice4sort6stable5drift4sort17h269cba417166e7baE, symObjAddr: 0x77E8, symBinAddr: 0xCFE8, symSize: 0x538 }
  - { offset: 0x5C110, size: 0x8, addend: 0x0, symName: __ZN4core5slice4sort6stable5drift4sort17h98c9b18719688aa1E, symObjAddr: 0x7D20, symBinAddr: 0xD520, symSize: 0x4F8 }
  - { offset: 0x5C825, size: 0x8, addend: 0x0, symName: __ZN4core5slice4sort6stable5drift4sort17hce90431f3f0f08bcE, symObjAddr: 0x8218, symBinAddr: 0xDA18, symSize: 0x5EC }
  - { offset: 0x5CF57, size: 0x8, addend: 0x0, symName: __ZN4core5slice4sort6stable5drift4sort17hebdadc42c1f1e8c3E, symObjAddr: 0x8804, symBinAddr: 0xE004, symSize: 0x4F8 }
  - { offset: 0x5D876, size: 0x8, addend: 0x0, symName: __ZN4core5slice4sort6stable9quicksort9quicksort17h4db4d930067e1401E, symObjAddr: 0x8CFC, symBinAddr: 0xE4FC, symSize: 0x6D8 }
  - { offset: 0x5E3C2, size: 0x8, addend: 0x0, symName: __ZN4core5slice4sort6stable9quicksort9quicksort17h686e9303dc368e81E, symObjAddr: 0x93D4, symBinAddr: 0xEBD4, symSize: 0x6E0 }
  - { offset: 0x5EF0E, size: 0x8, addend: 0x0, symName: __ZN4core5slice4sort6stable9quicksort9quicksort17h6947b3e779aa2197E, symObjAddr: 0x9AB4, symBinAddr: 0xF2B4, symSize: 0x834 }
  - { offset: 0x5FBAC, size: 0x8, addend: 0x0, symName: __ZN4core5slice4sort6stable9quicksort9quicksort17h6a8a6b1428fd2dc0E, symObjAddr: 0xA2E8, symBinAddr: 0xFAE8, symSize: 0x810 }
  - { offset: 0x6083D, size: 0x8, addend: 0x0, symName: __ZN4core5slice4sort6stable9quicksort9quicksort17hd94b566080a4a98cE, symObjAddr: 0xAAF8, symBinAddr: 0x102F8, symSize: 0x834 }
  - { offset: 0x618A3, size: 0x8, addend: 0x0, symName: __ZN4core5slice4sort6stable9quicksort9quicksort17hfa3e2af724e5c481E, symObjAddr: 0xB32C, symBinAddr: 0x10B2C, symSize: 0x74C }
  - { offset: 0x62073, size: 0x8, addend: 0x0, symName: __ZN4core5slice4sort8unstable7ipnsort17h2ce8b30d053e961cE, symObjAddr: 0xBA78, symBinAddr: 0x11278, symSize: 0xFC }
  - { offset: 0x621C2, size: 0x8, addend: 0x0, symName: __ZN4core5slice4sort8unstable7ipnsort17hdae32601cfab3049E, symObjAddr: 0xBB74, symBinAddr: 0x11374, symSize: 0x1A8 }
  - { offset: 0x624B7, size: 0x8, addend: 0x0, symName: __ZN4core5slice4sort8unstable8heapsort8heapsort17h1f1e9135ec50d9dbE, symObjAddr: 0xBD1C, symBinAddr: 0x1151C, symSize: 0x10C }
  - { offset: 0x626B7, size: 0x8, addend: 0x0, symName: __ZN4core5slice4sort8unstable8heapsort8heapsort17hb25bd7981ff144ccE, symObjAddr: 0xBE28, symBinAddr: 0x11628, symSize: 0x160 }
  - { offset: 0x62A5F, size: 0x8, addend: 0x0, symName: __ZN4core5slice4sort8unstable9quicksort9quicksort17h2cf412c6b6b44d85E, symObjAddr: 0xBF88, symBinAddr: 0x11788, symSize: 0x598 }
  - { offset: 0x636AB, size: 0x8, addend: 0x0, symName: __ZN4core5slice4sort8unstable9quicksort9quicksort17h5cc48f8359cea1ecE, symObjAddr: 0xC520, symBinAddr: 0x11D20, symSize: 0x408 }
  - { offset: 0x64187, size: 0x8, addend: 0x0, symName: '__ZN36_$LT$T$u20$as$u20$core..any..Any$GT$7type_id17h94795fbd46edb8e6E', symObjAddr: 0x13C, symBinAddr: 0x5B70, symSize: 0x30 }
  - { offset: 0x641A1, size: 0x8, addend: 0x0, symName: '__ZN36_$LT$T$u20$as$u20$core..any..Any$GT$7type_id17hccf0d4ce4f2b4e18E', symObjAddr: 0x16C, symBinAddr: 0x5BA0, symSize: 0x30 }
  - { offset: 0x641BB, size: 0x8, addend: 0x0, symName: '__ZN36_$LT$T$u20$as$u20$core..any..Any$GT$7type_id17hdc143e11e8bfb5b8E', symObjAddr: 0x19C, symBinAddr: 0x5BD0, symSize: 0x30 }
  - { offset: 0x6425B, size: 0x8, addend: 0x0, symName: '__ZN41_$LT$bool$u20$as$u20$core..fmt..Debug$GT$3fmt17h3393679e2c58e084E', symObjAddr: 0x1E0, symBinAddr: 0x5C00, symSize: 0x10 }
  - { offset: 0x6427D, size: 0x8, addend: 0x0, symName: '__ZN42_$LT$$RF$T$u20$as$u20$core..fmt..Debug$GT$3fmt17h05c643377a4843a4E', symObjAddr: 0x1F0, symBinAddr: 0x5C10, symSize: 0x70 }
  - { offset: 0x642AF, size: 0x8, addend: 0x0, symName: '__ZN42_$LT$$RF$T$u20$as$u20$core..fmt..Debug$GT$3fmt17h066d4e53da84c942E', symObjAddr: 0x260, symBinAddr: 0x5C80, symSize: 0x6C }
  - { offset: 0x642E1, size: 0x8, addend: 0x0, symName: '__ZN42_$LT$$RF$T$u20$as$u20$core..fmt..Debug$GT$3fmt17h0844ac6cf3651452E', symObjAddr: 0x2CC, symBinAddr: 0x5CEC, symSize: 0x38 }
  - { offset: 0x64313, size: 0x8, addend: 0x0, symName: '__ZN42_$LT$$RF$T$u20$as$u20$core..fmt..Debug$GT$3fmt17h0a86abf911a25ccfE', symObjAddr: 0x304, symBinAddr: 0x5D24, symSize: 0x58 }
  - { offset: 0x64345, size: 0x8, addend: 0x0, symName: '__ZN42_$LT$$RF$T$u20$as$u20$core..fmt..Debug$GT$3fmt17h0d3807f25f8f1bd9E', symObjAddr: 0x35C, symBinAddr: 0x5D7C, symSize: 0x64 }
  - { offset: 0x64377, size: 0x8, addend: 0x0, symName: '__ZN42_$LT$$RF$T$u20$as$u20$core..fmt..Debug$GT$3fmt17h28065dd7e1109c34E', symObjAddr: 0x3C0, symBinAddr: 0x5DE0, symSize: 0xC4 }
  - { offset: 0x643AF, size: 0x8, addend: 0x0, symName: '__ZN42_$LT$$RF$T$u20$as$u20$core..fmt..Debug$GT$3fmt17h2a0acf4f4905bb3cE', symObjAddr: 0x484, symBinAddr: 0x5EA4, symSize: 0x2C }
  - { offset: 0x64433, size: 0x8, addend: 0x0, symName: '__ZN42_$LT$$RF$T$u20$as$u20$core..fmt..Debug$GT$3fmt17h2d3920975368c78dE', symObjAddr: 0x4B0, symBinAddr: 0x5ED0, symSize: 0x1C }
  - { offset: 0x64465, size: 0x8, addend: 0x0, symName: '__ZN42_$LT$$RF$T$u20$as$u20$core..fmt..Debug$GT$3fmt17h2f6ef0f955fdd738E', symObjAddr: 0x4CC, symBinAddr: 0x5EEC, symSize: 0x14 }
  - { offset: 0x64480, size: 0x8, addend: 0x0, symName: '__ZN42_$LT$$RF$T$u20$as$u20$core..fmt..Debug$GT$3fmt17h3a6764dbc4f69c24E', symObjAddr: 0x4E0, symBinAddr: 0x5F00, symSize: 0x1C }
  - { offset: 0x64494, size: 0x8, addend: 0x0, symName: '__ZN42_$LT$$RF$T$u20$as$u20$core..fmt..Debug$GT$3fmt17h3bc3a4eaff16142dE', symObjAddr: 0x4FC, symBinAddr: 0x5F1C, symSize: 0x78 }
  - { offset: 0x6452E, size: 0x8, addend: 0x0, symName: '__ZN42_$LT$$RF$T$u20$as$u20$core..fmt..Debug$GT$3fmt17h3dbe4ffdf4cdc3fdE', symObjAddr: 0x574, symBinAddr: 0x5F94, symSize: 0x68 }
  - { offset: 0x64558, size: 0x8, addend: 0x0, symName: '__ZN42_$LT$$RF$T$u20$as$u20$core..fmt..Debug$GT$3fmt17h42511dc25255a292E', symObjAddr: 0x5DC, symBinAddr: 0x5FFC, symSize: 0x64 }
  - { offset: 0x6458A, size: 0x8, addend: 0x0, symName: '__ZN42_$LT$$RF$T$u20$as$u20$core..fmt..Debug$GT$3fmt17h43d02bef8f2d211eE', symObjAddr: 0x640, symBinAddr: 0x6060, symSize: 0x2C }
  - { offset: 0x646BD, size: 0x8, addend: 0x0, symName: '__ZN42_$LT$$RF$T$u20$as$u20$core..fmt..Debug$GT$3fmt17h47b68a8bb19563dfE', symObjAddr: 0x66C, symBinAddr: 0x608C, symSize: 0x9C }
  - { offset: 0x64751, size: 0x8, addend: 0x0, symName: '__ZN42_$LT$$RF$T$u20$as$u20$core..fmt..Debug$GT$3fmt17h4b6d767f0dc34c62E', symObjAddr: 0x708, symBinAddr: 0x6128, symSize: 0x1C }
  - { offset: 0x6477A, size: 0x8, addend: 0x0, symName: '__ZN42_$LT$$RF$T$u20$as$u20$core..fmt..Debug$GT$3fmt17h4f26f51f095b947cE', symObjAddr: 0x724, symBinAddr: 0x6144, symSize: 0x30 }
  - { offset: 0x648BD, size: 0x8, addend: 0x0, symName: '__ZN42_$LT$$RF$T$u20$as$u20$core..fmt..Debug$GT$3fmt17h5ea47589818167e9E', symObjAddr: 0x754, symBinAddr: 0x6174, symSize: 0x14 }
  - { offset: 0x648D8, size: 0x8, addend: 0x0, symName: '__ZN42_$LT$$RF$T$u20$as$u20$core..fmt..Debug$GT$3fmt17h6859059b93c3c571E', symObjAddr: 0x768, symBinAddr: 0x6188, symSize: 0x144 }
  - { offset: 0x6490A, size: 0x8, addend: 0x0, symName: '__ZN42_$LT$$RF$T$u20$as$u20$core..fmt..Debug$GT$3fmt17h6ab52f2784b71312E', symObjAddr: 0x8AC, symBinAddr: 0x62CC, symSize: 0x68 }
  - { offset: 0x64935, size: 0x8, addend: 0x0, symName: '__ZN42_$LT$$RF$T$u20$as$u20$core..fmt..Debug$GT$3fmt17h7b8d36584c4cf6f4E', symObjAddr: 0x914, symBinAddr: 0x6334, symSize: 0x20 }
  - { offset: 0x64967, size: 0x8, addend: 0x0, symName: '__ZN42_$LT$$RF$T$u20$as$u20$core..fmt..Debug$GT$3fmt17h7d152723c4ba6137E', symObjAddr: 0x934, symBinAddr: 0x6354, symSize: 0x30 }
  - { offset: 0x649AF, size: 0x8, addend: 0x0, symName: '__ZN42_$LT$$RF$T$u20$as$u20$core..fmt..Debug$GT$3fmt17h850c4c8e3b396b47E', symObjAddr: 0x964, symBinAddr: 0x6384, symSize: 0x38 }
  - { offset: 0x649E1, size: 0x8, addend: 0x0, symName: '__ZN42_$LT$$RF$T$u20$as$u20$core..fmt..Debug$GT$3fmt17h900214e8daca2cb6E', symObjAddr: 0x99C, symBinAddr: 0x63BC, symSize: 0x30 }
  - { offset: 0x64A29, size: 0x8, addend: 0x0, symName: '__ZN42_$LT$$RF$T$u20$as$u20$core..fmt..Debug$GT$3fmt17ha087ebd18010d3f8E', symObjAddr: 0x9CC, symBinAddr: 0x63EC, symSize: 0x74 }
  - { offset: 0x64A5B, size: 0x8, addend: 0x0, symName: '__ZN42_$LT$$RF$T$u20$as$u20$core..fmt..Debug$GT$3fmt17ha0b5c06bcee32415E', symObjAddr: 0xA40, symBinAddr: 0x6460, symSize: 0x74 }
  - { offset: 0x64B7E, size: 0x8, addend: 0x0, symName: '__ZN42_$LT$$RF$T$u20$as$u20$core..fmt..Debug$GT$3fmt17hb37754a731f989c5E', symObjAddr: 0xAB4, symBinAddr: 0x64D4, symSize: 0x1C }
  - { offset: 0x64BB0, size: 0x8, addend: 0x0, symName: '__ZN42_$LT$$RF$T$u20$as$u20$core..fmt..Debug$GT$3fmt17hbd6ebbbaca39758fE', symObjAddr: 0xAD0, symBinAddr: 0x64F0, symSize: 0x4C }
  - { offset: 0x64C23, size: 0x8, addend: 0x0, symName: '__ZN42_$LT$$RF$T$u20$as$u20$core..fmt..Debug$GT$3fmt17hc5565330b4c17b83E', symObjAddr: 0xB1C, symBinAddr: 0x653C, symSize: 0x44 }
  - { offset: 0x64C55, size: 0x8, addend: 0x0, symName: '__ZN42_$LT$$RF$T$u20$as$u20$core..fmt..Debug$GT$3fmt17hc6da9a014c59a86fE', symObjAddr: 0xB60, symBinAddr: 0x6580, symSize: 0x14 }
  - { offset: 0x64C7E, size: 0x8, addend: 0x0, symName: '__ZN42_$LT$$RF$T$u20$as$u20$core..fmt..Debug$GT$3fmt17hcb16a273a35af6d5E', symObjAddr: 0xB74, symBinAddr: 0x6594, symSize: 0x6C }
  - { offset: 0x64CC7, size: 0x8, addend: 0x0, symName: '__ZN42_$LT$$RF$T$u20$as$u20$core..fmt..Debug$GT$3fmt17hd23ef67305018ac1E', symObjAddr: 0xBE0, symBinAddr: 0x6600, symSize: 0x30 }
  - { offset: 0x64D1D, size: 0x8, addend: 0x0, symName: '__ZN42_$LT$$RF$T$u20$as$u20$core..fmt..Debug$GT$3fmt17hda34d9628a0ee9cfE', symObjAddr: 0xC10, symBinAddr: 0x6630, symSize: 0x74 }
  - { offset: 0x64DB7, size: 0x8, addend: 0x0, symName: '__ZN42_$LT$$RF$T$u20$as$u20$core..fmt..Debug$GT$3fmt17hec9a5ce81b035dd8E', symObjAddr: 0xC84, symBinAddr: 0x66A4, symSize: 0x38 }
  - { offset: 0x64DE9, size: 0x8, addend: 0x0, symName: '__ZN42_$LT$$RF$T$u20$as$u20$core..fmt..Debug$GT$3fmt17hed5b6b431843d042E', symObjAddr: 0xCBC, symBinAddr: 0x66DC, symSize: 0xEC }
  - { offset: 0x64FE6, size: 0x8, addend: 0x0, symName: '__ZN45_$LT$$LP$$RP$$u20$as$u20$core..fmt..Debug$GT$3fmt17h17ba63a345785a01E', symObjAddr: 0xE2C, symBinAddr: 0x684C, symSize: 0x20 }
  - { offset: 0x6508B, size: 0x8, addend: 0x0, symName: '__ZN4core3fmt3num49_$LT$impl$u20$core..fmt..Debug$u20$for$u20$u8$GT$3fmt17h182c554e1fecb87cE', symObjAddr: 0xE4C, symBinAddr: 0x686C, symSize: 0x2C }
  - { offset: 0x650C9, size: 0x8, addend: 0x0, symName: '__ZN4core3fmt3num50_$LT$impl$u20$core..fmt..Debug$u20$for$u20$u32$GT$3fmt17hcfe7baae256c1db4E', symObjAddr: 0xED0, symBinAddr: 0x68F0, symSize: 0x2C }
  - { offset: 0x65107, size: 0x8, addend: 0x0, symName: '__ZN4core3fmt3num50_$LT$impl$u20$core..fmt..Debug$u20$for$u20$u64$GT$3fmt17h0d8c59b7f17069d4E', symObjAddr: 0xEFC, symBinAddr: 0x691C, symSize: 0x2C }
  - { offset: 0x65145, size: 0x8, addend: 0x0, symName: '__ZN4core3fmt3num50_$LT$impl$u20$core..fmt..Debug$u20$for$u20$i32$GT$3fmt17had052452aeb8233dE', symObjAddr: 0xE78, symBinAddr: 0x6898, symSize: 0x2C }
  - { offset: 0x65176, size: 0x8, addend: 0x0, symName: '__ZN4core3fmt3num50_$LT$impl$u20$core..fmt..Debug$u20$for$u20$i64$GT$3fmt17hbe7109c270226ca2E', symObjAddr: 0xEA4, symBinAddr: 0x68C4, symSize: 0x2C }
  - { offset: 0x651AD, size: 0x8, addend: 0x0, symName: '__ZN4core3fmt3num52_$LT$impl$u20$core..fmt..Debug$u20$for$u20$usize$GT$3fmt17h23bbb297e5573e03E', symObjAddr: 0xF28, symBinAddr: 0x6948, symSize: 0x2C }
  - { offset: 0x651FA, size: 0x8, addend: 0x0, symName: '__ZN50_$LT$$LP$U$C$T$RP$$u20$as$u20$core..fmt..Debug$GT$3fmt17h05ce4fdecfc340d3E', symObjAddr: 0xC9B8, symBinAddr: 0x1213C, symSize: 0x74 }
  - { offset: 0x65215, size: 0x8, addend: 0x0, symName: '__ZN50_$LT$$LP$U$C$T$RP$$u20$as$u20$core..fmt..Debug$GT$3fmt17hc0fa0dd77172a523E', symObjAddr: 0xCA2C, symBinAddr: 0x121B0, symSize: 0x74 }
  - { offset: 0x656D7, size: 0x8, addend: 0x0, symName: '__ZN44_$LT$$RF$T$u20$as$u20$core..fmt..Display$GT$3fmt17h92741ca094abc59bE', symObjAddr: 0xDA8, symBinAddr: 0x67C8, symSize: 0x68 }
  - { offset: 0x65793, size: 0x8, addend: 0x0, symName: '__ZN44_$LT$$RF$T$u20$as$u20$core..fmt..Display$GT$3fmt17hb4374ad8a23e3344E', symObjAddr: 0xE10, symBinAddr: 0x6830, symSize: 0x1C }
  - { offset: 0x657D1, size: 0x8, addend: 0x0, symName: __ZN4core3fmt5Write10write_char17h21c58fb9bdaa3037E, symObjAddr: 0xF54, symBinAddr: 0x6974, symSize: 0x128 }
  - { offset: 0x659A2, size: 0x8, addend: 0x0, symName: __ZN4core3fmt5Write10write_char17h35772cdee2dc5ccdE, symObjAddr: 0x107C, symBinAddr: 0x6A9C, symSize: 0x150 }
  - { offset: 0x65B63, size: 0x8, addend: 0x0, symName: __ZN4core3fmt5Write10write_char17h35996957b3fdf479E, symObjAddr: 0x11CC, symBinAddr: 0x6BEC, symSize: 0x140 }
  - { offset: 0x65BF2, size: 0x8, addend: 0x0, symName: __ZN4core3fmt5Write10write_char17h9a918b81d3404a05E, symObjAddr: 0x130C, symBinAddr: 0x6D2C, symSize: 0x180 }
  - { offset: 0x65DCA, size: 0x8, addend: 0x0, symName: __ZN4core3fmt5Write10write_char17hccea7b43a5887acbE, symObjAddr: 0x148C, symBinAddr: 0x6EAC, symSize: 0x140 }
  - { offset: 0x65E59, size: 0x8, addend: 0x0, symName: __ZN4core3fmt5Write10write_char17hd0cce37d61488974E, symObjAddr: 0x15CC, symBinAddr: 0x6FEC, symSize: 0x180 }
  - { offset: 0x6609A, size: 0x8, addend: 0x0, symName: __ZN4core3fmt5Write9write_fmt17h20e940e71ba167caE, symObjAddr: 0x174C, symBinAddr: 0x716C, symSize: 0x1C }
  - { offset: 0x660CA, size: 0x8, addend: 0x0, symName: __ZN4core3fmt5Write9write_fmt17h61f92b8ce8d14411E, symObjAddr: 0x1768, symBinAddr: 0x7188, symSize: 0x1C }
  - { offset: 0x660FA, size: 0x8, addend: 0x0, symName: __ZN4core3fmt5Write9write_fmt17h6320eb26ed7f9f8aE, symObjAddr: 0x1784, symBinAddr: 0x71A4, symSize: 0x1C }
  - { offset: 0x6612A, size: 0x8, addend: 0x0, symName: __ZN4core3fmt5Write9write_fmt17h675d6904e32bc669E, symObjAddr: 0x17A0, symBinAddr: 0x71C0, symSize: 0x1C }
  - { offset: 0x6615A, size: 0x8, addend: 0x0, symName: __ZN4core3fmt5Write9write_fmt17h9db7e63cedf4a78fE, symObjAddr: 0x17BC, symBinAddr: 0x71DC, symSize: 0x1C }
  - { offset: 0x6618A, size: 0x8, addend: 0x0, symName: __ZN4core3fmt5Write9write_fmt17hcfdf070fac24bb98E, symObjAddr: 0x17D8, symBinAddr: 0x71F8, symSize: 0x1C }
  - { offset: 0x661BA, size: 0x8, addend: 0x0, symName: __ZN4core3fmt5Write9write_fmt17he51f317dc784ee54E, symObjAddr: 0x17F4, symBinAddr: 0x7214, symSize: 0x1C }
  - { offset: 0x6621B, size: 0x8, addend: 0x0, symName: '__ZN50_$LT$$BP$mut$u20$T$u20$as$u20$core..fmt..Debug$GT$3fmt17h4d7869c74d51db1cE', symObjAddr: 0xC9A4, symBinAddr: 0x12128, symSize: 0x14 }
  - { offset: 0x6626B, size: 0x8, addend: 0x0, symName: '__ZN52_$LT$$RF$mut$u20$T$u20$as$u20$core..fmt..Display$GT$3fmt17h9a9a63ecc93a18d1E', symObjAddr: 0xCAA0, symBinAddr: 0x12224, symSize: 0x1C }
  - { offset: 0x662C3, size: 0x8, addend: 0x0, symName: '__ZN55_$LT$$RF$str$u20$as$u20$core..str..pattern..Pattern$GT$15is_contained_in17hb1cf6188069a9c91E', symObjAddr: 0xCABC, symBinAddr: 0x12240, symSize: 0x3C0 }
  - { offset: 0x667BA, size: 0x8, addend: 0x0, symName: '__ZN4core5array69_$LT$impl$u20$core..fmt..Debug$u20$for$u20$$u5b$T$u3b$$u20$N$u5d$$GT$3fmt17h9bd36d79d9c591aaE', symObjAddr: 0x4B7C, symBinAddr: 0xA37C, symSize: 0xFC }
  - { offset: 0x66E6C, size: 0x8, addend: 0x0, symName: '__ZN73_$LT$core..num..nonzero..NonZero$LT$T$GT$$u20$as$u20$core..fmt..Debug$GT$3fmt17hd2b078293c2e5ed1E', symObjAddr: 0x18D64, symBinAddr: 0x1E370, symSize: 0x48 }
  - { offset: 0x67549, size: 0x8, addend: 0x0, symName: '__ZN70_$LT$core..num..error..TryFromIntError$u20$as$u20$core..fmt..Debug$GT$3fmt17hba1a1de1a35a6837E', symObjAddr: 0x18D08, symBinAddr: 0x1E314, symSize: 0x40 }
  - { offset: 0x6756A, size: 0x8, addend: 0x0, symName: '__ZN72_$LT$core..num..error..TryFromIntError$u20$as$u20$core..error..Error$GT$11description17h5d7fb6589caacda5E', symObjAddr: 0x18D48, symBinAddr: 0x1E354, symSize: 0x1C }
  - { offset: 0x678B8, size: 0x8, addend: 0x0, symName: __ZN4core5panic12PanicPayload6as_str17h3db4bd7435e3d0aeE, symObjAddr: 0x4D20, symBinAddr: 0xA520, symSize: 0x14 }
  - { offset: 0x68ECF, size: 0x8, addend: 0x0, symName: __ZN4core3ops8function2Fn4call17h5e7fb3bebb4b9d39E, symObjAddr: 0x1810, symBinAddr: 0x7230, symSize: 0x14 }
  - { offset: 0x68EE3, size: 0x8, addend: 0x0, symName: __ZN4core3ops8function2Fn4call17h60f285c633cef8b1E, symObjAddr: 0x1824, symBinAddr: 0x7244, symSize: 0xAC }
  - { offset: 0x68FE9, size: 0x8, addend: 0x0, symName: __ZN4core3ops8function2Fn4call17h80c6ac3344373e8bE, symObjAddr: 0x18D0, symBinAddr: 0x72F0, symSize: 0x14 }
  - { offset: 0x68FFD, size: 0x8, addend: 0x0, symName: __ZN4core3ops8function2Fn4call17haa2839a2fd0f5b9cE, symObjAddr: 0x18E4, symBinAddr: 0x7304, symSize: 0x14 }
  - { offset: 0x69017, size: 0x8, addend: 0x0, symName: __ZN4core3ops8function2Fn4call17habfd4970794f91b0E, symObjAddr: 0x18F8, symBinAddr: 0x7318, symSize: 0x38 }
  - { offset: 0x690B3, size: 0x8, addend: 0x0, symName: __ZN4core3ops8function2Fn4call17hcc34a2a900fe25d2E, symObjAddr: 0x1930, symBinAddr: 0x7350, symSize: 0xA4 }
  - { offset: 0x6918B, size: 0x8, addend: 0x0, symName: __ZN4core3ops8function2Fn4call17hf32de4e06725297eE, symObjAddr: 0x19D4, symBinAddr: 0x73F4, symSize: 0x38 }
  - { offset: 0x69227, size: 0x8, addend: 0x0, symName: __ZN4core3ops8function2Fn4call17hff2578f29aa114e2E, symObjAddr: 0x1A0C, symBinAddr: 0x742C, symSize: 0xAC }
  - { offset: 0x6939C, size: 0x8, addend: 0x0, symName: __ZN4core3ops8function5FnMut8call_mut17h95f84a5e7a2856fdE, symObjAddr: 0x1AB8, symBinAddr: 0x74D8, symSize: 0x14 }
  - { offset: 0x693F1, size: 0x8, addend: 0x0, symName: '__ZN4core3ops8function6FnOnce40call_once$u7b$$u7b$vtable.shim$u7d$$u7d$17h0a6bbc2c64dba938E', symObjAddr: 0x1ACC, symBinAddr: 0x74EC, symSize: 0x60 }
  - { offset: 0x694DE, size: 0x8, addend: 0x0, symName: '__ZN4core3ops8function6FnOnce40call_once$u7b$$u7b$vtable.shim$u7d$$u7d$17h16371fc5ff7e9154E', symObjAddr: 0x1B2C, symBinAddr: 0x754C, symSize: 0x80 }
  - { offset: 0x6965B, size: 0x8, addend: 0x0, symName: '__ZN4core3ops8function6FnOnce40call_once$u7b$$u7b$vtable.shim$u7d$$u7d$17h1a3c9021f07aff63E', symObjAddr: 0x1BAC, symBinAddr: 0x75CC, symSize: 0x18 }
  - { offset: 0x696AE, size: 0x8, addend: 0x0, symName: '__ZN4core3ops8function6FnOnce40call_once$u7b$$u7b$vtable.shim$u7d$$u7d$17h4401b3758f042ea9E', symObjAddr: 0x1BC4, symBinAddr: 0x75E4, symSize: 0x10 }
  - { offset: 0x696EB, size: 0x8, addend: 0x0, symName: '__ZN4core3ops8function6FnOnce40call_once$u7b$$u7b$vtable.shim$u7d$$u7d$17h49073670e1e329d1E', symObjAddr: 0x1BD4, symBinAddr: 0x75F4, symSize: 0x28 }
  - { offset: 0x69728, size: 0x8, addend: 0x0, symName: '__ZN4core3ops8function6FnOnce40call_once$u7b$$u7b$vtable.shim$u7d$$u7d$17h60f71978838e3d68E', symObjAddr: 0x1BFC, symBinAddr: 0x761C, symSize: 0x18 }
  - { offset: 0x69765, size: 0x8, addend: 0x0, symName: '__ZN4core3ops8function6FnOnce40call_once$u7b$$u7b$vtable.shim$u7d$$u7d$17h71dbe4f6e23ba10eE', symObjAddr: 0x1C14, symBinAddr: 0x7634, symSize: 0x28 }
  - { offset: 0x697A2, size: 0x8, addend: 0x0, symName: '__ZN4core3ops8function6FnOnce40call_once$u7b$$u7b$vtable.shim$u7d$$u7d$17h7985fd9146ffece4E', symObjAddr: 0x1C3C, symBinAddr: 0x765C, symSize: 0x10 }
  - { offset: 0x697DF, size: 0x8, addend: 0x0, symName: '__ZN4core3ops8function6FnOnce40call_once$u7b$$u7b$vtable.shim$u7d$$u7d$17h8fffd98aded8dfcfE', symObjAddr: 0x1C4C, symBinAddr: 0x766C, symSize: 0x14 }
  - { offset: 0x6981C, size: 0x8, addend: 0x0, symName: '__ZN4core3ops8function6FnOnce40call_once$u7b$$u7b$vtable.shim$u7d$$u7d$17h94d0e785961ba674E', symObjAddr: 0x1C60, symBinAddr: 0x7680, symSize: 0xB0 }
  - { offset: 0x6997D, size: 0x8, addend: 0x0, symName: '__ZN4core3ops8function6FnOnce40call_once$u7b$$u7b$vtable.shim$u7d$$u7d$17h9515ac03420402ffE', symObjAddr: 0x1D10, symBinAddr: 0x7730, symSize: 0x28 }
  - { offset: 0x699BA, size: 0x8, addend: 0x0, symName: '__ZN4core3ops8function6FnOnce40call_once$u7b$$u7b$vtable.shim$u7d$$u7d$17hcc8b50e586fb4607E', symObjAddr: 0x1D38, symBinAddr: 0x7758, symSize: 0xA4 }
  - { offset: 0x69B0E, size: 0x8, addend: 0x0, symName: '__ZN4core3ops8function6FnOnce40call_once$u7b$$u7b$vtable.shim$u7d$$u7d$17hdb1dc86e3ffcf61eE', symObjAddr: 0x1DDC, symBinAddr: 0x77FC, symSize: 0x18 }
  - { offset: 0x69B61, size: 0x8, addend: 0x0, symName: '__ZN4core3ops8function6FnOnce40call_once$u7b$$u7b$vtable.shim$u7d$$u7d$17hebf68fcf1469c889E', symObjAddr: 0x1DF4, symBinAddr: 0x7814, symSize: 0x7C }
  - { offset: 0x6DF56, size: 0x8, addend: 0x0, symName: '__ZN4core4cell4once17OnceCell$LT$T$GT$8try_init17hbf2776ea7c5f0886E', symObjAddr: 0x4A5C, symBinAddr: 0x8AD24, symSize: 0x120 }
  - { offset: 0x6E5A3, size: 0x8, addend: 0x0, symName: __ZN4core5error5Error5cause17h18c23d4fda205e3dE, symObjAddr: 0x4C78, symBinAddr: 0xA478, symSize: 0x14 }
  - { offset: 0x6E5BD, size: 0x8, addend: 0x0, symName: __ZN4core5error5Error5cause17h68f9a13a53d49ee9E, symObjAddr: 0x4C8C, symBinAddr: 0xA48C, symSize: 0x14 }
  - { offset: 0x6E5D7, size: 0x8, addend: 0x0, symName: __ZN4core5error5Error7provide17h7c9e3087dae15a67E, symObjAddr: 0x4CA0, symBinAddr: 0xA4A0, symSize: 0x10 }
  - { offset: 0x6E5F1, size: 0x8, addend: 0x0, symName: __ZN4core5error5Error7provide17hc16a1fead8c217ddE, symObjAddr: 0x4CB0, symBinAddr: 0xA4B0, symSize: 0x10 }
  - { offset: 0x6E60B, size: 0x8, addend: 0x0, symName: __ZN4core5error5Error7type_id17h13239d1d17867cd0E, symObjAddr: 0x4CC0, symBinAddr: 0xA4C0, symSize: 0x30 }
  - { offset: 0x6E625, size: 0x8, addend: 0x0, symName: __ZN4core5error5Error7type_id17h4b3b39e20ba946ebE, symObjAddr: 0x4CF0, symBinAddr: 0xA4F0, symSize: 0x30 }
  - { offset: 0x6E6DA, size: 0x8, addend: 0x0, symName: __ZN4core9panicking13assert_failed17h72f7b50591ce9eabE, symObjAddr: 0xC928, symBinAddr: 0x8AE44, symSize: 0x24 }
  - { offset: 0x6E6F5, size: 0x8, addend: 0x0, symName: __ZN4core9panicking13assert_failed17h8fc7bf85a9557706E, symObjAddr: 0xC94C, symBinAddr: 0x8AE68, symSize: 0x24 }
  - { offset: 0x6E710, size: 0x8, addend: 0x0, symName: __ZN4core9panicking13assert_failed17hd5a5ea99131a7609E, symObjAddr: 0xC970, symBinAddr: 0x8AE8C, symSize: 0x34 }
  - { offset: 0x6EF17, size: 0x8, addend: 0x0, symName: '__ZN3std9panicking41begin_panic$u7b$$u7b$reify.shim$u7d$$u7d$17h3195d68683724a76E', symObjAddr: 0x1CC, symBinAddr: 0x8AD10, symSize: 0x14 }
  - { offset: 0x6EFC4, size: 0x8, addend: 0x0, symName: __ZN3std9panicking11panic_count8increase17hd2c2589f6a4ed19dE, symObjAddr: 0x3ADC4, symBinAddr: 0x3F290, symSize: 0x80 }
  - { offset: 0x6F09A, size: 0x8, addend: 0x0, symName: __ZN3std9panicking11panic_count19finished_panic_hook17he13fe7e63e5ab4fcE, symObjAddr: 0x3AE44, symBinAddr: 0x3F310, symSize: 0x24 }
  - { offset: 0x6F138, size: 0x8, addend: 0x0, symName: __ZN3std9panicking11panic_count8decrease17hf86fae2bddc4e5aeE, symObjAddr: 0x3AE68, symBinAddr: 0x3F334, symSize: 0x50 }
  - { offset: 0x6F219, size: 0x8, addend: 0x0, symName: __ZN3std9panicking11panic_count9get_count17hbad4801492f7f940E, symObjAddr: 0x3AEB8, symBinAddr: 0x3F384, symSize: 0x24 }
  - { offset: 0x6F270, size: 0x8, addend: 0x0, symName: __ZN3std9panicking11panic_count17is_zero_slow_path17h4baddeb9108eb5a5E, symObjAddr: 0x3AEDC, symBinAddr: 0x8C000, symSize: 0x2C }
  - { offset: 0x6F363, size: 0x8, addend: 0x0, symName: __ZN3std9panicking3try7cleanup17hd2260368b67adbddE, symObjAddr: 0x3AF08, symBinAddr: 0x8C02C, symSize: 0x54 }
  - { offset: 0x6F4A2, size: 0x8, addend: 0x0, symName: __RNvCs691rhTbG0Ee_7___rustc17___rust_drop_panic, symObjAddr: 0x3A3F8, symBinAddr: 0x3E8C4, symSize: 0xBC }
  - { offset: 0x6F6B1, size: 0x8, addend: 0x0, symName: __RNvCs691rhTbG0Ee_7___rustc24___rust_foreign_exception, symObjAddr: 0x3A4B4, symBinAddr: 0x3E980, symSize: 0xBC }
  - { offset: 0x6F8CE, size: 0x8, addend: 0x0, symName: __ZN3std9panicking8set_hook17h8fb9fcaf66beab3fE, symObjAddr: 0x3A570, symBinAddr: 0x3EA3C, symSize: 0x178 }
  - { offset: 0x6FBAB, size: 0x8, addend: 0x0, symName: __ZN3std9panicking9take_hook17hd3e0105701a0c55bE, symObjAddr: 0x3A6E8, symBinAddr: 0x3EBB4, symSize: 0xF4 }
  - { offset: 0x6FD86, size: 0x8, addend: 0x0, symName: __ZN3std9panicking12default_hook17h8bec4e7e9ecef4c5E, symObjAddr: 0x3A7DC, symBinAddr: 0x3ECA8, symSize: 0x1C0 }
  - { offset: 0x700C1, size: 0x8, addend: 0x0, symName: '__ZN3std9panicking12default_hook28_$u7b$$u7b$closure$u7d$$u7d$17h7ea257d81e2cfb02E', symObjAddr: 0x3A99C, symBinAddr: 0x3EE68, symSize: 0x1A4 }
  - { offset: 0x702AD, size: 0x8, addend: 0x0, symName: '__ZN3std9panicking12default_hook28_$u7b$$u7b$closure$u7d$$u7d$28_$u7b$$u7b$closure$u7d$$u7d$17h29d0dfe7fc22adf3E', symObjAddr: 0x3AB40, symBinAddr: 0x3F00C, symSize: 0x284 }
  - { offset: 0x7075C, size: 0x8, addend: 0x0, symName: __RNvCs691rhTbG0Ee_7___rustc17rust_begin_unwind, symObjAddr: 0x3AF5C, symBinAddr: 0x3F3A8, symSize: 0x20 }
  - { offset: 0x707CB, size: 0x8, addend: 0x0, symName: '__ZN102_$LT$std..panicking..begin_panic_handler..FormatStringPayload$u20$as$u20$core..panic..PanicPayload$GT$8take_box17hce9fce09b6fad471E', symObjAddr: 0x3AF7C, symBinAddr: 0x3F3C8, symSize: 0x120 }
  - { offset: 0x70A65, size: 0x8, addend: 0x0, symName: '__ZN102_$LT$std..panicking..begin_panic_handler..FormatStringPayload$u20$as$u20$core..panic..PanicPayload$GT$3get17h61493209bd362acfE', symObjAddr: 0x3B09C, symBinAddr: 0x3F4E8, symSize: 0xB0 }
  - { offset: 0x70BAD, size: 0x8, addend: 0x0, symName: '__ZN95_$LT$std..panicking..begin_panic_handler..FormatStringPayload$u20$as$u20$core..fmt..Display$GT$3fmt17ha9095effacf87573E', symObjAddr: 0x3B14C, symBinAddr: 0x3F598, symSize: 0x5C }
  - { offset: 0x70CB4, size: 0x8, addend: 0x0, symName: '__ZN99_$LT$std..panicking..begin_panic_handler..StaticStrPayload$u20$as$u20$core..panic..PanicPayload$GT$8take_box17h455198677acfab02E', symObjAddr: 0x3B1A8, symBinAddr: 0x3F5F4, symSize: 0x50 }
  - { offset: 0x70D30, size: 0x8, addend: 0x0, symName: '__ZN99_$LT$std..panicking..begin_panic_handler..StaticStrPayload$u20$as$u20$core..panic..PanicPayload$GT$3get17hbb903d1a97bb9a00E', symObjAddr: 0x3B1F8, symBinAddr: 0x3F644, symSize: 0x18 }
  - { offset: 0x70D4B, size: 0x8, addend: 0x0, symName: '__ZN99_$LT$std..panicking..begin_panic_handler..StaticStrPayload$u20$as$u20$core..panic..PanicPayload$GT$6as_str17hf042cbcba191c102E', symObjAddr: 0x3B210, symBinAddr: 0x3F65C, symSize: 0x18 }
  - { offset: 0x70D6D, size: 0x8, addend: 0x0, symName: '__ZN92_$LT$std..panicking..begin_panic_handler..StaticStrPayload$u20$as$u20$core..fmt..Display$GT$3fmt17h721d1c1bf89fdf33E', symObjAddr: 0x3B228, symBinAddr: 0x3F674, symSize: 0x1C }
  - { offset: 0x70D89, size: 0x8, addend: 0x0, symName: '__ZN3std9panicking19begin_panic_handler28_$u7b$$u7b$closure$u7d$$u7d$17h38df7550d3544066E', symObjAddr: 0x3B244, symBinAddr: 0x3F690, symSize: 0xC4 }
  - { offset: 0x70EF1, size: 0x8, addend: 0x0, symName: __ZN3std9panicking11begin_panic17ha0dc035065a15511E, symObjAddr: 0x3B308, symBinAddr: 0x8C080, symSize: 0x1C }
  - { offset: 0x70F18, size: 0x8, addend: 0x0, symName: '__ZN91_$LT$std..panicking..begin_panic..Payload$LT$A$GT$$u20$as$u20$core..panic..PanicPayload$GT$8take_box17h71656654f7150debE', symObjAddr: 0x3B324, symBinAddr: 0x3F754, symSize: 0x5C }
  - { offset: 0x70FC1, size: 0x8, addend: 0x0, symName: '__ZN91_$LT$std..panicking..begin_panic..Payload$LT$A$GT$$u20$as$u20$core..panic..PanicPayload$GT$3get17hc013cd59676efa56E', symObjAddr: 0x3B380, symBinAddr: 0x3F7B0, symSize: 0x20 }
  - { offset: 0x70FE3, size: 0x8, addend: 0x0, symName: '__ZN84_$LT$std..panicking..begin_panic..Payload$LT$A$GT$$u20$as$u20$core..fmt..Display$GT$3fmt17h5cba035a603dfccfE', symObjAddr: 0x3B3A0, symBinAddr: 0x3F7D0, symSize: 0x24 }
  - { offset: 0x71016, size: 0x8, addend: 0x0, symName: '__ZN3std9panicking11begin_panic28_$u7b$$u7b$closure$u7d$$u7d$17hf3f62274c788fea8E', symObjAddr: 0x3B3C4, symBinAddr: 0x3F7F4, symSize: 0x30 }
  - { offset: 0x71040, size: 0x8, addend: 0x0, symName: __ZN3std9panicking14payload_as_str17h49d9782402c5070aE, symObjAddr: 0x3B3F4, symBinAddr: 0x3F824, symSize: 0xB0 }
  - { offset: 0x7112E, size: 0x8, addend: 0x0, symName: __ZN3std9panicking20rust_panic_with_hook17h19ab2dda59b3a0f5E, symObjAddr: 0x3B4A4, symBinAddr: 0x3F8D4, symSize: 0x398 }
  - { offset: 0x719B3, size: 0x8, addend: 0x0, symName: __ZN3std9panicking23rust_panic_without_hook17h58ffa81dac9a28efE, symObjAddr: 0x3B83C, symBinAddr: 0x8C09C, symSize: 0xD4 }
  - { offset: 0x71BC4, size: 0x8, addend: 0x0, symName: '__ZN96_$LT$std..panicking..rust_panic_without_hook..RewrapBox$u20$as$u20$core..panic..PanicPayload$GT$8take_box17h015aefcb6f6d8974E', symObjAddr: 0x3B910, symBinAddr: 0x3FC6C, symSize: 0x28 }
  - { offset: 0x71BF6, size: 0x8, addend: 0x0, symName: '__ZN96_$LT$std..panicking..rust_panic_without_hook..RewrapBox$u20$as$u20$core..panic..PanicPayload$GT$3get17h753eaa3f75931caeE', symObjAddr: 0x3B938, symBinAddr: 0x3FC94, symSize: 0x18 }
  - { offset: 0x71C18, size: 0x8, addend: 0x0, symName: '__ZN89_$LT$std..panicking..rust_panic_without_hook..RewrapBox$u20$as$u20$core..fmt..Display$GT$3fmt17h818651d942e940d1E', symObjAddr: 0x3B950, symBinAddr: 0x3FCAC, symSize: 0x20 }
  - { offset: 0x71C35, size: 0x8, addend: 0x0, symName: __RNvCs691rhTbG0Ee_7___rustc10rust_panic, symObjAddr: 0x3B970, symBinAddr: 0x8C170, symSize: 0x60 }
  - { offset: 0x71DD1, size: 0x8, addend: 0x0, symName: __ZN3std4path4Path11is_absolute17h2c3e27872b915f3cE, symObjAddr: 0x327F8, symBinAddr: 0x37828, symSize: 0x2C }
  - { offset: 0x71E56, size: 0x8, addend: 0x0, symName: __ZN3std4path4Path6parent17h0fdd39110cfefb78E, symObjAddr: 0x32824, symBinAddr: 0x37854, symSize: 0x74 }
  - { offset: 0x71E6E, size: 0x8, addend: 0x0, symName: __ZN3std4path4Path6parent17h0fdd39110cfefb78E, symObjAddr: 0x32824, symBinAddr: 0x37854, symSize: 0x74 }
  - { offset: 0x71E84, size: 0x8, addend: 0x0, symName: __ZN3std4path4Path6parent17h0fdd39110cfefb78E, symObjAddr: 0x32824, symBinAddr: 0x37854, symSize: 0x74 }
  - { offset: 0x71EDC, size: 0x8, addend: 0x0, symName: __ZN3std4path4Path9file_name17h30bda01658994930E, symObjAddr: 0x32898, symBinAddr: 0x378C8, symSize: 0x64 }
  - { offset: 0x71EF4, size: 0x8, addend: 0x0, symName: __ZN3std4path4Path9file_name17h30bda01658994930E, symObjAddr: 0x32898, symBinAddr: 0x378C8, symSize: 0x64 }
  - { offset: 0x71F0A, size: 0x8, addend: 0x0, symName: __ZN3std4path4Path9file_name17h30bda01658994930E, symObjAddr: 0x32898, symBinAddr: 0x378C8, symSize: 0x64 }
  - { offset: 0x71F4B, size: 0x8, addend: 0x0, symName: __ZN3std4path4Path13_strip_prefix17h88d930a53388140eE, symObjAddr: 0x328FC, symBinAddr: 0x3792C, symSize: 0x21C }
  - { offset: 0x72066, size: 0x8, addend: 0x0, symName: __ZN3std4path4Path12_starts_with17hc12db98a0886576bE, symObjAddr: 0x32B18, symBinAddr: 0x37B48, symSize: 0x198 }
  - { offset: 0x7216A, size: 0x8, addend: 0x0, symName: __ZN3std4path4Path10_ends_with17h18087f8f4e0e1042E, symObjAddr: 0x32CB0, symBinAddr: 0x37CE0, symSize: 0x198 }
  - { offset: 0x722D6, size: 0x8, addend: 0x0, symName: __ZN3std4path4Path9file_stem17h71f3329d6b754215E, symObjAddr: 0x32E48, symBinAddr: 0x37E78, symSize: 0xF0 }
  - { offset: 0x722EE, size: 0x8, addend: 0x0, symName: __ZN3std4path4Path9file_stem17h71f3329d6b754215E, symObjAddr: 0x32E48, symBinAddr: 0x37E78, symSize: 0xF0 }
  - { offset: 0x72304, size: 0x8, addend: 0x0, symName: __ZN3std4path4Path9file_stem17h71f3329d6b754215E, symObjAddr: 0x32E48, symBinAddr: 0x37E78, symSize: 0xF0 }
  - { offset: 0x7231A, size: 0x8, addend: 0x0, symName: __ZN3std4path4Path9file_stem17h71f3329d6b754215E, symObjAddr: 0x32E48, symBinAddr: 0x37E78, symSize: 0xF0 }
  - { offset: 0x725D6, size: 0x8, addend: 0x0, symName: __ZN3std4path4Path11file_prefix17hb8f525cebccf8b2bE, symObjAddr: 0x32F38, symBinAddr: 0x37F68, symSize: 0x130 }
  - { offset: 0x727D7, size: 0x8, addend: 0x0, symName: __ZN3std4path4Path9extension17hdea26fe6edfdecadE, symObjAddr: 0x33068, symBinAddr: 0x38098, symSize: 0xC0 }
  - { offset: 0x727EF, size: 0x8, addend: 0x0, symName: __ZN3std4path4Path9extension17hdea26fe6edfdecadE, symObjAddr: 0x33068, symBinAddr: 0x38098, symSize: 0xC0 }
  - { offset: 0x72805, size: 0x8, addend: 0x0, symName: __ZN3std4path4Path9extension17hdea26fe6edfdecadE, symObjAddr: 0x33068, symBinAddr: 0x38098, symSize: 0xC0 }
  - { offset: 0x7281B, size: 0x8, addend: 0x0, symName: __ZN3std4path4Path9extension17hdea26fe6edfdecadE, symObjAddr: 0x33068, symBinAddr: 0x38098, symSize: 0xC0 }
  - { offset: 0x72AA1, size: 0x8, addend: 0x0, symName: __ZN3std4path4Path5_join17h53ab8eaeefbbca6eE, symObjAddr: 0x33128, symBinAddr: 0x38158, symSize: 0x1AC }
  - { offset: 0x72F6B, size: 0x8, addend: 0x0, symName: __ZN3std4path4Path15_with_file_name17h57705f0324b9cf98E, symObjAddr: 0x332D4, symBinAddr: 0x38304, symSize: 0xF0 }
  - { offset: 0x731B6, size: 0x8, addend: 0x0, symName: __ZN3std4path4Path15_with_extension17hbdf6cf82cde3abb4E, symObjAddr: 0x333C4, symBinAddr: 0x383F4, symSize: 0x21C }
  - { offset: 0x736CD, size: 0x8, addend: 0x0, symName: __ZN3std4path4Path10components17h0e34147908f9c307E, symObjAddr: 0x335E0, symBinAddr: 0x38610, symSize: 0x40 }
  - { offset: 0x7370F, size: 0x8, addend: 0x0, symName: __ZN3std4path4Path7is_file17h781f91c7563b900eE, symObjAddr: 0x33620, symBinAddr: 0x38650, symSize: 0x1C8 }
  - { offset: 0x73B2E, size: 0x8, addend: 0x0, symName: __ZN3std4path4Path6is_dir17hd7029c399cb9cb1bE, symObjAddr: 0x337E8, symBinAddr: 0x38818, symSize: 0x1C8 }
  - { offset: 0x73F4D, size: 0x8, addend: 0x0, symName: __ZN3std4path4Path10is_symlink17h1b28326025a06578E, symObjAddr: 0x339B0, symBinAddr: 0x389E0, symSize: 0x1C8 }
  - { offset: 0x7455D, size: 0x8, addend: 0x0, symName: '__ZN58_$LT$std..path..Components$u20$as$u20$core..fmt..Debug$GT$3fmt17h5acf866becf05e12E', symObjAddr: 0x30C08, symBinAddr: 0x35C38, symSize: 0x64 }
  - { offset: 0x74584, size: 0x8, addend: 0x0, symName: '__ZN112_$LT$$LT$std..path..Components$u20$as$u20$core..fmt..Debug$GT$..fmt..DebugHelper$u20$as$u20$core..fmt..Debug$GT$3fmt17h1f8278b1f4902f22E', symObjAddr: 0x30C6C, symBinAddr: 0x35C9C, symSize: 0xD4 }
  - { offset: 0x7465E, size: 0x8, addend: 0x0, symName: __ZN3std4path10Components15len_before_body17hd0b48abad841df37E, symObjAddr: 0x30D40, symBinAddr: 0x35D70, symSize: 0x188 }
  - { offset: 0x74676, size: 0x8, addend: 0x0, symName: __ZN3std4path10Components15len_before_body17hd0b48abad841df37E, symObjAddr: 0x30D40, symBinAddr: 0x35D70, symSize: 0x188 }
  - { offset: 0x7468C, size: 0x8, addend: 0x0, symName: __ZN3std4path10Components15len_before_body17hd0b48abad841df37E, symObjAddr: 0x30D40, symBinAddr: 0x35D70, symSize: 0x188 }
  - { offset: 0x7486C, size: 0x8, addend: 0x0, symName: __ZN3std4path10Components7as_path17h4273c1854149c1f9E, symObjAddr: 0x30EC8, symBinAddr: 0x35EF8, symSize: 0x318 }
  - { offset: 0x74B25, size: 0x8, addend: 0x0, symName: __ZN3std4path10Components25parse_next_component_back17h9fab8fc88444067cE, symObjAddr: 0x311E0, symBinAddr: 0x36210, symSize: 0x124 }
  - { offset: 0x74D23, size: 0x8, addend: 0x0, symName: '__ZN52_$LT$std..path..Iter$u20$as$u20$core..fmt..Debug$GT$3fmt17hc4004c0909a10cd9E', symObjAddr: 0x31304, symBinAddr: 0x36334, symSize: 0x64 }
  - { offset: 0x74D61, size: 0x8, addend: 0x0, symName: '__ZN106_$LT$$LT$std..path..Iter$u20$as$u20$core..fmt..Debug$GT$..fmt..DebugHelper$u20$as$u20$core..fmt..Debug$GT$3fmt17h742c40f829992dbcE', symObjAddr: 0x31368, symBinAddr: 0x36398, symSize: 0x134 }
  - { offset: 0x74E54, size: 0x8, addend: 0x0, symName: '__ZN80_$LT$std..path..Components$u20$as$u20$core..iter..traits..iterator..Iterator$GT$4next17h86c766e57df19e13E', symObjAddr: 0x3149C, symBinAddr: 0x364CC, symSize: 0x340 }
  - { offset: 0x751CE, size: 0x8, addend: 0x0, symName: '__ZN95_$LT$std..path..Components$u20$as$u20$core..iter..traits..double_ended..DoubleEndedIterator$GT$9next_back17h633f8d0116ab052fE', symObjAddr: 0x317DC, symBinAddr: 0x3680C, symSize: 0x360 }
  - { offset: 0x75383, size: 0x8, addend: 0x0, symName: __ZN3std4path18compare_components17h9cb92bcbf04a295bE, symObjAddr: 0x31B3C, symBinAddr: 0x36B6C, symSize: 0x2F0 }
  - { offset: 0x75795, size: 0x8, addend: 0x0, symName: __ZN3std4path7PathBuf5_push17h843663e6e02fabe1E, symObjAddr: 0x31E2C, symBinAddr: 0x36E5C, symSize: 0x10C }
  - { offset: 0x75A9D, size: 0x8, addend: 0x0, symName: __ZN3std4path7PathBuf3pop17h9a2601710b8ecf96E, symObjAddr: 0x31F38, symBinAddr: 0x36F68, symSize: 0xE4 }
  - { offset: 0x75CF4, size: 0x8, addend: 0x0, symName: __ZN3std4path7PathBuf14_set_file_name17h29f9dbd18c03c863E, symObjAddr: 0x3201C, symBinAddr: 0x3704C, symSize: 0x154 }
  - { offset: 0x76161, size: 0x8, addend: 0x0, symName: __ZN3std4path7PathBuf14_set_extension17h97918d0d17525f4dE, symObjAddr: 0x32170, symBinAddr: 0x371A0, symSize: 0x2F4 }
  - { offset: 0x76A06, size: 0x8, addend: 0x0, symName: __ZN3std4path7PathBuf14_add_extension17hdcbf2265c2507da8E, symObjAddr: 0x32464, symBinAddr: 0x37494, symSize: 0x25C }
  - { offset: 0x77093, size: 0x8, addend: 0x0, symName: '__ZN3std4path117_$LT$impl$u20$core..convert..From$LT$$RF$std..path..Path$GT$$u20$for$u20$alloc..boxed..Box$LT$std..path..Path$GT$$GT$4from17hbb4cd3d913ebf620E', symObjAddr: 0x326C0, symBinAddr: 0x376F0, symSize: 0x88 }
  - { offset: 0x771CC, size: 0x8, addend: 0x0, symName: '__ZN3std4path125_$LT$impl$u20$core..convert..From$LT$$RF$mut$u20$std..path..Path$GT$$u20$for$u20$alloc..boxed..Box$LT$std..path..Path$GT$$GT$4from17h7ef90c176540dcceE', symObjAddr: 0x32748, symBinAddr: 0x37778, symSize: 0x88 }
  - { offset: 0x7731B, size: 0x8, addend: 0x0, symName: '__ZN52_$LT$std..path..Path$u20$as$u20$core..fmt..Debug$GT$3fmt17h26aabfbb246a3f29E', symObjAddr: 0x33B78, symBinAddr: 0x38BA8, symSize: 0x28 }
  - { offset: 0x7737A, size: 0x8, addend: 0x0, symName: '__ZN55_$LT$std..path..PathBuf$u20$as$u20$core..fmt..Debug$GT$3fmt17h4bc5c7291d9b7647E', symObjAddr: 0x327D0, symBinAddr: 0x37800, symSize: 0x28 }
  - { offset: 0x7751C, size: 0x8, addend: 0x0, symName: '__ZN55_$LT$std..path..Display$u20$as$u20$core..fmt..Debug$GT$3fmt17h102cdbab4430f5f7E', symObjAddr: 0x33BA0, symBinAddr: 0x38BD0, symSize: 0x28 }
  - { offset: 0x775B0, size: 0x8, addend: 0x0, symName: '__ZN57_$LT$std..path..Display$u20$as$u20$core..fmt..Display$GT$3fmt17h02622df5e0e897d3E', symObjAddr: 0x33BC8, symBinAddr: 0x38BF8, symSize: 0x10 }
  - { offset: 0x775D9, size: 0x8, addend: 0x0, symName: '__ZN66_$LT$std..path..StripPrefixError$u20$as$u20$core..fmt..Display$GT$3fmt17hd8c14277633a61f2E', symObjAddr: 0x33BD8, symBinAddr: 0x38C08, symSize: 0x20 }
  - { offset: 0x77624, size: 0x8, addend: 0x0, symName: '__ZN61_$LT$std..path..Component$u20$as$u20$core..cmp..PartialEq$GT$2eq17hd83b34de17d0d8fbE', symObjAddr: 0x3C640, symBinAddr: 0x4093C, symSize: 0x138 }
  - { offset: 0x7778E, size: 0x8, addend: 0x0, symName: '__ZN57_$LT$std..path..Component$u20$as$u20$core..fmt..Debug$GT$3fmt17h4ae6eb940ae895c5E', symObjAddr: 0x3C778, symBinAddr: 0x40A74, symSize: 0xD0 }
  - { offset: 0x77810, size: 0x8, addend: 0x0, symName: '__ZN72_$LT$std..sys..fs..unix..FilePermissions$u20$as$u20$core..fmt..Debug$GT$3fmt17h956bcbee43932d0bE', symObjAddr: 0x3EEB4, symBinAddr: 0x43064, symSize: 0x6C }
  - { offset: 0x778BE, size: 0x8, addend: 0x0, symName: __ZN3std3sys2fs4unix15remove_dir_impl24remove_dir_all_recursive17h8ebbe8d3f46f2344E, symObjAddr: 0x406A0, symBinAddr: 0x44850, symSize: 0x350 }
  - { offset: 0x782D0, size: 0x8, addend: 0x0, symName: __ZN3std3sys2fs4unix4File6open_c17h3885f1fb4e39467eE, symObjAddr: 0x3F3E8, symBinAddr: 0x43598, symSize: 0x1B0 }
  - { offset: 0x783BA, size: 0x8, addend: 0x0, symName: __ZN3std3sys2fs4unix4File4read17h07d9d7c68a07c49bE, symObjAddr: 0x3F598, symBinAddr: 0x43748, symSize: 0x58 }
  - { offset: 0x784C4, size: 0x8, addend: 0x0, symName: __ZN3std3sys2fs4unix4File13read_vectored17hdb98ba7b7f1e3beaE, symObjAddr: 0x3F5F0, symBinAddr: 0x437A0, symSize: 0x58 }
  - { offset: 0x785CE, size: 0x8, addend: 0x0, symName: __ZN3std3sys2fs4unix4File8read_buf17h4c44e57279292d56E, symObjAddr: 0x3F648, symBinAddr: 0x437F8, symSize: 0x78 }
  - { offset: 0x78920, size: 0x8, addend: 0x0, symName: '__ZN86_$LT$std..sys..fs..unix..ReadDir$u20$as$u20$core..iter..traits..iterator..Iterator$GT$4next17h07858790e01e3c2bE', symObjAddr: 0x3EF4C, symBinAddr: 0x430FC, symSize: 0x138 }
  - { offset: 0x78C26, size: 0x8, addend: 0x0, symName: __ZN3std3sys2fs4unix8DirEntry8metadata17h3f755aaff8dbed5aE, symObjAddr: 0x3F150, symBinAddr: 0x43300, symSize: 0x178 }
  - { offset: 0x79222, size: 0x8, addend: 0x0, symName: '__ZN3std3sys2fs4unix10DirBuilder5mkdir28_$u7b$$u7b$closure$u7d$$u7d$17h04359a0e2a26d274E', symObjAddr: 0x3F6C0, symBinAddr: 0x43870, symSize: 0x44 }
  - { offset: 0x793B9, size: 0x8, addend: 0x0, symName: '__ZN78_$LT$std..sys..fs..unix..copy..FreeOnDrop$u20$as$u20$core..ops..drop..Drop$GT$4drop17hd8c9fe1d3c470819E', symObjAddr: 0x40174, symBinAddr: 0x44324, symSize: 0x14 }
  - { offset: 0x793CE, size: 0x8, addend: 0x0, symName: '__ZN3std3sys2fs4unix4copy28_$u7b$$u7b$closure$u7d$$u7d$17hf3659edd524daa58E', symObjAddr: 0x40188, symBinAddr: 0x44338, symSize: 0x64 }
  - { offset: 0x794C3, size: 0x8, addend: 0x0, symName: '__ZN65_$LT$std..sys..fs..unix..FileType$u20$as$u20$core..fmt..Debug$GT$3fmt17ha6eb5c14d166d878E', symObjAddr: 0x3EE48, symBinAddr: 0x42FF8, symSize: 0x6C }
  - { offset: 0x794E5, size: 0x8, addend: 0x0, symName: '__ZN64_$LT$std..sys..fs..unix..ReadDir$u20$as$u20$core..fmt..Debug$GT$3fmt17h53993ab6aeaf9711E', symObjAddr: 0x3EF20, symBinAddr: 0x430D0, symSize: 0x2C }
  - { offset: 0x796A1, size: 0x8, addend: 0x0, symName: '__ZN65_$LT$std..sys..fs..unix..Dir$u20$as$u20$core..ops..drop..Drop$GT$4drop17h725d62aeed9ec1d6E', symObjAddr: 0x3F084, symBinAddr: 0x43234, symSize: 0xCC }
  - { offset: 0x79779, size: 0x8, addend: 0x0, symName: '__ZN68_$LT$std..sys..fs..unix..OpenOptions$u20$as$u20$core..fmt..Debug$GT$3fmt17h27951e2ce8ff371cE', symObjAddr: 0x3F2C8, symBinAddr: 0x43478, symSize: 0x120 }
  - { offset: 0x7979B, size: 0x8, addend: 0x0, symName: '__ZN67_$LT$std..sys..fs..unix..DirBuilder$u20$as$u20$core..fmt..Debug$GT$3fmt17h63ed802d232a3120E', symObjAddr: 0x3F704, symBinAddr: 0x438B4, symSize: 0x6C }
  - { offset: 0x797BD, size: 0x8, addend: 0x0, symName: '__ZN72_$LT$std..sys..fs..unix..File$u20$as$u20$std..os..fd..raw..FromRawFd$GT$11from_raw_fd17ha12199d89ba26aeaE', symObjAddr: 0x3F770, symBinAddr: 0x43920, symSize: 0x2C }
  - { offset: 0x797F8, size: 0x8, addend: 0x0, symName: '__ZN72_$LT$std..sys..fs..unix..File$u20$as$u20$std..os..fd..raw..FromRawFd$GT$11from_raw_fd17ha12199d89ba26aeaE', symObjAddr: 0x3F770, symBinAddr: 0x43920, symSize: 0x2C }
  - { offset: 0x7984B, size: 0x8, addend: 0x0, symName: '__ZN61_$LT$std..sys..fs..unix..File$u20$as$u20$core..fmt..Debug$GT$3fmt17hada02e1c3b6d5e13E', symObjAddr: 0x3F79C, symBinAddr: 0x4394C, symSize: 0x23C }
  - { offset: 0x79CFF, size: 0x8, addend: 0x0, symName: '__ZN61_$LT$std..sys..fs..unix..Mode$u20$as$u20$core..fmt..Debug$GT$3fmt17hdedc216e975e51cdE', symObjAddr: 0x3F9D8, symBinAddr: 0x43B88, symSize: 0x300 }
  - { offset: 0x79D49, size: 0x8, addend: 0x0, symName: __ZN3std3sys2fs4unix8readlink17hb5a78fdf6da3bfedE, symObjAddr: 0x3FCD8, symBinAddr: 0x43E88, symSize: 0x1A4 }
  - { offset: 0x7A109, size: 0x8, addend: 0x0, symName: __ZN3std3sys2fs4unix12canonicalize17h16dbbad9e385b9edE, symObjAddr: 0x3FE7C, symBinAddr: 0x4402C, symSize: 0xD0 }
  - { offset: 0x7A2DD, size: 0x8, addend: 0x0, symName: '__ZN77_$LT$std..sys..fs..unix..cfm..CachedFileMetadata$u20$as$u20$std..io..Read$GT$4read17hc5a4186ff6d88b4fE', symObjAddr: 0x3FF4C, symBinAddr: 0x440FC, symSize: 0x58 }
  - { offset: 0x7A433, size: 0x8, addend: 0x0, symName: '__ZN77_$LT$std..sys..fs..unix..cfm..CachedFileMetadata$u20$as$u20$std..io..Read$GT$13read_vectored17h9a2476b70ff2d207E', symObjAddr: 0x3FFA4, symBinAddr: 0x44154, symSize: 0x58 }
  - { offset: 0x7A589, size: 0x8, addend: 0x0, symName: '__ZN77_$LT$std..sys..fs..unix..cfm..CachedFileMetadata$u20$as$u20$std..io..Read$GT$8read_buf17hd588c598ea42ae5aE', symObjAddr: 0x3FFFC, symBinAddr: 0x441AC, symSize: 0x78 }
  - { offset: 0x7A798, size: 0x8, addend: 0x0, symName: '__ZN77_$LT$std..sys..fs..unix..cfm..CachedFileMetadata$u20$as$u20$std..io..Read$GT$11read_to_end17h76727e5b7c700a45E', symObjAddr: 0x40074, symBinAddr: 0x44224, symSize: 0x28 }
  - { offset: 0x7A7CA, size: 0x8, addend: 0x0, symName: '__ZN77_$LT$std..sys..fs..unix..cfm..CachedFileMetadata$u20$as$u20$std..io..Read$GT$14read_to_string17h0250708dfab3bbf1E', symObjAddr: 0x4009C, symBinAddr: 0x4424C, symSize: 0x28 }
  - { offset: 0x7A803, size: 0x8, addend: 0x0, symName: '__ZN78_$LT$std..sys..fs..unix..cfm..CachedFileMetadata$u20$as$u20$std..io..Write$GT$5write17h07487f9fbdc37f42E', symObjAddr: 0x400C4, symBinAddr: 0x44274, symSize: 0x58 }
  - { offset: 0x7A92F, size: 0x8, addend: 0x0, symName: '__ZN78_$LT$std..sys..fs..unix..cfm..CachedFileMetadata$u20$as$u20$std..io..Write$GT$14write_vectored17haf0af43d04629beeE', symObjAddr: 0x4011C, symBinAddr: 0x442CC, symSize: 0x58 }
  - { offset: 0x7AA71, size: 0x8, addend: 0x0, symName: '__ZN3std3sys2fs4unix5chown28_$u7b$$u7b$closure$u7d$$u7d$17hbce68dd59a52a19dE', symObjAddr: 0x402B4, symBinAddr: 0x44464, symSize: 0x48 }
  - { offset: 0x7AAF8, size: 0x8, addend: 0x0, symName: __ZN3std3sys2fs4unix5chown17h4fc67c432389f02cE, symObjAddr: 0x401EC, symBinAddr: 0x4439C, symSize: 0xC8 }
  - { offset: 0x7AC0F, size: 0x8, addend: 0x0, symName: __ZN3std3sys2fs4unix6fchown17h8c9ab78ec1d83cccE, symObjAddr: 0x402FC, symBinAddr: 0x444AC, symSize: 0x34 }
  - { offset: 0x7ACB0, size: 0x8, addend: 0x0, symName: '__ZN3std3sys2fs4unix6lchown28_$u7b$$u7b$closure$u7d$$u7d$17h0df906cbfdd6f35aE', symObjAddr: 0x403F8, symBinAddr: 0x445A8, symSize: 0x48 }
  - { offset: 0x7AD37, size: 0x8, addend: 0x0, symName: __ZN3std3sys2fs4unix6lchown17ha4664882cdd847f2E, symObjAddr: 0x40330, symBinAddr: 0x444E0, symSize: 0xC8 }
  - { offset: 0x7AE62, size: 0x8, addend: 0x0, symName: '__ZN3std3sys2fs4unix6chroot28_$u7b$$u7b$closure$u7d$$u7d$17hb46ecea072343aefE', symObjAddr: 0x40500, symBinAddr: 0x446B0, symSize: 0x38 }
  - { offset: 0x7AEE9, size: 0x8, addend: 0x0, symName: __ZN3std3sys2fs4unix6chroot17h239ea89db27e6095E, symObjAddr: 0x40440, symBinAddr: 0x445F0, symSize: 0xC0 }
  - { offset: 0x7B014, size: 0x8, addend: 0x0, symName: '__ZN3std3sys2fs4unix6mkfifo28_$u7b$$u7b$closure$u7d$$u7d$17h519d49ff24776893E', symObjAddr: 0x40628, symBinAddr: 0x447D8, symSize: 0x78 }
  - { offset: 0x7B0DE, size: 0x8, addend: 0x0, symName: __ZN3std3sys2fs4unix6mkfifo17hc12cb9a7aa3b399aE, symObjAddr: 0x40538, symBinAddr: 0x446E8, symSize: 0xF0 }
  - { offset: 0x7B243, size: 0x8, addend: 0x0, symName: __ZN3std3sys2fs8read_dir17h1a5d1a28f4cd1588E, symObjAddr: 0x378C8, symBinAddr: 0x3C00C, symSize: 0x1A4 }
  - { offset: 0x7B50D, size: 0x8, addend: 0x0, symName: __ZN3std3sys2fs11remove_file17hc6bdfbfa83864e9cE, symObjAddr: 0x37A6C, symBinAddr: 0x3C1B0, symSize: 0xC0 }
  - { offset: 0x7B65E, size: 0x8, addend: 0x0, symName: '__ZN3std3sys2fs6rename28_$u7b$$u7b$closure$u7d$$u7d$28_$u7b$$u7b$closure$u7d$$u7d$17hab24707b148b6fedE', symObjAddr: 0x37D0C, symBinAddr: 0x3C450, symSize: 0x38 }
  - { offset: 0x7B6FB, size: 0x8, addend: 0x0, symName: '__ZN3std3sys2fs6rename28_$u7b$$u7b$closure$u7d$$u7d$17h9a425a7a6b0e01daE', symObjAddr: 0x37C50, symBinAddr: 0x3C394, symSize: 0xBC }
  - { offset: 0x7B821, size: 0x8, addend: 0x0, symName: __ZN3std3sys2fs6rename17hd55848aaf4fd5a4dE, symObjAddr: 0x37B2C, symBinAddr: 0x3C270, symSize: 0x124 }
  - { offset: 0x7B9BD, size: 0x8, addend: 0x0, symName: __ZN3std3sys2fs10remove_dir17h8b3b66f3eef99368E, symObjAddr: 0x37D44, symBinAddr: 0x3C488, symSize: 0xC0 }
  - { offset: 0x7BAE8, size: 0x8, addend: 0x0, symName: __ZN3std3sys2fs14remove_dir_all17h9bdb0669bf16eda8E, symObjAddr: 0x37E04, symBinAddr: 0x3C548, symSize: 0x118 }
  - { offset: 0x7BC66, size: 0x8, addend: 0x0, symName: __ZN3std3sys2fs9read_link17ha881332bf5b6c8e5E, symObjAddr: 0x37F1C, symBinAddr: 0x3C660, symSize: 0xB0 }
  - { offset: 0x7BD2F, size: 0x8, addend: 0x0, symName: '__ZN3std3sys2fs7symlink28_$u7b$$u7b$closure$u7d$$u7d$28_$u7b$$u7b$closure$u7d$$u7d$17he650cb1e9468e9c7E', symObjAddr: 0x381AC, symBinAddr: 0x3C8F0, symSize: 0x38 }
  - { offset: 0x7BDCC, size: 0x8, addend: 0x0, symName: '__ZN3std3sys2fs7symlink28_$u7b$$u7b$closure$u7d$$u7d$17heb2183673a0eab5dE', symObjAddr: 0x380F0, symBinAddr: 0x3C834, symSize: 0xBC }
  - { offset: 0x7BEF2, size: 0x8, addend: 0x0, symName: __ZN3std3sys2fs7symlink17h2a9bbae4d6c749e5E, symObjAddr: 0x37FCC, symBinAddr: 0x3C710, symSize: 0x124 }
  - { offset: 0x7C0B4, size: 0x8, addend: 0x0, symName: '__ZN3std3sys2fs9hard_link28_$u7b$$u7b$closure$u7d$$u7d$28_$u7b$$u7b$closure$u7d$$u7d$17h5fc0f460d1cffdd4E', symObjAddr: 0x383DC, symBinAddr: 0x3CB20, symSize: 0x48 }
  - { offset: 0x7C151, size: 0x8, addend: 0x0, symName: '__ZN3std3sys2fs9hard_link28_$u7b$$u7b$closure$u7d$$u7d$17h8dd285ebc757c5abE', symObjAddr: 0x38314, symBinAddr: 0x3CA58, symSize: 0xC8 }
  - { offset: 0x7C277, size: 0x8, addend: 0x0, symName: __ZN3std3sys2fs9hard_link17h185b1c64fb4964a7E, symObjAddr: 0x381E4, symBinAddr: 0x3C928, symSize: 0x130 }
  - { offset: 0x7C413, size: 0x8, addend: 0x0, symName: __ZN3std3sys2fs8metadata17h9ba63fea0789e47dE, symObjAddr: 0x38424, symBinAddr: 0x3CB68, symSize: 0x128 }
  - { offset: 0x7C58B, size: 0x8, addend: 0x0, symName: __ZN3std3sys2fs16symlink_metadata17hc0dc1d90dfcd59beE, symObjAddr: 0x3854C, symBinAddr: 0x3CC90, symSize: 0x128 }
  - { offset: 0x7C716, size: 0x8, addend: 0x0, symName: '__ZN3std3sys2fs15set_permissions28_$u7b$$u7b$closure$u7d$$u7d$17hd96e3c0a39d0946aE', symObjAddr: 0x38750, symBinAddr: 0x3CE94, symSize: 0x68 }
  - { offset: 0x7C7F5, size: 0x8, addend: 0x0, symName: __ZN3std3sys2fs15set_permissions17he3f504a69f5605b3E, symObjAddr: 0x38674, symBinAddr: 0x3CDB8, symSize: 0xDC }
  - { offset: 0x7C962, size: 0x8, addend: 0x0, symName: __ZN3std3sys2fs12canonicalize17h875b6d19a19c4630E, symObjAddr: 0x387B8, symBinAddr: 0x3CEFC, symSize: 0xB0 }
  - { offset: 0x7CA05, size: 0x8, addend: 0x0, symName: __ZN3std3sys2fs4copy17h20461772e953e738E, symObjAddr: 0x38868, symBinAddr: 0x3CFAC, symSize: 0x39C }
  - { offset: 0x7D36F, size: 0x8, addend: 0x0, symName: __ZN3std3sys2fs6exists17hd983b9c4efe31c22E, symObjAddr: 0x38C04, symBinAddr: 0x3D348, symSize: 0x21C }
  - { offset: 0x7D755, size: 0x8, addend: 0x0, symName: '__ZN78_$LT$std..sys..process..unix..unix..ExitStatus$u20$as$u20$core..fmt..Debug$GT$3fmt17he01dcdb745e6a5faE', symObjAddr: 0x45128, symBinAddr: 0x492D8, symSize: 0x58 }
  - { offset: 0x7D7B6, size: 0x8, addend: 0x0, symName: __ZN3std3sys7process4unix4unix7Process4wait17h73c9e59152317a26E, symObjAddr: 0x45088, symBinAddr: 0x49238, symSize: 0xA0 }
  - { offset: 0x7D9B2, size: 0x8, addend: 0x0, symName: '__ZN166_$LT$std..sys..process..unix..unix..$LT$impl$u20$std..sys..process..unix..common..Command$GT$..posix_spawn..PosixSpawnFileActions$u20$as$u20$core..ops..drop..Drop$GT$4drop17h583710a438e2d4edE', symObjAddr: 0x45060, symBinAddr: 0x49210, symSize: 0x14 }
  - { offset: 0x7D9DB, size: 0x8, addend: 0x0, symName: '__ZN159_$LT$std..sys..process..unix..unix..$LT$impl$u20$std..sys..process..unix..common..Command$GT$..posix_spawn..PosixSpawnattr$u20$as$u20$core..ops..drop..Drop$GT$4drop17hb5ea410b0cea9052E', symObjAddr: 0x45074, symBinAddr: 0x49224, symSize: 0x14 }
  - { offset: 0x7DA43, size: 0x8, addend: 0x0, symName: '__ZN146_$LT$std..sys..process..unix..unix..$LT$impl$u20$std..sys..process..unix..common..Command$GT$..do_exec..Reset$u20$as$u20$core..ops..drop..Drop$GT$4drop17ha78caf51bd8384cfE', symObjAddr: 0x4503C, symBinAddr: 0x491EC, symSize: 0x24 }
  - { offset: 0x7DA85, size: 0x8, addend: 0x0, symName: '__ZN80_$LT$std..sys..process..unix..unix..ExitStatus$u20$as$u20$core..fmt..Display$GT$3fmt17hd89387896af0ad80E', symObjAddr: 0x45180, symBinAddr: 0x49330, symSize: 0x1F8 }
  - { offset: 0x7DC4A, size: 0x8, addend: 0x0, symName: '__ZN83_$LT$std..sys..process..unix..unix..ExitStatusError$u20$as$u20$core..fmt..Debug$GT$3fmt17h43c564e7b136df55E', symObjAddr: 0x45378, symBinAddr: 0x49528, symSize: 0x58 }
  - { offset: 0x7DCD9, size: 0x8, addend: 0x0, symName: __ZN3std3sys7process4unix6common7Command3new17h5a7689764de16662E, symObjAddr: 0x42534, symBinAddr: 0x466E4, symSize: 0x2C8 }
  - { offset: 0x7E27C, size: 0x8, addend: 0x0, symName: __ZN3std3sys7process4unix6common7Command9set_arg_017hc20e3f63b7258718E, symObjAddr: 0x427FC, symBinAddr: 0x469AC, symSize: 0x134 }
  - { offset: 0x7E650, size: 0x8, addend: 0x0, symName: __ZN3std3sys7process4unix6common7Command3arg17ha6e8a3f7ea735b7bE, symObjAddr: 0x42930, symBinAddr: 0x46AE0, symSize: 0x15C }
  - { offset: 0x7E9F3, size: 0x8, addend: 0x0, symName: __ZN3std3sys7process4unix6common7Command3cwd17h68173abb24dd673eE, symObjAddr: 0x42A8C, symBinAddr: 0x46C3C, symSize: 0xD4 }
  - { offset: 0x7EC44, size: 0x8, addend: 0x0, symName: __ZN3std3sys7process4unix6common7Command8pre_exec17hae1b6af51959afbfE, symObjAddr: 0x42B60, symBinAddr: 0x46D10, symSize: 0x78 }
  - { offset: 0x7ED23, size: 0x8, addend: 0x0, symName: __ZN3std3sys7process4unix6common7Command5stdin17ha63ceadd627ef6e1E, symObjAddr: 0x42BD8, symBinAddr: 0x46D88, symSize: 0x44 }
  - { offset: 0x7EDB1, size: 0x8, addend: 0x0, symName: __ZN3std3sys7process4unix6common7Command6stdout17hbd959057f0fd55b9E, symObjAddr: 0x42C1C, symBinAddr: 0x46DCC, symSize: 0x44 }
  - { offset: 0x7EE3F, size: 0x8, addend: 0x0, symName: __ZN3std3sys7process4unix6common7Command6stderr17h11239bd4ea631ee1E, symObjAddr: 0x42C60, symBinAddr: 0x46E10, symSize: 0x44 }
  - { offset: 0x7EECD, size: 0x8, addend: 0x0, symName: __ZN3std3sys7process4unix6common7Command11capture_env17hd54cab8e2709017fE, symObjAddr: 0x42CA4, symBinAddr: 0x46E54, symSize: 0xA74 }
  - { offset: 0x80C7A, size: 0x8, addend: 0x0, symName: __ZN3std3sys7process4unix6common7Command8setup_io17h8a4103ac089e51eeE, symObjAddr: 0x43718, symBinAddr: 0x478C8, symSize: 0x2F4 }
  - { offset: 0x81172, size: 0x8, addend: 0x0, symName: '__ZN3std3sys7process4unix4unix58_$LT$impl$u20$std..sys..process..unix..common..Command$GT$5spawn17ha8be0343a72cf114E', symObjAddr: 0x44344, symBinAddr: 0x484F4, symSize: 0x98C }
  - { offset: 0x82449, size: 0x8, addend: 0x0, symName: '__ZN3std3sys7process4unix4unix58_$LT$impl$u20$std..sys..process..unix..common..Command$GT$7do_exec17hbff75d964c1ddd94E', symObjAddr: 0x44CD0, symBinAddr: 0x48E80, symSize: 0x36C }
  - { offset: 0x82D8C, size: 0x8, addend: 0x0, symName: '__ZN103_$LT$std..sys..process..unix..common..CommandArgs$u20$as$u20$core..iter..traits..iterator..Iterator$GT$4next17hbbdd86d1dc50a963E', symObjAddr: 0x44254, symBinAddr: 0x48404, symSize: 0x34 }
  - { offset: 0x82DA4, size: 0x8, addend: 0x0, symName: '__ZN103_$LT$std..sys..process..unix..common..CommandArgs$u20$as$u20$core..iter..traits..iterator..Iterator$GT$4next17hbbdd86d1dc50a963E', symObjAddr: 0x44254, symBinAddr: 0x48404, symSize: 0x34 }
  - { offset: 0x82E11, size: 0x8, addend: 0x0, symName: '__ZN103_$LT$std..sys..process..unix..common..CommandArgs$u20$as$u20$core..iter..traits..iterator..Iterator$GT$9size_hint17hd2077482aae0390eE', symObjAddr: 0x44288, symBinAddr: 0x48438, symSize: 0x28 }
  - { offset: 0x82E95, size: 0x8, addend: 0x0, symName: '__ZN114_$LT$std..sys..process..unix..common..CommandArgs$u20$as$u20$core..iter..traits..exact_size..ExactSizeIterator$GT$3len17h72459b364720daa3E', symObjAddr: 0x442B0, symBinAddr: 0x48460, symSize: 0x1C }
  - { offset: 0x82FC0, size: 0x8, addend: 0x0, symName: __ZN3std3sys7process4unix6common5Stdio14to_child_stdio17h2ea7752256774cc9E, symObjAddr: 0x43A0C, symBinAddr: 0x47BBC, symSize: 0x15C }
  - { offset: 0x830FE, size: 0x8, addend: 0x0, symName: '__ZN77_$LT$std..sys..process..unix..common..Command$u20$as$u20$core..fmt..Debug$GT$3fmt17h49e51e3858513967E', symObjAddr: 0x43B68, symBinAddr: 0x47D18, symSize: 0x694 }
  - { offset: 0x838A9, size: 0x8, addend: 0x0, symName: '__ZN78_$LT$std..sys..process..unix..common..ExitCode$u20$as$u20$core..fmt..Debug$GT$3fmt17h8078077da0cce327E', symObjAddr: 0x441FC, symBinAddr: 0x483AC, symSize: 0x58 }
  - { offset: 0x838CB, size: 0x8, addend: 0x0, symName: '__ZN81_$LT$std..sys..process..unix..common..CommandArgs$u20$as$u20$core..fmt..Debug$GT$3fmt17h8efccc6534d88ce0E', symObjAddr: 0x442CC, symBinAddr: 0x4847C, symSize: 0x78 }
  - { offset: 0x83984, size: 0x8, addend: 0x0, symName: __ZN3std3sys7process3env10CommandEnv3set17hb5bc70bef70e111cE, symObjAddr: 0x38EA4, symBinAddr: 0x3D5E8, symSize: 0x1A8 }
  - { offset: 0x83E7D, size: 0x8, addend: 0x0, symName: __ZN3std3sys7process3env10CommandEnv6remove17h7d85ae1031f26439E, symObjAddr: 0x3904C, symBinAddr: 0x3D790, symSize: 0x3C0 }
  - { offset: 0x84A20, size: 0x8, addend: 0x0, symName: '__ZN94_$LT$std..sys..process..env..CommandEnvs$u20$as$u20$core..iter..traits..iterator..Iterator$GT$4next17ha359f9a6aabdb84aE', symObjAddr: 0x3940C, symBinAddr: 0x3DB50, symSize: 0x50 }
  - { offset: 0x84AA9, size: 0x8, addend: 0x0, symName: '__ZN71_$LT$std..sys..process..env..CommandEnv$u20$as$u20$core..fmt..Debug$GT$3fmt17haf4dd0f32c51c367E', symObjAddr: 0x38E20, symBinAddr: 0x3D564, symSize: 0x84 }
  - { offset: 0x84D87, size: 0x8, addend: 0x0, symName: '__ZN69_$LT$std..sys..os_str..bytes..Slice$u20$as$u20$core..fmt..Display$GT$3fmt17h92c14e5e9f054e5fE', symObjAddr: 0x41FC0, symBinAddr: 0x46170, symSize: 0xA0 }
  - { offset: 0x84DCD, size: 0x8, addend: 0x0, symName: '__ZN67_$LT$std..sys..os_str..bytes..Buf$u20$as$u20$core..fmt..Display$GT$3fmt17h77b58bee25aacf85E', symObjAddr: 0x41F14, symBinAddr: 0x460C4, symSize: 0xAC }
  - { offset: 0x84EA4, size: 0x8, addend: 0x0, symName: __ZN3std3sys6os_str5bytes5Slice21check_public_boundary9slow_path17hf17f17f9c596b9e6E, symObjAddr: 0x42060, symBinAddr: 0x46210, symSize: 0x138 }
  - { offset: 0x8506B, size: 0x8, addend: 0x0, symName: '__ZN65_$LT$std..sys..fd..unix..FileDesc$u20$as$u20$core..fmt..Debug$GT$3fmt17hcce322db7ac1c63aE', symObjAddr: 0x3EE08, symBinAddr: 0x42FB8, symSize: 0x40 }
  - { offset: 0x85137, size: 0x8, addend: 0x0, symName: __ZN3std3sys2fd4unix8FileDesc4read17h16b127e76feff056E, symObjAddr: 0x3E650, symBinAddr: 0x42800, symSize: 0x58 }
  - { offset: 0x8522A, size: 0x8, addend: 0x0, symName: __ZN3std3sys2fd4unix8FileDesc13read_vectored17hd85126f95deee274E, symObjAddr: 0x3E6A8, symBinAddr: 0x42858, symSize: 0x58 }
  - { offset: 0x8531D, size: 0x8, addend: 0x0, symName: __ZN3std3sys2fd4unix8FileDesc11read_to_end17h83ada6d880c73ba3E, symObjAddr: 0x3E700, symBinAddr: 0x428B0, symSize: 0x23C }
  - { offset: 0x85760, size: 0x8, addend: 0x0, symName: __ZN3std3sys2fd4unix8FileDesc7read_at17h52b94399a08b59afE, symObjAddr: 0x3E93C, symBinAddr: 0x42AEC, symSize: 0x58 }
  - { offset: 0x85853, size: 0x8, addend: 0x0, symName: __ZN3std3sys2fd4unix8FileDesc8read_buf17h9279361f6f75104aE, symObjAddr: 0x3E994, symBinAddr: 0x42B44, symSize: 0x78 }
  - { offset: 0x859FF, size: 0x8, addend: 0x0, symName: __ZN3std3sys2fd4unix8FileDesc16read_vectored_at17h3d12e2051dd1196cE, symObjAddr: 0x3EA0C, symBinAddr: 0x42BBC, symSize: 0x10C }
  - { offset: 0x85BAD, size: 0x8, addend: 0x0, symName: __ZN3std3sys2fd4unix8FileDesc5write17hc1b4155d94a24a5cE, symObjAddr: 0x3EB18, symBinAddr: 0x42CC8, symSize: 0x58 }
  - { offset: 0x85CA3, size: 0x8, addend: 0x0, symName: __ZN3std3sys2fd4unix8FileDesc14write_vectored17ha806106f2d7af5b1E, symObjAddr: 0x3EB70, symBinAddr: 0x42D20, symSize: 0x58 }
  - { offset: 0x85D99, size: 0x8, addend: 0x0, symName: __ZN3std3sys2fd4unix8FileDesc8write_at17hf3bd7410143a27e4E, symObjAddr: 0x3EBC8, symBinAddr: 0x42D78, symSize: 0x58 }
  - { offset: 0x85E8F, size: 0x8, addend: 0x0, symName: __ZN3std3sys2fd4unix8FileDesc17write_vectored_at17h6ea7912dad2efbeaE, symObjAddr: 0x3EC20, symBinAddr: 0x42DD0, symSize: 0x10C }
  - { offset: 0x8603E, size: 0x8, addend: 0x0, symName: __ZN3std3sys2fd4unix8FileDesc11set_cloexec17hd1456abac78691feE, symObjAddr: 0x3ED2C, symBinAddr: 0x42EDC, symSize: 0x40 }
  - { offset: 0x860F1, size: 0x8, addend: 0x0, symName: __ZN3std3sys2fd4unix8FileDesc15set_nonblocking17ha58d272f7c9a5650E, symObjAddr: 0x3ED6C, symBinAddr: 0x42F1C, symSize: 0x88 }
  - { offset: 0x86333, size: 0x8, addend: 0x0, symName: '__ZN73_$LT$std..sys..fd..unix..FileDesc$u20$as$u20$std..os..fd..owned..AsFd$GT$5as_fd17h0d01c4f05dc8eb32E', symObjAddr: 0x3EDF4, symBinAddr: 0x42FA4, symSize: 0x14 }
  - { offset: 0x86417, size: 0x8, addend: 0x0, symName: '__ZN94_$LT$std..sys..pal..unix..os..SplitPaths$u20$as$u20$core..iter..traits..iterator..Iterator$GT$4next17h6761fe0ebeb4b39eE', symObjAddr: 0x3CA80, symBinAddr: 0x40D20, symSize: 0xA8 }
  - { offset: 0x86573, size: 0x8, addend: 0x0, symName: '__ZN78_$LT$std..sys..pal..unix..os..JoinPathsError$u20$as$u20$core..fmt..Display$GT$3fmt17hfd9b60c5c2e5570fE', symObjAddr: 0x3CB28, symBinAddr: 0x40DC8, symSize: 0x5C }
  - { offset: 0x86675, size: 0x8, addend: 0x0, symName: '__ZN3std3sys3pal4unix2os5chdir28_$u7b$$u7b$closure$u7d$$u7d$17h0e871a82ae363283E', symObjAddr: 0x3C9C0, symBinAddr: 0x40C60, symSize: 0x28 }
  - { offset: 0x8668A, size: 0x8, addend: 0x0, symName: __ZN3std3sys3pal4unix2os5chdir17h8d307a3313899daaE, symObjAddr: 0x3C8E4, symBinAddr: 0x40B84, symSize: 0xDC }
  - { offset: 0x86792, size: 0x8, addend: 0x0, symName: __ZN3std3sys3pal4unix2os11split_paths13bytes_to_path17he9984499b6ad23c5E, symObjAddr: 0x3C9E8, symBinAddr: 0x40C88, symSize: 0x98 }
  - { offset: 0x868FC, size: 0x8, addend: 0x0, symName: __ZN3std3sys3pal4unix2os4exit17he3b8f01f7d35fe70E, symObjAddr: 0x3CB84, symBinAddr: 0x40E24, symSize: 0xC }
  - { offset: 0x8696E, size: 0x8, addend: 0x0, symName: '__ZN81_$LT$std..sys..pal..unix..sync..mutex..Mutex$u20$as$u20$core..ops..drop..Drop$GT$4drop17h348343744af6f263E', symObjAddr: 0x3D1FC, symBinAddr: 0x413B8, symSize: 0x10 }
  - { offset: 0x869BD, size: 0x8, addend: 0x0, symName: __ZN3std3sys3pal4unix4sync5mutex5Mutex4init17h980dc86e07c25e68E, symObjAddr: 0x3CF64, symBinAddr: 0x41204, symSize: 0x16C }
  - { offset: 0x86A5A, size: 0x8, addend: 0x0, symName: __ZN3std3sys3pal4unix4sync5mutex5Mutex4lock17h997d35e2cd34c8bbE, symObjAddr: 0x3D0D0, symBinAddr: 0x41370, symSize: 0x1C }
  - { offset: 0x86A6E, size: 0x8, addend: 0x0, symName: __ZN3std3sys3pal4unix4sync5mutex5Mutex8try_lock17h3cd58da5cb29a05bE, symObjAddr: 0x3D1D0, symBinAddr: 0x4138C, symSize: 0x1C }
  - { offset: 0x86A82, size: 0x8, addend: 0x0, symName: __ZN3std3sys3pal4unix4sync5mutex5Mutex6unlock17h7d0087c8b6037baaE, symObjAddr: 0x3D1EC, symBinAddr: 0x413A8, symSize: 0x10 }
  - { offset: 0x86AAA, size: 0x8, addend: 0x0, symName: '__ZN85_$LT$std..sys..pal..unix..sync..mutex..AttrGuard$u20$as$u20$core..ops..drop..Drop$GT$4drop17h4ae09e650355395fE', symObjAddr: 0x3D20C, symBinAddr: 0x413C8, symSize: 0x4C }
  - { offset: 0x86ACB, size: 0x8, addend: 0x0, symName: __ZN3std3sys3pal4unix4sync5mutex5Mutex4lock4fail17h1087a332245fa314E, symObjAddr: 0x3D0EC, symBinAddr: 0x8C22C, symSize: 0xE4 }
  - { offset: 0x86E15, size: 0x8, addend: 0x0, symName: __ZN3std3sys3pal4unix6thread6Thread3new17hcc697d7766ea1f0aE, symObjAddr: 0x3D258, symBinAddr: 0x41414, symSize: 0x228 }
  - { offset: 0x870D3, size: 0x8, addend: 0x0, symName: __ZN3std3sys3pal4unix6thread6Thread8set_name17h7c7789794d735050E, symObjAddr: 0x3D504, symBinAddr: 0x416C0, symSize: 0x70 }
  - { offset: 0x871CF, size: 0x8, addend: 0x0, symName: __ZN3std3sys3pal4unix6thread6Thread4join17hd84adb088fe187e8E, symObjAddr: 0x3D574, symBinAddr: 0x41730, symSize: 0x90 }
  - { offset: 0x87242, size: 0x8, addend: 0x0, symName: __ZN3std3sys3pal4unix6thread6Thread3new12thread_start17h147c56999786b9c8E, symObjAddr: 0x3D480, symBinAddr: 0x4163C, symSize: 0x84 }
  - { offset: 0x873EA, size: 0x8, addend: 0x0, symName: '__ZN77_$LT$std..sys..pal..unix..thread..Thread$u20$as$u20$core..ops..drop..Drop$GT$4drop17h743e3e377c540421E', symObjAddr: 0x3D604, symBinAddr: 0x417C0, symSize: 0x14 }
  - { offset: 0x87479, size: 0x8, addend: 0x0, symName: __ZN3std3sys3pal4unix4time8Timespec3now17h311ca91c24bc74a0E, symObjAddr: 0x3D698, symBinAddr: 0x41854, symSize: 0x114 }
  - { offset: 0x8752B, size: 0x8, addend: 0x0, symName: __ZN3std3sys3pal4unix4time8Timespec12sub_timespec17h59f6c0bd9b2bbd67E, symObjAddr: 0x3D7AC, symBinAddr: 0x41968, symSize: 0xDC }
  - { offset: 0x87658, size: 0x8, addend: 0x0, symName: '__ZN71_$LT$std..sys..pal..unix..time..Instant$u20$as$u20$core..fmt..Debug$GT$3fmt17hf303b45043f8604bE', symObjAddr: 0x3D888, symBinAddr: 0x41A44, symSize: 0x80 }
  - { offset: 0x87680, size: 0x8, addend: 0x0, symName: '__ZN74_$LT$std..sys..pal..unix..time..SystemTime$u20$as$u20$core..fmt..Debug$GT$3fmt17hba3b1afb13c1f5a3E', symObjAddr: 0x3D618, symBinAddr: 0x417D4, symSize: 0x80 }
  - { offset: 0x8775B, size: 0x8, addend: 0x0, symName: __ZN3std3sys3pal4unix4pipe8AnonPipe5write17h05a15b8b6949eefaE, symObjAddr: 0x3CCB8, symBinAddr: 0x40F58, symSize: 0x54 }
  - { offset: 0x87841, size: 0x8, addend: 0x0, symName: __ZN3std3sys3pal4unix4pipe9anon_pipe17he56cec7e5d7bc169E, symObjAddr: 0x3CB90, symBinAddr: 0x40E30, symSize: 0x128 }
  - { offset: 0x87B58, size: 0x8, addend: 0x0, symName: __ZN3std3sys3pal4unix4pipe5read217hbd3c0fe07fd9f9a3E, symObjAddr: 0x3CD0C, symBinAddr: 0x40FAC, symSize: 0x258 }
  - { offset: 0x880C0, size: 0x8, addend: 0x0, symName: '__ZN3std3sys3pal4unix4weak18DlsymWeak$LT$F$GT$10initialize17h921ada5fb6c3cb69E', symObjAddr: 0x3C888, symBinAddr: 0x8C1D0, symSize: 0x5C }
  - { offset: 0x88167, size: 0x8, addend: 0x0, symName: __ZN3std3sys3pal4unix17decode_error_kind17h9f96728b928d2c9fE, symObjAddr: 0x3D908, symBinAddr: 0x41AC4, symSize: 0x15C }
  - { offset: 0x88181, size: 0x8, addend: 0x0, symName: __ZN3std3sys3pal4unix14abort_internal17had577856a63c8ddcE, symObjAddr: 0x3DA64, symBinAddr: 0x8C310, symSize: 0xC }
  - { offset: 0x882BF, size: 0x8, addend: 0x0, symName: __ZN3std3sys3pal6common14small_c_string24run_with_cstr_allocating17h2e31ef2ea21b757fE, symObjAddr: 0x366A0, symBinAddr: 0x8B76C, symSize: 0xC4 }
  - { offset: 0x8849C, size: 0x8, addend: 0x0, symName: __ZN3std3sys3pal6common14small_c_string24run_with_cstr_allocating17h319057198042cb49E, symObjAddr: 0x36764, symBinAddr: 0x8B830, symSize: 0xCC }
  - { offset: 0x88679, size: 0x8, addend: 0x0, symName: __ZN3std3sys3pal6common14small_c_string24run_with_cstr_allocating17h7252b45e78578564E, symObjAddr: 0x36830, symBinAddr: 0x8B8FC, symSize: 0xA4 }
  - { offset: 0x887E1, size: 0x8, addend: 0x0, symName: __ZN3std3sys3pal6common14small_c_string24run_with_cstr_allocating17h9a031a886aa64279E, symObjAddr: 0x368D4, symBinAddr: 0x8B9A0, symSize: 0xAC }
  - { offset: 0x8894C, size: 0x8, addend: 0x0, symName: __ZN3std3sys3pal6common14small_c_string24run_with_cstr_allocating17hc9f65b37ac501bb2E, symObjAddr: 0x36980, symBinAddr: 0x8BA4C, symSize: 0xCC }
  - { offset: 0x88B29, size: 0x8, addend: 0x0, symName: __ZN3std3sys3pal6common14small_c_string24run_with_cstr_allocating17hea90f6ab753fec47E, symObjAddr: 0x36A4C, symBinAddr: 0x8BB18, symSize: 0xBC }
  - { offset: 0x88D1B, size: 0x8, addend: 0x0, symName: __ZN3std3sys3pal6common14small_c_string24run_with_cstr_allocating17hec77e3fae821ae3fE, symObjAddr: 0x36B08, symBinAddr: 0x8BBD4, symSize: 0xE4 }
  - { offset: 0x88EF8, size: 0x8, addend: 0x0, symName: __ZN3std3sys3pal6common14small_c_string24run_with_cstr_allocating17hf6be95206f4b57f6E, symObjAddr: 0x36BEC, symBinAddr: 0x8BCB8, symSize: 0xD0 }
  - { offset: 0x8935A, size: 0x8, addend: 0x0, symName: '__ZN64_$LT$std..sys..stdio..unix..Stderr$u20$as$u20$std..io..Write$GT$5write17he64472ba11c341d6E', symObjAddr: 0x455A8, symBinAddr: 0x49758, symSize: 0x58 }
  - { offset: 0x89439, size: 0x8, addend: 0x0, symName: '__ZN64_$LT$std..sys..stdio..unix..Stderr$u20$as$u20$std..io..Write$GT$14write_vectored17hbdca07c4028a1757E', symObjAddr: 0x45600, symBinAddr: 0x497B0, symSize: 0x58 }
  - { offset: 0x89518, size: 0x8, addend: 0x0, symName: '__ZN64_$LT$std..sys..stdio..unix..Stderr$u20$as$u20$std..io..Write$GT$17is_write_vectored17h93b5161a02b93d5eE', symObjAddr: 0x45658, symBinAddr: 0x49808, symSize: 0x14 }
  - { offset: 0x89532, size: 0x8, addend: 0x0, symName: '__ZN64_$LT$std..sys..stdio..unix..Stderr$u20$as$u20$std..io..Write$GT$5flush17hb399b558400ed50cE', symObjAddr: 0x4566C, symBinAddr: 0x4981C, symSize: 0x14 }
  - { offset: 0x8956D, size: 0x8, addend: 0x0, symName: '__ZN64_$LT$std..sys..stdio..unix..Stdout$u20$as$u20$std..io..Write$GT$5write17hb4057205b49f8f6aE', symObjAddr: 0x454F8, symBinAddr: 0x496A8, symSize: 0x58 }
  - { offset: 0x8964C, size: 0x8, addend: 0x0, symName: '__ZN64_$LT$std..sys..stdio..unix..Stdout$u20$as$u20$std..io..Write$GT$14write_vectored17ha15e8c0e9a91805bE', symObjAddr: 0x45550, symBinAddr: 0x49700, symSize: 0x58 }
  - { offset: 0x89759, size: 0x8, addend: 0x0, symName: '__ZN62_$LT$std..sys..stdio..unix..Stdin$u20$as$u20$std..io..Read$GT$4read17h251a580d71de9aedE', symObjAddr: 0x453D0, symBinAddr: 0x49580, symSize: 0x58 }
  - { offset: 0x89836, size: 0x8, addend: 0x0, symName: '__ZN62_$LT$std..sys..stdio..unix..Stdin$u20$as$u20$std..io..Read$GT$8read_buf17h7713d8d780e6a868E', symObjAddr: 0x45428, symBinAddr: 0x495D8, symSize: 0x78 }
  - { offset: 0x899CC, size: 0x8, addend: 0x0, symName: '__ZN62_$LT$std..sys..stdio..unix..Stdin$u20$as$u20$std..io..Read$GT$13read_vectored17hb0720d7b6520e052E', symObjAddr: 0x454A0, symBinAddr: 0x49650, symSize: 0x58 }
  - { offset: 0x89ADA, size: 0x8, addend: 0x0, symName: '__ZN3std3sys11personality3gcc14find_eh_action28_$u7b$$u7b$closure$u7d$$u7d$17h56c44012e7e4e4b4E', symObjAddr: 0x3DA70, symBinAddr: 0x41C20, symSize: 0x18 }
  - { offset: 0x89AEE, size: 0x8, addend: 0x0, symName: '__ZN3std3sys11personality3gcc14find_eh_action28_$u7b$$u7b$closure$u7d$$u7d$17he5f8f57e2c4d9661E', symObjAddr: 0x3DA88, symBinAddr: 0x41C38, symSize: 0x18 }
  - { offset: 0x89B1E, size: 0x8, addend: 0x0, symName: _rust_eh_personality, symObjAddr: 0x3DAA0, symBinAddr: 0x41C50, symSize: 0x378 }
  - { offset: 0x89E8C, size: 0x8, addend: 0x0, symName: __ZN3std3sys11personality5dwarf2eh19read_encoded_offset17h95f278ac225f02abE, symObjAddr: 0x36D6C, symBinAddr: 0x3B4B0, symSize: 0x150 }
  - { offset: 0x89FFD, size: 0x8, addend: 0x0, symName: '__ZN3std3sys9backtrace10_print_fmt28_$u7b$$u7b$closure$u7d$$u7d$17h2e385e69843a8da2E', symObjAddr: 0x37220, symBinAddr: 0x3B964, symSize: 0x30 }
  - { offset: 0x8A027, size: 0x8, addend: 0x0, symName: '__ZN3std3sys9backtrace10_print_fmt28_$u7b$$u7b$closure$u7d$$u7d$17hcdba08b763efe032E', symObjAddr: 0x37250, symBinAddr: 0x3B994, symSize: 0x130 }
  - { offset: 0x8A148, size: 0x8, addend: 0x0, symName: '__ZN3std3sys9backtrace10_print_fmt28_$u7b$$u7b$closure$u7d$$u7d$28_$u7b$$u7b$closure$u7d$$u7d$17h09e14d6f9511c4a6E', symObjAddr: 0x37380, symBinAddr: 0x3BAC4, symSize: 0x264 }
  - { offset: 0x8A38F, size: 0x8, addend: 0x0, symName: __ZN3std3sys9backtrace4lock17hb040006443490377E, symObjAddr: 0x36F34, symBinAddr: 0x3B678, symSize: 0x70 }
  - { offset: 0x8A4EA, size: 0x8, addend: 0x0, symName: __ZN3std3sys9backtrace13BacktraceLock5print17h26b04e87fef61af0E, symObjAddr: 0x36FA4, symBinAddr: 0x3B6E8, symSize: 0x54 }
  - { offset: 0x8A53B, size: 0x8, addend: 0x0, symName: '__ZN98_$LT$std..sys..backtrace..BacktraceLock..print..DisplayBacktrace$u20$as$u20$core..fmt..Display$GT$3fmt17h619fb6af808a1f1fE', symObjAddr: 0x36FF8, symBinAddr: 0x3B73C, symSize: 0x228 }
  - { offset: 0x8AA5D, size: 0x8, addend: 0x0, symName: __ZN3std3sys9backtrace26__rust_end_short_backtrace17h22583df6aee7a964E, symObjAddr: 0x375E4, symBinAddr: 0x3BD28, symSize: 0xC }
  - { offset: 0x8AA77, size: 0x8, addend: 0x0, symName: __ZN3std3sys9backtrace26__rust_end_short_backtrace17hed06d19c23931318E, symObjAddr: 0x375F0, symBinAddr: 0x3BD34, symSize: 0xC }
  - { offset: 0x8AA91, size: 0x8, addend: 0x0, symName: __ZN3std3sys9backtrace15output_filename17h7f48efa15ac23438E, symObjAddr: 0x375FC, symBinAddr: 0x3BD40, symSize: 0xF4 }
  - { offset: 0x8ACA5, size: 0x8, addend: 0x0, symName: '__ZN3std3sys4sync8once_box16OnceBox$LT$T$GT$10initialize17h2c97c1ab12625976E', symObjAddr: 0x394CC, symBinAddr: 0x8BD88, symSize: 0xEC }
  - { offset: 0x8AE48, size: 0x8, addend: 0x0, symName: '__ZN3std3sys4sync8once_box16OnceBox$LT$T$GT$10initialize17hd9052d60516adaf0E', symObjAddr: 0x395B8, symBinAddr: 0x8BE74, symSize: 0xBC }
  - { offset: 0x8B10E, size: 0x8, addend: 0x0, symName: '__ZN79_$LT$std..sys..sync..mutex..pthread..Mutex$u20$as$u20$core..ops..drop..Drop$GT$4drop17hf69317592afba6d4E', symObjAddr: 0x45870, symBinAddr: 0x49A20, symSize: 0x58 }
  - { offset: 0x8B2F7, size: 0x8, addend: 0x0, symName: __ZN3std3sys4sync6rwlock5queue6RwLock14lock_contended17hd1c6819250208156E, symObjAddr: 0x45FE8, symBinAddr: 0x8C770, symSize: 0x1F4 }
  - { offset: 0x8B8EA, size: 0x8, addend: 0x0, symName: __ZN3std3sys4sync6rwlock5queue6RwLock21read_unlock_contended17hba64493154fe3ee4E, symObjAddr: 0x461DC, symBinAddr: 0x8C964, symSize: 0x50 }
  - { offset: 0x8BA6A, size: 0x8, addend: 0x0, symName: __ZN3std3sys4sync6rwlock5queue6RwLock16unlock_contended17hfc5d9426e2efb7b5E, symObjAddr: 0x4622C, symBinAddr: 0x8C9B4, symSize: 0x50 }
  - { offset: 0x8BB4F, size: 0x8, addend: 0x0, symName: __ZN3std3sys4sync6rwlock5queue6RwLock14downgrade_slow17hcf77f9514279040cE, symObjAddr: 0x4627C, symBinAddr: 0x8CA04, symSize: 0x110 }
  - { offset: 0x8BF6D, size: 0x8, addend: 0x0, symName: __ZN3std3sys4sync6rwlock5queue6RwLock12unlock_queue17h042bbbcf61a3fca5E, symObjAddr: 0x4638C, symBinAddr: 0x49D44, symSize: 0x1D4 }
  - { offset: 0x8C6F0, size: 0x8, addend: 0x0, symName: __ZN3std3sys4sync6rwlock5queue10write_lock17h03298ae9fa6545edE, symObjAddr: 0x45F58, symBinAddr: 0x49CF8, symSize: 0x20 }
  - { offset: 0x8C704, size: 0x8, addend: 0x0, symName: __ZN3std3sys4sync6rwlock5queue9read_lock17h61480edefdb1d3aaE, symObjAddr: 0x45F78, symBinAddr: 0x49D18, symSize: 0x2C }
  - { offset: 0x8C71E, size: 0x8, addend: 0x0, symName: '__ZN83_$LT$std..sys..sync..rwlock..queue..PanicGuard$u20$as$u20$core..ops..drop..Drop$GT$4drop17ha224ae30399bbe49E', symObjAddr: 0x45FA4, symBinAddr: 0x8C72C, symSize: 0x44 }
  - { offset: 0x8C7B5, size: 0x8, addend: 0x0, symName: '__ZN88_$LT$std..sys..sync..thread_parking..darwin..Parker$u20$as$u20$core..ops..drop..Drop$GT$4drop17hbae6eac57f185d31E', symObjAddr: 0x46590, symBinAddr: 0x49F48, symSize: 0x14 }
  - { offset: 0x8C804, size: 0x8, addend: 0x0, symName: __ZN3std3sys4sync14thread_parking6darwin6Parker6unpark17h2694f1de7733efe8E, symObjAddr: 0x46560, symBinAddr: 0x49F18, symSize: 0x30 }
  - { offset: 0x8C8E5, size: 0x8, addend: 0x0, symName: __ZN3std3sys4sync4once5queue4Once4wait17hc7f03c0ae488ebcbE, symObjAddr: 0x458C8, symBinAddr: 0x8C31C, symSize: 0x204 }
  - { offset: 0x8CED2, size: 0x8, addend: 0x0, symName: __ZN3std3sys4sync4once5queue4Once4call17h6d0e367c5bcecdf3E, symObjAddr: 0x45ACC, symBinAddr: 0x8C520, symSize: 0x20C }
  - { offset: 0x8D205, size: 0x8, addend: 0x0, symName: '__ZN82_$LT$std..sys..sync..once..queue..WaiterQueue$u20$as$u20$core..ops..drop..Drop$GT$4drop17h19cb0a15f807f182E', symObjAddr: 0x45E78, symBinAddr: 0x49C18, symSize: 0xE0 }
  - { offset: 0x8D3DF, size: 0x8, addend: 0x0, symName: __ZN3std3sys4sync4once5queue4wait17hfc8a977af9b1297bE, symObjAddr: 0x45CD8, symBinAddr: 0x49A78, symSize: 0x1A0 }
  - { offset: 0x8D9E6, size: 0x8, addend: 0x0, symName: __ZN3std3sys4sync7condvar7pthread7Condvar12wait_timeout17hb9d311fb0917f941E, symObjAddr: 0x45680, symBinAddr: 0x49830, symSize: 0x1F0 }
  - { offset: 0x8DEBE, size: 0x8, addend: 0x0, symName: __ZN3std3sys12thread_local6native5eager7destroy17hb1e384a6c5a71e26E, symObjAddr: 0x465A4, symBinAddr: 0x49F5C, symSize: 0x3C }
  - { offset: 0x8DFFD, size: 0x8, addend: 0x0, symName: __ZN3std3sys12thread_local6native5eager7destroy17hf9aced97dc8712cbE, symObjAddr: 0x465E0, symBinAddr: 0x49F98, symSize: 0x84 }
  - { offset: 0x8E1E9, size: 0x8, addend: 0x0, symName: __ZN3std3sys12thread_local5guard5apple6enable9run_dtors17h864bd0d8e6821e12E, symObjAddr: 0x467A8, symBinAddr: 0x4A160, symSize: 0x13C }
  - { offset: 0x8E72B, size: 0x8, addend: 0x0, symName: '__ZN103_$LT$std..sys..thread_local..abort_on_dtor_unwind..DtorUnwindGuard$u20$as$u20$core..ops..drop..Drop$GT$4drop17h0f09341c10c27756E', symObjAddr: 0x39674, symBinAddr: 0x8BF30, symSize: 0x44 }
  - { offset: 0x8E787, size: 0x8, addend: 0x0, symName: __ZN3std3sys12thread_local11destructors4list8register17h58e5265cad7a4d9cE, symObjAddr: 0x46664, symBinAddr: 0x4A01C, symSize: 0x144 }
  - { offset: 0x8EB06, size: 0x8, addend: 0x0, symName: __ZN3std3sys3env4unix13env_read_lock17hc522098f74250287E, symObjAddr: 0x3DE18, symBinAddr: 0x41FC8, symSize: 0x240 }
  - { offset: 0x8F26B, size: 0x8, addend: 0x0, symName: '__ZN3std3sys3env4unix6getenv28_$u7b$$u7b$closure$u7d$$u7d$17h483c3e4c6e479846E', symObjAddr: 0x3E058, symBinAddr: 0x42208, symSize: 0x150 }
  - { offset: 0x8F471, size: 0x8, addend: 0x0, symName: __ZN3std3sys3env4unix6setenv17h94d16d039d4a5fd6E, symObjAddr: 0x3E1A8, symBinAddr: 0x42358, symSize: 0x9C }
  - { offset: 0x8F50A, size: 0x8, addend: 0x0, symName: '__ZN3std3sys3env4unix6setenv28_$u7b$$u7b$closure$u7d$$u7d$28_$u7b$$u7b$closure$u7d$$u7d$17h046dbcafdda12894E', symObjAddr: 0x3E384, symBinAddr: 0x42534, symSize: 0xCC }
  - { offset: 0x8F595, size: 0x8, addend: 0x0, symName: '__ZN3std3sys3env4unix6setenv28_$u7b$$u7b$closure$u7d$$u7d$17h5fc5ee856dd8e582E', symObjAddr: 0x3E244, symBinAddr: 0x423F4, symSize: 0x140 }
  - { offset: 0x8F6A4, size: 0x8, addend: 0x0, symName: '__ZN3std3sys3env4unix8unsetenv28_$u7b$$u7b$closure$u7d$$u7d$17h07a955ade5d20af6E', symObjAddr: 0x3E590, symBinAddr: 0x42740, symSize: 0xC0 }
  - { offset: 0x8F72F, size: 0x8, addend: 0x0, symName: __ZN3std3sys3env4unix8unsetenv17h1aa1f27d8d5a829fE, symObjAddr: 0x3E450, symBinAddr: 0x42600, symSize: 0x140 }
  - { offset: 0x8F872, size: 0x8, addend: 0x0, symName: '__ZN85_$LT$std..sys..env..common..Env$u20$as$u20$core..iter..traits..iterator..Iterator$GT$4next17hc375090592c6e27bE', symObjAddr: 0x37848, symBinAddr: 0x3BF8C, symSize: 0x48 }
  - { offset: 0x8F8EB, size: 0x8, addend: 0x0, symName: '__ZN85_$LT$std..sys..env..common..Env$u20$as$u20$core..iter..traits..iterator..Iterator$GT$9size_hint17hf4d086244bb5502aE', symObjAddr: 0x37890, symBinAddr: 0x3BFD4, symSize: 0x38 }
  - { offset: 0x8F974, size: 0x8, addend: 0x0, symName: '__ZN71_$LT$std..sys..env..common..EnvStrDebug$u20$as$u20$core..fmt..Debug$GT$3fmt17h9e9850e4bde8184bE', symObjAddr: 0x376F0, symBinAddr: 0x3BE34, symSize: 0xDC }
  - { offset: 0x8FC23, size: 0x8, addend: 0x0, symName: '__ZN63_$LT$std..sys..env..common..Env$u20$as$u20$core..fmt..Debug$GT$3fmt17he034e41140b536eeE', symObjAddr: 0x377CC, symBinAddr: 0x3BF10, symSize: 0x7C }
  - { offset: 0x8FCF1, size: 0x8, addend: 0x0, symName: '__ZN65_$LT$std..sys..args..common..Args$u20$as$u20$core..fmt..Debug$GT$3fmt17h9ccdce6ef05e2129E', symObjAddr: 0x36EBC, symBinAddr: 0x3B600, symSize: 0x78 }
  - { offset: 0x8FD93, size: 0x8, addend: 0x0, symName: __ZN3std3sys4path4unix8absolute17hb4ec8b4dc98d41e9E, symObjAddr: 0x42198, symBinAddr: 0x46348, symSize: 0x39C }
  - { offset: 0x90792, size: 0x8, addend: 0x0, symName: '__ZN104_$LT$std..sys..net..connection..socket..LookupHost$u20$as$u20$core..iter..traits..iterator..Iterator$GT$4next17h46e97b51c4adbdcdE', symObjAddr: 0x409F0, symBinAddr: 0x44BA0, symSize: 0xF8 }
  - { offset: 0x90881, size: 0x8, addend: 0x0, symName: '__ZN87_$LT$std..sys..net..connection..socket..LookupHost$u20$as$u20$core..ops..drop..Drop$GT$4drop17h09dbf9896df0db81E', symObjAddr: 0x40AE8, symBinAddr: 0x44C98, symSize: 0x14 }
  - { offset: 0x908C4, size: 0x8, addend: 0x0, symName: '__ZN117_$LT$std..sys..net..connection..socket..LookupHost$u20$as$u20$core..convert..TryFrom$LT$$LP$$RF$str$C$u16$RP$$GT$$GT$8try_from17hd28608a423e5a1b8E', symObjAddr: 0x40CE0, symBinAddr: 0x44E90, symSize: 0xBC }
  - { offset: 0x90952, size: 0x8, addend: 0x0, symName: '__ZN117_$LT$std..sys..net..connection..socket..LookupHost$u20$as$u20$core..convert..TryFrom$LT$$LP$$RF$str$C$u16$RP$$GT$$GT$8try_from28_$u7b$$u7b$closure$u7d$$u7d$17haa61420093230808E', symObjAddr: 0x40D9C, symBinAddr: 0x44F4C, symSize: 0x18C }
  - { offset: 0x90EA5, size: 0x8, addend: 0x0, symName: __ZN3std3sys3net10connection6socket9TcpStream7connect17h6a00f9d8ef97157eE, symObjAddr: 0x40F28, symBinAddr: 0x450D8, symSize: 0x140 }
  - { offset: 0x910AF, size: 0x8, addend: 0x0, symName: __ZN3std3sys3net10connection6socket9TcpStream9peer_addr17h1db62b066b735d6bE, symObjAddr: 0x41068, symBinAddr: 0x45218, symSize: 0x148 }
  - { offset: 0x913DC, size: 0x8, addend: 0x0, symName: __ZN3std3sys3net10connection6socket4unix6Socket7new_raw17h4f34915e23f9e483E, symObjAddr: 0x41B48, symBinAddr: 0x45CF8, symSize: 0xF8 }
  - { offset: 0x9162B, size: 0x8, addend: 0x0, symName: __ZN3std3sys3net10connection6socket4unix6Socket8new_pair17haca54ee17000edacE, symObjAddr: 0x41C40, symBinAddr: 0x45DF0, symSize: 0x130 }
  - { offset: 0x9190E, size: 0x8, addend: 0x0, symName: __ZN3std3sys3net10connection6socket4unix6Socket20recv_from_with_flags17h8fb272236a50b212E, symObjAddr: 0x41D70, symBinAddr: 0x45F20, symSize: 0x134 }
  - { offset: 0x91A3A, size: 0x8, addend: 0x0, symName: __ZN3std3sys3net10connection6socket4unix6Socket10take_error17ha50de92e6919df65E, symObjAddr: 0x41EA4, symBinAddr: 0x46054, symSize: 0x70 }
  - { offset: 0x91C62, size: 0x8, addend: 0x0, symName: __ZN3std3sys3net10connection6socket11TcpListener4bind17he606c0aae5a7f688E, symObjAddr: 0x4138C, symBinAddr: 0x4553C, symSize: 0x15C }
  - { offset: 0x91E72, size: 0x8, addend: 0x0, symName: __ZN3std3sys3net10connection6socket11TcpListener11socket_addr17h17bb55b72dffbee5E, symObjAddr: 0x414E8, symBinAddr: 0x45698, symSize: 0x148 }
  - { offset: 0x92103, size: 0x8, addend: 0x0, symName: __ZN3std3sys3net10connection6socket9UdpSocket4bind17h1d4be9796a0aaa44E, symObjAddr: 0x41764, symBinAddr: 0x45914, symSize: 0x120 }
  - { offset: 0x9233B, size: 0x8, addend: 0x0, symName: __ZN3std3sys3net10connection6socket9UdpSocket7send_to17h40d4e17568eb1522E, symObjAddr: 0x41884, symBinAddr: 0x45A34, symSize: 0xBC }
  - { offset: 0x9235A, size: 0x8, addend: 0x0, symName: __ZN3std3sys3net10connection6socket9UdpSocket7send_to17h40d4e17568eb1522E, symObjAddr: 0x41884, symBinAddr: 0x45A34, symSize: 0xBC }
  - { offset: 0x924FE, size: 0x8, addend: 0x0, symName: __ZN3std3sys3net10connection6socket9UdpSocket7connect17h7d0cbc773ddb0ac9E, symObjAddr: 0x41940, symBinAddr: 0x45AF0, symSize: 0xD4 }
  - { offset: 0x92719, size: 0x8, addend: 0x0, symName: '__ZN103_$LT$std..sys..net..connection..socket..LookupHost$u20$as$u20$core..convert..TryFrom$LT$$RF$str$GT$$GT$8try_from17h57030a0771d2c8e6E', symObjAddr: 0x40AFC, symBinAddr: 0x44CAC, symSize: 0x1E4 }
  - { offset: 0x92A19, size: 0x8, addend: 0x0, symName: '__ZN81_$LT$std..sys..net..connection..socket..TcpStream$u20$as$u20$core..fmt..Debug$GT$3fmt17h747b7432c7253c50E', symObjAddr: 0x411B0, symBinAddr: 0x45360, symSize: 0x1DC }
  - { offset: 0x92F3F, size: 0x8, addend: 0x0, symName: '__ZN83_$LT$std..sys..net..connection..socket..TcpListener$u20$as$u20$core..fmt..Debug$GT$3fmt17hcde3bccf48871aecE', symObjAddr: 0x41630, symBinAddr: 0x457E0, symSize: 0x134 }
  - { offset: 0x931C7, size: 0x8, addend: 0x0, symName: '__ZN81_$LT$std..sys..net..connection..socket..UdpSocket$u20$as$u20$core..fmt..Debug$GT$3fmt17hd1b95150de505d97E', symObjAddr: 0x41A14, symBinAddr: 0x45BC4, symSize: 0x134 }
  - { offset: 0x93466, size: 0x8, addend: 0x0, symName: __ZN3std3sys6random19hashmap_random_keys17hb27327e02da8f2bcE, symObjAddr: 0x3945C, symBinAddr: 0x3DBA0, symSize: 0x70 }
  - { offset: 0x93537, size: 0x8, addend: 0x0, symName: __ZN3std3sys5alloc16realloc_fallback17h0cd80942ae53fa3fE, symObjAddr: 0x36CBC, symBinAddr: 0x3B400, symSize: 0xB0 }
  - { offset: 0x93619, size: 0x8, addend: 0x0, symName: '__ZN62_$LT$std..process..ChildStdout$u20$as$u20$core..fmt..Debug$GT$3fmt17hc7aea8687b08d8f2E', symObjAddr: 0x33D2C, symBinAddr: 0x38D5C, symSize: 0x38 }
  - { offset: 0x93642, size: 0x8, addend: 0x0, symName: '__ZN61_$LT$std..process..ChildStdin$u20$as$u20$core..fmt..Debug$GT$3fmt17hf9fbda84bfe36b8eE', symObjAddr: 0x33CF4, symBinAddr: 0x38D24, symSize: 0x38 }
  - { offset: 0x9366B, size: 0x8, addend: 0x0, symName: '__ZN62_$LT$std..process..ChildStderr$u20$as$u20$core..fmt..Debug$GT$3fmt17hbb62515495e36affE', symObjAddr: 0x33E34, symBinAddr: 0x38E64, symSize: 0x38 }
  - { offset: 0x93686, size: 0x8, addend: 0x0, symName: '__ZN112_$LT$std..process..Child$u20$as$u20$std..sys_common..IntoInner$LT$std..sys..process..unix..unix..Process$GT$$GT$10into_inner17h02cd384d4c718f8eE', symObjAddr: 0x33BF8, symBinAddr: 0x38C28, symSize: 0x60 }
  - { offset: 0x9385B, size: 0x8, addend: 0x0, symName: '__ZN56_$LT$std..process..Child$u20$as$u20$core..fmt..Debug$GT$3fmt17h9050285298dd439eE', symObjAddr: 0x33C58, symBinAddr: 0x38C88, symSize: 0x9C }
  - { offset: 0x9387D, size: 0x8, addend: 0x0, symName: '__ZN59_$LT$std..process..ChildStderr$u20$as$u20$std..io..Read$GT$4read17hdfbd6c57358736acE', symObjAddr: 0x33D64, symBinAddr: 0x38D94, symSize: 0x58 }
  - { offset: 0x93978, size: 0x8, addend: 0x0, symName: '__ZN59_$LT$std..process..ChildStderr$u20$as$u20$std..io..Read$GT$8read_buf17ha2526a551d626ac7E', symObjAddr: 0x33DBC, symBinAddr: 0x38DEC, symSize: 0x78 }
  - { offset: 0x93B41, size: 0x8, addend: 0x0, symName: __ZN3std7process7Command9env_clear17hf13f1e309200e783E, symObjAddr: 0x33E6C, symBinAddr: 0x38E9C, symSize: 0xE8 }
  - { offset: 0x93E32, size: 0x8, addend: 0x0, symName: __ZN3std7process7Command5spawn17hcee853ecd5d7b93fE, symObjAddr: 0x33F54, symBinAddr: 0x38F84, symSize: 0x78 }
  - { offset: 0x93E64, size: 0x8, addend: 0x0, symName: __ZN3std7process7Command6output17hd10031566fcfea6bE, symObjAddr: 0x33FCC, symBinAddr: 0x38FFC, symSize: 0x2F8 }
  - { offset: 0x94410, size: 0x8, addend: 0x0, symName: __ZN3std7process7Command6status17ha37fb189867dc715E, symObjAddr: 0x342C4, symBinAddr: 0x392F4, symSize: 0x100 }
  - { offset: 0x946E3, size: 0x8, addend: 0x0, symName: __ZN3std7process7Command11get_program17h7164c2cd706933f6E, symObjAddr: 0x343C4, symBinAddr: 0x393F4, symSize: 0x1C }
  - { offset: 0x9472C, size: 0x8, addend: 0x0, symName: __ZN3std7process7Command8get_args17h1d6dbfee1dcf848cE, symObjAddr: 0x343E0, symBinAddr: 0x39410, symSize: 0x24 }
  - { offset: 0x947B8, size: 0x8, addend: 0x0, symName: __ZN3std7process7Command15get_current_dir17hda3c82657f722254E, symObjAddr: 0x34404, symBinAddr: 0x39434, symSize: 0x1C }
  - { offset: 0x94816, size: 0x8, addend: 0x0, symName: __ZN3std7process5Child4kill17hebc13210c43b42a5E, symObjAddr: 0x34824, symBinAddr: 0x39854, symSize: 0x4C }
  - { offset: 0x948B2, size: 0x8, addend: 0x0, symName: __ZN3std7process5Child4wait17he8cad37d343e72fdE, symObjAddr: 0x34870, symBinAddr: 0x398A0, symSize: 0xBC }
  - { offset: 0x94A4F, size: 0x8, addend: 0x0, symName: __ZN3std7process5Child8try_wait17h50c01706bd10c1faE, symObjAddr: 0x3492C, symBinAddr: 0x3995C, symSize: 0xB0 }
  - { offset: 0x94B18, size: 0x8, addend: 0x0, symName: __ZN3std7process5Child16wait_with_output17h0f468de3dba9bf00E, symObjAddr: 0x349DC, symBinAddr: 0x39A0C, symSize: 0x2C8 }
  - { offset: 0x9517A, size: 0x8, addend: 0x0, symName: '__ZN58_$LT$std..process..Command$u20$as$u20$core..fmt..Debug$GT$3fmt17h3277f013ef41b548E', symObjAddr: 0x34420, symBinAddr: 0x39450, symSize: 0x10 }
  - { offset: 0x9519C, size: 0x8, addend: 0x0, symName: '__ZN84_$LT$std..process..CommandArgs$u20$as$u20$core..iter..traits..iterator..Iterator$GT$4next17h8de9967bb5a7d2d5E', symObjAddr: 0x34430, symBinAddr: 0x39460, symSize: 0x34 }
  - { offset: 0x951BB, size: 0x8, addend: 0x0, symName: '__ZN84_$LT$std..process..CommandArgs$u20$as$u20$core..iter..traits..iterator..Iterator$GT$4next17h8de9967bb5a7d2d5E', symObjAddr: 0x34430, symBinAddr: 0x39460, symSize: 0x34 }
  - { offset: 0x951D1, size: 0x8, addend: 0x0, symName: '__ZN84_$LT$std..process..CommandArgs$u20$as$u20$core..iter..traits..iterator..Iterator$GT$4next17h8de9967bb5a7d2d5E', symObjAddr: 0x34430, symBinAddr: 0x39460, symSize: 0x34 }
  - { offset: 0x9523F, size: 0x8, addend: 0x0, symName: '__ZN84_$LT$std..process..CommandArgs$u20$as$u20$core..iter..traits..iterator..Iterator$GT$9size_hint17hcb203674ab1b3421E', symObjAddr: 0x34464, symBinAddr: 0x39494, symSize: 0x28 }
  - { offset: 0x952D3, size: 0x8, addend: 0x0, symName: '__ZN95_$LT$std..process..CommandArgs$u20$as$u20$core..iter..traits..exact_size..ExactSizeIterator$GT$3len17h2b1c8db138d1f3f3E', symObjAddr: 0x3448C, symBinAddr: 0x394BC, symSize: 0x1C }
  - { offset: 0x95367, size: 0x8, addend: 0x0, symName: '__ZN84_$LT$std..process..CommandEnvs$u20$as$u20$core..iter..traits..iterator..Iterator$GT$4next17hba9474e22ddead37E', symObjAddr: 0x344A8, symBinAddr: 0x394D8, symSize: 0x50 }
  - { offset: 0x953FA, size: 0x8, addend: 0x0, symName: '__ZN62_$LT$std..process..CommandEnvs$u20$as$u20$core..fmt..Debug$GT$3fmt17hf0dc2208449c8637E', symObjAddr: 0x344F8, symBinAddr: 0x39528, symSize: 0x4C }
  - { offset: 0x95448, size: 0x8, addend: 0x0, symName: __ZN3std7process6Output7exit_ok17haee1d74a99add48fE, symObjAddr: 0x34544, symBinAddr: 0x39574, symSize: 0x7C }
  - { offset: 0x95602, size: 0x8, addend: 0x0, symName: '__ZN57_$LT$std..process..Output$u20$as$u20$core..fmt..Debug$GT$3fmt17hd3d24456cbd70ce3E', symObjAddr: 0x345C0, symBinAddr: 0x395F0, symSize: 0x10C }
  - { offset: 0x9573C, size: 0x8, addend: 0x0, symName: '__ZN56_$LT$std..process..Stdio$u20$as$u20$core..fmt..Debug$GT$3fmt17h498ed0e7604a4597E', symObjAddr: 0x346CC, symBinAddr: 0x396FC, symSize: 0x38 }
  - { offset: 0x9575E, size: 0x8, addend: 0x0, symName: '__ZN63_$LT$std..process..ExitStatus$u20$as$u20$core..fmt..Display$GT$3fmt17hddca5d343ee3ee77E', symObjAddr: 0x34704, symBinAddr: 0x39734, symSize: 0x10 }
  - { offset: 0x9578E, size: 0x8, addend: 0x0, symName: __ZN3std7process15ExitStatusError4code17h0a2f00020e7cf881E, symObjAddr: 0x34714, symBinAddr: 0x39744, symSize: 0x58 }
  - { offset: 0x9586B, size: 0x8, addend: 0x0, symName: __ZN3std7process15ExitStatusError12code_nonzero17h49cbe05d9f64c050E, symObjAddr: 0x3476C, symBinAddr: 0x3979C, symSize: 0x50 }
  - { offset: 0x95947, size: 0x8, addend: 0x0, symName: '__ZN68_$LT$std..process..ExitStatusError$u20$as$u20$core..fmt..Display$GT$3fmt17hddcbd6f5daa2ec93E', symObjAddr: 0x347BC, symBinAddr: 0x397EC, symSize: 0x58 }
  - { offset: 0x959BB, size: 0x8, addend: 0x0, symName: __ZN3std7process8ExitCode12exit_process17h370defe40964a39cE, symObjAddr: 0x34814, symBinAddr: 0x39844, symSize: 0x10 }
  - { offset: 0x95A1A, size: 0x8, addend: 0x0, symName: __ZN3std7process4exit17ha72f048dd41e494fE, symObjAddr: 0x34CA4, symBinAddr: 0x39CD4, symSize: 0x1C }
  - { offset: 0x95A35, size: 0x8, addend: 0x0, symName: __ZN3std7process5abort17hbd46127ff032a857E, symObjAddr: 0x34CC0, symBinAddr: 0x8B49C, symSize: 0xC }
  - { offset: 0x95A50, size: 0x8, addend: 0x0, symName: __ZN3std7process2id17h7336846cf1b63329E, symObjAddr: 0x34CCC, symBinAddr: 0x39CF0, symSize: 0x10 }
  - { offset: 0x95A88, size: 0x8, addend: 0x0, symName: '__ZN61_$LT$std..process..ExitStatus$u20$as$u20$core..fmt..Debug$GT$3fmt17h26b628b92447326fE', symObjAddr: 0x3C848, symBinAddr: 0x40B44, symSize: 0x40 }
  - { offset: 0x95ACA, size: 0x8, addend: 0x0, symName: '__ZN64_$LT$std..os..fd..owned..OwnedFd$u20$as$u20$core..fmt..Debug$GT$3fmt17he48640fff559e512E', symObjAddr: 0x308C8, symBinAddr: 0x35904, symSize: 0x64 }
  - { offset: 0x95AF2, size: 0x8, addend: 0x0, symName: '__ZN67_$LT$std..os..fd..owned..BorrowedFd$u20$as$u20$core..fmt..Debug$GT$3fmt17h32bb99856888be05E', symObjAddr: 0x30864, symBinAddr: 0x358A0, symSize: 0x64 }
  - { offset: 0x95B2E, size: 0x8, addend: 0x0, symName: __ZN3std2os2fd5owned10BorrowedFd18try_clone_to_owned17hbabd505d56a45315E, symObjAddr: 0x307FC, symBinAddr: 0x35838, symSize: 0x68 }
  - { offset: 0x95BEA, size: 0x8, addend: 0x0, symName: __ZN3std2os2fd5owned7OwnedFd9try_clone17h8c8225fc4b3e2af7E, symObjAddr: 0x30794, symBinAddr: 0x357D0, symSize: 0x68 }
  - { offset: 0x95E2F, size: 0x8, addend: 0x0, symName: '__ZN70_$LT$std..io..pipe..PipeReader$u20$as$u20$std..os..fd..owned..AsFd$GT$5as_fd17h7fde2647f87b2bc0E', symObjAddr: 0x3092C, symBinAddr: 0x35968, symSize: 0x14 }
  - { offset: 0x95EE0, size: 0x8, addend: 0x0, symName: '__ZN60_$LT$std..fs..File$u20$as$u20$std..os..unix..fs..FileExt$GT$7read_at17h5c8a4c1c9a0678edE', symObjAddr: 0x2E6D0, symBinAddr: 0x3370C, symSize: 0x58 }
  - { offset: 0x95FDC, size: 0x8, addend: 0x0, symName: '__ZN60_$LT$std..fs..File$u20$as$u20$std..os..unix..fs..FileExt$GT$16read_vectored_at17h8b7ba120a3bd83a0E', symObjAddr: 0x2E728, symBinAddr: 0x33764, symSize: 0x10 }
  - { offset: 0x9600E, size: 0x8, addend: 0x0, symName: '__ZN60_$LT$std..fs..File$u20$as$u20$std..os..unix..fs..FileExt$GT$8write_at17h98152a6496ac09ffE', symObjAddr: 0x2E738, symBinAddr: 0x33774, symSize: 0x58 }
  - { offset: 0x9610C, size: 0x8, addend: 0x0, symName: '__ZN60_$LT$std..fs..File$u20$as$u20$std..os..unix..fs..FileExt$GT$17write_vectored_at17h67092b43042861dfE', symObjAddr: 0x2E790, symBinAddr: 0x337CC, symSize: 0x10 }
  - { offset: 0x96145, size: 0x8, addend: 0x0, symName: '__ZN69_$LT$std..fs..DirEntry$u20$as$u20$std..os..unix..fs..DirEntryExt2$GT$13file_name_ref17hf3678ad729ed3b73E', symObjAddr: 0x2E7A0, symBinAddr: 0x337DC, symSize: 0x18 }
  - { offset: 0x961B1, size: 0x8, addend: 0x0, symName: __ZN3std2os4unix3net4addr11sockaddr_un17hca0a05fe5c6d8ce5E, symObjAddr: 0x2E7B8, symBinAddr: 0x337F4, symSize: 0x124 }
  - { offset: 0x962A7, size: 0x8, addend: 0x0, symName: __ZN3std2os4unix3net4addr10SocketAddr10is_unnamed17h00236760d91a08f0E, symObjAddr: 0x2E8DC, symBinAddr: 0x33918, symSize: 0x44 }
  - { offset: 0x962FA, size: 0x8, addend: 0x0, symName: __ZN3std2os4unix3net4addr10SocketAddr11as_pathname17ha371da210296cbccE, symObjAddr: 0x2E920, symBinAddr: 0x3395C, symSize: 0x48 }
  - { offset: 0x963AF, size: 0x8, addend: 0x0, symName: '__ZN73_$LT$std..os..unix..net..addr..SocketAddr$u20$as$u20$core..fmt..Debug$GT$3fmt17h347c117993009ba3E', symObjAddr: 0x2E968, symBinAddr: 0x339A4, symSize: 0xAC }
  - { offset: 0x9647E, size: 0x8, addend: 0x0, symName: __ZN3std2os4unix3net8datagram12UnixDatagram9bind_addr17h5b518bd6187173d4E, symObjAddr: 0x2ED90, symBinAddr: 0x33DCC, symSize: 0xB4 }
  - { offset: 0x965B9, size: 0x8, addend: 0x0, symName: __ZN3std2os4unix3net8datagram12UnixDatagram7unbound17haeb4cb5d45b9db03E, symObjAddr: 0x2EE44, symBinAddr: 0x33E80, symSize: 0x60 }
  - { offset: 0x965F1, size: 0x8, addend: 0x0, symName: __ZN3std2os4unix3net8datagram12UnixDatagram4pair17ha3c11a11ad01076aE, symObjAddr: 0x2EEA4, symBinAddr: 0x33EE0, symSize: 0x5C }
  - { offset: 0x9662F, size: 0x8, addend: 0x0, symName: __ZN3std2os4unix3net8datagram12UnixDatagram12connect_addr17h8bd5f3befece3d70E, symObjAddr: 0x2EF00, symBinAddr: 0x33F3C, symSize: 0x3C }
  - { offset: 0x9670B, size: 0x8, addend: 0x0, symName: __ZN3std2os4unix3net8datagram12UnixDatagram9recv_from17h7ab5a6fb8dc4ba00E, symObjAddr: 0x2EF3C, symBinAddr: 0x33F78, symSize: 0x118 }
  - { offset: 0x9688D, size: 0x8, addend: 0x0, symName: __ZN3std2os4unix3net8datagram12UnixDatagram4recv17h086ff87bb697ac0eE, symObjAddr: 0x2F054, symBinAddr: 0x34090, symSize: 0x44 }
  - { offset: 0x96948, size: 0x8, addend: 0x0, symName: __ZN3std2os4unix3net8datagram12UnixDatagram12send_to_addr17h2ea0f5e42581523aE, symObjAddr: 0x2F098, symBinAddr: 0x340D4, symSize: 0x58 }
  - { offset: 0x96A2F, size: 0x8, addend: 0x0, symName: __ZN3std2os4unix3net8datagram12UnixDatagram4send17h5e63902e0dc6fad7E, symObjAddr: 0x2F0F0, symBinAddr: 0x3412C, symSize: 0x58 }
  - { offset: 0x96B2D, size: 0x8, addend: 0x0, symName: __ZN3std2os4unix3net8datagram12UnixDatagram9peek_from17h8e7f08084a3e50fbE, symObjAddr: 0x2F148, symBinAddr: 0x34184, symSize: 0x118 }
  - { offset: 0x96CFC, size: 0x8, addend: 0x0, symName: '__ZN79_$LT$std..os..unix..net..datagram..UnixDatagram$u20$as$u20$core..fmt..Debug$GT$3fmt17hca5692d03845ab1fE', symObjAddr: 0x2EA14, symBinAddr: 0x33A50, symSize: 0x37C }
  - { offset: 0x973C3, size: 0x8, addend: 0x0, symName: __ZN3std2os4unix3net8listener12UnixListener9bind_addr17hefbe5572232bf1f9E, symObjAddr: 0x2F464, symBinAddr: 0x344A0, symSize: 0xC8 }
  - { offset: 0x97508, size: 0x8, addend: 0x0, symName: __ZN3std2os4unix3net8listener12UnixListener6accept17h5cdad4d3e4832e05E, symObjAddr: 0x2F52C, symBinAddr: 0x34568, symSize: 0x148 }
  - { offset: 0x9779A, size: 0x8, addend: 0x0, symName: '__ZN79_$LT$std..os..unix..net..listener..UnixListener$u20$as$u20$core..fmt..Debug$GT$3fmt17h05d34f153b9784b1E', symObjAddr: 0x2F260, symBinAddr: 0x3429C, symSize: 0x204 }
  - { offset: 0x97AA7, size: 0x8, addend: 0x0, symName: '__ZN97_$LT$std..os..unix..net..listener..Incoming$u20$as$u20$core..iter..traits..iterator..Iterator$GT$4next17hb8a0427352df331aE', symObjAddr: 0x2F674, symBinAddr: 0x346B0, symSize: 0x40 }
  - { offset: 0x97B01, size: 0x8, addend: 0x0, symName: __ZN3std2os4unix3net6stream10UnixStream12connect_addr17h54b8bc9cbf687cd9E, symObjAddr: 0x2FA30, symBinAddr: 0x34A6C, symSize: 0xB4 }
  - { offset: 0x97C17, size: 0x8, addend: 0x0, symName: __ZN3std2os4unix3net6stream10UnixStream4pair17hbb722325dc2df3deE, symObjAddr: 0x2FAE4, symBinAddr: 0x34B20, symSize: 0x5C }
  - { offset: 0x97C55, size: 0x8, addend: 0x0, symName: __ZN3std2os4unix3net6stream10UnixStream10local_addr17h348be6ae7b830194E, symObjAddr: 0x2FB40, symBinAddr: 0x34B7C, symSize: 0xE4 }
  - { offset: 0x97D64, size: 0x8, addend: 0x0, symName: __ZN3std2os4unix3net6stream10UnixStream9peer_addr17h055ef0a36aa1e82aE, symObjAddr: 0x2FC24, symBinAddr: 0x34C60, symSize: 0xE4 }
  - { offset: 0x97E73, size: 0x8, addend: 0x0, symName: __ZN3std2os4unix3net6stream10UnixStream9peer_cred17hd06a3852adf9b5a5E, symObjAddr: 0x2FD08, symBinAddr: 0x34D44, symSize: 0xD0 }
  - { offset: 0x97F56, size: 0x8, addend: 0x0, symName: __ZN3std2os4unix3net6stream10UnixStream16set_read_timeout17haeebee155754fda7E, symObjAddr: 0x2FDD8, symBinAddr: 0x34E14, symSize: 0xC0 }
  - { offset: 0x9801E, size: 0x8, addend: 0x0, symName: __ZN3std2os4unix3net6stream10UnixStream17set_write_timeout17h16946e9cea77a065E, symObjAddr: 0x2FE98, symBinAddr: 0x34ED4, symSize: 0xC0 }
  - { offset: 0x980E6, size: 0x8, addend: 0x0, symName: __ZN3std2os4unix3net6stream10UnixStream12read_timeout17h08ccdd6956fcd889E, symObjAddr: 0x2FF58, symBinAddr: 0x34F94, symSize: 0xE8 }
  - { offset: 0x98232, size: 0x8, addend: 0x0, symName: __ZN3std2os4unix3net6stream10UnixStream13write_timeout17h7e87fb482b1c79baE, symObjAddr: 0x30040, symBinAddr: 0x3507C, symSize: 0xE8 }
  - { offset: 0x9837E, size: 0x8, addend: 0x0, symName: __ZN3std2os4unix3net6stream10UnixStream15set_nonblocking17ha3caafc406680e47E, symObjAddr: 0x30128, symBinAddr: 0x35164, symSize: 0x54 }
  - { offset: 0x98422, size: 0x8, addend: 0x0, symName: __ZN3std2os4unix3net6stream10UnixStream10take_error17h3e92d32dedb8dbceE, symObjAddr: 0x3017C, symBinAddr: 0x351B8, symSize: 0x74 }
  - { offset: 0x9853C, size: 0x8, addend: 0x0, symName: __ZN3std2os4unix3net6stream10UnixStream8shutdown17h701eb400ae356850E, symObjAddr: 0x301F0, symBinAddr: 0x3522C, symSize: 0x3C }
  - { offset: 0x985E0, size: 0x8, addend: 0x0, symName: __ZN3std2os4unix3net6stream10UnixStream4peek17h7111441668591eeaE, symObjAddr: 0x3022C, symBinAddr: 0x35268, symSize: 0x44 }
  - { offset: 0x986D1, size: 0x8, addend: 0x0, symName: '__ZN75_$LT$std..os..unix..net..stream..UnixStream$u20$as$u20$core..fmt..Debug$GT$3fmt17h08de66741c3d60f5E', symObjAddr: 0x2F6B4, symBinAddr: 0x346F0, symSize: 0x37C }
  - { offset: 0x98D7B, size: 0x8, addend: 0x0, symName: '__ZN76_$LT$$RF$std..os..unix..net..stream..UnixStream$u20$as$u20$std..io..Read$GT$8read_buf17h067c17fb7f12730dE', symObjAddr: 0x3037C, symBinAddr: 0x353B8, symSize: 0x74 }
  - { offset: 0x98F08, size: 0x8, addend: 0x0, symName: '__ZN72_$LT$std..os..unix..net..stream..UnixStream$u20$as$u20$std..io..Read$GT$4read17h684e2cdd48af28cdE', symObjAddr: 0x30270, symBinAddr: 0x352AC, symSize: 0x44 }
  - { offset: 0x98FDA, size: 0x8, addend: 0x0, symName: '__ZN72_$LT$std..os..unix..net..stream..UnixStream$u20$as$u20$std..io..Read$GT$8read_buf17hf6fc4fe0f81bfe04E', symObjAddr: 0x302B4, symBinAddr: 0x352F0, symSize: 0x70 }
  - { offset: 0x9917E, size: 0x8, addend: 0x0, symName: '__ZN72_$LT$std..os..unix..net..stream..UnixStream$u20$as$u20$std..io..Read$GT$13read_vectored17hc9d1e3130abb3378E', symObjAddr: 0x30324, symBinAddr: 0x35360, symSize: 0x58 }
  - { offset: 0x992BB, size: 0x8, addend: 0x0, symName: '__ZN76_$LT$std..process..Command$u20$as$u20$std..os..unix..process..CommandExt$GT$6groups17h2656f243d6845c16E', symObjAddr: 0x303F0, symBinAddr: 0x3542C, symSize: 0xD8 }
  - { offset: 0x99488, size: 0x8, addend: 0x0, symName: '__ZN76_$LT$std..process..Command$u20$as$u20$std..os..unix..process..CommandExt$GT$4exec17hd0620f8aee6f7e5aE', symObjAddr: 0x304C8, symBinAddr: 0x35504, symSize: 0x284 }
  - { offset: 0x99BAA, size: 0x8, addend: 0x0, symName: '__ZN87_$LT$std..process..ExitStatusError$u20$as$u20$std..os..unix..process..ExitStatusExt$GT$8from_raw17hb0a04fd19ec9237dE', symObjAddr: 0x3074C, symBinAddr: 0x35788, symSize: 0x38 }
  - { offset: 0x99BD5, size: 0x8, addend: 0x0, symName: __ZN3std2os4unix7process9parent_id17h9e558d635cc311d4E, symObjAddr: 0x30784, symBinAddr: 0x357C0, symSize: 0x10 }
  - { offset: 0x99E2C, size: 0x8, addend: 0x0, symName: __ZN3std3ffi6os_str8OsString17into_boxed_os_str17h736256fbabcf5820E, symObjAddr: 0x22224, symBinAddr: 0x27570, symSize: 0xA0 }
  - { offset: 0x9A06D, size: 0x8, addend: 0x0, symName: __ZN3std3ffi6os_str5OsStr14into_os_string17h313eb4dc2bb59f00E, symObjAddr: 0x22344, symBinAddr: 0x27690, symSize: 0x18 }
  - { offset: 0x9A088, size: 0x8, addend: 0x0, symName: __ZN3std3ffi6os_str5OsStr18to_ascii_lowercase17h0853afa2ac8943caE, symObjAddr: 0x2235C, symBinAddr: 0x276A8, symSize: 0x170 }
  - { offset: 0x9A226, size: 0x8, addend: 0x0, symName: __ZN3std3ffi6os_str5OsStr18to_ascii_uppercase17hbb5276b35d0f76b6E, symObjAddr: 0x224CC, symBinAddr: 0x27818, symSize: 0x170 }
  - { offset: 0x9A496, size: 0x8, addend: 0x0, symName: '__ZN63_$LT$std..ffi..os_str..OsString$u20$as$u20$core..fmt..Write$GT$9write_str17haf71c49ef876c48dE', symObjAddr: 0x222C4, symBinAddr: 0x27610, symSize: 0x80 }
  - { offset: 0x9A641, size: 0x8, addend: 0x0, symName: '__ZN3std3ffi6os_str95_$LT$impl$u20$core..convert..TryFrom$LT$$RF$std..ffi..os_str..OsStr$GT$$u20$for$u20$$RF$str$GT$8try_from17he4014572ccdf4057E', symObjAddr: 0x2263C, symBinAddr: 0x27988, symSize: 0x10 }
  - { offset: 0x9A67A, size: 0x8, addend: 0x0, symName: '__ZN62_$LT$std..ffi..os_str..Display$u20$as$u20$core..fmt..Debug$GT$3fmt17h402c011333fa2b67E', symObjAddr: 0x2264C, symBinAddr: 0x27998, symSize: 0x28 }
  - { offset: 0x9A6FE, size: 0x8, addend: 0x0, symName: '__ZN64_$LT$std..ffi..os_str..Display$u20$as$u20$core..fmt..Display$GT$3fmt17h507c97aa6462a49cE', symObjAddr: 0x22674, symBinAddr: 0x279C0, symSize: 0xAC }
  - { offset: 0x9A936, size: 0x8, addend: 0x0, symName: '__ZN81_$LT$std..io..default_write_fmt..Adapter$LT$T$GT$$u20$as$u20$core..fmt..Write$GT$9write_str17h07824f32d3defb44E', symObjAddr: 0x2BDBC, symBinAddr: 0x30DF8, symSize: 0xD8 }
  - { offset: 0x9AA9A, size: 0x8, addend: 0x0, symName: '__ZN81_$LT$std..io..default_write_fmt..Adapter$LT$T$GT$$u20$as$u20$core..fmt..Write$GT$9write_str17h18a2d895bccedabbE', symObjAddr: 0x2BE94, symBinAddr: 0x30ED0, symSize: 0xA0 }
  - { offset: 0x9ABE7, size: 0x8, addend: 0x0, symName: '__ZN81_$LT$std..io..default_write_fmt..Adapter$LT$T$GT$$u20$as$u20$core..fmt..Write$GT$9write_str17h57a6226929d97312E', symObjAddr: 0x2BF34, symBinAddr: 0x30F70, symSize: 0xD8 }
  - { offset: 0x9AD4B, size: 0x8, addend: 0x0, symName: '__ZN81_$LT$std..io..default_write_fmt..Adapter$LT$T$GT$$u20$as$u20$core..fmt..Write$GT$9write_str17hb340f0f9e7b6f225E', symObjAddr: 0x2C00C, symBinAddr: 0x31048, symSize: 0x80 }
  - { offset: 0x9AEA8, size: 0x8, addend: 0x0, symName: '__ZN81_$LT$std..io..default_write_fmt..Adapter$LT$T$GT$$u20$as$u20$core..fmt..Write$GT$9write_str17hd037ef563becd127E', symObjAddr: 0x2C08C, symBinAddr: 0x310C8, symSize: 0x50 }
  - { offset: 0x9AED3, size: 0x8, addend: 0x0, symName: '__ZN81_$LT$std..io..default_write_fmt..Adapter$LT$T$GT$$u20$as$u20$core..fmt..Write$GT$9write_str17hd2ef1ef6d8c68289E', symObjAddr: 0x2C0DC, symBinAddr: 0x31118, symSize: 0x50 }
  - { offset: 0x9AF1A, size: 0x8, addend: 0x0, symName: '__ZN3std2io5impls74_$LT$impl$u20$std..io..Write$u20$for$u20$alloc..vec..Vec$LT$u8$C$A$GT$$GT$5write17h71799f1d72b9e2e8E', symObjAddr: 0x26294, symBinAddr: 0x2B3C0, symSize: 0x84 }
  - { offset: 0x9B06F, size: 0x8, addend: 0x0, symName: '__ZN3std2io5impls74_$LT$impl$u20$std..io..Write$u20$for$u20$alloc..vec..Vec$LT$u8$C$A$GT$$GT$14write_vectored17h9ae9ac5efe0ce475E', symObjAddr: 0x26318, symBinAddr: 0x2B444, symSize: 0x14C }
  - { offset: 0x9B2FB, size: 0x8, addend: 0x0, symName: '__ZN3std2io5impls74_$LT$impl$u20$std..io..Write$u20$for$u20$alloc..vec..Vec$LT$u8$C$A$GT$$GT$17is_write_vectored17h3d3fa65f90969264E', symObjAddr: 0x26464, symBinAddr: 0x2B590, symSize: 0x14 }
  - { offset: 0x9B316, size: 0x8, addend: 0x0, symName: '__ZN3std2io5impls74_$LT$impl$u20$std..io..Write$u20$for$u20$alloc..vec..Vec$LT$u8$C$A$GT$$GT$9write_all17h1a7c1c0f9854691aE', symObjAddr: 0x26478, symBinAddr: 0x2B5A4, symSize: 0x80 }
  - { offset: 0x9B472, size: 0x8, addend: 0x0, symName: '__ZN3std2io5impls74_$LT$impl$u20$std..io..Write$u20$for$u20$alloc..vec..Vec$LT$u8$C$A$GT$$GT$18write_all_vectored17h346b8cf8fa0064afE', symObjAddr: 0x264F8, symBinAddr: 0x2B624, symSize: 0x144 }
  - { offset: 0x9B49F, size: 0x8, addend: 0x0, symName: '__ZN3std2io5impls74_$LT$impl$u20$std..io..Write$u20$for$u20$alloc..vec..Vec$LT$u8$C$A$GT$$GT$18write_all_vectored17h346b8cf8fa0064afE', symObjAddr: 0x264F8, symBinAddr: 0x2B624, symSize: 0x144 }
  - { offset: 0x9B4B5, size: 0x8, addend: 0x0, symName: '__ZN3std2io5impls74_$LT$impl$u20$std..io..Write$u20$for$u20$alloc..vec..Vec$LT$u8$C$A$GT$$GT$18write_all_vectored17h346b8cf8fa0064afE', symObjAddr: 0x264F8, symBinAddr: 0x2B624, symSize: 0x144 }
  - { offset: 0x9B4CB, size: 0x8, addend: 0x0, symName: '__ZN3std2io5impls74_$LT$impl$u20$std..io..Write$u20$for$u20$alloc..vec..Vec$LT$u8$C$A$GT$$GT$18write_all_vectored17h346b8cf8fa0064afE', symObjAddr: 0x264F8, symBinAddr: 0x2B624, symSize: 0x144 }
  - { offset: 0x9B4E0, size: 0x8, addend: 0x0, symName: '__ZN3std2io5impls74_$LT$impl$u20$std..io..Write$u20$for$u20$alloc..vec..Vec$LT$u8$C$A$GT$$GT$18write_all_vectored17h346b8cf8fa0064afE', symObjAddr: 0x264F8, symBinAddr: 0x2B624, symSize: 0x144 }
  - { offset: 0x9B714, size: 0x8, addend: 0x0, symName: '__ZN3std2io5impls74_$LT$impl$u20$std..io..Write$u20$for$u20$alloc..vec..Vec$LT$u8$C$A$GT$$GT$5flush17hb9e1d1d7655b18e6E', symObjAddr: 0x2663C, symBinAddr: 0x2B768, symSize: 0x14 }
  - { offset: 0x9B844, size: 0x8, addend: 0x0, symName: __ZN3std2io5error5Error3new17h6fc6bc7fbcdeb883E, symObjAddr: 0x25AD0, symBinAddr: 0x2ABFC, symSize: 0x138 }
  - { offset: 0x9BBA4, size: 0x8, addend: 0x0, symName: __ZN3std2io5error5Error3new17h8fe0142173c2afcfE, symObjAddr: 0x25C08, symBinAddr: 0x2AD34, symSize: 0x80 }
  - { offset: 0x9BC72, size: 0x8, addend: 0x0, symName: __ZN3std2io5error5Error4_new17hc34fef218eb427e5E, symObjAddr: 0x25C88, symBinAddr: 0x2ADB4, symSize: 0x84 }
  - { offset: 0x9BE72, size: 0x8, addend: 0x0, symName: __ZN3std2io5error14repr_bitpacked4Repr3new17h1412c632b42c9b85E, symObjAddr: 0x259A4, symBinAddr: 0x2AAD0, symSize: 0x58 }
  - { offset: 0x9C047, size: 0x8, addend: 0x0, symName: __ZN3std2io5error14repr_bitpacked11decode_repr17hdc4b601156ff8378E, symObjAddr: 0x259FC, symBinAddr: 0x2AB28, symSize: 0x64 }
  - { offset: 0x9C0B4, size: 0x8, addend: 0x0, symName: '__ZN58_$LT$std..io..error..Error$u20$as$u20$core..fmt..Debug$GT$3fmt17hef67acefeceaa36fE', symObjAddr: 0x25A60, symBinAddr: 0x2AB8C, symSize: 0x10 }
  - { offset: 0x9C117, size: 0x8, addend: 0x0, symName: '__ZN96_$LT$std..io..error..Error$u20$as$u20$core..convert..From$LT$alloc..ffi..c_str..NulError$GT$$GT$4from17hefc19b2760ba0b2dE', symObjAddr: 0x25A70, symBinAddr: 0x2AB9C, symSize: 0x2C }
  - { offset: 0x9C135, size: 0x8, addend: 0x0, symName: '__ZN96_$LT$std..io..error..Error$u20$as$u20$core..convert..From$LT$alloc..ffi..c_str..NulError$GT$$GT$4from17hefc19b2760ba0b2dE', symObjAddr: 0x25A70, symBinAddr: 0x2AB9C, symSize: 0x2C }
  - { offset: 0x9C14A, size: 0x8, addend: 0x0, symName: '__ZN96_$LT$std..io..error..Error$u20$as$u20$core..convert..From$LT$alloc..ffi..c_str..NulError$GT$$GT$4from17hefc19b2760ba0b2dE', symObjAddr: 0x25A70, symBinAddr: 0x2AB9C, symSize: 0x2C }
  - { offset: 0x9C1EB, size: 0x8, addend: 0x0, symName: '__ZN64_$LT$std..io..error..ErrorKind$u20$as$u20$core..fmt..Display$GT$3fmt17hf9e7f65f827ad98eE', symObjAddr: 0x25A9C, symBinAddr: 0x2ABC8, symSize: 0x34 }
  - { offset: 0x9C238, size: 0x8, addend: 0x0, symName: '__ZN3std2io5error83_$LT$impl$u20$core..fmt..Debug$u20$for$u20$std..io..error..repr_bitpacked..Repr$GT$3fmt17ha9d33808d04f306cE', symObjAddr: 0x25D0C, symBinAddr: 0x2AE38, symSize: 0x294 }
  - { offset: 0x9C4A1, size: 0x8, addend: 0x0, symName: '__ZN60_$LT$std..io..error..Error$u20$as$u20$core..fmt..Display$GT$3fmt17hb5fb3c1e3fc260a5E', symObjAddr: 0x25FA0, symBinAddr: 0x2B0CC, symSize: 0x204 }
  - { offset: 0x9C71F, size: 0x8, addend: 0x0, symName: '__ZN60_$LT$std..io..error..Error$u20$as$u20$core..error..Error$GT$11description17h755266f9edaf2ed4E', symObjAddr: 0x261A4, symBinAddr: 0x2B2D0, symSize: 0x80 }
  - { offset: 0x9C7AF, size: 0x8, addend: 0x0, symName: '__ZN60_$LT$std..io..error..Error$u20$as$u20$core..error..Error$GT$5cause17hbf4dd737ad0dea02E', symObjAddr: 0x26224, symBinAddr: 0x2B350, symSize: 0x38 }
  - { offset: 0x9C7CE, size: 0x8, addend: 0x0, symName: '__ZN60_$LT$std..io..error..Error$u20$as$u20$core..error..Error$GT$5cause17hbf4dd737ad0dea02E', symObjAddr: 0x26224, symBinAddr: 0x2B350, symSize: 0x38 }
  - { offset: 0x9C7F7, size: 0x8, addend: 0x0, symName: '__ZN60_$LT$std..io..error..Error$u20$as$u20$core..error..Error$GT$6source17h105c47785db1eb81E', symObjAddr: 0x2625C, symBinAddr: 0x2B388, symSize: 0x38 }
  - { offset: 0x9C816, size: 0x8, addend: 0x0, symName: '__ZN60_$LT$std..io..error..Error$u20$as$u20$core..error..Error$GT$6source17h105c47785db1eb81E', symObjAddr: 0x2625C, symBinAddr: 0x2B388, symSize: 0x38 }
  - { offset: 0x9C846, size: 0x8, addend: 0x0, symName: '__ZN62_$LT$std..io..error..ErrorKind$u20$as$u20$core..fmt..Debug$GT$3fmt17he630e7c250aee399E', symObjAddr: 0x3C60C, symBinAddr: 0x40908, symSize: 0x34 }
  - { offset: 0x9C8D8, size: 0x8, addend: 0x0, symName: __ZN3std2io5Write9write_all17he158819e86151aceE, symObjAddr: 0x2C1AC, symBinAddr: 0x311E8, symSize: 0xB8 }
  - { offset: 0x9CA17, size: 0x8, addend: 0x0, symName: __ZN3std2io5Write18write_all_vectored17hfe0e65f5af9a33edE, symObjAddr: 0x2C264, symBinAddr: 0x312A0, symSize: 0x1CC }
  - { offset: 0x9CD16, size: 0x8, addend: 0x0, symName: __ZN3std2io5Write9write_fmt17h338ea2257dc7439bE, symObjAddr: 0x2C430, symBinAddr: 0x3146C, symSize: 0x128 }
  - { offset: 0x9CF7B, size: 0x8, addend: 0x0, symName: __ZN3std2io5Write9write_fmt17h582b27efc205d770E, symObjAddr: 0x2C558, symBinAddr: 0x31594, symSize: 0x128 }
  - { offset: 0x9D1E0, size: 0x8, addend: 0x0, symName: __ZN3std2io5Write9write_fmt17h64c146b453a2d037E, symObjAddr: 0x2C680, symBinAddr: 0x316BC, symSize: 0x128 }
  - { offset: 0x9D4B8, size: 0x8, addend: 0x0, symName: '__ZN58_$LT$std..io..stdio..StdinRaw$u20$as$u20$std..io..Read$GT$4read17hd32f1e37d0917c3cE', symObjAddr: 0x26978, symBinAddr: 0x2BAA4, symSize: 0x78 }
  - { offset: 0x9D5C0, size: 0x8, addend: 0x0, symName: '__ZN58_$LT$std..io..stdio..StdinRaw$u20$as$u20$std..io..Read$GT$8read_buf17h21685b82592c6c5fE', symObjAddr: 0x269F0, symBinAddr: 0x2BB1C, symSize: 0x88 }
  - { offset: 0x9D781, size: 0x8, addend: 0x0, symName: '__ZN58_$LT$std..io..stdio..StdinRaw$u20$as$u20$std..io..Read$GT$13read_vectored17h2e8e34ce6f86dbbdE', symObjAddr: 0x26A78, symBinAddr: 0x2BBA4, symSize: 0x78 }
  - { offset: 0x9D889, size: 0x8, addend: 0x0, symName: '__ZN58_$LT$std..io..stdio..StdinRaw$u20$as$u20$std..io..Read$GT$10read_exact17hfd2cf1209254efb0E', symObjAddr: 0x26AF0, symBinAddr: 0x2BC1C, symSize: 0xDC }
  - { offset: 0x9D9FE, size: 0x8, addend: 0x0, symName: '__ZN58_$LT$std..io..stdio..StdinRaw$u20$as$u20$std..io..Read$GT$14read_buf_exact17h07cc6c35929dc21aE', symObjAddr: 0x26BCC, symBinAddr: 0x2BCF8, symSize: 0xE4 }
  - { offset: 0x9DC16, size: 0x8, addend: 0x0, symName: '__ZN58_$LT$std..io..stdio..StdinRaw$u20$as$u20$std..io..Read$GT$11read_to_end17h6e9a0c9976ab24beE', symObjAddr: 0x26CB0, symBinAddr: 0x2BDDC, symSize: 0x3C }
  - { offset: 0x9DC55, size: 0x8, addend: 0x0, symName: '__ZN58_$LT$std..io..stdio..StdinRaw$u20$as$u20$std..io..Read$GT$14read_to_string17h8882ec996cc4cd0fE', symObjAddr: 0x26CEC, symBinAddr: 0x2BE18, symSize: 0xDC }
  - { offset: 0x9DF25, size: 0x8, addend: 0x0, symName: '__ZN60_$LT$std..io..stdio..StdoutRaw$u20$as$u20$std..io..Write$GT$5write17hdd9871b68cf99a17E', symObjAddr: 0x26DC8, symBinAddr: 0x2BEF4, symSize: 0x7C }
  - { offset: 0x9E02F, size: 0x8, addend: 0x0, symName: '__ZN60_$LT$std..io..stdio..StdoutRaw$u20$as$u20$std..io..Write$GT$14write_vectored17ha3d8e782d88bbd30E', symObjAddr: 0x26E44, symBinAddr: 0x2BF70, symSize: 0xDC }
  - { offset: 0x9E1BC, size: 0x8, addend: 0x0, symName: '__ZN60_$LT$std..io..stdio..StdoutRaw$u20$as$u20$std..io..Write$GT$9write_all17h0721c47915989815E', symObjAddr: 0x26F20, symBinAddr: 0x2C04C, symSize: 0xC8 }
  - { offset: 0x9E31E, size: 0x8, addend: 0x0, symName: '__ZN60_$LT$std..io..stdio..StdoutRaw$u20$as$u20$std..io..Write$GT$18write_all_vectored17hc486c0580f9944e8E', symObjAddr: 0x26FE8, symBinAddr: 0x2C114, symSize: 0x1D4 }
  - { offset: 0x9E5B7, size: 0x8, addend: 0x0, symName: '__ZN60_$LT$std..io..stdio..StdoutRaw$u20$as$u20$std..io..Write$GT$9write_fmt17h13f072072e6126f0E', symObjAddr: 0x271BC, symBinAddr: 0x2C2E8, symSize: 0x138 }
  - { offset: 0x9E8C7, size: 0x8, addend: 0x0, symName: '__ZN60_$LT$std..io..stdio..StderrRaw$u20$as$u20$std..io..Write$GT$5write17hfda1a360709e2cfeE', symObjAddr: 0x272F4, symBinAddr: 0x2C420, symSize: 0x7C }
  - { offset: 0x9E9E5, size: 0x8, addend: 0x0, symName: '__ZN60_$LT$std..io..stdio..StderrRaw$u20$as$u20$std..io..Write$GT$14write_vectored17h579d6c7f7ec8a2efE', symObjAddr: 0x27370, symBinAddr: 0x2C49C, symSize: 0xDC }
  - { offset: 0x9EB72, size: 0x8, addend: 0x0, symName: '__ZN60_$LT$std..io..stdio..StderrRaw$u20$as$u20$std..io..Write$GT$5flush17h259da253a007746fE', symObjAddr: 0x2744C, symBinAddr: 0x2C578, symSize: 0x14 }
  - { offset: 0x9EB8C, size: 0x8, addend: 0x0, symName: '__ZN60_$LT$std..io..stdio..StderrRaw$u20$as$u20$std..io..Write$GT$9write_all17h198c11317ecde6adE', symObjAddr: 0x27460, symBinAddr: 0x2C58C, symSize: 0xC8 }
  - { offset: 0x9ECEE, size: 0x8, addend: 0x0, symName: '__ZN60_$LT$std..io..stdio..StderrRaw$u20$as$u20$std..io..Write$GT$18write_all_vectored17h3357fa9fb4a8cf18E', symObjAddr: 0x27528, symBinAddr: 0x2C654, symSize: 0x28 }
  - { offset: 0x9ED18, size: 0x8, addend: 0x0, symName: '__ZN60_$LT$std..io..stdio..StderrRaw$u20$as$u20$std..io..Write$GT$9write_fmt17h57ddc0606cf516e0E', symObjAddr: 0x27550, symBinAddr: 0x2C67C, symSize: 0x28 }
  - { offset: 0x9EDB1, size: 0x8, addend: 0x0, symName: __ZN3std2io5stdio5stdin17h8590ed90384afb18E, symObjAddr: 0x27578, symBinAddr: 0x2C6A4, symSize: 0x3C }
  - { offset: 0x9EDEC, size: 0x8, addend: 0x0, symName: __ZN3std2io5stdio5stdin17h8590ed90384afb18E, symObjAddr: 0x27578, symBinAddr: 0x2C6A4, symSize: 0x3C }
  - { offset: 0x9EE02, size: 0x8, addend: 0x0, symName: __ZN3std2io5stdio5stdin17h8590ed90384afb18E, symObjAddr: 0x27578, symBinAddr: 0x2C6A4, symSize: 0x3C }
  - { offset: 0x9EE17, size: 0x8, addend: 0x0, symName: __ZN3std2io5stdio5stdin17h8590ed90384afb18E, symObjAddr: 0x27578, symBinAddr: 0x2C6A4, symSize: 0x3C }
  - { offset: 0x9EE2D, size: 0x8, addend: 0x0, symName: __ZN3std2io5stdio5stdin17h8590ed90384afb18E, symObjAddr: 0x27578, symBinAddr: 0x2C6A4, symSize: 0x3C }
  - { offset: 0x9EE43, size: 0x8, addend: 0x0, symName: __ZN3std2io5stdio5stdin17h8590ed90384afb18E, symObjAddr: 0x27578, symBinAddr: 0x2C6A4, symSize: 0x3C }
  - { offset: 0x9EE58, size: 0x8, addend: 0x0, symName: __ZN3std2io5stdio5stdin17h8590ed90384afb18E, symObjAddr: 0x27578, symBinAddr: 0x2C6A4, symSize: 0x3C }
  - { offset: 0x9EE78, size: 0x8, addend: 0x0, symName: __ZN3std2io5stdio5Stdin4lock17h1cc301609bb44dbdE, symObjAddr: 0x275B4, symBinAddr: 0x2C6E0, symSize: 0x68 }
  - { offset: 0x9EFDC, size: 0x8, addend: 0x0, symName: __ZN3std2io5stdio5Stdin9read_line17hcfa12b3cc67a8146E, symObjAddr: 0x2761C, symBinAddr: 0x2C748, symSize: 0x15C }
  - { offset: 0x9F4CF, size: 0x8, addend: 0x0, symName: __ZN3std2io5stdio5Stdin5lines17h2d5ef8a269e796edE, symObjAddr: 0x27778, symBinAddr: 0x2C8A4, symSize: 0x68 }
  - { offset: 0x9F650, size: 0x8, addend: 0x0, symName: '__ZN62_$LT$std..io..stdio..StdinLock$u20$as$u20$std..io..BufRead$GT$8fill_buf17h6627147ca93176c6E', symObjAddr: 0x28C10, symBinAddr: 0x2DD3C, symSize: 0xD0 }
  - { offset: 0x9F849, size: 0x8, addend: 0x0, symName: '__ZN62_$LT$std..io..stdio..StdinLock$u20$as$u20$std..io..BufRead$GT$7consume17h0868f7830784e5bdE', symObjAddr: 0x28CE0, symBinAddr: 0x2DE0C, symSize: 0x28 }
  - { offset: 0x9F8D5, size: 0x8, addend: 0x0, symName: '__ZN62_$LT$std..io..stdio..StdinLock$u20$as$u20$std..io..BufRead$GT$10read_until17hbd9bd89ce30fd663E', symObjAddr: 0x28D08, symBinAddr: 0x2DE34, symSize: 0x18 }
  - { offset: 0x9F934, size: 0x8, addend: 0x0, symName: '__ZN62_$LT$std..io..stdio..StdinLock$u20$as$u20$std..io..BufRead$GT$9read_line17h98bc7f39fc8e6559E', symObjAddr: 0x28D20, symBinAddr: 0x2DE4C, symSize: 0xC4 }
  - { offset: 0x9FB91, size: 0x8, addend: 0x0, symName: '__ZN58_$LT$std..io..stdio..Stdin$u20$as$u20$core..fmt..Debug$GT$3fmt17h0cfef2cbac56f4f2E', symObjAddr: 0x277E0, symBinAddr: 0x2C90C, symSize: 0x38 }
  - { offset: 0x9FBDD, size: 0x8, addend: 0x0, symName: '__ZN59_$LT$std..io..stdio..StdinLock$u20$as$u20$std..io..Read$GT$4read17h20c272ba5876ad0cE', symObjAddr: 0x28464, symBinAddr: 0x2D590, symSize: 0x18 }
  - { offset: 0x9FC1F, size: 0x8, addend: 0x0, symName: '__ZN59_$LT$std..io..stdio..StdinLock$u20$as$u20$std..io..Read$GT$8read_buf17h31b9fd5dee7b79e4E', symObjAddr: 0x2847C, symBinAddr: 0x2D5A8, symSize: 0x18 }
  - { offset: 0x9FC61, size: 0x8, addend: 0x0, symName: '__ZN59_$LT$std..io..stdio..StdinLock$u20$as$u20$std..io..Read$GT$13read_vectored17h7a57beadde1792cbE', symObjAddr: 0x28494, symBinAddr: 0x2D5C0, symSize: 0x258 }
  - { offset: 0xA016B, size: 0x8, addend: 0x0, symName: '__ZN59_$LT$std..io..stdio..StdinLock$u20$as$u20$std..io..Read$GT$11read_to_end17hbfb8e3bf23ed38acE', symObjAddr: 0x286EC, symBinAddr: 0x2D818, symSize: 0x18 }
  - { offset: 0xA01AD, size: 0x8, addend: 0x0, symName: '__ZN59_$LT$std..io..stdio..StdinLock$u20$as$u20$std..io..Read$GT$14read_to_string17h68997eeb343f06b4E', symObjAddr: 0x28704, symBinAddr: 0x2D830, symSize: 0x1BC }
  - { offset: 0xA0777, size: 0x8, addend: 0x0, symName: '__ZN59_$LT$std..io..stdio..StdinLock$u20$as$u20$std..io..Read$GT$10read_exact17hea4925a0465f6cf7E', symObjAddr: 0x288C0, symBinAddr: 0x2D9EC, symSize: 0x1C4 }
  - { offset: 0xA0B8E, size: 0x8, addend: 0x0, symName: '__ZN59_$LT$std..io..stdio..StdinLock$u20$as$u20$std..io..Read$GT$14read_buf_exact17h33c77c3751f7bdd7E', symObjAddr: 0x28A84, symBinAddr: 0x2DBB0, symSize: 0x18C }
  - { offset: 0xA108D, size: 0x8, addend: 0x0, symName: '__ZN55_$LT$std..io..stdio..Stdin$u20$as$u20$std..io..Read$GT$4read17h870980a71b5471a2E', symObjAddr: 0x27818, symBinAddr: 0x2C944, symSize: 0xF0 }
  - { offset: 0xA132C, size: 0x8, addend: 0x0, symName: '__ZN55_$LT$std..io..stdio..Stdin$u20$as$u20$std..io..Read$GT$8read_buf17h60b012171d7b1d63E', symObjAddr: 0x27908, symBinAddr: 0x2CA34, symSize: 0xD0 }
  - { offset: 0xA15CB, size: 0x8, addend: 0x0, symName: '__ZN55_$LT$std..io..stdio..Stdin$u20$as$u20$std..io..Read$GT$13read_vectored17h9a050eed0aa72ca6E', symObjAddr: 0x279D8, symBinAddr: 0x2CB04, symSize: 0xD8 }
  - { offset: 0xA1866, size: 0x8, addend: 0x0, symName: '__ZN55_$LT$std..io..stdio..Stdin$u20$as$u20$std..io..Read$GT$11read_to_end17hcec1dcc8ebf138ffE', symObjAddr: 0x27AB0, symBinAddr: 0x2CBDC, symSize: 0xD8 }
  - { offset: 0xA1B45, size: 0x8, addend: 0x0, symName: '__ZN55_$LT$std..io..stdio..Stdin$u20$as$u20$std..io..Read$GT$14read_to_string17h82cdf32e2d457600E', symObjAddr: 0x27B88, symBinAddr: 0x2CCB4, symSize: 0xE8 }
  - { offset: 0xA1DE0, size: 0x8, addend: 0x0, symName: '__ZN55_$LT$std..io..stdio..Stdin$u20$as$u20$std..io..Read$GT$10read_exact17h184f074315f8333dE', symObjAddr: 0x27C70, symBinAddr: 0x2CD9C, symSize: 0xE8 }
  - { offset: 0xA207B, size: 0x8, addend: 0x0, symName: '__ZN55_$LT$std..io..stdio..Stdin$u20$as$u20$std..io..Read$GT$14read_buf_exact17h5d65969f4a7d6dd1E', symObjAddr: 0x27D58, symBinAddr: 0x2CE84, symSize: 0xD8 }
  - { offset: 0xA231D, size: 0x8, addend: 0x0, symName: '__ZN59_$LT$$RF$std..io..stdio..Stdin$u20$as$u20$std..io..Read$GT$4read17hf8f303d78c460052E', symObjAddr: 0x27E30, symBinAddr: 0x2CF5C, symSize: 0xF4 }
  - { offset: 0xA25BC, size: 0x8, addend: 0x0, symName: '__ZN59_$LT$$RF$std..io..stdio..Stdin$u20$as$u20$std..io..Read$GT$8read_buf17ha086dd365359a4baE', symObjAddr: 0x27F24, symBinAddr: 0x2D050, symSize: 0xD4 }
  - { offset: 0xA285B, size: 0x8, addend: 0x0, symName: '__ZN59_$LT$$RF$std..io..stdio..Stdin$u20$as$u20$std..io..Read$GT$13read_vectored17hf1b8a66f558a2461E', symObjAddr: 0x27FF8, symBinAddr: 0x2D124, symSize: 0xDC }
  - { offset: 0xA2AF6, size: 0x8, addend: 0x0, symName: '__ZN59_$LT$$RF$std..io..stdio..Stdin$u20$as$u20$std..io..Read$GT$11read_to_end17hfc864dbaa22f8092E', symObjAddr: 0x280D4, symBinAddr: 0x2D200, symSize: 0xDC }
  - { offset: 0xA2DD5, size: 0x8, addend: 0x0, symName: '__ZN59_$LT$$RF$std..io..stdio..Stdin$u20$as$u20$std..io..Read$GT$14read_to_string17h485fa846d6e1569aE', symObjAddr: 0x281B0, symBinAddr: 0x2D2DC, symSize: 0xEC }
  - { offset: 0xA3070, size: 0x8, addend: 0x0, symName: '__ZN59_$LT$$RF$std..io..stdio..Stdin$u20$as$u20$std..io..Read$GT$10read_exact17h423be07e5dc5ff8dE', symObjAddr: 0x2829C, symBinAddr: 0x2D3C8, symSize: 0xEC }
  - { offset: 0xA330B, size: 0x8, addend: 0x0, symName: '__ZN59_$LT$$RF$std..io..stdio..Stdin$u20$as$u20$std..io..Read$GT$14read_buf_exact17h59380d75eaf4ec8dE', symObjAddr: 0x28388, symBinAddr: 0x2D4B4, symSize: 0xDC }
  - { offset: 0xA35AD, size: 0x8, addend: 0x0, symName: '__ZN62_$LT$std..io..stdio..StdinLock$u20$as$u20$core..fmt..Debug$GT$3fmt17hae036846da871aa7E', symObjAddr: 0x28DE4, symBinAddr: 0x2DF10, symSize: 0x38 }
  - { offset: 0xA35C9, size: 0x8, addend: 0x0, symName: __ZN3std2io5stdio6stdout17h2aa7801e8f9f5064E, symObjAddr: 0x28E1C, symBinAddr: 0x2DF48, symSize: 0x3C }
  - { offset: 0xA35FD, size: 0x8, addend: 0x0, symName: __ZN3std2io5stdio6stdout17h2aa7801e8f9f5064E, symObjAddr: 0x28E1C, symBinAddr: 0x2DF48, symSize: 0x3C }
  - { offset: 0xA3613, size: 0x8, addend: 0x0, symName: __ZN3std2io5stdio6stdout17h2aa7801e8f9f5064E, symObjAddr: 0x28E1C, symBinAddr: 0x2DF48, symSize: 0x3C }
  - { offset: 0xA3628, size: 0x8, addend: 0x0, symName: __ZN3std2io5stdio6stdout17h2aa7801e8f9f5064E, symObjAddr: 0x28E1C, symBinAddr: 0x2DF48, symSize: 0x3C }
  - { offset: 0xA363E, size: 0x8, addend: 0x0, symName: __ZN3std2io5stdio6stdout17h2aa7801e8f9f5064E, symObjAddr: 0x28E1C, symBinAddr: 0x2DF48, symSize: 0x3C }
  - { offset: 0xA3654, size: 0x8, addend: 0x0, symName: __ZN3std2io5stdio6stdout17h2aa7801e8f9f5064E, symObjAddr: 0x28E1C, symBinAddr: 0x2DF48, symSize: 0x3C }
  - { offset: 0xA3669, size: 0x8, addend: 0x0, symName: __ZN3std2io5stdio6stdout17h2aa7801e8f9f5064E, symObjAddr: 0x28E1C, symBinAddr: 0x2DF48, symSize: 0x3C }
  - { offset: 0xA3689, size: 0x8, addend: 0x0, symName: '__ZN59_$LT$std..io..stdio..Stdout$u20$as$u20$core..fmt..Debug$GT$3fmt17hd7e3550e0a241bc7E', symObjAddr: 0x28E58, symBinAddr: 0x2DF84, symSize: 0x38 }
  - { offset: 0xA36D5, size: 0x8, addend: 0x0, symName: '__ZN61_$LT$$RF$std..io..stdio..Stdout$u20$as$u20$std..io..Write$GT$5write17h8d0fd6face1e9170E', symObjAddr: 0x290D8, symBinAddr: 0x2E204, symSize: 0xA8 }
  - { offset: 0xA38D6, size: 0x8, addend: 0x0, symName: '__ZN61_$LT$$RF$std..io..stdio..Stdout$u20$as$u20$std..io..Write$GT$14write_vectored17hc23ef19c993ecddcE', symObjAddr: 0x29180, symBinAddr: 0x2E2AC, symSize: 0xDC }
  - { offset: 0xA3CEE, size: 0x8, addend: 0x0, symName: '__ZN61_$LT$$RF$std..io..stdio..Stdout$u20$as$u20$std..io..Write$GT$5flush17heb1ef2e82d8daac4E', symObjAddr: 0x2925C, symBinAddr: 0x2E388, symSize: 0xBC }
  - { offset: 0xA411C, size: 0x8, addend: 0x0, symName: '__ZN61_$LT$$RF$std..io..stdio..Stdout$u20$as$u20$std..io..Write$GT$9write_all17h6458492a4823c8eaE', symObjAddr: 0x29318, symBinAddr: 0x2E444, symSize: 0xA0 }
  - { offset: 0xA431D, size: 0x8, addend: 0x0, symName: '__ZN61_$LT$$RF$std..io..stdio..Stdout$u20$as$u20$std..io..Write$GT$18write_all_vectored17hd74736a593925826E', symObjAddr: 0x293B8, symBinAddr: 0x2E4E4, symSize: 0xA0 }
  - { offset: 0xA451E, size: 0x8, addend: 0x0, symName: '__ZN61_$LT$$RF$std..io..stdio..Stdout$u20$as$u20$std..io..Write$GT$9write_fmt17h9d5ad61e680afc87E', symObjAddr: 0x29458, symBinAddr: 0x2E584, symSize: 0x190 }
  - { offset: 0xA4945, size: 0x8, addend: 0x0, symName: '__ZN57_$LT$std..io..stdio..Stdout$u20$as$u20$std..io..Write$GT$5write17h684cbbc3aeaab427E', symObjAddr: 0x28E90, symBinAddr: 0x2DFBC, symSize: 0xA4 }
  - { offset: 0xA4B5C, size: 0x8, addend: 0x0, symName: '__ZN57_$LT$std..io..stdio..Stdout$u20$as$u20$std..io..Write$GT$14write_vectored17h90f169a19f32aacfE', symObjAddr: 0x28F34, symBinAddr: 0x2E060, symSize: 0x24 }
  - { offset: 0xA4B77, size: 0x8, addend: 0x0, symName: '__ZN57_$LT$std..io..stdio..Stdout$u20$as$u20$std..io..Write$GT$5flush17hb1f3e92359c187dcE', symObjAddr: 0x28F58, symBinAddr: 0x2E084, symSize: 0x24 }
  - { offset: 0xA4B92, size: 0x8, addend: 0x0, symName: '__ZN57_$LT$std..io..stdio..Stdout$u20$as$u20$std..io..Write$GT$9write_all17hde9b9504087955e9E', symObjAddr: 0x28F7C, symBinAddr: 0x2E0A8, symSize: 0x9C }
  - { offset: 0xA4DA9, size: 0x8, addend: 0x0, symName: '__ZN57_$LT$std..io..stdio..Stdout$u20$as$u20$std..io..Write$GT$18write_all_vectored17h8e41e7e204091d80E', symObjAddr: 0x29018, symBinAddr: 0x2E144, symSize: 0x9C }
  - { offset: 0xA4FC0, size: 0x8, addend: 0x0, symName: '__ZN57_$LT$std..io..stdio..Stdout$u20$as$u20$std..io..Write$GT$9write_fmt17hff6492576c285b5aE', symObjAddr: 0x290B4, symBinAddr: 0x2E1E0, symSize: 0x24 }
  - { offset: 0xA5005, size: 0x8, addend: 0x0, symName: '__ZN61_$LT$std..io..stdio..StdoutLock$u20$as$u20$std..io..Write$GT$5write17h407f54e0f1b4a4e9E', symObjAddr: 0x295E8, symBinAddr: 0x2E714, symSize: 0x264 }
  - { offset: 0xA57CB, size: 0x8, addend: 0x0, symName: '__ZN61_$LT$std..io..stdio..StdoutLock$u20$as$u20$std..io..Write$GT$14write_vectored17hba377315e7a8e3caE', symObjAddr: 0x2984C, symBinAddr: 0x2E978, symSize: 0x5C }
  - { offset: 0xA59F7, size: 0x8, addend: 0x0, symName: '__ZN61_$LT$std..io..stdio..StdoutLock$u20$as$u20$std..io..Write$GT$5flush17hd6ed386138dfcfa9E', symObjAddr: 0x298A8, symBinAddr: 0x2E9D4, symSize: 0x5C }
  - { offset: 0xA5C39, size: 0x8, addend: 0x0, symName: '__ZN61_$LT$std..io..stdio..StdoutLock$u20$as$u20$std..io..Write$GT$9write_all17hde4e0eea771f66ebE', symObjAddr: 0x29904, symBinAddr: 0x2EA30, symSize: 0x268 }
  - { offset: 0xA6437, size: 0x8, addend: 0x0, symName: '__ZN61_$LT$std..io..stdio..StdoutLock$u20$as$u20$std..io..Write$GT$18write_all_vectored17h1962f9e5f146c830E', symObjAddr: 0x29B6C, symBinAddr: 0x2EC98, symSize: 0x300 }
  - { offset: 0xA6AA6, size: 0x8, addend: 0x0, symName: '__ZN63_$LT$std..io..stdio..StdoutLock$u20$as$u20$core..fmt..Debug$GT$3fmt17hf75fbc0ba7c2cfd2E', symObjAddr: 0x29E6C, symBinAddr: 0x2EF98, symSize: 0x38 }
  - { offset: 0xA6AC8, size: 0x8, addend: 0x0, symName: __ZN3std2io5stdio6Stderr4lock17h0069cf0ec0916aedE, symObjAddr: 0x29EA4, symBinAddr: 0x2EFD0, symSize: 0xF0 }
  - { offset: 0xA6D8E, size: 0x8, addend: 0x0, symName: '__ZN59_$LT$std..io..stdio..Stderr$u20$as$u20$core..fmt..Debug$GT$3fmt17hac59fb35d96663c7E', symObjAddr: 0x29F94, symBinAddr: 0x2F0C0, symSize: 0x38 }
  - { offset: 0xA6DB0, size: 0x8, addend: 0x0, symName: '__ZN57_$LT$std..io..stdio..Stderr$u20$as$u20$std..io..Write$GT$5write17hdcba395b5e8c1e5cE', symObjAddr: 0x29FCC, symBinAddr: 0x2F0F8, symSize: 0x24 }
  - { offset: 0xA6DCB, size: 0x8, addend: 0x0, symName: '__ZN57_$LT$std..io..stdio..Stderr$u20$as$u20$std..io..Write$GT$14write_vectored17h0f672c1e7b1eca32E', symObjAddr: 0x29FF0, symBinAddr: 0x2F11C, symSize: 0x24 }
  - { offset: 0xA6DE6, size: 0x8, addend: 0x0, symName: '__ZN57_$LT$std..io..stdio..Stderr$u20$as$u20$std..io..Write$GT$5flush17hd0e0bd3fbb332211E', symObjAddr: 0x2A014, symBinAddr: 0x2F140, symSize: 0x80 }
  - { offset: 0xA705F, size: 0x8, addend: 0x0, symName: '__ZN57_$LT$std..io..stdio..Stderr$u20$as$u20$std..io..Write$GT$9write_all17h599304a65df0c229E', symObjAddr: 0x2A094, symBinAddr: 0x2F1C0, symSize: 0x9C }
  - { offset: 0xA7276, size: 0x8, addend: 0x0, symName: '__ZN57_$LT$std..io..stdio..Stderr$u20$as$u20$std..io..Write$GT$18write_all_vectored17h16b09f8b223b03d4E', symObjAddr: 0x2A130, symBinAddr: 0x2F25C, symSize: 0x24 }
  - { offset: 0xA7291, size: 0x8, addend: 0x0, symName: '__ZN57_$LT$std..io..stdio..Stderr$u20$as$u20$std..io..Write$GT$9write_fmt17ha27c0a62e8101d3fE', symObjAddr: 0x2A154, symBinAddr: 0x2F280, symSize: 0x24 }
  - { offset: 0xA72D6, size: 0x8, addend: 0x0, symName: '__ZN61_$LT$$RF$std..io..stdio..Stderr$u20$as$u20$std..io..Write$GT$5write17h9051e3a346f27503E', symObjAddr: 0x2A178, symBinAddr: 0x2F2A4, symSize: 0x108 }
  - { offset: 0xA770F, size: 0x8, addend: 0x0, symName: '__ZN61_$LT$$RF$std..io..stdio..Stderr$u20$as$u20$std..io..Write$GT$14write_vectored17h2b4b139e641eaab8E', symObjAddr: 0x2A280, symBinAddr: 0x2F3AC, symSize: 0x168 }
  - { offset: 0xA7BE3, size: 0x8, addend: 0x0, symName: '__ZN61_$LT$$RF$std..io..stdio..Stderr$u20$as$u20$std..io..Write$GT$5flush17h7605ffe26547bae7E', symObjAddr: 0x2A3E8, symBinAddr: 0x2F514, symSize: 0x84 }
  - { offset: 0xA7E46, size: 0x8, addend: 0x0, symName: '__ZN61_$LT$$RF$std..io..stdio..Stderr$u20$as$u20$std..io..Write$GT$9write_all17h129fc85cb9f87fc3E', symObjAddr: 0x2A46C, symBinAddr: 0x2F598, symSize: 0xA0 }
  - { offset: 0xA8047, size: 0x8, addend: 0x0, symName: '__ZN61_$LT$$RF$std..io..stdio..Stderr$u20$as$u20$std..io..Write$GT$18write_all_vectored17h15c70434d798d86fE', symObjAddr: 0x2A50C, symBinAddr: 0x2F638, symSize: 0xE4 }
  - { offset: 0xA8457, size: 0x8, addend: 0x0, symName: '__ZN61_$LT$$RF$std..io..stdio..Stderr$u20$as$u20$std..io..Write$GT$9write_fmt17haf2dc6c02ee61137E', symObjAddr: 0x2A5F0, symBinAddr: 0x2F71C, symSize: 0x190 }
  - { offset: 0xA88B6, size: 0x8, addend: 0x0, symName: '__ZN61_$LT$std..io..stdio..StderrLock$u20$as$u20$std..io..Write$GT$5write17h431627db9fa499c1E', symObjAddr: 0x2A780, symBinAddr: 0x2F8AC, symSize: 0xB0 }
  - { offset: 0xA8B23, size: 0x8, addend: 0x0, symName: '__ZN61_$LT$std..io..stdio..StderrLock$u20$as$u20$std..io..Write$GT$14write_vectored17hf2d8cf8e9fc8a8c0E', symObjAddr: 0x2A830, symBinAddr: 0x2F95C, symSize: 0x110 }
  - { offset: 0xA8E0B, size: 0x8, addend: 0x0, symName: '__ZN61_$LT$std..io..stdio..StderrLock$u20$as$u20$std..io..Write$GT$5flush17hd7195b515891d93aE', symObjAddr: 0x2A940, symBinAddr: 0x2FA6C, symSize: 0x28 }
  - { offset: 0xA8E23, size: 0x8, addend: 0x0, symName: '__ZN61_$LT$std..io..stdio..StderrLock$u20$as$u20$std..io..Write$GT$5flush17hd7195b515891d93aE', symObjAddr: 0x2A940, symBinAddr: 0x2FA6C, symSize: 0x28 }
  - { offset: 0xA8E89, size: 0x8, addend: 0x0, symName: '__ZN61_$LT$std..io..stdio..StderrLock$u20$as$u20$std..io..Write$GT$9write_all17h2eb24ac94e21a311E', symObjAddr: 0x2A968, symBinAddr: 0x2FA94, symSize: 0x114 }
  - { offset: 0xA91D4, size: 0x8, addend: 0x0, symName: '__ZN61_$LT$std..io..stdio..StderrLock$u20$as$u20$std..io..Write$GT$18write_all_vectored17haa9fa210c7ef19b3E', symObjAddr: 0x2AA7C, symBinAddr: 0x2FBA8, symSize: 0x6C }
  - { offset: 0xA9407, size: 0x8, addend: 0x0, symName: '__ZN63_$LT$std..io..stdio..StderrLock$u20$as$u20$core..fmt..Debug$GT$3fmt17he0cfe3f843032232E', symObjAddr: 0x2AAE8, symBinAddr: 0x2FC14, symSize: 0x38 }
  - { offset: 0xA9461, size: 0x8, addend: 0x0, symName: __ZN3std2io5stdio18set_output_capture17hdb5cd3c52d60f3f6E, symObjAddr: 0x2AB20, symBinAddr: 0x2FC4C, symSize: 0x120 }
  - { offset: 0xA9724, size: 0x8, addend: 0x0, symName: __ZN3std2io5stdio22try_set_output_capture17h556203b48dcadf3dE, symObjAddr: 0x2AC40, symBinAddr: 0x2FD6C, symSize: 0x10C }
  - { offset: 0xA99E5, size: 0x8, addend: 0x0, symName: __ZN3std2io5stdio31print_to_buffer_if_capture_used17h2bbb8ee4260527b4E, symObjAddr: 0x2AD4C, symBinAddr: 0x2FE78, symSize: 0x230 }
  - { offset: 0xAA12C, size: 0x8, addend: 0x0, symName: __ZN3std2io5stdio23attempt_print_to_stderr17h4fb01bd2dba392d4E, symObjAddr: 0x2AF7C, symBinAddr: 0x300A8, symSize: 0xD4 }
  - { offset: 0xAA397, size: 0x8, addend: 0x0, symName: __ZN3std2io5stdio6_print17h96b9163e542157a4E, symObjAddr: 0x2B050, symBinAddr: 0x3017C, symSize: 0xE4 }
  - { offset: 0xAA4A9, size: 0x8, addend: 0x0, symName: __ZN3std2io5stdio7_eprint17hc88c3a38ecf0ec6bE, symObjAddr: 0x2B134, symBinAddr: 0x30260, symSize: 0xC8 }
  - { offset: 0xAA527, size: 0x8, addend: 0x0, symName: '__ZN3std2io8buffered9bufwriter18BufWriter$LT$W$GT$9flush_buf17haab9f652b829fe85E', symObjAddr: 0x24FE0, symBinAddr: 0x2A32C, symSize: 0x1F8 }
  - { offset: 0xAAAEB, size: 0x8, addend: 0x0, symName: '__ZN3std2io8buffered9bufwriter18BufWriter$LT$W$GT$10write_cold17h1122123ee7ddb606E', symObjAddr: 0x2526C, symBinAddr: 0x8B270, symSize: 0xF8 }
  - { offset: 0xAAD5D, size: 0x8, addend: 0x0, symName: '__ZN3std2io8buffered9bufwriter18BufWriter$LT$W$GT$14write_all_cold17h16c181c3eec8247fE', symObjAddr: 0x25364, symBinAddr: 0x8B368, symSize: 0x128 }
  - { offset: 0xAB0A1, size: 0x8, addend: 0x0, symName: '__ZN111_$LT$std..io..buffered..bufwriter..BufWriter$LT$W$GT$..flush_buf..BufGuard$u20$as$u20$core..ops..drop..Drop$GT$4drop17h9b67080229714f7fE', symObjAddr: 0x2520C, symBinAddr: 0x2A558, symSize: 0x60 }
  - { offset: 0xAB22E, size: 0x8, addend: 0x0, symName: '__ZN3std2io8buffered9bufwriter18BufWriter$LT$W$GT$9flush_buf8BufGuard9remaining17hfb6c357ada982d56E', symObjAddr: 0x251D8, symBinAddr: 0x2A524, symSize: 0x34 }
  - { offset: 0xAB35F, size: 0x8, addend: 0x0, symName: '__ZN83_$LT$std..io..buffered..bufwriter..WriterPanicked$u20$as$u20$core..fmt..Display$GT$3fmt17h5b53c24fc1e32b18E', symObjAddr: 0x2548C, symBinAddr: 0x2A5B8, symSize: 0x54 }
  - { offset: 0xAB3AF, size: 0x8, addend: 0x0, symName: '__ZN81_$LT$std..io..buffered..bufwriter..WriterPanicked$u20$as$u20$core..fmt..Debug$GT$3fmt17ha15e24a13e282e12E', symObjAddr: 0x254E0, symBinAddr: 0x2A60C, symSize: 0xA4 }
  - { offset: 0xAB526, size: 0x8, addend: 0x0, symName: __ZN3std2io8buffered9bufreader6buffer6Buffer9backshift17h698cab576fffd0d7E, symObjAddr: 0x24AD4, symBinAddr: 0x29E20, symSize: 0x50 }
  - { offset: 0xAB78E, size: 0x8, addend: 0x0, symName: '__ZN82_$LT$std..io..buffered..bufreader..BufReader$LT$R$GT$$u20$as$u20$std..io..Read$GT$4read17hd73eb556849a7b1aE', symObjAddr: 0x24B24, symBinAddr: 0x29E70, symSize: 0x1AC }
  - { offset: 0xABB41, size: 0x8, addend: 0x0, symName: '__ZN82_$LT$std..io..buffered..bufreader..BufReader$LT$R$GT$$u20$as$u20$std..io..Read$GT$8read_buf17h16320945734cd087E', symObjAddr: 0x24CD0, symBinAddr: 0x2A01C, symSize: 0x1B0 }
  - { offset: 0xAC12D, size: 0x8, addend: 0x0, symName: '__ZN82_$LT$std..io..buffered..bufreader..BufReader$LT$R$GT$$u20$as$u20$std..io..Read$GT$11read_to_end17h02f98a9221e1d42fE', symObjAddr: 0x24E80, symBinAddr: 0x2A1CC, symSize: 0x160 }
  - { offset: 0xAC51E, size: 0x8, addend: 0x0, symName: '__ZN93_$LT$std..io..buffered..linewritershim..LineWriterShim$LT$W$GT$$u20$as$u20$std..io..Write$GT$14write_vectored17hb1d6645f4cfdc7f9E', symObjAddr: 0x25584, symBinAddr: 0x2A6B0, symSize: 0x3F8 }
  - { offset: 0xACFB0, size: 0x8, addend: 0x0, symName: '__ZN79_$LT$alloc..vec..Vec$LT$u8$GT$$u20$as$u20$std..io..copy..BufferedWriterSpec$GT$11buffer_size17h69e79a049f16b8d5E', symObjAddr: 0x2597C, symBinAddr: 0x2AAA8, symSize: 0x28 }
  - { offset: 0xAD061, size: 0x8, addend: 0x0, symName: __ZN3std2io4pipe10PipeReader9try_clone17h792b9cffb926b7beE, symObjAddr: 0x26650, symBinAddr: 0x2B77C, symSize: 0x68 }
  - { offset: 0xAD15D, size: 0x8, addend: 0x0, symName: '__ZN63_$LT$$RF$std..io..pipe..PipeReader$u20$as$u20$std..io..Read$GT$4read17hd16c9ce16746dc05E', symObjAddr: 0x266B8, symBinAddr: 0x2B7E4, symSize: 0x5C }
  - { offset: 0xAD26C, size: 0x8, addend: 0x0, symName: '__ZN63_$LT$$RF$std..io..pipe..PipeReader$u20$as$u20$std..io..Read$GT$13read_vectored17hb64ed9ec7781accaE', symObjAddr: 0x26714, symBinAddr: 0x2B840, symSize: 0x5C }
  - { offset: 0xAD37B, size: 0x8, addend: 0x0, symName: '__ZN63_$LT$$RF$std..io..pipe..PipeReader$u20$as$u20$std..io..Read$GT$11read_to_end17h0eafb8cd136e0e85E', symObjAddr: 0x26770, symBinAddr: 0x2B89C, symSize: 0x14 }
  - { offset: 0xAD395, size: 0x8, addend: 0x0, symName: '__ZN63_$LT$$RF$std..io..pipe..PipeReader$u20$as$u20$std..io..Read$GT$8read_buf17h773e088e46c4ef52E', symObjAddr: 0x26784, symBinAddr: 0x2B8B0, symSize: 0x7C }
  - { offset: 0xAD564, size: 0x8, addend: 0x0, symName: '__ZN59_$LT$std..io..pipe..PipeReader$u20$as$u20$std..io..Read$GT$11read_to_end17h3ab8149a4a91ddfbE', symObjAddr: 0x26800, symBinAddr: 0x2B92C, symSize: 0x10 }
  - { offset: 0xAD585, size: 0x8, addend: 0x0, symName: '__ZN64_$LT$$RF$std..io..pipe..PipeWriter$u20$as$u20$std..io..Write$GT$5write17h12e04eb9eac0befcE', symObjAddr: 0x26810, symBinAddr: 0x2B93C, symSize: 0x5C }
  - { offset: 0xAD697, size: 0x8, addend: 0x0, symName: '__ZN64_$LT$$RF$std..io..pipe..PipeWriter$u20$as$u20$std..io..Write$GT$14write_vectored17hb182c56d1e365b86E', symObjAddr: 0x2686C, symBinAddr: 0x2B998, symSize: 0x5C }
  - { offset: 0xAD7B2, size: 0x8, addend: 0x0, symName: '__ZN60_$LT$std..io..pipe..PipeWriter$u20$as$u20$std..io..Write$GT$5write17h3ffe3f13546f0e7aE', symObjAddr: 0x268C8, symBinAddr: 0x2B9F4, symSize: 0x58 }
  - { offset: 0xAD8C6, size: 0x8, addend: 0x0, symName: '__ZN60_$LT$std..io..pipe..PipeWriter$u20$as$u20$std..io..Write$GT$14write_vectored17h94242832b1d9ebeaE', symObjAddr: 0x26920, symBinAddr: 0x2BA4C, symSize: 0x58 }
  - { offset: 0xADAF2, size: 0x8, addend: 0x0, symName: '__ZN58_$LT$std..io..util..Repeat$u20$as$u20$core..fmt..Debug$GT$3fmt17h5f5605c4888b06d8E', symObjAddr: 0x2B1FC, symBinAddr: 0x30328, symSize: 0x38 }
  - { offset: 0xADB3F, size: 0x8, addend: 0x0, symName: __ZN3std2io19default_read_to_end16small_probe_read17h8ed8551adeeb77d3E, symObjAddr: 0x2BA04, symBinAddr: 0x30B30, symSize: 0xF0 }
  - { offset: 0xADD6C, size: 0x8, addend: 0x0, symName: __ZN3std2io19default_read_to_end16small_probe_read17hb37bae72d8e35949E, symObjAddr: 0x2BAF4, symBinAddr: 0x30C20, symSize: 0xF0 }
  - { offset: 0xADFC7, size: 0x8, addend: 0x0, symName: __ZN3std2io19default_read_to_end16small_probe_read17hb65e61c04e62f736E, symObjAddr: 0x2BBE4, symBinAddr: 0x30D10, symSize: 0xE8 }
  - { offset: 0xAE1F4, size: 0x8, addend: 0x0, symName: __ZN3std2io19default_read_to_end17h6f7ffd298db8bd81E, symObjAddr: 0x2B234, symBinAddr: 0x30360, symSize: 0x280 }
  - { offset: 0xAE636, size: 0x8, addend: 0x0, symName: __ZN3std2io19default_read_to_end17h760a2f9f43b1d870E, symObjAddr: 0x2B4B4, symBinAddr: 0x305E0, symSize: 0x298 }
  - { offset: 0xAEA97, size: 0x8, addend: 0x0, symName: __ZN3std2io19default_read_to_end17hf33eb6a5e835d5e3E, symObjAddr: 0x2B74C, symBinAddr: 0x30878, symSize: 0x2B8 }
  - { offset: 0xAEEEF, size: 0x8, addend: 0x0, symName: __ZN3std2io10IoSliceMut10into_slice17he27b13959f131ee0E, symObjAddr: 0x2C12C, symBinAddr: 0x31168, symSize: 0x10 }
  - { offset: 0xAEF11, size: 0x8, addend: 0x0, symName: '__ZN53_$LT$std..io..IoSlice$u20$as$u20$core..fmt..Debug$GT$3fmt17had4126c2df6c0dc4E', symObjAddr: 0x2C13C, symBinAddr: 0x31178, symSize: 0x70 }
  - { offset: 0xAEFD5, size: 0x8, addend: 0x0, symName: __ZN3std2io10read_until17h800b810d6ccf9136E, symObjAddr: 0x2C7A8, symBinAddr: 0x317E4, symSize: 0x338 }
  - { offset: 0xAF7D7, size: 0x8, addend: 0x0, symName: '__ZN3std4sync6poison4once4Once15call_once_force28_$u7b$$u7b$closure$u7d$$u7d$17h1f07df85021da79bE', symObjAddr: 0x353B8, symBinAddr: 0x3A278, symSize: 0x80 }
  - { offset: 0xAF925, size: 0x8, addend: 0x0, symName: '__ZN3std4sync6poison4once4Once15call_once_force28_$u7b$$u7b$closure$u7d$$u7d$17hcdabd4acf003ce68E', symObjAddr: 0x35438, symBinAddr: 0x3A2F8, symSize: 0x60 }
  - { offset: 0xAF9E3, size: 0x8, addend: 0x0, symName: '__ZN3std4sync6poison4once4Once15call_once_force28_$u7b$$u7b$closure$u7d$$u7d$17hcfd0a96f06a6a56eE', symObjAddr: 0x35498, symBinAddr: 0x3A358, symSize: 0x7C }
  - { offset: 0xAFB1A, size: 0x8, addend: 0x0, symName: '__ZN3std4sync6poison4once4Once9call_once28_$u7b$$u7b$closure$u7d$$u7d$17h69b52411c89b1449E', symObjAddr: 0x3500C, symBinAddr: 0x39ECC, symSize: 0x224 }
  - { offset: 0xB0265, size: 0x8, addend: 0x0, symName: '__ZN3std4sync6poison4once4Once9call_once28_$u7b$$u7b$closure$u7d$$u7d$17hb1a89b46d49a2cf4E', symObjAddr: 0x35230, symBinAddr: 0x3A0F0, symSize: 0x188 }
  - { offset: 0xB0608, size: 0x8, addend: 0x0, symName: __ZN3std4sync6poison4once4Once4wait17h526215de4d3a3bfaE, symObjAddr: 0x35514, symBinAddr: 0x3A3D4, symSize: 0x30 }
  - { offset: 0xB0667, size: 0x8, addend: 0x0, symName: __ZN3std4sync6poison4once4Once10wait_force17h048810076535d0a6E, symObjAddr: 0x35544, symBinAddr: 0x3A404, symSize: 0x30 }
  - { offset: 0xB06F4, size: 0x8, addend: 0x0, symName: '__ZN66_$LT$std..sync..poison..once..Once$u20$as$u20$core..fmt..Debug$GT$3fmt17hb66b9187b84d1497E', symObjAddr: 0x35574, symBinAddr: 0x3A434, symSize: 0x38 }
  - { offset: 0xB072B, size: 0x8, addend: 0x0, symName: '__ZN71_$LT$std..sync..poison..once..OnceState$u20$as$u20$core..fmt..Debug$GT$3fmt17h3e71f4aec6e1c2d3E', symObjAddr: 0x355AC, symBinAddr: 0x3A46C, symSize: 0x6C }
  - { offset: 0xB09AA, size: 0x8, addend: 0x0, symName: '__ZN3std4sync6poison6rwlock15RwLock$LT$T$GT$5write17ha3bede96c22e1168E', symObjAddr: 0x35618, symBinAddr: 0x3A4D8, symSize: 0x22C }
  - { offset: 0xB10EB, size: 0x8, addend: 0x0, symName: '__ZN3std4sync6poison6rwlock15RwLock$LT$T$GT$5write17hb0c5316cbcc596d7E', symObjAddr: 0x35844, symBinAddr: 0x3A704, symSize: 0x22C }
  - { offset: 0xB188E, size: 0x8, addend: 0x0, symName: __ZN3std4sync6poison7condvar7Condvar10notify_one17h2ca46c2b2fde4ce6E, symObjAddr: 0x34F84, symBinAddr: 0x39E44, symSize: 0x28 }
  - { offset: 0xB192B, size: 0x8, addend: 0x0, symName: __ZN3std4sync6poison7condvar7Condvar10notify_all17h5ceaa113650e9b28E, symObjAddr: 0x34FAC, symBinAddr: 0x39E6C, symSize: 0x28 }
  - { offset: 0xB19F0, size: 0x8, addend: 0x0, symName: '__ZN72_$LT$std..sync..poison..condvar..Condvar$u20$as$u20$core..fmt..Debug$GT$3fmt17h6b07179e2524c8c7E', symObjAddr: 0x34FD4, symBinAddr: 0x39E94, symSize: 0x38 }
  - { offset: 0xB1A2F, size: 0x8, addend: 0x0, symName: '__ZN76_$LT$std..sync..poison..PoisonError$LT$T$GT$$u20$as$u20$core..fmt..Debug$GT$3fmt17h5a6f355a6d8be4abE', symObjAddr: 0x35A70, symBinAddr: 0x3A930, symSize: 0x38 }
  - { offset: 0xB1B4A, size: 0x8, addend: 0x0, symName: '__ZN3std4sync9once_lock17OnceLock$LT$T$GT$10initialize17h389bfab13aa24707E', symObjAddr: 0x35DE4, symBinAddr: 0x8B644, symSize: 0x64 }
  - { offset: 0xB1B77, size: 0x8, addend: 0x0, symName: '__ZN3std4sync9once_lock17OnceLock$LT$T$GT$10initialize17h389bfab13aa24707E', symObjAddr: 0x35DE4, symBinAddr: 0x8B644, symSize: 0x64 }
  - { offset: 0xB1B8C, size: 0x8, addend: 0x0, symName: '__ZN3std4sync9once_lock17OnceLock$LT$T$GT$10initialize17h389bfab13aa24707E', symObjAddr: 0x35DE4, symBinAddr: 0x8B644, symSize: 0x64 }
  - { offset: 0xB1BA1, size: 0x8, addend: 0x0, symName: '__ZN3std4sync9once_lock17OnceLock$LT$T$GT$10initialize17h389bfab13aa24707E', symObjAddr: 0x35DE4, symBinAddr: 0x8B644, symSize: 0x64 }
  - { offset: 0xB1BB7, size: 0x8, addend: 0x0, symName: '__ZN3std4sync9once_lock17OnceLock$LT$T$GT$10initialize17h6b5fff992a2714f3E', symObjAddr: 0x35E48, symBinAddr: 0x8B6A8, symSize: 0x5C }
  - { offset: 0xB1BE4, size: 0x8, addend: 0x0, symName: '__ZN3std4sync9once_lock17OnceLock$LT$T$GT$10initialize17h6b5fff992a2714f3E', symObjAddr: 0x35E48, symBinAddr: 0x8B6A8, symSize: 0x5C }
  - { offset: 0xB1BF9, size: 0x8, addend: 0x0, symName: '__ZN3std4sync9once_lock17OnceLock$LT$T$GT$10initialize17h6b5fff992a2714f3E', symObjAddr: 0x35E48, symBinAddr: 0x8B6A8, symSize: 0x5C }
  - { offset: 0xB1C0E, size: 0x8, addend: 0x0, symName: '__ZN3std4sync9once_lock17OnceLock$LT$T$GT$10initialize17h6b5fff992a2714f3E', symObjAddr: 0x35E48, symBinAddr: 0x8B6A8, symSize: 0x5C }
  - { offset: 0xB1C24, size: 0x8, addend: 0x0, symName: '__ZN3std4sync9once_lock17OnceLock$LT$T$GT$10initialize17hbadba602232e5623E', symObjAddr: 0x35EA4, symBinAddr: 0x8B704, symSize: 0x68 }
  - { offset: 0xB1C51, size: 0x8, addend: 0x0, symName: '__ZN3std4sync9once_lock17OnceLock$LT$T$GT$10initialize17hbadba602232e5623E', symObjAddr: 0x35EA4, symBinAddr: 0x8B704, symSize: 0x68 }
  - { offset: 0xB1C66, size: 0x8, addend: 0x0, symName: '__ZN3std4sync9once_lock17OnceLock$LT$T$GT$10initialize17hbadba602232e5623E', symObjAddr: 0x35EA4, symBinAddr: 0x8B704, symSize: 0x68 }
  - { offset: 0xB1C7B, size: 0x8, addend: 0x0, symName: '__ZN3std4sync9once_lock17OnceLock$LT$T$GT$10initialize17hbadba602232e5623E', symObjAddr: 0x35EA4, symBinAddr: 0x8B704, symSize: 0x68 }
  - { offset: 0xB1E71, size: 0x8, addend: 0x0, symName: __ZN3std4sync9lazy_lock14panic_poisoned17h243f0ef0027201ccE, symObjAddr: 0x35DAC, symBinAddr: 0x8B60C, symSize: 0x38 }
  - { offset: 0xB1EB6, size: 0x8, addend: 0x0, symName: __ZN3std4sync4mpmc7context7Context3new17hc76eddaaa14ff14cE, symObjAddr: 0x34D44, symBinAddr: 0x8B4A8, symSize: 0x164 }
  - { offset: 0xB2248, size: 0x8, addend: 0x0, symName: '__ZN69_$LT$std..sync..mpmc..zero..ZeroToken$u20$as$u20$core..fmt..Debug$GT$3fmt17h5dff676a26e72e25E', symObjAddr: 0x34EA8, symBinAddr: 0x39D68, symSize: 0x48 }
  - { offset: 0xB229D, size: 0x8, addend: 0x0, symName: '__ZN65_$LT$std..sync..mpsc..RecvError$u20$as$u20$core..fmt..Display$GT$3fmt17h55983a696a886754E', symObjAddr: 0x34EF0, symBinAddr: 0x39DB0, symSize: 0x20 }
  - { offset: 0xB22BF, size: 0x8, addend: 0x0, symName: '__ZN68_$LT$std..sync..mpsc..TryRecvError$u20$as$u20$core..fmt..Display$GT$3fmt17hcf9281e4ca93a0f5E', symObjAddr: 0x34F10, symBinAddr: 0x39DD0, symSize: 0x34 }
  - { offset: 0xB22E1, size: 0x8, addend: 0x0, symName: '__ZN72_$LT$std..sync..mpsc..RecvTimeoutError$u20$as$u20$core..fmt..Display$GT$3fmt17hd906f32713d2b66cE', symObjAddr: 0x34F44, symBinAddr: 0x39E04, symSize: 0x40 }
  - { offset: 0xB230A, size: 0x8, addend: 0x0, symName: '__ZN64_$LT$std..sync..barrier..Barrier$u20$as$u20$core..fmt..Debug$GT$3fmt17h8af8fd39046582b3E', symObjAddr: 0x35AA8, symBinAddr: 0x3A968, symSize: 0x38 }
  - { offset: 0xB232B, size: 0x8, addend: 0x0, symName: __ZN3std4sync7barrier7Barrier4wait17h66c5f5a818d9d0c7E, symObjAddr: 0x35AE0, symBinAddr: 0x3A9A0, symSize: 0x260 }
  - { offset: 0xB287B, size: 0x8, addend: 0x0, symName: '__ZN74_$LT$std..sync..barrier..BarrierWaitResult$u20$as$u20$core..fmt..Debug$GT$3fmt17h8c11c23dcd4db2eaE', symObjAddr: 0x35D40, symBinAddr: 0x3AC00, symSize: 0x6C }
  - { offset: 0xB28EB, size: 0x8, addend: 0x0, symName: '__ZN64_$LT$std..backtrace..Backtrace$u20$as$u20$core..fmt..Display$GT$3fmt17ha128a9d5ff34f585E', symObjAddr: 0x20A48, symBinAddr: 0x25D94, symSize: 0x448 }
  - { offset: 0xB32BA, size: 0x8, addend: 0x0, symName: '__ZN62_$LT$std..backtrace..Backtrace$u20$as$u20$core..fmt..Debug$GT$3fmt17hfc2e801bcafbb6bfE', symObjAddr: 0x1FF50, symBinAddr: 0x2529C, symSize: 0x1C0 }
  - { offset: 0xB3518, size: 0x8, addend: 0x0, symName: '__ZN67_$LT$std..backtrace..BacktraceFrame$u20$as$u20$core..fmt..Debug$GT$3fmt17h103af3c3b9b994a9E', symObjAddr: 0x20110, symBinAddr: 0x2545C, symSize: 0x80 }
  - { offset: 0xB3595, size: 0x8, addend: 0x0, symName: '__ZN68_$LT$std..backtrace..BacktraceSymbol$u20$as$u20$core..fmt..Debug$GT$3fmt17h5aa5ebe483a23752E', symObjAddr: 0x20190, symBinAddr: 0x254DC, symSize: 0x21C }
  - { offset: 0xB37AE, size: 0x8, addend: 0x0, symName: '__ZN64_$LT$std..backtrace..BytesOrWide$u20$as$u20$core..fmt..Debug$GT$3fmt17h44d533a0cdbd87f5E', symObjAddr: 0x203AC, symBinAddr: 0x256F8, symSize: 0x120 }
  - { offset: 0xB3AB6, size: 0x8, addend: 0x0, symName: __ZN3std9backtrace9Backtrace7capture17h381124cabb5a2209E, symObjAddr: 0x204CC, symBinAddr: 0x25818, symSize: 0x238 }
  - { offset: 0xB4017, size: 0x8, addend: 0x0, symName: __ZN3std9backtrace9Backtrace13force_capture17h043dac9f67a71290E, symObjAddr: 0x20704, symBinAddr: 0x25A50, symSize: 0x1C }
  - { offset: 0xB4032, size: 0x8, addend: 0x0, symName: __ZN3std9backtrace9Backtrace6create17h56315790a52aa58cE, symObjAddr: 0x20720, symBinAddr: 0x25A6C, symSize: 0x150 }
  - { offset: 0xB43E7, size: 0x8, addend: 0x0, symName: __ZN3std9backtrace9Backtrace6frames17ha8b89715beb5c730E, symObjAddr: 0x209BC, symBinAddr: 0x25D08, symSize: 0x8C }
  - { offset: 0xB44D7, size: 0x8, addend: 0x0, symName: '__ZN3std9backtrace9Backtrace6create28_$u7b$$u7b$closure$u7d$$u7d$17h4fa053dddb0b5219E', symObjAddr: 0x20870, symBinAddr: 0x25BBC, symSize: 0x14C }
  - { offset: 0xB46DA, size: 0x8, addend: 0x0, symName: '__ZN3std9backtrace6helper12lazy_resolve28_$u7b$$u7b$closure$u7d$$u7d$28_$u7b$$u7b$closure$u7d$$u7d$17h9c41a6c2b8dbd9f9E', symObjAddr: 0x3C3B4, symBinAddr: 0x406B0, symSize: 0x218 }
  - { offset: 0xB4B72, size: 0x8, addend: 0x0, symName: '__ZN89_$LT$std..backtrace_rs..symbolize..gimli..mmap..Mmap$u20$as$u20$core..ops..drop..Drop$GT$4drop17ha9a8645785f29238E', symObjAddr: 0x4B628, symBinAddr: 0x4EF9C, symSize: 0x18 }
  - { offset: 0xB4BA1, size: 0x8, addend: 0x0, symName: '__ZN91_$LT$std..backtrace_rs..symbolize..gimli..mmap..Mmap$u20$as$u20$core..ops..deref..Deref$GT$5deref17h0c99d0bb081a7a82E', symObjAddr: 0x4B610, symBinAddr: 0x4EF84, symSize: 0x18 }
  - { offset: 0xB4C83, size: 0x8, addend: 0x0, symName: __ZN3std12backtrace_rs9symbolize5gimli7Context3new17h67298e0a90790f50E, symObjAddr: 0x46A20, symBinAddr: 0x4A394, symSize: 0x1F70 }
  - { offset: 0xB8A2F, size: 0x8, addend: 0x0, symName: __ZN3std12backtrace_rs9symbolize5gimli7Context11find_frames17hbc847ae191cff8a0E, symObjAddr: 0x48990, symBinAddr: 0x4C304, symSize: 0x388 }
  - { offset: 0xB8E99, size: 0x8, addend: 0x0, symName: __ZN3std12backtrace_rs9symbolize5gimli5macho6Object5parse17h7e27a806279371bbE, symObjAddr: 0x4B820, symBinAddr: 0x4F194, symSize: 0xB28 }
  - { offset: 0xBAC66, size: 0x8, addend: 0x0, symName: __ZN3std12backtrace_rs9symbolize5gimli5macho6Object7section17h56ef4446d1e8de36E, symObjAddr: 0x4C348, symBinAddr: 0x4FCBC, symSize: 0x148 }
  - { offset: 0xBB0F0, size: 0x8, addend: 0x0, symName: __ZN3std12backtrace_rs9symbolize5gimli5macho11find_header17hfd0c292054421cbaE, symObjAddr: 0x4B640, symBinAddr: 0x4EFB4, symSize: 0x1E0 }
  - { offset: 0xBB928, size: 0x8, addend: 0x0, symName: __ZN3std12backtrace_rs9symbolize5gimli4mmap17hd9663c5a7fc76c9eE, symObjAddr: 0x48D18, symBinAddr: 0x4C68C, symSize: 0x174 }
  - { offset: 0xBBFEA, size: 0x8, addend: 0x0, symName: __ZN3std12backtrace_rs9symbolize5gimli7resolve17h80188dc0ca67ebdeE, symObjAddr: 0x48E8C, symBinAddr: 0x4C800, symSize: 0x2784 }
  - { offset: 0xC2085, size: 0x8, addend: 0x0, symName: __ZN3std12backtrace_rs9symbolize6Symbol4name17h3695fff7458c895dE, symObjAddr: 0x3BAB0, symBinAddr: 0x3FDAC, symSize: 0xE4 }
  - { offset: 0xC21AA, size: 0x8, addend: 0x0, symName: __ZN3std12backtrace_rs9symbolize6Symbol12filename_raw17h5c4664f3337699fcE, symObjAddr: 0x3BB94, symBinAddr: 0x3FE90, symSize: 0x44 }
  - { offset: 0xC2227, size: 0x8, addend: 0x0, symName: '__ZN73_$LT$std..backtrace_rs..symbolize..Symbol$u20$as$u20$core..fmt..Debug$GT$3fmt17h7b7c8ceb8d6e30faE', symObjAddr: 0x3BBD8, symBinAddr: 0x3FED4, symSize: 0x100 }
  - { offset: 0xC22A0, size: 0x8, addend: 0x0, symName: '__ZN79_$LT$std..backtrace_rs..symbolize..SymbolName$u20$as$u20$core..fmt..Display$GT$3fmt17h6e0d403b1ffee71fE', symObjAddr: 0x3BCD8, symBinAddr: 0x3FFD4, symSize: 0x100 }
  - { offset: 0xC238B, size: 0x8, addend: 0x0, symName: '__ZN77_$LT$std..backtrace_rs..symbolize..SymbolName$u20$as$u20$core..fmt..Debug$GT$3fmt17h8d51a866883f454eE', symObjAddr: 0x3BDD8, symBinAddr: 0x400D4, symSize: 0x100 }
  - { offset: 0xC24B1, size: 0x8, addend: 0x0, symName: '__ZN87_$LT$std..backtrace_rs..backtrace..libunwind..Bomb$u20$as$u20$core..ops..drop..Drop$GT$4drop17h382b2237c4049416E', symObjAddr: 0x46994, symBinAddr: 0x4A308, symSize: 0x44 }
  - { offset: 0xC252A, size: 0x8, addend: 0x0, symName: '__ZN85_$LT$std..backtrace_rs..backtrace..libunwind..Frame$u20$as$u20$core..clone..Clone$GT$5clone17h402621e16323a808E', symObjAddr: 0x46928, symBinAddr: 0x4A29C, symSize: 0x6C }
  - { offset: 0xC2590, size: 0x8, addend: 0x0, symName: __ZN3std12backtrace_rs9backtrace9libunwind5trace8trace_fn17hcedc843c83840f33E, symObjAddr: 0x469D8, symBinAddr: 0x4A34C, symSize: 0x48 }
  - { offset: 0xC2617, size: 0x8, addend: 0x0, symName: '__ZN72_$LT$std..backtrace_rs..backtrace..Frame$u20$as$u20$core..fmt..Debug$GT$3fmt17haf88e4de203fa5b2E', symObjAddr: 0x3B9D0, symBinAddr: 0x3FCCC, symSize: 0xE0 }
  - { offset: 0xC271D, size: 0x8, addend: 0x0, symName: __ZN3std12backtrace_rs5print17BacktraceFrameFmt21print_raw_with_column17he469d814f07ce9b6E, symObjAddr: 0x3BED8, symBinAddr: 0x401D4, symSize: 0x304 }
  - { offset: 0xC284C, size: 0x8, addend: 0x0, symName: __ZN3std12backtrace_rs5print17BacktraceFrameFmt14print_fileline17h68ddcaa6a5368922E, symObjAddr: 0x3C1DC, symBinAddr: 0x404D8, symSize: 0x198 }
  - { offset: 0xC2A37, size: 0x8, addend: 0x0, symName: __ZN3std6thread7current11set_current17ha44ce6364e8e6f30E, symObjAddr: 0x1EA08, symBinAddr: 0x23F90, symSize: 0xC0 }
  - { offset: 0xC2BF5, size: 0x8, addend: 0x0, symName: __ZN3std6thread7current18current_or_unnamed17h7eb8ec352b01b84bE, symObjAddr: 0x1EAC8, symBinAddr: 0x24050, symSize: 0xCC }
  - { offset: 0xC2E5B, size: 0x8, addend: 0x0, symName: __ZN3std6thread7current7current17h97d07e492aa10218E, symObjAddr: 0x1EB94, symBinAddr: 0x2411C, symSize: 0x48 }
  - { offset: 0xC2F65, size: 0x8, addend: 0x0, symName: __ZN3std6thread7current12init_current17hba004e1c651bc016E, symObjAddr: 0x1EBDC, symBinAddr: 0x8B034, symSize: 0x17C }
  - { offset: 0xC332E, size: 0x8, addend: 0x0, symName: __ZN3std6thread6Thread3new17h3c4da60064a186c4E, symObjAddr: 0x1FB44, symBinAddr: 0x24E90, symSize: 0x160 }
  - { offset: 0xC3628, size: 0x8, addend: 0x0, symName: __ZN3std6thread6Thread4park17ha41013868f955988E, symObjAddr: 0x1FCA4, symBinAddr: 0x24FF0, symSize: 0x48 }
  - { offset: 0xC371D, size: 0x8, addend: 0x0, symName: __ZN3std6thread6Thread12park_timeout17h7e15d5eab28dd3edE, symObjAddr: 0x1FCEC, symBinAddr: 0x25038, symSize: 0x90 }
  - { offset: 0xC3853, size: 0x8, addend: 0x0, symName: __ZN3std6thread6Thread4name17h50224f9db8c01fb5E, symObjAddr: 0x1FD7C, symBinAddr: 0x250C8, symSize: 0x54 }
  - { offset: 0xC3961, size: 0x8, addend: 0x0, symName: __ZN3std6thread6Thread8from_raw17hae8cddd9ab425b68E, symObjAddr: 0x1FDD0, symBinAddr: 0x2511C, symSize: 0x14 }
  - { offset: 0xC39D1, size: 0x8, addend: 0x0, symName: __ZN3std6thread6Thread5cname17h4c4c5429b7cd20fbE, symObjAddr: 0x1FDE4, symBinAddr: 0x25130, symSize: 0x50 }
  - { offset: 0xC3BAE, size: 0x8, addend: 0x0, symName: __ZN3std6thread8ThreadId3new17h304eaefdc5b7016dE, symObjAddr: 0x1F9B8, symBinAddr: 0x24D3C, symSize: 0x44 }
  - { offset: 0xC3D6F, size: 0x8, addend: 0x0, symName: '__ZN68_$LT$std..thread..local..AccessError$u20$as$u20$core..fmt..Debug$GT$3fmt17h02ef8be209b061e8E', symObjAddr: 0x1F3A4, symBinAddr: 0x247B0, symSize: 0x38 }
  - { offset: 0xC3D90, size: 0x8, addend: 0x0, symName: '__ZN70_$LT$std..thread..local..AccessError$u20$as$u20$core..fmt..Display$GT$3fmt17ha9faccc243b871fcE', symObjAddr: 0x1F3DC, symBinAddr: 0x247E8, symSize: 0x20 }
  - { offset: 0xC3DAB, size: 0x8, addend: 0x0, symName: __ZN3std6thread5local18panic_access_error17h0ef6a9034544a927E, symObjAddr: 0x1F3FC, symBinAddr: 0x8B1B0, symSize: 0x44 }
  - { offset: 0xC3DE9, size: 0x8, addend: 0x0, symName: __ZN3std6thread6scoped9ScopeData29increment_num_running_threads17h215ef4c45893aca6E, symObjAddr: 0x1E89C, symBinAddr: 0x23E64, symSize: 0x20 }
  - { offset: 0xC3E07, size: 0x8, addend: 0x0, symName: __ZN3std6thread6scoped9ScopeData29increment_num_running_threads17h215ef4c45893aca6E, symObjAddr: 0x1E89C, symBinAddr: 0x23E64, symSize: 0x20 }
  - { offset: 0xC3E1C, size: 0x8, addend: 0x0, symName: __ZN3std6thread6scoped9ScopeData29increment_num_running_threads17h215ef4c45893aca6E, symObjAddr: 0x1E89C, symBinAddr: 0x23E64, symSize: 0x20 }
  - { offset: 0xC3E46, size: 0x8, addend: 0x0, symName: __ZN3std6thread6scoped9ScopeData8overflow17h619b2984932969a4E, symObjAddr: 0x1E8BC, symBinAddr: 0x8AFF4, symSize: 0x40 }
  - { offset: 0xC3E76, size: 0x8, addend: 0x0, symName: __ZN3std6thread6scoped9ScopeData29decrement_num_running_threads17h6d6303a77e3e2c93E, symObjAddr: 0x1E8FC, symBinAddr: 0x23E84, symSize: 0x54 }
  - { offset: 0xC3FC0, size: 0x8, addend: 0x0, symName: '__ZN63_$LT$std..thread..scoped..Scope$u20$as$u20$core..fmt..Debug$GT$3fmt17h6376c2f375fb2f21E', symObjAddr: 0x1E950, symBinAddr: 0x23ED8, symSize: 0xB8 }
  - { offset: 0xC409C, size: 0x8, addend: 0x0, symName: '__ZN76_$LT$std..thread..spawnhook..SpawnHooks$u20$as$u20$core..ops..drop..Drop$GT$4drop17h66990fa73d4e6723E', symObjAddr: 0x1ED58, symBinAddr: 0x24164, symSize: 0x104 }
  - { offset: 0xC443D, size: 0x8, addend: 0x0, symName: __ZN3std6thread9spawnhook15run_spawn_hooks17h1040b78e8b54a1a3E, symObjAddr: 0x1EE5C, symBinAddr: 0x24268, symSize: 0x2CC }
  - { offset: 0xC4A85, size: 0x8, addend: 0x0, symName: __ZN3std6thread9spawnhook15ChildSpawnHooks3run17h18d3771d7f996e54E, symObjAddr: 0x1F128, symBinAddr: 0x24534, symSize: 0x27C }
  - { offset: 0xC519C, size: 0x8, addend: 0x0, symName: __ZN3std6thread7Builder4name17ha60481308c1e0b1dE, symObjAddr: 0x1F440, symBinAddr: 0x24808, symSize: 0x84 }
  - { offset: 0xC5268, size: 0x8, addend: 0x0, symName: __ZN3std6thread9yield_now17h41a5d06399346949E, symObjAddr: 0x1F4C4, symBinAddr: 0x2488C, symSize: 0x10 }
  - { offset: 0xC52A8, size: 0x8, addend: 0x0, symName: __ZN3std6thread8sleep_ms17h161d0dda315b0413E, symObjAddr: 0x1F4D4, symBinAddr: 0x2489C, symSize: 0xDC }
  - { offset: 0xC5333, size: 0x8, addend: 0x0, symName: __ZN3std6thread5sleep17hdc69f6e5d4cc5e86E, symObjAddr: 0x1F5B0, symBinAddr: 0x24978, symSize: 0xB8 }
  - { offset: 0xC539A, size: 0x8, addend: 0x0, symName: __ZN3std6thread11sleep_until17h9d0ac6413d07b3a6E, symObjAddr: 0x1F668, symBinAddr: 0x24A30, symSize: 0xEC }
  - { offset: 0xC548E, size: 0x8, addend: 0x0, symName: '__ZN65_$LT$std..thread..PanicGuard$u20$as$u20$core..ops..drop..Drop$GT$4drop17h9305ebc93d849597E', symObjAddr: 0x1F754, symBinAddr: 0x8B1F4, symSize: 0x44 }
  - { offset: 0xC54C1, size: 0x8, addend: 0x0, symName: __ZN3std6thread4park17h3e4b341ca73a3ddbE, symObjAddr: 0x1F798, symBinAddr: 0x24B1C, symSize: 0xC8 }
  - { offset: 0xC5721, size: 0x8, addend: 0x0, symName: __ZN3std6thread15park_timeout_ms17h7f088c624aa3bfd3E, symObjAddr: 0x1F860, symBinAddr: 0x24BE4, symSize: 0x38 }
  - { offset: 0xC5753, size: 0x8, addend: 0x0, symName: __ZN3std6thread12park_timeout17he451824cbf96f38dE, symObjAddr: 0x1F898, symBinAddr: 0x24C1C, symSize: 0x120 }
  - { offset: 0xC5A00, size: 0x8, addend: 0x0, symName: __ZN3std6thread8ThreadId3new9exhausted17h5f15f58e17834241E, symObjAddr: 0x1F9FC, symBinAddr: 0x8B238, symSize: 0x38 }
  - { offset: 0xC5A40, size: 0x8, addend: 0x0, symName: '__ZN118_$LT$std..thread..thread_name_string..ThreadNameString$u20$as$u20$core..convert..From$LT$alloc..string..String$GT$$GT$4from17h31781eeda56424d1E', symObjAddr: 0x1FA34, symBinAddr: 0x24D80, symSize: 0x110 }
  - { offset: 0xC5C61, size: 0x8, addend: 0x0, symName: '__ZN56_$LT$std..thread..Thread$u20$as$u20$core..fmt..Debug$GT$3fmt17he755d01ef131da02E', symObjAddr: 0x1FE34, symBinAddr: 0x25180, symSize: 0xCC }
  - { offset: 0xC5DA5, size: 0x8, addend: 0x0, symName: __ZN3std6thread21available_parallelism17h11e301a638870ff0E, symObjAddr: 0x1FF00, symBinAddr: 0x2524C, symSize: 0x50 }
  - { offset: 0xC5E85, size: 0x8, addend: 0x0, symName: '__ZN58_$LT$std..thread..ThreadId$u20$as$u20$core..fmt..Debug$GT$3fmt17h9b78d7df6db5ed13E', symObjAddr: 0x3C374, symBinAddr: 0x40670, symSize: 0x40 }
  - { offset: 0xC5EA8, size: 0x8, addend: 0x0, symName: __ZN3std2rt15handle_rt_panic17he6e8c819905b160fE, symObjAddr: 0x1E3F0, symBinAddr: 0x8AFB0, symSize: 0x44 }
  - { offset: 0xC5EDA, size: 0x8, addend: 0x0, symName: __ZN3std2rt7cleanup17h72b21e9d734a94fcE, symObjAddr: 0x1E434, symBinAddr: 0x239FC, symSize: 0x64 }
  - { offset: 0xC5EFF, size: 0x8, addend: 0x0, symName: __ZN3std2rt7cleanup17h72b21e9d734a94fcE, symObjAddr: 0x1E434, symBinAddr: 0x239FC, symSize: 0x64 }
  - { offset: 0xC5F14, size: 0x8, addend: 0x0, symName: __ZN3std2rt7cleanup17h72b21e9d734a94fcE, symObjAddr: 0x1E434, symBinAddr: 0x239FC, symSize: 0x64 }
  - { offset: 0xC5F29, size: 0x8, addend: 0x0, symName: __ZN3std2rt7cleanup17h72b21e9d734a94fcE, symObjAddr: 0x1E434, symBinAddr: 0x239FC, symSize: 0x64 }
  - { offset: 0xC5FA2, size: 0x8, addend: 0x0, symName: __ZN3std2rt19lang_start_internal17h21b2dfb78bcbeb14E, symObjAddr: 0x1E498, symBinAddr: 0x23A60, symSize: 0x404 }
  - { offset: 0xC6888, size: 0x8, addend: 0x0, symName: '__ZN64_$LT$std..panic..PanicHookInfo$u20$as$u20$core..fmt..Display$GT$3fmt17ha9946e5f73b531a0E', symObjAddr: 0x30940, symBinAddr: 0x3597C, symSize: 0x164 }
  - { offset: 0xC6AC1, size: 0x8, addend: 0x0, symName: __ZN3std5panic13resume_unwind17h80247f10893931c4E, symObjAddr: 0x30AA4, symBinAddr: 0x8B490, symSize: 0xC }
  - { offset: 0xC6ADC, size: 0x8, addend: 0x0, symName: __ZN3std5panic12always_abort17h8b33cd84fb06a4d6E, symObjAddr: 0x30AB0, symBinAddr: 0x35AE0, symSize: 0x20 }
  - { offset: 0xC6B58, size: 0x8, addend: 0x0, symName: __ZN3std5panic19set_backtrace_style17h037e7da9623561e9E, symObjAddr: 0x30AD0, symBinAddr: 0x35B00, symSize: 0x1C }
  - { offset: 0xC6BB7, size: 0x8, addend: 0x0, symName: __ZN3std5panic19get_backtrace_style17h39c0fa39a61529aaE, symObjAddr: 0x30AEC, symBinAddr: 0x35B1C, symSize: 0x11C }
  - { offset: 0xC6BD6, size: 0x8, addend: 0x0, symName: __ZN3std5panic19get_backtrace_style17h39c0fa39a61529aaE, symObjAddr: 0x30AEC, symBinAddr: 0x35B1C, symSize: 0x11C }
  - { offset: 0xC6BEC, size: 0x8, addend: 0x0, symName: __ZN3std5panic19get_backtrace_style17h39c0fa39a61529aaE, symObjAddr: 0x30AEC, symBinAddr: 0x35B1C, symSize: 0x11C }
  - { offset: 0xC70A3, size: 0x8, addend: 0x0, symName: __ZN3std4time7Instant3now17h25b7f04705ee72b1E, symObjAddr: 0x35F0C, symBinAddr: 0x3AC6C, symSize: 0x14 }
  - { offset: 0xC70CE, size: 0x8, addend: 0x0, symName: __ZN3std4time7Instant14duration_since17h68f8db9a6f55dda4E, symObjAddr: 0x35F20, symBinAddr: 0x3AC80, symSize: 0x4C }
  - { offset: 0xC713D, size: 0x8, addend: 0x0, symName: __ZN3std4time7Instant22checked_duration_since17h017a8849a5add5c5E, symObjAddr: 0x35F6C, symBinAddr: 0x3ACCC, symSize: 0x50 }
  - { offset: 0xC717F, size: 0x8, addend: 0x0, symName: __ZN3std4time7Instant7elapsed17h31815da1f4b73727E, symObjAddr: 0x35FBC, symBinAddr: 0x3AD1C, symSize: 0x6C }
  - { offset: 0xC727A, size: 0x8, addend: 0x0, symName: '__ZN60_$LT$std..time..Instant$u20$as$u20$core..ops..arith..Sub$GT$3sub17hc89f5970dfaa3d9eE', symObjAddr: 0x361D0, symBinAddr: 0x3AF30, symSize: 0x50 }
  - { offset: 0xC7307, size: 0x8, addend: 0x0, symName: '__ZN88_$LT$std..time..Instant$u20$as$u20$core..ops..arith..Add$LT$core..time..Duration$GT$$GT$3add17hc43634ae1651da32E', symObjAddr: 0x36028, symBinAddr: 0x3AD88, symSize: 0x64 }
  - { offset: 0xC731F, size: 0x8, addend: 0x0, symName: '__ZN88_$LT$std..time..Instant$u20$as$u20$core..ops..arith..Add$LT$core..time..Duration$GT$$GT$3add17hc43634ae1651da32E', symObjAddr: 0x36028, symBinAddr: 0x3AD88, symSize: 0x64 }
  - { offset: 0xC7335, size: 0x8, addend: 0x0, symName: '__ZN88_$LT$std..time..Instant$u20$as$u20$core..ops..arith..Add$LT$core..time..Duration$GT$$GT$3add17hc43634ae1651da32E', symObjAddr: 0x36028, symBinAddr: 0x3AD88, symSize: 0x64 }
  - { offset: 0xC734B, size: 0x8, addend: 0x0, symName: '__ZN88_$LT$std..time..Instant$u20$as$u20$core..ops..arith..Add$LT$core..time..Duration$GT$$GT$3add17hc43634ae1651da32E', symObjAddr: 0x36028, symBinAddr: 0x3AD88, symSize: 0x64 }
  - { offset: 0xC7361, size: 0x8, addend: 0x0, symName: '__ZN88_$LT$std..time..Instant$u20$as$u20$core..ops..arith..Add$LT$core..time..Duration$GT$$GT$3add17hc43634ae1651da32E', symObjAddr: 0x36028, symBinAddr: 0x3AD88, symSize: 0x64 }
  - { offset: 0xC7376, size: 0x8, addend: 0x0, symName: '__ZN88_$LT$std..time..Instant$u20$as$u20$core..ops..arith..Add$LT$core..time..Duration$GT$$GT$3add17hc43634ae1651da32E', symObjAddr: 0x36028, symBinAddr: 0x3AD88, symSize: 0x64 }
  - { offset: 0xC738C, size: 0x8, addend: 0x0, symName: '__ZN88_$LT$std..time..Instant$u20$as$u20$core..ops..arith..Add$LT$core..time..Duration$GT$$GT$3add17hc43634ae1651da32E', symObjAddr: 0x36028, symBinAddr: 0x3AD88, symSize: 0x64 }
  - { offset: 0xC7427, size: 0x8, addend: 0x0, symName: '__ZN94_$LT$std..time..Instant$u20$as$u20$core..ops..arith..AddAssign$LT$core..time..Duration$GT$$GT$10add_assign17h1f5576f0995659e1E', symObjAddr: 0x3608C, symBinAddr: 0x3ADEC, symSize: 0x74 }
  - { offset: 0xC7537, size: 0x8, addend: 0x0, symName: '__ZN88_$LT$std..time..Instant$u20$as$u20$core..ops..arith..Sub$LT$core..time..Duration$GT$$GT$3sub17hede1062a6d07564bE', symObjAddr: 0x36100, symBinAddr: 0x3AE60, symSize: 0x5C }
  - { offset: 0xC7579, size: 0x8, addend: 0x0, symName: '__ZN88_$LT$std..time..Instant$u20$as$u20$core..ops..arith..Sub$LT$core..time..Duration$GT$$GT$3sub17hede1062a6d07564bE', symObjAddr: 0x36100, symBinAddr: 0x3AE60, symSize: 0x5C }
  - { offset: 0xC758E, size: 0x8, addend: 0x0, symName: '__ZN88_$LT$std..time..Instant$u20$as$u20$core..ops..arith..Sub$LT$core..time..Duration$GT$$GT$3sub17hede1062a6d07564bE', symObjAddr: 0x36100, symBinAddr: 0x3AE60, symSize: 0x5C }
  - { offset: 0xC75A4, size: 0x8, addend: 0x0, symName: '__ZN88_$LT$std..time..Instant$u20$as$u20$core..ops..arith..Sub$LT$core..time..Duration$GT$$GT$3sub17hede1062a6d07564bE', symObjAddr: 0x36100, symBinAddr: 0x3AE60, symSize: 0x5C }
  - { offset: 0xC763F, size: 0x8, addend: 0x0, symName: '__ZN94_$LT$std..time..Instant$u20$as$u20$core..ops..arith..SubAssign$LT$core..time..Duration$GT$$GT$10sub_assign17hd930a47bd919fed4E', symObjAddr: 0x3615C, symBinAddr: 0x3AEBC, symSize: 0x74 }
  - { offset: 0xC774F, size: 0x8, addend: 0x0, symName: '__ZN55_$LT$std..time..Instant$u20$as$u20$core..fmt..Debug$GT$3fmt17hef50a7be9b0dfcebE', symObjAddr: 0x36220, symBinAddr: 0x3AF80, symSize: 0x80 }
  - { offset: 0xC7788, size: 0x8, addend: 0x0, symName: __ZN3std4time10SystemTime3now17h265f3bb07ff2a6b0E, symObjAddr: 0x362A0, symBinAddr: 0x3B000, symSize: 0x14 }
  - { offset: 0xC77B3, size: 0x8, addend: 0x0, symName: __ZN3std4time10SystemTime14duration_since17h88ce8193ddc391b2E, symObjAddr: 0x362B4, symBinAddr: 0x3B014, symSize: 0x50 }
  - { offset: 0xC7810, size: 0x8, addend: 0x0, symName: __ZN3std4time10SystemTime7elapsed17h3c932a454bae07beE, symObjAddr: 0x36304, symBinAddr: 0x3B064, symSize: 0x68 }
  - { offset: 0xC789C, size: 0x8, addend: 0x0, symName: __ZN3std4time10SystemTime11checked_add17hecb97ac972fc2e22E, symObjAddr: 0x3636C, symBinAddr: 0x3B0CC, symSize: 0x7C }
  - { offset: 0xC7951, size: 0x8, addend: 0x0, symName: __ZN3std4time10SystemTime11checked_sub17h682c2256bbc44a93E, symObjAddr: 0x363E8, symBinAddr: 0x3B148, symSize: 0x6C }
  - { offset: 0xC7A29, size: 0x8, addend: 0x0, symName: '__ZN91_$LT$std..time..SystemTime$u20$as$u20$core..ops..arith..Add$LT$core..time..Duration$GT$$GT$3add17hbce97aa624519048E', symObjAddr: 0x36454, symBinAddr: 0x3B1B4, symSize: 0x64 }
  - { offset: 0xC7A41, size: 0x8, addend: 0x0, symName: '__ZN91_$LT$std..time..SystemTime$u20$as$u20$core..ops..arith..Add$LT$core..time..Duration$GT$$GT$3add17hbce97aa624519048E', symObjAddr: 0x36454, symBinAddr: 0x3B1B4, symSize: 0x64 }
  - { offset: 0xC7A57, size: 0x8, addend: 0x0, symName: '__ZN91_$LT$std..time..SystemTime$u20$as$u20$core..ops..arith..Add$LT$core..time..Duration$GT$$GT$3add17hbce97aa624519048E', symObjAddr: 0x36454, symBinAddr: 0x3B1B4, symSize: 0x64 }
  - { offset: 0xC7A6D, size: 0x8, addend: 0x0, symName: '__ZN91_$LT$std..time..SystemTime$u20$as$u20$core..ops..arith..Add$LT$core..time..Duration$GT$$GT$3add17hbce97aa624519048E', symObjAddr: 0x36454, symBinAddr: 0x3B1B4, symSize: 0x64 }
  - { offset: 0xC7A82, size: 0x8, addend: 0x0, symName: '__ZN91_$LT$std..time..SystemTime$u20$as$u20$core..ops..arith..Add$LT$core..time..Duration$GT$$GT$3add17hbce97aa624519048E', symObjAddr: 0x36454, symBinAddr: 0x3B1B4, symSize: 0x64 }
  - { offset: 0xC7A97, size: 0x8, addend: 0x0, symName: '__ZN91_$LT$std..time..SystemTime$u20$as$u20$core..ops..arith..Add$LT$core..time..Duration$GT$$GT$3add17hbce97aa624519048E', symObjAddr: 0x36454, symBinAddr: 0x3B1B4, symSize: 0x64 }
  - { offset: 0xC7AAD, size: 0x8, addend: 0x0, symName: '__ZN91_$LT$std..time..SystemTime$u20$as$u20$core..ops..arith..Add$LT$core..time..Duration$GT$$GT$3add17hbce97aa624519048E', symObjAddr: 0x36454, symBinAddr: 0x3B1B4, symSize: 0x64 }
  - { offset: 0xC7B48, size: 0x8, addend: 0x0, symName: '__ZN97_$LT$std..time..SystemTime$u20$as$u20$core..ops..arith..AddAssign$LT$core..time..Duration$GT$$GT$10add_assign17h743b0ff2d4b979eeE', symObjAddr: 0x364B8, symBinAddr: 0x3B218, symSize: 0x74 }
  - { offset: 0xC7C57, size: 0x8, addend: 0x0, symName: '__ZN91_$LT$std..time..SystemTime$u20$as$u20$core..ops..arith..Sub$LT$core..time..Duration$GT$$GT$3sub17h5724bf3cd366ec88E', symObjAddr: 0x3652C, symBinAddr: 0x3B28C, symSize: 0x5C }
  - { offset: 0xC7C98, size: 0x8, addend: 0x0, symName: '__ZN91_$LT$std..time..SystemTime$u20$as$u20$core..ops..arith..Sub$LT$core..time..Duration$GT$$GT$3sub17h5724bf3cd366ec88E', symObjAddr: 0x3652C, symBinAddr: 0x3B28C, symSize: 0x5C }
  - { offset: 0xC7CAD, size: 0x8, addend: 0x0, symName: '__ZN91_$LT$std..time..SystemTime$u20$as$u20$core..ops..arith..Sub$LT$core..time..Duration$GT$$GT$3sub17h5724bf3cd366ec88E', symObjAddr: 0x3652C, symBinAddr: 0x3B28C, symSize: 0x5C }
  - { offset: 0xC7CC3, size: 0x8, addend: 0x0, symName: '__ZN91_$LT$std..time..SystemTime$u20$as$u20$core..ops..arith..Sub$LT$core..time..Duration$GT$$GT$3sub17h5724bf3cd366ec88E', symObjAddr: 0x3652C, symBinAddr: 0x3B28C, symSize: 0x5C }
  - { offset: 0xC7D5E, size: 0x8, addend: 0x0, symName: '__ZN97_$LT$std..time..SystemTime$u20$as$u20$core..ops..arith..SubAssign$LT$core..time..Duration$GT$$GT$10sub_assign17h21d9c9aaaef66510E', symObjAddr: 0x36588, symBinAddr: 0x3B2E8, symSize: 0x74 }
  - { offset: 0xC7E6D, size: 0x8, addend: 0x0, symName: '__ZN58_$LT$std..time..SystemTime$u20$as$u20$core..fmt..Debug$GT$3fmt17h29414eb65d759fd5E', symObjAddr: 0x365FC, symBinAddr: 0x3B35C, symSize: 0x80 }
  - { offset: 0xC7EA6, size: 0x8, addend: 0x0, symName: '__ZN65_$LT$std..time..SystemTimeError$u20$as$u20$core..fmt..Display$GT$3fmt17h08231f1578deec62E', symObjAddr: 0x3667C, symBinAddr: 0x3B3DC, symSize: 0x24 }
  - { offset: 0xC7F08, size: 0x8, addend: 0x0, symName: __ZN3std3env11current_dir17h92f81aae3327502aE, symObjAddr: 0x20E90, symBinAddr: 0x261DC, symSize: 0x1A8 }
  - { offset: 0xC8305, size: 0x8, addend: 0x0, symName: __ZN3std3env4vars17h30cdb86865abf01fE, symObjAddr: 0x21038, symBinAddr: 0x26384, symSize: 0x10 }
  - { offset: 0xC831F, size: 0x8, addend: 0x0, symName: __ZN3std3env7vars_os17h926df78a07b81c76E, symObjAddr: 0x21048, symBinAddr: 0x26394, symSize: 0x31C }
  - { offset: 0xC89F0, size: 0x8, addend: 0x0, symName: '__ZN75_$LT$std..env..VarsOs$u20$as$u20$core..iter..traits..iterator..Iterator$GT$4next17hf57efc6aae4d4d20E', symObjAddr: 0x215D8, symBinAddr: 0x26924, symSize: 0x48 }
  - { offset: 0xC8A77, size: 0x8, addend: 0x0, symName: '__ZN75_$LT$std..env..VarsOs$u20$as$u20$core..iter..traits..iterator..Iterator$GT$9size_hint17hf365a3af95c8c2e6E', symObjAddr: 0x21620, symBinAddr: 0x2696C, symSize: 0x38 }
  - { offset: 0xC8B16, size: 0x8, addend: 0x0, symName: '__ZN73_$LT$std..env..Vars$u20$as$u20$core..iter..traits..iterator..Iterator$GT$4next17hf4d1c132b1d1a603E', symObjAddr: 0x21364, symBinAddr: 0x266B0, symSize: 0x1B8 }
  - { offset: 0xC9052, size: 0x8, addend: 0x0, symName: '__ZN73_$LT$std..env..Vars$u20$as$u20$core..iter..traits..iterator..Iterator$GT$9size_hint17h980e6d0cff603d71E', symObjAddr: 0x2151C, symBinAddr: 0x26868, symSize: 0x38 }
  - { offset: 0xC90F9, size: 0x8, addend: 0x0, symName: '__ZN51_$LT$std..env..Vars$u20$as$u20$core..fmt..Debug$GT$3fmt17ha1ad419bbf66b901E', symObjAddr: 0x21554, symBinAddr: 0x268A0, symSize: 0x84 }
  - { offset: 0xC91B6, size: 0x8, addend: 0x0, symName: '__ZN53_$LT$std..env..VarsOs$u20$as$u20$core..fmt..Debug$GT$3fmt17hf558914f4a7349a7E', symObjAddr: 0x21658, symBinAddr: 0x269A4, symSize: 0x64 }
  - { offset: 0xC91D1, size: 0x8, addend: 0x0, symName: __ZN3std3env4_var17he06a311733dc5ce9E, symObjAddr: 0x216BC, symBinAddr: 0x26A08, symSize: 0x98 }
  - { offset: 0xC92D9, size: 0x8, addend: 0x0, symName: __ZN3std3env7_var_os17h7edfbd8f5a810e59E, symObjAddr: 0x21754, symBinAddr: 0x26AA0, symSize: 0x164 }
  - { offset: 0xC957E, size: 0x8, addend: 0x0, symName: '__ZN57_$LT$std..env..VarError$u20$as$u20$core..fmt..Display$GT$3fmt17h00fdab08846d7dd2E', symObjAddr: 0x218B8, symBinAddr: 0x26C04, symSize: 0x78 }
  - { offset: 0xC95DC, size: 0x8, addend: 0x0, symName: '__ZN79_$LT$std..env..SplitPaths$u20$as$u20$core..iter..traits..iterator..Iterator$GT$4next17h64c39fe1cb51ae83E', symObjAddr: 0x21930, symBinAddr: 0x26C7C, symSize: 0xA8 }
  - { offset: 0xC9741, size: 0x8, addend: 0x0, symName: '__ZN57_$LT$std..env..SplitPaths$u20$as$u20$core..fmt..Debug$GT$3fmt17h107a9b930c418886E', symObjAddr: 0x219D8, symBinAddr: 0x26D24, symSize: 0x38 }
  - { offset: 0xC9763, size: 0x8, addend: 0x0, symName: '__ZN63_$LT$std..env..JoinPathsError$u20$as$u20$core..fmt..Display$GT$3fmt17h82f61542d4bdf00bE', symObjAddr: 0x21A10, symBinAddr: 0x26D5C, symSize: 0x5C }
  - { offset: 0xC97E5, size: 0x8, addend: 0x0, symName: __ZN3std3env8home_dir17hfc8cb6b2c0a7fc94E, symObjAddr: 0x21A6C, symBinAddr: 0x26DB8, symSize: 0x54 }
  - { offset: 0xC985A, size: 0x8, addend: 0x0, symName: __ZN3std3env8temp_dir17hf7db43d471958f60E, symObjAddr: 0x21AC0, symBinAddr: 0x26E0C, symSize: 0x1DC }
  - { offset: 0xC9CC2, size: 0x8, addend: 0x0, symName: __ZN3std3env11current_exe17h5e1a2afe88c2c475E, symObjAddr: 0x21C9C, symBinAddr: 0x26FE8, symSize: 0xDC }
  - { offset: 0xC9EBE, size: 0x8, addend: 0x0, symName: __ZN3std3env4args17hb895017c8b418288E, symObjAddr: 0x21D78, symBinAddr: 0x270C4, symSize: 0x10 }
  - { offset: 0xC9ED9, size: 0x8, addend: 0x0, symName: __ZN3std3env7args_os17h027eef9f8306d583E, symObjAddr: 0x21D88, symBinAddr: 0x270D4, symSize: 0x208 }
  - { offset: 0xCA3E5, size: 0x8, addend: 0x0, symName: '__ZN73_$LT$std..env..Args$u20$as$u20$core..iter..traits..iterator..Iterator$GT$4next17hbe4e83586fc41a4bE', symObjAddr: 0x21F90, symBinAddr: 0x272DC, symSize: 0xE8 }
  - { offset: 0xCA670, size: 0x8, addend: 0x0, symName: '__ZN88_$LT$std..env..Args$u20$as$u20$core..iter..traits..double_ended..DoubleEndedIterator$GT$9next_back17hf8dde86798089bdeE', symObjAddr: 0x22078, symBinAddr: 0x273C4, symSize: 0xE4 }
  - { offset: 0xCA8A7, size: 0x8, addend: 0x0, symName: '__ZN51_$LT$std..env..Args$u20$as$u20$core..fmt..Debug$GT$3fmt17h5e5e4653521dfe07E', symObjAddr: 0x2215C, symBinAddr: 0x274A8, symSize: 0x64 }
  - { offset: 0xCA8C9, size: 0x8, addend: 0x0, symName: '__ZN53_$LT$std..env..ArgsOs$u20$as$u20$core..fmt..Debug$GT$3fmt17hc8fb7afe39e37239E', symObjAddr: 0x221C0, symBinAddr: 0x2750C, symSize: 0x64 }
  - { offset: 0xCA954, size: 0x8, addend: 0x0, symName: __ZN3std2fs11OpenOptions5_open17h7b602558c7bf3526E, symObjAddr: 0x23B08, symBinAddr: 0x28E54, symSize: 0x250 }
  - { offset: 0xCAB40, size: 0x8, addend: 0x0, symName: __ZN3std2fs4File8sync_all17hb8efe5d42062f54dE, symObjAddr: 0x22C40, symBinAddr: 0x27F8C, symSize: 0x58 }
  - { offset: 0xCAC28, size: 0x8, addend: 0x0, symName: __ZN3std2fs4File4lock17h64947a3caa237522E, symObjAddr: 0x22C98, symBinAddr: 0x27FE4, symSize: 0x3C }
  - { offset: 0xCACCC, size: 0x8, addend: 0x0, symName: __ZN3std2fs4File11lock_shared17hb2aa9777be0b34a4E, symObjAddr: 0x22CD4, symBinAddr: 0x28020, symSize: 0x3C }
  - { offset: 0xCAD70, size: 0x8, addend: 0x0, symName: __ZN3std2fs4File8try_lock17h7844bade099f35f9E, symObjAddr: 0x22D10, symBinAddr: 0x2805C, symSize: 0x58 }
  - { offset: 0xCAE2A, size: 0x8, addend: 0x0, symName: __ZN3std2fs4File15try_lock_shared17h793714272b059a7fE, symObjAddr: 0x22D68, symBinAddr: 0x280B4, symSize: 0x58 }
  - { offset: 0xCAEE4, size: 0x8, addend: 0x0, symName: __ZN3std2fs4File6unlock17h351c4a16f395d97bE, symObjAddr: 0x22DC0, symBinAddr: 0x2810C, symSize: 0x3C }
  - { offset: 0xCAF88, size: 0x8, addend: 0x0, symName: __ZN3std2fs4File7set_len17h349e05e360efc481E, symObjAddr: 0x22DFC, symBinAddr: 0x28148, symSize: 0x7C }
  - { offset: 0xCB0B3, size: 0x8, addend: 0x0, symName: __ZN3std2fs4File8metadata17h14f9cf80eabc0a8eE, symObjAddr: 0x22E78, symBinAddr: 0x281C4, symSize: 0xAC }
  - { offset: 0xCB1B9, size: 0x8, addend: 0x0, symName: __ZN3std2fs4File9try_clone17hc71c21e30d317559E, symObjAddr: 0x22F24, symBinAddr: 0x28270, symSize: 0x68 }
  - { offset: 0xCB28F, size: 0x8, addend: 0x0, symName: __ZN3std2fs4File15set_permissions17h618b576b413ee1fdE, symObjAddr: 0x22F8C, symBinAddr: 0x282D8, symSize: 0x64 }
  - { offset: 0xCB359, size: 0x8, addend: 0x0, symName: __ZN3std2fs4File9set_times17h6f3b1ef1f81ee12dE, symObjAddr: 0x22FF0, symBinAddr: 0x2833C, symSize: 0xF0 }
  - { offset: 0xCB4E9, size: 0x8, addend: 0x0, symName: __ZN3std2fs4read5inner17h8a25dcd515c76ac4E, symObjAddr: 0x22720, symBinAddr: 0x27A6C, symSize: 0x198 }
  - { offset: 0xCB917, size: 0x8, addend: 0x0, symName: __ZN3std2fs14read_to_string5inner17h0c242b7f6ecb8aeeE, symObjAddr: 0x228B8, symBinAddr: 0x27C04, symSize: 0x1E8 }
  - { offset: 0xCBEF8, size: 0x8, addend: 0x0, symName: '__ZN52_$LT$$RF$std..fs..File$u20$as$u20$std..io..Write$GT$5write17hef2c983db4278ff8E', symObjAddr: 0x233C0, symBinAddr: 0x2870C, symSize: 0x5C }
  - { offset: 0xCBFEF, size: 0x8, addend: 0x0, symName: '__ZN52_$LT$$RF$std..fs..File$u20$as$u20$std..io..Write$GT$14write_vectored17h35162a1a460a7ad4E', symObjAddr: 0x2341C, symBinAddr: 0x28768, symSize: 0x5C }
  - { offset: 0xCC109, size: 0x8, addend: 0x0, symName: '__ZN48_$LT$std..fs..File$u20$as$u20$std..io..Write$GT$5write17hd5632b9549383bceE', symObjAddr: 0x236A4, symBinAddr: 0x289F0, symSize: 0x58 }
  - { offset: 0xCC217, size: 0x8, addend: 0x0, symName: '__ZN48_$LT$std..fs..File$u20$as$u20$std..io..Write$GT$14write_vectored17hca8d08b95f48ca86E', symObjAddr: 0x236FC, symBinAddr: 0x28A48, symSize: 0x58 }
  - { offset: 0xCC33A, size: 0x8, addend: 0x0, symName: __ZN3std2fs5write5inner17hd771fb18484ed9acE, symObjAddr: 0x22AA0, symBinAddr: 0x27DEC, symSize: 0x130 }
  - { offset: 0xCC671, size: 0x8, addend: 0x0, symName: '__ZN58_$LT$std..fs..TryLockError$u20$as$u20$core..fmt..Debug$GT$3fmt17hccdef4377c74a533E', symObjAddr: 0x22BD0, symBinAddr: 0x27F1C, symSize: 0x34 }
  - { offset: 0xCC6AA, size: 0x8, addend: 0x0, symName: '__ZN60_$LT$std..fs..TryLockError$u20$as$u20$core..fmt..Display$GT$3fmt17h7ea1fde6cd41be51E', symObjAddr: 0x22C04, symBinAddr: 0x27F50, symSize: 0x3C }
  - { offset: 0xCC6CC, size: 0x8, addend: 0x0, symName: '__ZN50_$LT$std..fs..File$u20$as$u20$core..fmt..Debug$GT$3fmt17ha88d02c3eda5a8a8E', symObjAddr: 0x230E0, symBinAddr: 0x2842C, symSize: 0x10 }
  - { offset: 0xCC70A, size: 0x8, addend: 0x0, symName: '__ZN51_$LT$$RF$std..fs..File$u20$as$u20$std..io..Seek$GT$4seek17heb7b2ea92572dca5E', symObjAddr: 0x23478, symBinAddr: 0x287C4, symSize: 0x64 }
  - { offset: 0xCC7BD, size: 0x8, addend: 0x0, symName: '__ZN51_$LT$$RF$std..fs..File$u20$as$u20$std..io..Seek$GT$15stream_position17hdba4d84a98e4212bE', symObjAddr: 0x234DC, symBinAddr: 0x28828, symSize: 0x58 }
  - { offset: 0xCC89C, size: 0x8, addend: 0x0, symName: '__ZN51_$LT$$RF$std..fs..File$u20$as$u20$std..io..Read$GT$11read_to_end17h5343e0550cbc8853E', symObjAddr: 0x230F0, symBinAddr: 0x2843C, symSize: 0x16C }
  - { offset: 0xCCBBE, size: 0x8, addend: 0x0, symName: '__ZN51_$LT$$RF$std..fs..File$u20$as$u20$std..io..Read$GT$14read_to_string17h58e572528294a19eE', symObjAddr: 0x2325C, symBinAddr: 0x285A8, symSize: 0x164 }
  - { offset: 0xCCFF6, size: 0x8, addend: 0x0, symName: '__ZN47_$LT$std..fs..File$u20$as$u20$std..io..Read$GT$4read17h92bad20fa70846f0E', symObjAddr: 0x23534, symBinAddr: 0x28880, symSize: 0x58 }
  - { offset: 0xCD12E, size: 0x8, addend: 0x0, symName: '__ZN47_$LT$std..fs..File$u20$as$u20$std..io..Read$GT$13read_vectored17h4c58d5d94f16a232E', symObjAddr: 0x2358C, symBinAddr: 0x288D8, symSize: 0x58 }
  - { offset: 0xCD266, size: 0x8, addend: 0x0, symName: '__ZN47_$LT$std..fs..File$u20$as$u20$std..io..Read$GT$8read_buf17hc27b6b08cd5b416dE', symObjAddr: 0x235E4, symBinAddr: 0x28930, symSize: 0x78 }
  - { offset: 0xCD457, size: 0x8, addend: 0x0, symName: '__ZN47_$LT$std..fs..File$u20$as$u20$std..io..Read$GT$11read_to_end17h1c76f3c64aac508bE', symObjAddr: 0x2365C, symBinAddr: 0x289A8, symSize: 0x24 }
  - { offset: 0xCD46B, size: 0x8, addend: 0x0, symName: '__ZN47_$LT$std..fs..File$u20$as$u20$std..io..Read$GT$14read_to_string17h7f78648e4877bdbfE', symObjAddr: 0x23680, symBinAddr: 0x289CC, symSize: 0x24 }
  - { offset: 0xCD4CC, size: 0x8, addend: 0x0, symName: '__ZN47_$LT$std..fs..File$u20$as$u20$std..io..Seek$GT$4seek17he2734b13b1f7ee38E', symObjAddr: 0x23754, symBinAddr: 0x28AA0, symSize: 0x60 }
  - { offset: 0xCD59D, size: 0x8, addend: 0x0, symName: '__ZN47_$LT$std..fs..File$u20$as$u20$std..io..Seek$GT$15stream_position17h682d83b20fece423E', symObjAddr: 0x237B4, symBinAddr: 0x28B00, symSize: 0x54 }
  - { offset: 0xCD68C, size: 0x8, addend: 0x0, symName: '__ZN3std2fs81_$LT$impl$u20$std..io..Read$u20$for$u20$alloc..sync..Arc$LT$std..fs..File$GT$$GT$4read17h489e7fb3374f3820E', symObjAddr: 0x23808, symBinAddr: 0x28B54, symSize: 0x5C }
  - { offset: 0xCD80F, size: 0x8, addend: 0x0, symName: '__ZN3std2fs81_$LT$impl$u20$std..io..Read$u20$for$u20$alloc..sync..Arc$LT$std..fs..File$GT$$GT$13read_vectored17h3d43b34bf70ed714E', symObjAddr: 0x23864, symBinAddr: 0x28BB0, symSize: 0x5C }
  - { offset: 0xCD992, size: 0x8, addend: 0x0, symName: '__ZN3std2fs81_$LT$impl$u20$std..io..Read$u20$for$u20$alloc..sync..Arc$LT$std..fs..File$GT$$GT$8read_buf17hd894f867c7fc6992E', symObjAddr: 0x238C0, symBinAddr: 0x28C0C, symSize: 0x7C }
  - { offset: 0xCDBCE, size: 0x8, addend: 0x0, symName: '__ZN3std2fs81_$LT$impl$u20$std..io..Read$u20$for$u20$alloc..sync..Arc$LT$std..fs..File$GT$$GT$11read_to_end17ha3031aec9e82563dE', symObjAddr: 0x2393C, symBinAddr: 0x28C88, symSize: 0x2C }
  - { offset: 0xCDC2E, size: 0x8, addend: 0x0, symName: '__ZN3std2fs81_$LT$impl$u20$std..io..Read$u20$for$u20$alloc..sync..Arc$LT$std..fs..File$GT$$GT$14read_to_string17h319708f340d2d90eE', symObjAddr: 0x23968, symBinAddr: 0x28CB4, symSize: 0x2C }
  - { offset: 0xCDC95, size: 0x8, addend: 0x0, symName: '__ZN3std2fs82_$LT$impl$u20$std..io..Write$u20$for$u20$alloc..sync..Arc$LT$std..fs..File$GT$$GT$5write17h9c302106cd97d0f5E', symObjAddr: 0x23994, symBinAddr: 0x28CE0, symSize: 0x5C }
  - { offset: 0xCDDEE, size: 0x8, addend: 0x0, symName: '__ZN3std2fs82_$LT$impl$u20$std..io..Write$u20$for$u20$alloc..sync..Arc$LT$std..fs..File$GT$$GT$14write_vectored17h3dc1f3b18f28017cE', symObjAddr: 0x239F0, symBinAddr: 0x28D3C, symSize: 0x5C }
  - { offset: 0xCDF4E, size: 0x8, addend: 0x0, symName: '__ZN3std2fs81_$LT$impl$u20$std..io..Seek$u20$for$u20$alloc..sync..Arc$LT$std..fs..File$GT$$GT$4seek17h5e451a4bcff7c40dE', symObjAddr: 0x23A4C, symBinAddr: 0x28D98, symSize: 0x64 }
  - { offset: 0xCE063, size: 0x8, addend: 0x0, symName: '__ZN3std2fs81_$LT$impl$u20$std..io..Seek$u20$for$u20$alloc..sync..Arc$LT$std..fs..File$GT$$GT$15stream_position17h7ec1b40f47066419E', symObjAddr: 0x23AB0, symBinAddr: 0x28DFC, symSize: 0x58 }
  - { offset: 0xCE196, size: 0x8, addend: 0x0, symName: __ZN3std2fs8Metadata8modified17h1eafea4b4e74a7caE, symObjAddr: 0x23D58, symBinAddr: 0x290A4, symSize: 0x70 }
  - { offset: 0xCE1F9, size: 0x8, addend: 0x0, symName: __ZN3std2fs8Metadata8accessed17hcff7101125e23c89E, symObjAddr: 0x23DC8, symBinAddr: 0x29114, symSize: 0x70 }
  - { offset: 0xCE25C, size: 0x8, addend: 0x0, symName: __ZN3std2fs8Metadata7created17h87a15fe814179a03E, symObjAddr: 0x23E38, symBinAddr: 0x29184, symSize: 0x70 }
  - { offset: 0xCE344, size: 0x8, addend: 0x0, symName: '__ZN54_$LT$std..fs..Metadata$u20$as$u20$core..fmt..Debug$GT$3fmt17h209a7cb31269e87eE', symObjAddr: 0x23EA8, symBinAddr: 0x291F4, symSize: 0x1F0 }
  - { offset: 0xCE4E0, size: 0x8, addend: 0x0, symName: '__ZN54_$LT$std..fs..FileType$u20$as$u20$core..fmt..Debug$GT$3fmt17haf71a23a57277a3dE', symObjAddr: 0x24098, symBinAddr: 0x293E4, symSize: 0xC8 }
  - { offset: 0xCE613, size: 0x8, addend: 0x0, symName: '__ZN75_$LT$std..fs..ReadDir$u20$as$u20$core..iter..traits..iterator..Iterator$GT$4next17h1e6d3948d200c5cdE', symObjAddr: 0x24160, symBinAddr: 0x294AC, symSize: 0x18C }
  - { offset: 0xCE8ED, size: 0x8, addend: 0x0, symName: __ZN3std2fs8DirEntry4path17h785e7406c8a190faE, symObjAddr: 0x242EC, symBinAddr: 0x29638, symSize: 0x24 }
  - { offset: 0xCEA9C, size: 0x8, addend: 0x0, symName: __ZN3std2fs8DirEntry8metadata17h018df3f4722228c8E, symObjAddr: 0x24310, symBinAddr: 0x2965C, symSize: 0xA0 }
  - { offset: 0xCEACE, size: 0x8, addend: 0x0, symName: __ZN3std2fs8DirEntry9file_type17h90b2b7f910a0b169E, symObjAddr: 0x243B0, symBinAddr: 0x296FC, symSize: 0x88 }
  - { offset: 0xCEB15, size: 0x8, addend: 0x0, symName: __ZN3std2fs8DirEntry9file_name17he3365677918fd06cE, symObjAddr: 0x24438, symBinAddr: 0x29784, symSize: 0x80 }
  - { offset: 0xCEC96, size: 0x8, addend: 0x0, symName: '__ZN54_$LT$std..fs..DirEntry$u20$as$u20$core..fmt..Debug$GT$3fmt17hb372a3587bc7253dE', symObjAddr: 0x244B8, symBinAddr: 0x29804, symSize: 0xB0 }
  - { offset: 0xCEFCA, size: 0x8, addend: 0x0, symName: __ZN3std2fs10DirBuilder7_create17h908f602941a2ed30E, symObjAddr: 0x24568, symBinAddr: 0x298B4, symSize: 0xC8 }
  - { offset: 0xCF0F0, size: 0x8, addend: 0x0, symName: __ZN3std2fs10DirBuilder14create_dir_all17h88b2b599ddb1a6adE, symObjAddr: 0x24630, symBinAddr: 0x2997C, symSize: 0x46C }
  - { offset: 0xCF91E, size: 0x8, addend: 0x0, symName: '__ZN57_$LT$std..fs..Permissions$u20$as$u20$core..fmt..Debug$GT$3fmt17h85e773e7dedfa218E', symObjAddr: 0x3C5CC, symBinAddr: 0x408C8, symSize: 0x40 }
  - { offset: 0xCF95A, size: 0x8, addend: 0x0, symName: '__ZN67_$LT$std..hash..random..RandomState$u20$as$u20$core..fmt..Debug$GT$3fmt17h4bbc3f6d9d3209fcE', symObjAddr: 0x24A9C, symBinAddr: 0x29DE8, symSize: 0x38 }
  - { offset: 0xCF997, size: 0x8, addend: 0x0, symName: __ZN3std3net11socket_addr19resolve_socket_addr17h601ebad0dfa23c64E, symObjAddr: 0x2CAE0, symBinAddr: 0x31B1C, symSize: 0x35C }
  - { offset: 0xCFF7B, size: 0x8, addend: 0x0, symName: '__ZN78_$LT$$LP$$RF$str$C$u16$RP$$u20$as$u20$std..net..socket_addr..ToSocketAddrs$GT$15to_socket_addrs17h9da6f813e41f47e9E', symObjAddr: 0x2CE3C, symBinAddr: 0x31E78, symSize: 0x1CC }
  - { offset: 0xD0179, size: 0x8, addend: 0x0, symName: '__ZN92_$LT$$LP$alloc..string..String$C$u16$RP$$u20$as$u20$std..net..socket_addr..ToSocketAddrs$GT$15to_socket_addrs17h53be4e7b39fe8062E', symObjAddr: 0x2D008, symBinAddr: 0x32044, symSize: 0x30 }
  - { offset: 0xD023A, size: 0x8, addend: 0x0, symName: '__ZN60_$LT$str$u20$as$u20$std..net..socket_addr..ToSocketAddrs$GT$15to_socket_addrs17hb001331056c499ccE', symObjAddr: 0x2D038, symBinAddr: 0x32074, symSize: 0xCC }
  - { offset: 0xD0325, size: 0x8, addend: 0x0, symName: '__ZN78_$LT$alloc..string..String$u20$as$u20$std..net..socket_addr..ToSocketAddrs$GT$15to_socket_addrs17h3d830b6f0db360b9E', symObjAddr: 0x2D104, symBinAddr: 0x32140, symSize: 0x18 }
  - { offset: 0xD03EF, size: 0x8, addend: 0x0, symName: __ZN3std3net3tcp9TcpStream15connect_timeout17h6011501bb5ba60d6E, symObjAddr: 0x2D11C, symBinAddr: 0x32158, symSize: 0x488 }
  - { offset: 0xD0BF5, size: 0x8, addend: 0x0, symName: __ZN3std3net3tcp9TcpStream9peer_addr17he8ada6cb78a1e04dE, symObjAddr: 0x2D5A4, symBinAddr: 0x325E0, symSize: 0x18 }
  - { offset: 0xD0C0F, size: 0x8, addend: 0x0, symName: __ZN3std3net3tcp9TcpStream12read_timeout17h077b37096e853945E, symObjAddr: 0x2D5BC, symBinAddr: 0x325F8, symSize: 0xE8 }
  - { offset: 0xD0D6A, size: 0x8, addend: 0x0, symName: __ZN3std3net3tcp9TcpStream13write_timeout17hcfb89d5f15a123e6E, symObjAddr: 0x2D6A4, symBinAddr: 0x326E0, symSize: 0xE8 }
  - { offset: 0xD0EC5, size: 0x8, addend: 0x0, symName: __ZN3std3net3tcp9TcpStream10set_linger17h351c11cfbed64bf5E, symObjAddr: 0x2D78C, symBinAddr: 0x327C8, symSize: 0x68 }
  - { offset: 0xD0FC2, size: 0x8, addend: 0x0, symName: __ZN3std3net3tcp9TcpStream6linger17h6562f5c82e6460d7E, symObjAddr: 0x2D7F4, symBinAddr: 0x32830, symSize: 0x88 }
  - { offset: 0xD10DC, size: 0x8, addend: 0x0, symName: __ZN3std3net3tcp9TcpStream11set_nodelay17he508e6acae8d0348E, symObjAddr: 0x2D87C, symBinAddr: 0x328B8, symSize: 0x54 }
  - { offset: 0xD11AD, size: 0x8, addend: 0x0, symName: __ZN3std3net3tcp9TcpStream7nodelay17h57532867e595e0a3E, symObjAddr: 0x2D8D0, symBinAddr: 0x3290C, symSize: 0x80 }
  - { offset: 0xD12CF, size: 0x8, addend: 0x0, symName: '__ZN58_$LT$std..net..tcp..TcpStream$u20$as$u20$std..io..Read$GT$8read_buf17h5bad58aa4e1815f0E', symObjAddr: 0x2D950, symBinAddr: 0x3298C, symSize: 0x70 }
  - { offset: 0xD1473, size: 0x8, addend: 0x0, symName: '__ZN58_$LT$std..net..tcp..TcpStream$u20$as$u20$std..io..Read$GT$13read_vectored17h7842f1f68eb7c17bE', symObjAddr: 0x2D9C0, symBinAddr: 0x329FC, symSize: 0x58 }
  - { offset: 0xD158D, size: 0x8, addend: 0x0, symName: '__ZN59_$LT$std..net..tcp..TcpStream$u20$as$u20$std..io..Write$GT$14write_vectored17hf12b38e90f5e93ddE', symObjAddr: 0x2DA18, symBinAddr: 0x32A54, symSize: 0x58 }
  - { offset: 0xD16A9, size: 0x8, addend: 0x0, symName: '__ZN62_$LT$$RF$std..net..tcp..TcpStream$u20$as$u20$std..io..Read$GT$4read17hf7f208b9747210efE', symObjAddr: 0x2DA70, symBinAddr: 0x32AAC, symSize: 0x48 }
  - { offset: 0xD177B, size: 0x8, addend: 0x0, symName: '__ZN62_$LT$$RF$std..net..tcp..TcpStream$u20$as$u20$std..io..Read$GT$8read_buf17hefbbbd1dbb633f65E', symObjAddr: 0x2DAB8, symBinAddr: 0x32AF4, symSize: 0x74 }
  - { offset: 0xD191F, size: 0x8, addend: 0x0, symName: '__ZN62_$LT$$RF$std..net..tcp..TcpStream$u20$as$u20$std..io..Read$GT$13read_vectored17h49f558eb34f01aa5E', symObjAddr: 0x2DB2C, symBinAddr: 0x32B68, symSize: 0x5C }
  - { offset: 0xD1A39, size: 0x8, addend: 0x0, symName: '__ZN63_$LT$$RF$std..net..tcp..TcpStream$u20$as$u20$std..io..Write$GT$5write17h49dd60fe1180700cE', symObjAddr: 0x2DB88, symBinAddr: 0x32BC4, symSize: 0x54 }
  - { offset: 0xD1AFA, size: 0x8, addend: 0x0, symName: '__ZN61_$LT$std..net..tcp..TcpStream$u20$as$u20$core..fmt..Debug$GT$3fmt17hae04b88dcbe68158E', symObjAddr: 0x2DBDC, symBinAddr: 0x32C18, symSize: 0x10 }
  - { offset: 0xD1B1C, size: 0x8, addend: 0x0, symName: __ZN3std3net3tcp11TcpListener10local_addr17h02415c4db9035a17E, symObjAddr: 0x2DBEC, symBinAddr: 0x32C28, symSize: 0x18 }
  - { offset: 0xD1B37, size: 0x8, addend: 0x0, symName: __ZN3std3net3tcp11TcpListener9try_clone17h6048c86e1e36645fE, symObjAddr: 0x2DC04, symBinAddr: 0x32C40, symSize: 0x68 }
  - { offset: 0xD1C13, size: 0x8, addend: 0x0, symName: __ZN3std3net3tcp11TcpListener6accept17h2fe29262264ea426E, symObjAddr: 0x2DC6C, symBinAddr: 0x32CA8, symSize: 0x18C }
  - { offset: 0xD1EFE, size: 0x8, addend: 0x0, symName: __ZN3std3net3tcp11TcpListener7set_ttl17h8397935e272e9453E, symObjAddr: 0x2DDF8, symBinAddr: 0x32E34, symSize: 0x54 }
  - { offset: 0xD1FB8, size: 0x8, addend: 0x0, symName: __ZN3std3net3tcp11TcpListener3ttl17hbdc12ea1cc488a47E, symObjAddr: 0x2DE4C, symBinAddr: 0x32E88, symSize: 0x78 }
  - { offset: 0xD20BC, size: 0x8, addend: 0x0, symName: __ZN3std3net3tcp11TcpListener11set_only_v617hd75bf15b2f5d2058E, symObjAddr: 0x2DEC4, symBinAddr: 0x32F00, symSize: 0x54 }
  - { offset: 0xD2176, size: 0x8, addend: 0x0, symName: __ZN3std3net3tcp11TcpListener7only_v617hd4785732a61ca38aE, symObjAddr: 0x2DF18, symBinAddr: 0x32F54, symSize: 0x80 }
  - { offset: 0xD2281, size: 0x8, addend: 0x0, symName: '__ZN82_$LT$std..net..tcp..Incoming$u20$as$u20$core..iter..traits..iterator..Iterator$GT$4next17h3ab671cc86a096b8E', symObjAddr: 0x2DF98, symBinAddr: 0x32FD4, symSize: 0x40 }
  - { offset: 0xD22BA, size: 0x8, addend: 0x0, symName: '__ZN86_$LT$std..net..tcp..IntoIncoming$u20$as$u20$core..iter..traits..iterator..Iterator$GT$4next17habf58f58535ef071E', symObjAddr: 0x2DFD8, symBinAddr: 0x33014, symSize: 0x3C }
  - { offset: 0xD22F3, size: 0x8, addend: 0x0, symName: '__ZN63_$LT$std..net..tcp..TcpListener$u20$as$u20$core..fmt..Debug$GT$3fmt17hff31197915036e6dE', symObjAddr: 0x2E014, symBinAddr: 0x33050, symSize: 0x10 }
  - { offset: 0xD231C, size: 0x8, addend: 0x0, symName: __ZN3std3net3udp9UdpSocket9recv_from17h42235bb716e9320dE, symObjAddr: 0x2E024, symBinAddr: 0x33060, symSize: 0x24 }
  - { offset: 0xD2363, size: 0x8, addend: 0x0, symName: __ZN3std3net3udp9UdpSocket9peek_from17h2521840e2af4b8d6E, symObjAddr: 0x2E048, symBinAddr: 0x33084, symSize: 0x24 }
  - { offset: 0xD23AA, size: 0x8, addend: 0x0, symName: __ZN3std3net3udp9UdpSocket9peer_addr17h9d7aa76e3c660adbE, symObjAddr: 0x2E06C, symBinAddr: 0x330A8, symSize: 0x144 }
  - { offset: 0xD2561, size: 0x8, addend: 0x0, symName: __ZN3std3net3udp9UdpSocket13set_broadcast17h686a5d3a0becf3deE, symObjAddr: 0x2E1B0, symBinAddr: 0x331EC, symSize: 0x54 }
  - { offset: 0xD261B, size: 0x8, addend: 0x0, symName: __ZN3std3net3udp9UdpSocket9broadcast17he01b20f222b7e74fE, symObjAddr: 0x2E204, symBinAddr: 0x33240, symSize: 0x80 }
  - { offset: 0xD271F, size: 0x8, addend: 0x0, symName: __ZN3std3net3udp9UdpSocket21set_multicast_loop_v417h11eca2cb41e34a48E, symObjAddr: 0x2E284, symBinAddr: 0x332C0, symSize: 0x54 }
  - { offset: 0xD27D9, size: 0x8, addend: 0x0, symName: __ZN3std3net3udp9UdpSocket17multicast_loop_v417heda4e5cd1ad99063E, symObjAddr: 0x2E2D8, symBinAddr: 0x33314, symSize: 0x80 }
  - { offset: 0xD28DD, size: 0x8, addend: 0x0, symName: __ZN3std3net3udp9UdpSocket20set_multicast_ttl_v417he2a78076564601b7E, symObjAddr: 0x2E358, symBinAddr: 0x33394, symSize: 0x54 }
  - { offset: 0xD2997, size: 0x8, addend: 0x0, symName: __ZN3std3net3udp9UdpSocket16multicast_ttl_v417h7c984d16ff090e59E, symObjAddr: 0x2E3AC, symBinAddr: 0x333E8, symSize: 0x78 }
  - { offset: 0xD2A9B, size: 0x8, addend: 0x0, symName: __ZN3std3net3udp9UdpSocket21set_multicast_loop_v617hc4e9c0301c9c8a23E, symObjAddr: 0x2E424, symBinAddr: 0x33460, symSize: 0x54 }
  - { offset: 0xD2B55, size: 0x8, addend: 0x0, symName: __ZN3std3net3udp9UdpSocket17multicast_loop_v617h6634b6be8f432262E, symObjAddr: 0x2E478, symBinAddr: 0x334B4, symSize: 0x80 }
  - { offset: 0xD2C59, size: 0x8, addend: 0x0, symName: __ZN3std3net3udp9UdpSocket17join_multicast_v417hb732bcf892477450E, symObjAddr: 0x2E4F8, symBinAddr: 0x33534, symSize: 0x60 }
  - { offset: 0xD2D13, size: 0x8, addend: 0x0, symName: __ZN3std3net3udp9UdpSocket17join_multicast_v617hbee8f244e6272c7bE, symObjAddr: 0x2E558, symBinAddr: 0x33594, symSize: 0x5C }
  - { offset: 0xD2DE3, size: 0x8, addend: 0x0, symName: __ZN3std3net3udp9UdpSocket18leave_multicast_v417h7ceb76421f14e131E, symObjAddr: 0x2E5B4, symBinAddr: 0x335F0, symSize: 0x60 }
  - { offset: 0xD2E9D, size: 0x8, addend: 0x0, symName: __ZN3std3net3udp9UdpSocket18leave_multicast_v617h9eb98abcf6cdf069E, symObjAddr: 0x2E614, symBinAddr: 0x33650, symSize: 0x5C }
  - { offset: 0xD2F6D, size: 0x8, addend: 0x0, symName: __ZN3std3net3udp9UdpSocket4send17hfd64b8fb5ca3eea7E, symObjAddr: 0x2E670, symBinAddr: 0x336AC, symSize: 0x50 }
  - { offset: 0xD302E, size: 0x8, addend: 0x0, symName: '__ZN61_$LT$std..net..udp..UdpSocket$u20$as$u20$core..fmt..Debug$GT$3fmt17h0dc388b8a89cba72E', symObjAddr: 0x2E6C0, symBinAddr: 0x336FC, symSize: 0x10 }
  - { offset: 0xD3058, size: 0x8, addend: 0x0, symName: '__ZN79_$LT$std..random..DefaultRandomSource$u20$as$u20$core..random..RandomSource$GT$10fill_bytes17h5d1e58600c353b62E', symObjAddr: 0x34CDC, symBinAddr: 0x39D00, symSize: 0x68 }
  - { offset: 0xD30A9, size: 0x8, addend: 0x0, symName: '__ZN91_$LT$std..sys_common..wstr..WStrUnits$u20$as$u20$core..iter..traits..iterator..Iterator$GT$4next17hbb922540ce2ef2cfE', symObjAddr: 0x396B8, symBinAddr: 0x3DC10, symSize: 0x28 }
  - { offset: 0xD3133, size: 0x8, addend: 0x0, symName: __ZN3std10sys_common4wtf87Wtf8Buf25push_code_point_unchecked17hdeec41772e7fb5aaE, symObjAddr: 0x39728, symBinAddr: 0x3DC80, symSize: 0x134 }
  - { offset: 0xD32DC, size: 0x8, addend: 0x0, symName: '__ZN74_$LT$std..sys_common..wtf8..Wtf8Buf$u20$as$u20$core..ops..deref..Deref$GT$5deref17h3d0d288a280a1ce5E', symObjAddr: 0x396E0, symBinAddr: 0x3DC38, symSize: 0x18 }
  - { offset: 0xD33A0, size: 0x8, addend: 0x0, symName: '__ZN69_$LT$std..sys_common..wtf8..Wtf8Buf$u20$as$u20$core..fmt..Display$GT$3fmt17h1664f51182e7c1dbE', symObjAddr: 0x396F8, symBinAddr: 0x3DC50, symSize: 0x30 }
  - { offset: 0xD33F6, size: 0x8, addend: 0x0, symName: '__ZN64_$LT$std..sys_common..wtf8..Wtf8$u20$as$u20$core..fmt..Debug$GT$3fmt17h07b95046e4958f3eE', symObjAddr: 0x3985C, symBinAddr: 0x3DDB4, symSize: 0x224 }
  - { offset: 0xD36AB, size: 0x8, addend: 0x0, symName: '__ZN64_$LT$std..sys_common..wtf8..Wtf8$u20$as$u20$core..fmt..Debug$GT$3fmt17write_str_escaped17h7f173eaceed803a0E', symObjAddr: 0x39A80, symBinAddr: 0x3DFD8, symSize: 0x3C4 }
  - { offset: 0xD39F0, size: 0x8, addend: 0x0, symName: '__ZN66_$LT$std..sys_common..wtf8..Wtf8$u20$as$u20$core..fmt..Display$GT$3fmt17h64b3ab9b8781e20aE', symObjAddr: 0x39E44, symBinAddr: 0x3E39C, symSize: 0x1E4 }
  - { offset: 0xD3BE5, size: 0x8, addend: 0x0, symName: __ZN3std10sys_common4wtf816slice_error_fail17h9f028ee70ffdd897E, symObjAddr: 0x3A028, symBinAddr: 0x8BF74, symSize: 0x8C }
  - { offset: 0xD3C30, size: 0x8, addend: 0x0, symName: __ZN3std5alloc20set_alloc_error_hook17h0140ab3d0c65bd9bE, symObjAddr: 0x3A0B4, symBinAddr: 0x3E580, symSize: 0x1C }
  - { offset: 0xD3C7B, size: 0x8, addend: 0x0, symName: __ZN3std5alloc21take_alloc_error_hook17hcb024aefbd73323eE, symObjAddr: 0x3A0D0, symBinAddr: 0x3E59C, symSize: 0x2C }
  - { offset: 0xD3CC6, size: 0x8, addend: 0x0, symName: __ZN3std5alloc24default_alloc_error_hook17h13209be66d3f14e6E, symObjAddr: 0x3A0FC, symBinAddr: 0x3E5C8, symSize: 0x140 }
  - { offset: 0xD3F23, size: 0x8, addend: 0x0, symName: __RNvCs691rhTbG0Ee_7___rustc11___rdl_alloc, symObjAddr: 0x3A23C, symBinAddr: 0x3E708, symSize: 0x6C }
  - { offset: 0xD3FA7, size: 0x8, addend: 0x0, symName: __RNvCs691rhTbG0Ee_7___rustc13___rdl_dealloc, symObjAddr: 0x3A2A8, symBinAddr: 0x3E774, symSize: 0x10 }
  - { offset: 0xD3FDB, size: 0x8, addend: 0x0, symName: __RNvCs691rhTbG0Ee_7___rustc13___rdl_realloc, symObjAddr: 0x3A2B8, symBinAddr: 0x3E784, symSize: 0xB0 }
  - { offset: 0xD40BA, size: 0x8, addend: 0x0, symName: __RNvCs691rhTbG0Ee_7___rustc18___rdl_alloc_zeroed, symObjAddr: 0x3A368, symBinAddr: 0x3E834, symSize: 0x90 }
  - { offset: 0xD4162, size: 0x8, addend: 0x0, symName: __ZN3std5alloc8rust_oom17h104b65de42e9d9b6E, symObjAddr: 0x468E4, symBinAddr: 0x8CB14, symSize: 0x2C }
  - { offset: 0xD41B3, size: 0x8, addend: 0x0, symName: __RNvCs691rhTbG0Ee_7___rustc8___rg_oom, symObjAddr: 0x46910, symBinAddr: 0x8CB40, symSize: 0x18 }
  - { offset: 0xD42E5, size: 0x8, addend: 0x0, symName: '__ZN9addr2line8function17Function$LT$R$GT$14parse_children17h8f414b8a0c47d1aeE', symObjAddr: 0x1D318, symBinAddr: 0x22924, symSize: 0xF18 }
  - { offset: 0xD5C6A, size: 0x8, addend: 0x0, symName: __ZN9addr2line8function10name_entry17h2eeba6119d794c74E, symObjAddr: 0x1CFAC, symBinAddr: 0x225B8, symSize: 0x36C }
  - { offset: 0xD6168, size: 0x8, addend: 0x0, symName: __ZN9addr2line8function9name_attr17hcf21663508843ad2E, symObjAddr: 0x1E230, symBinAddr: 0x2383C, symSize: 0x1C0 }
  - { offset: 0xD63A3, size: 0x8, addend: 0x0, symName: '__ZN9addr2line4unit16ResUnit$LT$R$GT$25find_function_or_location17hd62c8d9f6c15d35aE', symObjAddr: 0x1B038, symBinAddr: 0x20644, symSize: 0x3DC }
  - { offset: 0xD6920, size: 0x8, addend: 0x0, symName: '__ZN9addr2line4unit16ResUnit$LT$R$GT$25find_function_or_location28_$u7b$$u7b$closure$u7d$$u7d$17h61f0d85a3e564b08E', symObjAddr: 0x1B414, symBinAddr: 0x20A20, symSize: 0x14D8 }
  - { offset: 0xD945B, size: 0x8, addend: 0x0, symName: '__ZN9addr2line16Context$LT$R$GT$9find_unit17h4c0c1aa5d4b040deE', symObjAddr: 0x18ECC, symBinAddr: 0x1E4D8, symSize: 0x168 }
  - { offset: 0xD9604, size: 0x8, addend: 0x0, symName: __ZN9addr2line4line11render_file17h012fb4cf69655d2eE, symObjAddr: 0x19034, symBinAddr: 0x1E640, symSize: 0x4B8 }
  - { offset: 0xD9F78, size: 0x8, addend: 0x0, symName: __ZN9addr2line4line9LazyLines6borrow17h18c704f323775299E, symObjAddr: 0x194EC, symBinAddr: 0x1EAF8, symSize: 0x1B4C }
  - { offset: 0xDD5B4, size: 0x8, addend: 0x0, symName: '__ZN9addr2line6lookup30LoopingLookup$LT$T$C$L$C$F$GT$10new_lookup17h7583892f1c972206E', symObjAddr: 0x1CB70, symBinAddr: 0x2217C, symSize: 0x43C }
  - { offset: 0xDDB7E, size: 0x8, addend: 0x0, symName: '__ZN9addr2line5frame18FrameIter$LT$R$GT$4next17hf4af3b6af5f9a51aE', symObjAddr: 0x1C8EC, symBinAddr: 0x21EF8, symSize: 0x284 }
  - { offset: 0xDE04A, size: 0x8, addend: 0x0, symName: '__ZN5gimli4read4unit32AttributeValue$LT$R$C$Offset$GT$11udata_value17hf56b8eebef86ef7dE', symObjAddr: 0x14458, symBinAddr: 0x19A64, symSize: 0x90 }
  - { offset: 0xDE0A5, size: 0x8, addend: 0x0, symName: __ZN5gimli4read4unit15parse_attribute17hb171d625bac2ae70E, symObjAddr: 0x1274C, symBinAddr: 0x17D58, symSize: 0xF74 }
  - { offset: 0xE101B, size: 0x8, addend: 0x0, symName: __ZN5gimli4read4unit15skip_attributes17h2de54d0c6e91f5c7E, symObjAddr: 0x136C0, symBinAddr: 0x18CCC, symSize: 0x548 }
  - { offset: 0xE1AC8, size: 0x8, addend: 0x0, symName: '__ZN5gimli4read4unit18Attribute$LT$R$GT$5value17h73a1ad2c35c2f292E', symObjAddr: 0x13C08, symBinAddr: 0x19214, symSize: 0x598 }
  - { offset: 0xE20A6, size: 0x8, addend: 0x0, symName: '__ZN5gimli4read4unit22EntriesCursor$LT$R$GT$10next_entry17hc48baac67ca407fdE', symObjAddr: 0x141A0, symBinAddr: 0x197AC, symSize: 0x2B8 }
  - { offset: 0xE26C2, size: 0x8, addend: 0x0, symName: '__ZN5gimli4read4unit33DebugInfoUnitHeadersIter$LT$R$GT$4next17h120bf7ff7d9f1265E', symObjAddr: 0x144E8, symBinAddr: 0x19AF4, symSize: 0x524 }
  - { offset: 0xE394F, size: 0x8, addend: 0x0, symName: '__ZN90_$LT$gimli..read..unit..AttributeValue$LT$R$C$Offset$GT$$u20$as$u20$core..clone..Clone$GT$5clone17h7da4adcaee757e8fE', symObjAddr: 0x18DAC, symBinAddr: 0x1E3B8, symSize: 0x68 }
  - { offset: 0xE3BA7, size: 0x8, addend: 0x0, symName: __ZN5gimli4read6reader6Reader11read_offset17hc52c21b1024119f3E, symObjAddr: 0x16F58, symBinAddr: 0x1C564, symSize: 0xBC }
  - { offset: 0xE3E05, size: 0x8, addend: 0x0, symName: __ZN5gimli4read6reader6Reader12read_sleb12817h015d3cd82f1b6fc6E, symObjAddr: 0x17014, symBinAddr: 0x1C620, symSize: 0x21C }
  - { offset: 0xE3F01, size: 0x8, addend: 0x0, symName: __ZN5gimli4read6reader6Reader12read_uleb12817h78253551f5a580cbE, symObjAddr: 0x17230, symBinAddr: 0x1C83C, symSize: 0xB0 }
  - { offset: 0xE3FBF, size: 0x8, addend: 0x0, symName: __ZN5gimli4read6reader6Reader17read_sized_offset17hc12880e5da0e25aaE, symObjAddr: 0x172E0, symBinAddr: 0x1C8EC, symSize: 0xEC }
  - { offset: 0xE4402, size: 0x8, addend: 0x0, symName: __ZN5gimli4read4line13parse_file_v517ha7da182619a92322E, symObjAddr: 0x115AC, symBinAddr: 0x16BB8, symSize: 0x2B4 }
  - { offset: 0xE458C, size: 0x8, addend: 0x0, symName: __ZN5gimli4read4line15FileEntryFormat5parse17h0bb5d8a9312ab1a1E, symObjAddr: 0x11860, symBinAddr: 0x16E6C, symSize: 0x378 }
  - { offset: 0xE4E02, size: 0x8, addend: 0x0, symName: __ZN5gimli4read4line15parse_attribute17h3a469d6383597ddcE, symObjAddr: 0x11BD8, symBinAddr: 0x171E4, symSize: 0x874 }
  - { offset: 0xE67D6, size: 0x8, addend: 0x0, symName: __ZN5gimli4read4line18parse_directory_v517h18ef2bdd0495fc90E, symObjAddr: 0x1244C, symBinAddr: 0x17A58, symSize: 0xE8 }
  - { offset: 0xE686D, size: 0x8, addend: 0x0, symName: '__ZN5gimli4read4line27FileEntry$LT$R$C$Offset$GT$5parse17hb923eeb920769f12E', symObjAddr: 0x12534, symBinAddr: 0x17B40, symSize: 0x218 }
  - { offset: 0xE6FD5, size: 0x8, addend: 0x0, symName: '__ZN5gimli4read5dwarf14Dwarf$LT$R$GT$11attr_string17h61fd7e604a78484dE', symObjAddr: 0x16698, symBinAddr: 0x1BCA4, symSize: 0x1F4 }
  - { offset: 0xE78A9, size: 0x8, addend: 0x0, symName: '__ZN5gimli4read5dwarf13Unit$LT$R$GT$3new17h84390d4e78eac29aE', symObjAddr: 0x14A0C, symBinAddr: 0x1A018, symSize: 0x1C8C }
  - { offset: 0xEB473, size: 0x8, addend: 0x0, symName: '__ZN5gimli4read5index18UnitIndex$LT$R$GT$5parse17h60a309f8a7357334E', symObjAddr: 0x1688C, symBinAddr: 0x1BE98, symSize: 0x6CC }
  - { offset: 0xEBA64, size: 0x8, addend: 0x0, symName: '__ZN5gimli4read7aranges30ArangeHeader$LT$R$C$Offset$GT$5parse17h4bdb099502918ee7E', symObjAddr: 0x173CC, symBinAddr: 0x1C9D8, symSize: 0x2B4 }
  - { offset: 0xEC3E2, size: 0x8, addend: 0x0, symName: '__ZN5gimli4read8rnglists20RngListIter$LT$R$GT$4next17h0158a85246b9917dE', symObjAddr: 0x17680, symBinAddr: 0x1CC8C, symSize: 0xC74 }
  - { offset: 0xEF5B9, size: 0x8, addend: 0x0, symName: __ZN6object4read7archive13ArchiveMember5parse17h12395733c577d669E, symObjAddr: 0x187B8, symBinAddr: 0x1DDC4, symSize: 0x304 }
  - { offset: 0xEF5D8, size: 0x8, addend: 0x0, symName: __ZN6object4read7archive13ArchiveMember5parse17h12395733c577d669E, symObjAddr: 0x187B8, symBinAddr: 0x1DDC4, symSize: 0x304 }
  - { offset: 0xEF5EE, size: 0x8, addend: 0x0, symName: __ZN6object4read7archive13ArchiveMember5parse17h12395733c577d669E, symObjAddr: 0x187B8, symBinAddr: 0x1DDC4, symSize: 0x304 }
  - { offset: 0xEFE35, size: 0x8, addend: 0x0, symName: __ZN6object4read7archive23parse_bsd_extended_name17ha98a0908ae5dfd8aE, symObjAddr: 0x18ABC, symBinAddr: 0x1E0C8, symSize: 0x24C }
  - { offset: 0xF0D55, size: 0x8, addend: 0x0, symName: _OUTLINED_FUNCTION_0, symObjAddr: 0x4C490, symBinAddr: 0x4FE04, symSize: 0x8 }
  - { offset: 0xF0D6D, size: 0x8, addend: 0x0, symName: _OUTLINED_FUNCTION_1, symObjAddr: 0x4C498, symBinAddr: 0x4FE0C, symSize: 0xC }
  - { offset: 0xF0D85, size: 0x8, addend: 0x0, symName: _OUTLINED_FUNCTION_2, symObjAddr: 0x4C4A4, symBinAddr: 0x4FE18, symSize: 0xC }
  - { offset: 0xF0D9D, size: 0x8, addend: 0x0, symName: _OUTLINED_FUNCTION_3, symObjAddr: 0x4C4B0, symBinAddr: 0x4FE24, symSize: 0xC }
  - { offset: 0xF0DB5, size: 0x8, addend: 0x0, symName: _OUTLINED_FUNCTION_4, symObjAddr: 0x4C4BC, symBinAddr: 0x4FE30, symSize: 0x8 }
  - { offset: 0xF0DCD, size: 0x8, addend: 0x0, symName: _OUTLINED_FUNCTION_5, symObjAddr: 0x4C4C4, symBinAddr: 0x4FE38, symSize: 0x24 }
  - { offset: 0xF0DE5, size: 0x8, addend: 0x0, symName: _OUTLINED_FUNCTION_6, symObjAddr: 0x4C4E8, symBinAddr: 0x4FE5C, symSize: 0xC }
  - { offset: 0xF0DFD, size: 0x8, addend: 0x0, symName: _OUTLINED_FUNCTION_7, symObjAddr: 0x4C4F4, symBinAddr: 0x4FE68, symSize: 0x8 }
  - { offset: 0xF0E15, size: 0x8, addend: 0x0, symName: _OUTLINED_FUNCTION_8, symObjAddr: 0x4C4FC, symBinAddr: 0x4FE70, symSize: 0x10 }
  - { offset: 0xF0E2D, size: 0x8, addend: 0x0, symName: _OUTLINED_FUNCTION_9, symObjAddr: 0x4C50C, symBinAddr: 0x4FE80, symSize: 0x24 }
  - { offset: 0xF0E45, size: 0x8, addend: 0x0, symName: _OUTLINED_FUNCTION_10, symObjAddr: 0x4C530, symBinAddr: 0x4FEA4, symSize: 0x8 }
  - { offset: 0xF0E5D, size: 0x8, addend: 0x0, symName: _OUTLINED_FUNCTION_11, symObjAddr: 0x4C538, symBinAddr: 0x4FEAC, symSize: 0x20 }
  - { offset: 0xF0E75, size: 0x8, addend: 0x0, symName: _OUTLINED_FUNCTION_12, symObjAddr: 0x4C558, symBinAddr: 0x4FECC, symSize: 0x10 }
  - { offset: 0xF0E8D, size: 0x8, addend: 0x0, symName: _OUTLINED_FUNCTION_13, symObjAddr: 0x4C568, symBinAddr: 0x4FEDC, symSize: 0x10 }
  - { offset: 0xF0EA5, size: 0x8, addend: 0x0, symName: _OUTLINED_FUNCTION_14, symObjAddr: 0x4C578, symBinAddr: 0x4FEEC, symSize: 0x8 }
  - { offset: 0xF0EBD, size: 0x8, addend: 0x0, symName: _OUTLINED_FUNCTION_15, symObjAddr: 0x4C580, symBinAddr: 0x4FEF4, symSize: 0x8 }
  - { offset: 0xF0ED5, size: 0x8, addend: 0x0, symName: _OUTLINED_FUNCTION_16, symObjAddr: 0x4C588, symBinAddr: 0x4FEFC, symSize: 0x8 }
  - { offset: 0xF0EED, size: 0x8, addend: 0x0, symName: _OUTLINED_FUNCTION_17, symObjAddr: 0x4C590, symBinAddr: 0x4FF04, symSize: 0x10 }
  - { offset: 0xF0F05, size: 0x8, addend: 0x0, symName: _OUTLINED_FUNCTION_18, symObjAddr: 0x4C5A0, symBinAddr: 0x4FF14, symSize: 0x10 }
  - { offset: 0xF0F1D, size: 0x8, addend: 0x0, symName: _OUTLINED_FUNCTION_19, symObjAddr: 0x4C5B0, symBinAddr: 0x4FF24, symSize: 0x10 }
  - { offset: 0xF0F35, size: 0x8, addend: 0x0, symName: _OUTLINED_FUNCTION_20, symObjAddr: 0x4C5C0, symBinAddr: 0x4FF34, symSize: 0x10 }
  - { offset: 0xF0F4D, size: 0x8, addend: 0x0, symName: _OUTLINED_FUNCTION_21, symObjAddr: 0x4C5D0, symBinAddr: 0x4FF44, symSize: 0x18 }
  - { offset: 0xF0F65, size: 0x8, addend: 0x0, symName: _OUTLINED_FUNCTION_22, symObjAddr: 0x4C5E8, symBinAddr: 0x4FF5C, symSize: 0xC }
  - { offset: 0xF0F7D, size: 0x8, addend: 0x0, symName: _OUTLINED_FUNCTION_23, symObjAddr: 0x4C5F4, symBinAddr: 0x4FF68, symSize: 0xC }
  - { offset: 0xF0F95, size: 0x8, addend: 0x0, symName: _OUTLINED_FUNCTION_24, symObjAddr: 0x4C600, symBinAddr: 0x4FF74, symSize: 0x8 }
  - { offset: 0xF0FAD, size: 0x8, addend: 0x0, symName: _OUTLINED_FUNCTION_25, symObjAddr: 0x4C608, symBinAddr: 0x4FF7C, symSize: 0x8 }
  - { offset: 0xF0FC5, size: 0x8, addend: 0x0, symName: _OUTLINED_FUNCTION_26, symObjAddr: 0x4C610, symBinAddr: 0x4FF84, symSize: 0x8 }
  - { offset: 0xF0FDD, size: 0x8, addend: 0x0, symName: _OUTLINED_FUNCTION_27, symObjAddr: 0x4C618, symBinAddr: 0x4FF8C, symSize: 0x8 }
  - { offset: 0xF0FF5, size: 0x8, addend: 0x0, symName: _OUTLINED_FUNCTION_28, symObjAddr: 0x4C620, symBinAddr: 0x4FF94, symSize: 0x10 }
  - { offset: 0xF100D, size: 0x8, addend: 0x0, symName: _OUTLINED_FUNCTION_29, symObjAddr: 0x4C630, symBinAddr: 0x4FFA4, symSize: 0x14 }
  - { offset: 0xF1025, size: 0x8, addend: 0x0, symName: _OUTLINED_FUNCTION_30, symObjAddr: 0x4C644, symBinAddr: 0x4FFB8, symSize: 0x14 }
  - { offset: 0xF103D, size: 0x8, addend: 0x0, symName: _OUTLINED_FUNCTION_31, symObjAddr: 0x4C658, symBinAddr: 0x4FFCC, symSize: 0xC }
  - { offset: 0xF1055, size: 0x8, addend: 0x0, symName: _OUTLINED_FUNCTION_32, symObjAddr: 0x4C664, symBinAddr: 0x4FFD8, symSize: 0x14 }
  - { offset: 0xF106D, size: 0x8, addend: 0x0, symName: _OUTLINED_FUNCTION_33, symObjAddr: 0x4C678, symBinAddr: 0x4FFEC, symSize: 0x14 }
  - { offset: 0xF10A3, size: 0x8, addend: 0x0, symName: '__ZN4core3ptr49drop_in_place$LT$panic_unwind..imp..Exception$GT$17h31c63b0db428e8c5E', symObjAddr: 0x0, symBinAddr: 0x50000, symSize: 0x78 }
  - { offset: 0xF10CB, size: 0x8, addend: 0x0, symName: '__ZN4core3ptr49drop_in_place$LT$panic_unwind..imp..Exception$GT$17h31c63b0db428e8c5E', symObjAddr: 0x0, symBinAddr: 0x50000, symSize: 0x78 }
  - { offset: 0xF11DD, size: 0x8, addend: 0x0, symName: '__ZN4core3ptr74drop_in_place$LT$alloc..boxed..Box$LT$panic_unwind..imp..Exception$GT$$GT$17ha428c704cc5a91aeE', symObjAddr: 0x78, symBinAddr: 0x50078, symSize: 0x8C }
  - { offset: 0xF14D5, size: 0x8, addend: 0x0, symName: __ZN12panic_unwind3imp5panic17exception_cleanup17h3aebf608360223d8E, symObjAddr: 0x214, symBinAddr: 0x50214, symSize: 0x18 }
  - { offset: 0xF14F1, size: 0x8, addend: 0x0, symName: __RNvCs691rhTbG0Ee_7___rustc20___rust_panic_cleanup, symObjAddr: 0x104, symBinAddr: 0x50104, symSize: 0x68 }
  - { offset: 0xF159E, size: 0x8, addend: 0x0, symName: __RNvCs691rhTbG0Ee_7___rustc18___rust_start_panic, symObjAddr: 0x16C, symBinAddr: 0x5016C, symSize: 0xA8 }
  - { offset: 0xF1663, size: 0x8, addend: 0x0, symName: '__ZN42_$LT$$RF$T$u20$as$u20$core..fmt..Debug$GT$3fmt17h3321f65b19adb6b9E', symObjAddr: 0x0, symBinAddr: 0x69E50, symSize: 0x1C }
  - { offset: 0xF1683, size: 0x8, addend: 0x0, symName: '__ZN42_$LT$$RF$T$u20$as$u20$core..fmt..Debug$GT$3fmt17h3321f65b19adb6b9E', symObjAddr: 0x0, symBinAddr: 0x69E50, symSize: 0x1C }
  - { offset: 0xF169E, size: 0x8, addend: 0x0, symName: '__ZN42_$LT$$RF$T$u20$as$u20$core..fmt..Debug$GT$3fmt17h3ab2d5880aafe35cE', symObjAddr: 0x1C, symBinAddr: 0x69E6C, symSize: 0x30 }
  - { offset: 0xF16E6, size: 0x8, addend: 0x0, symName: '__ZN42_$LT$$RF$T$u20$as$u20$core..fmt..Debug$GT$3fmt17hd007dda1407c1dcfE', symObjAddr: 0x4C, symBinAddr: 0x69E9C, symSize: 0x68 }
  - { offset: 0xF1770, size: 0x8, addend: 0x0, symName: __ZN4core3fmt5Write9write_fmt17h9553ed92d2124fcaE, symObjAddr: 0xB4, symBinAddr: 0x69F04, symSize: 0x1C }
  - { offset: 0xF17B4, size: 0x8, addend: 0x0, symName: '__ZN53_$LT$core..fmt..Error$u20$as$u20$core..fmt..Debug$GT$3fmt17h81c3393b1a863c75E', symObjAddr: 0x414, symBinAddr: 0x6A234, symSize: 0x20 }
  - { offset: 0xF1900, size: 0x8, addend: 0x0, symName: '__ZN4core3ptr238drop_in_place$LT$alloc..boxed..convert..$LT$impl$u20$core..convert..From$LT$alloc..string..String$GT$$u20$for$u20$alloc..boxed..Box$LT$dyn$u20$core..error..Error$u2b$core..marker..Sync$u2b$core..marker..Send$GT$$GT$..from..StringError$GT$17h7c853ba83f00de90E', symObjAddr: 0xD0, symBinAddr: 0x69F20, symSize: 0x28 }
  - { offset: 0xF19AB, size: 0x8, addend: 0x0, symName: '__ZN4core3ptr42drop_in_place$LT$alloc..string..String$GT$17hc47073d227e0629dE', symObjAddr: 0xF8, symBinAddr: 0x69F48, symSize: 0x28 }
  - { offset: 0xF206D, size: 0x8, addend: 0x0, symName: __ZN4core4iter6traits8iterator8Iterator7collect17h6b57af3a3398390eE, symObjAddr: 0x120, symBinAddr: 0x69F70, symSize: 0x270 }
  - { offset: 0xF29B5, size: 0x8, addend: 0x0, symName: __ZN4core5error5Error5cause17hc22584e5a9580f70E, symObjAddr: 0x390, symBinAddr: 0x6A1E0, symSize: 0x14 }
  - { offset: 0xF29CF, size: 0x8, addend: 0x0, symName: __ZN4core5error5Error7provide17h7d8c1345162f757eE, symObjAddr: 0x3A4, symBinAddr: 0x6A1F4, symSize: 0x10 }
  - { offset: 0xF29E9, size: 0x8, addend: 0x0, symName: __ZN4core5error5Error7type_id17h6278205fc2de5774E, symObjAddr: 0x3B4, symBinAddr: 0x6A204, symSize: 0x30 }
  - { offset: 0xF2A0B, size: 0x8, addend: 0x0, symName: __ZN4core9panicking13assert_failed17h5b3baa6e972c633eE, symObjAddr: 0x3E4, symBinAddr: 0x8CCBC, symSize: 0x30 }
  - { offset: 0xF2A39, size: 0x8, addend: 0x0, symName: '__ZN69_$LT$core..alloc..layout..LayoutError$u20$as$u20$core..fmt..Debug$GT$3fmt17h12d6ce1ae282ed4eE', symObjAddr: 0x434, symBinAddr: 0x6A254, symSize: 0x20 }
  - { offset: 0xF2BE8, size: 0x8, addend: 0x0, symName: '__ZN5alloc3ffi5c_str40_$LT$impl$u20$core..ffi..c_str..CStr$GT$15to_string_lossy17hf9347518ce66c5efE', symObjAddr: 0x1BA4, symBinAddr: 0x6B740, symSize: 0x14 }
  - { offset: 0xF2C1A, size: 0x8, addend: 0x0, symName: '__ZN5alloc3ffi5c_str40_$LT$impl$u20$core..ffi..c_str..CStr$GT$13into_c_string17hf23910302fc9e1e5E', symObjAddr: 0x1BB8, symBinAddr: 0x6B754, symSize: 0x10 }
  - { offset: 0xF312D, size: 0x8, addend: 0x0, symName: '__ZN5alloc7raw_vec19RawVec$LT$T$C$A$GT$8grow_one17haee3e9b0da14d29cE', symObjAddr: 0x488, symBinAddr: 0x6A274, symSize: 0xA0 }
  - { offset: 0xF3348, size: 0x8, addend: 0x0, symName: __ZN5alloc7raw_vec17capacity_overflow17hcbe2454a3949c44bE, symObjAddr: 0x454, symBinAddr: 0x8CCEC, symSize: 0x34 }
  - { offset: 0xF3392, size: 0x8, addend: 0x0, symName: '__ZN5alloc7raw_vec20RawVecInner$LT$A$GT$7reserve21do_reserve_and_handle17h6d733f5408984ac5E', symObjAddr: 0x528, symBinAddr: 0x8CD20, symSize: 0xB0 }
  - { offset: 0xF34A6, size: 0x8, addend: 0x0, symName: __ZN5alloc7raw_vec12handle_error17h31991983660bbb68E, symObjAddr: 0x660, symBinAddr: 0x8CDD0, symSize: 0x18 }
  - { offset: 0xF358A, size: 0x8, addend: 0x0, symName: __ZN5alloc5alloc18handle_alloc_error8ct_error17he1eb51ea64f79bb4E, symObjAddr: 0x690, symBinAddr: 0x8CE00, symSize: 0x38 }
  - { offset: 0xF35BD, size: 0x8, addend: 0x0, symName: __ZN5alloc5alloc18handle_alloc_error17h20d6b4ef519dd772E, symObjAddr: 0x678, symBinAddr: 0x8CDE8, symSize: 0x18 }
  - { offset: 0xF35F5, size: 0x8, addend: 0x0, symName: __RNvCs691rhTbG0Ee_7___rustc9___rdl_oom, symObjAddr: 0x6C8, symBinAddr: 0x8CE38, symSize: 0xA4 }
  - { offset: 0xF3755, size: 0x8, addend: 0x0, symName: __ZN5alloc6string6String15from_utf8_lossy17h1ec7c124f18e4cd6E, symObjAddr: 0x31F4, symBinAddr: 0x6CD90, symSize: 0x244 }
  - { offset: 0xF3CD7, size: 0x8, addend: 0x0, symName: __ZN5alloc6string6String21from_utf8_lossy_owned17hb31a23e11e47470cE, symObjAddr: 0x3438, symBinAddr: 0x6CFD4, symSize: 0xB8 }
  - { offset: 0xF3EDE, size: 0x8, addend: 0x0, symName: __ZN5alloc6string6String10from_utf1617h1213735d3370b413E, symObjAddr: 0x34F0, symBinAddr: 0x6D08C, symSize: 0x284 }
  - { offset: 0xF4314, size: 0x8, addend: 0x0, symName: __ZN5alloc6string6String12from_utf16le17hcb2866839e411aabE, symObjAddr: 0x3774, symBinAddr: 0x6D310, symSize: 0x3F0 }
  - { offset: 0xF4786, size: 0x8, addend: 0x0, symName: __ZN5alloc6string6String18from_utf16le_lossy17hcd945e296e0556fdE, symObjAddr: 0x3B64, symBinAddr: 0x6D700, symSize: 0x3C8 }
  - { offset: 0xF5171, size: 0x8, addend: 0x0, symName: __ZN5alloc6string6String12from_utf16be17hfaa1dd50a9be64e5E, symObjAddr: 0x3F2C, symBinAddr: 0x6DAC8, symSize: 0x3C4 }
  - { offset: 0xF5592, size: 0x8, addend: 0x0, symName: __ZN5alloc6string6String18from_utf16be_lossy17h64b8e7a0f194b917E, symObjAddr: 0x42F0, symBinAddr: 0x6DE8C, symSize: 0x2F8 }
  - { offset: 0xF5C04, size: 0x8, addend: 0x0, symName: __ZN5alloc6string6String11try_reserve17hb6c8607b4d08e6c5E, symObjAddr: 0x45E8, symBinAddr: 0x6E184, symSize: 0xC4 }
  - { offset: 0xF5D85, size: 0x8, addend: 0x0, symName: __ZN5alloc6string6String17try_reserve_exact17h2a03aafc36ec155dE, symObjAddr: 0x46AC, symBinAddr: 0x6E248, symSize: 0xAC }
  - { offset: 0xF60B2, size: 0x8, addend: 0x0, symName: '__ZN98_$LT$alloc..string..String$u20$as$u20$core..convert..From$LT$alloc..borrow..Cow$LT$str$GT$$GT$$GT$4from17hf0e5d61a67944f89E', symObjAddr: 0x4B70, symBinAddr: 0x6E70C, symSize: 0xBC }
  - { offset: 0xF6246, size: 0x8, addend: 0x0, symName: __ZN5alloc6string13FromUtf8Error8as_bytes17h558fa650876824eeE, symObjAddr: 0x4758, symBinAddr: 0x6E2F4, symSize: 0x18 }
  - { offset: 0xF6302, size: 0x8, addend: 0x0, symName: __ZN5alloc6string13FromUtf8Error15into_utf8_lossy17h2d2a51c2c72b1da8E, symObjAddr: 0x4770, symBinAddr: 0x6E30C, symSize: 0x200 }
  - { offset: 0xF698F, size: 0x8, addend: 0x0, symName: '__ZN67_$LT$alloc..string..FromUtf8Error$u20$as$u20$core..fmt..Display$GT$3fmt17h2ef410285d0b7b54E', symObjAddr: 0x4970, symBinAddr: 0x6E50C, symSize: 0x14 }
  - { offset: 0xF69B1, size: 0x8, addend: 0x0, symName: '__ZN68_$LT$alloc..string..FromUtf16Error$u20$as$u20$core..fmt..Display$GT$3fmt17h0e1df13fad63c0d2E', symObjAddr: 0x4984, symBinAddr: 0x6E520, symSize: 0x20 }
  - { offset: 0xF69D3, size: 0x8, addend: 0x0, symName: '__ZN60_$LT$alloc..string..String$u20$as$u20$core..clone..Clone$GT$5clone17h878de454853cdfbcE', symObjAddr: 0x49A4, symBinAddr: 0x6E540, symSize: 0x98 }
  - { offset: 0xF6B11, size: 0x8, addend: 0x0, symName: '__ZN60_$LT$alloc..string..String$u20$as$u20$core..clone..Clone$GT$10clone_from17hb9a8339b0fbab03bE', symObjAddr: 0x4A3C, symBinAddr: 0x6E5D8, symSize: 0x7C }
  - { offset: 0xF6CA0, size: 0x8, addend: 0x0, symName: '__ZN73_$LT$$RF$alloc..string..String$u20$as$u20$core..str..pattern..Pattern$GT$13into_searcher17he0564ea91ef52712E', symObjAddr: 0x4AB8, symBinAddr: 0x6E654, symSize: 0x20 }
  - { offset: 0xF6D79, size: 0x8, addend: 0x0, symName: '__ZN5alloc6string107_$LT$impl$u20$core..convert..From$LT$alloc..string..String$GT$$u20$for$u20$alloc..boxed..Box$LT$str$GT$$GT$4from17h66221d6fd03a52d8E', symObjAddr: 0x4AD8, symBinAddr: 0x6E674, symSize: 0x98 }
  - { offset: 0xF6F1C, size: 0x8, addend: 0x0, symName: '__ZN97_$LT$alloc..string..String$u20$as$u20$core..convert..TryFrom$LT$alloc..vec..Vec$LT$u8$GT$$GT$$GT$8try_from17he35134392d1d98e5E', symObjAddr: 0x4C2C, symBinAddr: 0x6E7C8, symSize: 0xAC }
  - { offset: 0xF7076, size: 0x8, addend: 0x0, symName: '__ZN58_$LT$alloc..string..String$u20$as$u20$core..fmt..Write$GT$9write_str17h11b280593fea37deE', symObjAddr: 0x4CD8, symBinAddr: 0x6E874, symSize: 0x78 }
  - { offset: 0xF71DA, size: 0x8, addend: 0x0, symName: '__ZN58_$LT$alloc..string..String$u20$as$u20$core..fmt..Write$GT$10write_char17h05ecec41f1a2343bE', symObjAddr: 0x4D50, symBinAddr: 0x6E8EC, symSize: 0x130 }
  - { offset: 0xF73AC, size: 0x8, addend: 0x0, symName: '__ZN61_$LT$alloc..string..IntoChars$u20$as$u20$core..fmt..Debug$GT$3fmt17h4f9ef7292afcae5dE', symObjAddr: 0x4E80, symBinAddr: 0x6EA1C, symSize: 0x68 }
  - { offset: 0xF7490, size: 0x8, addend: 0x0, symName: __ZN5alloc6string5Drain6as_str17hdfb5e7447766cbbeE, symObjAddr: 0x4FC4, symBinAddr: 0x6EB60, symSize: 0x1C }
  - { offset: 0xF7532, size: 0x8, addend: 0x0, symName: '__ZN57_$LT$alloc..string..Drain$u20$as$u20$core..fmt..Debug$GT$3fmt17h6b89bf0ec9b2b12eE', symObjAddr: 0x4EE8, symBinAddr: 0x6EA84, symSize: 0x64 }
  - { offset: 0xF75F2, size: 0x8, addend: 0x0, symName: '__ZN62_$LT$alloc..string..Drain$u20$as$u20$core..ops..drop..Drop$GT$4drop17h2f7c2c5680a6c00aE', symObjAddr: 0x4F4C, symBinAddr: 0x6EAE8, symSize: 0x78 }
  - { offset: 0xF7767, size: 0x8, addend: 0x0, symName: '__ZN72_$LT$alloc..string..Drain$u20$as$u20$core..convert..AsRef$LT$str$GT$$GT$6as_ref17hd8fa52d4926f54b7E', symObjAddr: 0x4FE0, symBinAddr: 0x6EB7C, symSize: 0x1C }
  - { offset: 0xF7827, size: 0x8, addend: 0x0, symName: '__ZN79_$LT$alloc..string..Drain$u20$as$u20$core..iter..traits..iterator..Iterator$GT$9size_hint17h4a729929b3ae6077E', symObjAddr: 0x4FFC, symBinAddr: 0x6EB98, symSize: 0x2C }
  - { offset: 0xF7D92, size: 0x8, addend: 0x0, symName: '__ZN5alloc3vec16Vec$LT$T$C$A$GT$11swap_remove13assert_failed17h7568039738e798f0E', symObjAddr: 0x509C, symBinAddr: 0x8CEE8, symSize: 0x34 }
  - { offset: 0xF7DCC, size: 0x8, addend: 0x0, symName: '__ZN5alloc3vec16Vec$LT$T$C$A$GT$6insert13assert_failed17h888e82cfb24b1742E', symObjAddr: 0x50D0, symBinAddr: 0x8CF1C, symSize: 0x34 }
  - { offset: 0xF7E06, size: 0x8, addend: 0x0, symName: '__ZN5alloc3vec16Vec$LT$T$C$A$GT$6remove13assert_failed17hafdb58b34dd0b9caE', symObjAddr: 0x5104, symBinAddr: 0x8CF50, symSize: 0x34 }
  - { offset: 0xF7E40, size: 0x8, addend: 0x0, symName: '__ZN5alloc3vec16Vec$LT$T$C$A$GT$9split_off13assert_failed17hab4b5267d097fa19E', symObjAddr: 0x5138, symBinAddr: 0x8CF84, symSize: 0x34 }
  - { offset: 0xF7E90, size: 0x8, addend: 0x0, symName: '__ZN80_$LT$alloc..vec..Vec$LT$u8$GT$$u20$as$u20$core..convert..From$LT$$RF$str$GT$$GT$4from17h3dd52632efe9095eE', symObjAddr: 0x516C, symBinAddr: 0x6EC38, symSize: 0x98 }
  - { offset: 0xF801F, size: 0x8, addend: 0x0, symName: '__ZN88_$LT$alloc..collections..btree..map..UnorderedKeyError$u20$as$u20$core..fmt..Display$GT$3fmt17ha69c89c66faf5e1aE', symObjAddr: 0x1054, symBinAddr: 0x6ABFC, symSize: 0x24 }
  - { offset: 0xF8065, size: 0x8, addend: 0x0, symName: '__ZN93_$LT$alloc..collections..btree..mem..replace..PanicGuard$u20$as$u20$core..ops..drop..Drop$GT$4drop17hf88b1b63ab54dbc0E', symObjAddr: 0x1078, symBinAddr: 0x8CEDC, symSize: 0xC }
  - { offset: 0xF8089, size: 0x8, addend: 0x0, symName: '__ZN74_$LT$alloc..collections..TryReserveError$u20$as$u20$core..fmt..Display$GT$3fmt17ha82971b20b5e6401E', symObjAddr: 0x1084, symBinAddr: 0x6AC20, symSize: 0x74 }
  - { offset: 0xF810D, size: 0x8, addend: 0x0, symName: '__ZN92_$LT$alloc..borrow..Cow$LT$str$GT$$u20$as$u20$core..ops..arith..AddAssign$LT$$RF$str$GT$$GT$10add_assign17hb242da1d5c28bc96E', symObjAddr: 0x76C, symBinAddr: 0x6A314, symSize: 0x20C }
  - { offset: 0xF869B, size: 0x8, addend: 0x0, symName: '__ZN77_$LT$alloc..borrow..Cow$LT$str$GT$$u20$as$u20$core..ops..arith..AddAssign$GT$10add_assign17h4f7a2965c250557fE', symObjAddr: 0x978, symBinAddr: 0x6A520, symSize: 0x2B8 }
  - { offset: 0xF8F7A, size: 0x8, addend: 0x0, symName: '__ZN5alloc3str21_$LT$impl$u20$str$GT$12to_lowercase17h62d32c1eb53a4a94E', symObjAddr: 0x1DD8, symBinAddr: 0x6B974, symSize: 0xBC8 }
  - { offset: 0xF9DD5, size: 0x8, addend: 0x0, symName: '__ZN5alloc3str21_$LT$impl$u20$str$GT$12to_uppercase17h51a1687b84d2ed95E', symObjAddr: 0x29A0, symBinAddr: 0x6C53C, symSize: 0x854 }
  - { offset: 0xFA908, size: 0x8, addend: 0x0, symName: '__ZN256_$LT$alloc..boxed..convert..$LT$impl$u20$core..convert..From$LT$alloc..string..String$GT$$u20$for$u20$alloc..boxed..Box$LT$dyn$u20$core..error..Error$u2b$core..marker..Sync$u2b$core..marker..Send$GT$$GT$..from..StringError$u20$as$u20$core..error..Error$GT$11description17hbc1fca6934c07685E', symObjAddr: 0xC30, symBinAddr: 0x6A7D8, symSize: 0x18 }
  - { offset: 0xFA9CB, size: 0x8, addend: 0x0, symName: '__ZN256_$LT$alloc..boxed..convert..$LT$impl$u20$core..convert..From$LT$alloc..string..String$GT$$u20$for$u20$alloc..boxed..Box$LT$dyn$u20$core..error..Error$u2b$core..marker..Sync$u2b$core..marker..Send$GT$$GT$..from..StringError$u20$as$u20$core..fmt..Display$GT$3fmt17ha874816b82c2e34cE', symObjAddr: 0xC48, symBinAddr: 0x6A7F0, symSize: 0x1C }
  - { offset: 0xFAAA5, size: 0x8, addend: 0x0, symName: '__ZN254_$LT$alloc..boxed..convert..$LT$impl$u20$core..convert..From$LT$alloc..string..String$GT$$u20$for$u20$alloc..boxed..Box$LT$dyn$u20$core..error..Error$u2b$core..marker..Sync$u2b$core..marker..Send$GT$$GT$..from..StringError$u20$as$u20$core..fmt..Debug$GT$3fmt17ha25c9c42b2b43420E', symObjAddr: 0xC64, symBinAddr: 0x6A80C, symSize: 0x1C }
  - { offset: 0xFAB9D, size: 0x8, addend: 0x0, symName: '__ZN5alloc5boxed7convert130_$LT$impl$u20$core..convert..From$LT$alloc..string..String$GT$$u20$for$u20$alloc..boxed..Box$LT$dyn$u20$core..error..Error$GT$$GT$4from17h9a95dbe8410a6515E', symObjAddr: 0xC80, symBinAddr: 0x6A828, symSize: 0x84 }
  - { offset: 0xFAD19, size: 0x8, addend: 0x0, symName: '__ZN5alloc5boxed7convert116_$LT$impl$u20$core..convert..From$LT$$RF$str$GT$$u20$for$u20$alloc..boxed..Box$LT$dyn$u20$core..error..Error$GT$$GT$4from17h7b2a54748c88f0dfE', symObjAddr: 0xD04, symBinAddr: 0x6A8AC, symSize: 0xE0 }
  - { offset: 0xFAFEB, size: 0x8, addend: 0x0, symName: '__ZN5alloc5boxed7convert184_$LT$impl$u20$core..convert..From$LT$alloc..borrow..Cow$LT$str$GT$$GT$$u20$for$u20$alloc..boxed..Box$LT$dyn$u20$core..error..Error$u2b$core..marker..Sync$u2b$core..marker..Send$GT$$GT$4from17h7453722b75db720cE', symObjAddr: 0xDE4, symBinAddr: 0x6A98C, symSize: 0xF4 }
  - { offset: 0xFB2BD, size: 0x8, addend: 0x0, symName: '__ZN5alloc5boxed7convert138_$LT$impl$u20$core..convert..From$LT$alloc..borrow..Cow$LT$str$GT$$GT$$u20$for$u20$alloc..boxed..Box$LT$dyn$u20$core..error..Error$GT$$GT$4from17h1e31d63cfa2a7ae4E', symObjAddr: 0xED8, symBinAddr: 0x6AA80, symSize: 0xF4 }
  - { offset: 0xFB619, size: 0x8, addend: 0x0, symName: '__ZN67_$LT$alloc..boxed..Box$LT$str$GT$$u20$as$u20$core..clone..Clone$GT$5clone17h43a45d54f02aa6f0E', symObjAddr: 0xFCC, symBinAddr: 0x6AB74, symSize: 0x88 }
  - { offset: 0xFB741, size: 0x8, addend: 0x0, symName: __ZN5alloc3ffi5c_str19FromVecWithNulError8as_bytes17hb52727fe396b7ef5E, symObjAddr: 0x10F8, symBinAddr: 0x6AC94, symSize: 0x18 }
  - { offset: 0xFB81C, size: 0x8, addend: 0x0, symName: '__ZN72_$LT$$RF$str$u20$as$u20$alloc..ffi..c_str..CString..new..SpecNewImpl$GT$13spec_new_impl17h84fcba30fd510379E', symObjAddr: 0x1110, symBinAddr: 0x6ACAC, symSize: 0x11C }
  - { offset: 0xFBA77, size: 0x8, addend: 0x0, symName: '__ZN89_$LT$$RF$mut$u20$$u5b$u8$u5d$$u20$as$u20$alloc..ffi..c_str..CString..new..SpecNewImpl$GT$13spec_new_impl17h985d43fe3ad8cd3cE', symObjAddr: 0x122C, symBinAddr: 0x6ADC8, symSize: 0x11C }
  - { offset: 0xFBCE9, size: 0x8, addend: 0x0, symName: __ZN5alloc3ffi5c_str7CString18from_vec_unchecked17h0ebab62cf3e7b583E, symObjAddr: 0x1348, symBinAddr: 0x6AEE4, symSize: 0x30 }
  - { offset: 0xFBD04, size: 0x8, addend: 0x0, symName: __ZN5alloc3ffi5c_str7CString19_from_vec_unchecked17h6604b78f533eb0e2E, symObjAddr: 0x1378, symBinAddr: 0x6AF14, symSize: 0x160 }
  - { offset: 0xFC050, size: 0x8, addend: 0x0, symName: __ZN5alloc3ffi5c_str7CString8from_raw17h8545da623b804769E, symObjAddr: 0x14D8, symBinAddr: 0x6B074, symSize: 0x28 }
  - { offset: 0xFC079, size: 0x8, addend: 0x0, symName: __ZN5alloc3ffi5c_str7CString11into_string17hc5bb61798b3ae469E, symObjAddr: 0x1500, symBinAddr: 0x6B09C, symSize: 0xF8 }
  - { offset: 0xFC195, size: 0x8, addend: 0x0, symName: __ZN5alloc3ffi5c_str7CString10into_bytes17h410ceefd69c65521E, symObjAddr: 0x15F8, symBinAddr: 0x6B194, symSize: 0x20 }
  - { offset: 0xFC1C0, size: 0x8, addend: 0x0, symName: __ZN5alloc3ffi5c_str7CString19into_bytes_with_nul17h8540e48698f0ad39E, symObjAddr: 0x1618, symBinAddr: 0x6B1B4, symSize: 0x18 }
  - { offset: 0xFC217, size: 0x8, addend: 0x0, symName: __ZN5alloc3ffi5c_str7CString27from_vec_with_nul_unchecked17h4be7c2879ead5edeE, symObjAddr: 0x1630, symBinAddr: 0x6B1CC, symSize: 0x98 }
  - { offset: 0xFC3B3, size: 0x8, addend: 0x0, symName: __ZN5alloc3ffi5c_str7CString17from_vec_with_nul17h7f1dfcc1e02bcdf8E, symObjAddr: 0x16C8, symBinAddr: 0x6B264, symSize: 0x130 }
  - { offset: 0xFC608, size: 0x8, addend: 0x0, symName: '__ZN63_$LT$alloc..ffi..c_str..CString$u20$as$u20$core..fmt..Debug$GT$3fmt17hec3c21e924f01557E', symObjAddr: 0x17F8, symBinAddr: 0x6B394, symSize: 0x1C }
  - { offset: 0xFC666, size: 0x8, addend: 0x0, symName: '__ZN5alloc3ffi5c_str75_$LT$impl$u20$alloc..borrow..ToOwned$u20$for$u20$core..ffi..c_str..CStr$GT$10clone_into17hfc4d47ccda0b5afdE', symObjAddr: 0x1A08, symBinAddr: 0x6B5A4, symSize: 0x114 }
  - { offset: 0xFC994, size: 0x8, addend: 0x0, symName: '__ZN69_$LT$alloc..ffi..c_str..CString$u20$as$u20$core..default..Default$GT$7default17h8d3bc1728a6be495E', symObjAddr: 0x1814, symBinAddr: 0x6B3B0, symSize: 0x40 }
  - { offset: 0xFCAA6, size: 0x8, addend: 0x0, symName: '__ZN5alloc3ffi5c_str131_$LT$impl$u20$core..convert..From$LT$$RF$core..ffi..c_str..CStr$GT$$u20$for$u20$alloc..boxed..Box$LT$core..ffi..c_str..CStr$GT$$GT$4from17h06cf443e72c86b19E', symObjAddr: 0x1854, symBinAddr: 0x6B3F0, symSize: 0x88 }
  - { offset: 0xFCBB2, size: 0x8, addend: 0x0, symName: '__ZN5alloc3ffi5c_str100_$LT$impl$u20$core..default..Default$u20$for$u20$alloc..boxed..Box$LT$core..ffi..c_str..CStr$GT$$GT$7default17ha13e8dcf732ae3feE', symObjAddr: 0x18DC, symBinAddr: 0x6B478, symSize: 0x40 }
  - { offset: 0xFCC5A, size: 0x8, addend: 0x0, symName: '__ZN66_$LT$alloc..ffi..c_str..NulError$u20$as$u20$core..fmt..Display$GT$3fmt17haca213a03cf3270eE', symObjAddr: 0x191C, symBinAddr: 0x6B4B8, symSize: 0x50 }
  - { offset: 0xFCCD6, size: 0x8, addend: 0x0, symName: '__ZN77_$LT$alloc..ffi..c_str..FromVecWithNulError$u20$as$u20$core..fmt..Display$GT$3fmt17h94a1d66d0a8a2cabE', symObjAddr: 0x196C, symBinAddr: 0x6B508, symSize: 0x7C }
  - { offset: 0xFCD3C, size: 0x8, addend: 0x0, symName: '__ZN73_$LT$alloc..ffi..c_str..IntoStringError$u20$as$u20$core..fmt..Display$GT$3fmt17hf60c21df14d56c2cE', symObjAddr: 0x19E8, symBinAddr: 0x6B584, symSize: 0x20 }
  - { offset: 0xFCD5E, size: 0x8, addend: 0x0, symName: '__ZN100_$LT$alloc..ffi..c_str..CString$u20$as$u20$core..convert..From$LT$$RF$core..ffi..c_str..CStr$GT$$GT$4from17h143d1007f4ceaa58E', symObjAddr: 0x1B1C, symBinAddr: 0x6B6B8, symSize: 0x88 }
  - { offset: 0xFCE90, size: 0x8, addend: 0x0, symName: __ZN5alloc3fmt6format12format_inner17habc043a61d3143e0E, symObjAddr: 0x1BC8, symBinAddr: 0x6B764, symSize: 0x19C }
  - { offset: 0xFD103, size: 0x8, addend: 0x0, symName: __ZN5alloc2rc32rc_inner_layout_for_value_layout17hf1507557f97ba851E, symObjAddr: 0x1D64, symBinAddr: 0x6B900, symSize: 0x74 }
  - { offset: 0xFD1D8, size: 0x8, addend: 0x0, symName: __ZN5alloc4sync32arcinner_layout_for_value_layout17h138eca924c69037cE, symObjAddr: 0x5028, symBinAddr: 0x6EBC4, symSize: 0x74 }
  - { offset: 0xFD2A8, size: 0x8, addend: 0x0, symName: _OUTLINED_FUNCTION_0, symObjAddr: 0x5204, symBinAddr: 0x6ECD0, symSize: 0x24 }
  - { offset: 0xFD2DE, size: 0x8, addend: 0x0, symName: __ZN4core3num7dec2flt11decimal_seq10DecimalSeq4trim17ha447ab203de3b384E, symObjAddr: 0x0, symBinAddr: 0x6ECF4, symSize: 0x50 }
  - { offset: 0xFD30A, size: 0x8, addend: 0x0, symName: __ZN4core3num7dec2flt11decimal_seq10DecimalSeq4trim17ha447ab203de3b384E, symObjAddr: 0x0, symBinAddr: 0x6ECF4, symSize: 0x50 }
  - { offset: 0xFD31E, size: 0x8, addend: 0x0, symName: __ZN4core3num7dec2flt11decimal_seq10DecimalSeq5round17h1d4fa2668390a54dE, symObjAddr: 0x50, symBinAddr: 0x6ED44, symSize: 0xBC }
  - { offset: 0xFD36D, size: 0x8, addend: 0x0, symName: __ZN4core3num7dec2flt11decimal_seq10DecimalSeq10left_shift17h685aa87c1a1917d7E, symObjAddr: 0x10C, symBinAddr: 0x6EE00, symSize: 0x210 }
  - { offset: 0xFD419, size: 0x8, addend: 0x0, symName: __ZN4core3num7dec2flt11decimal_seq10DecimalSeq11right_shift17h02cdd8216fe714ccE, symObjAddr: 0x31C, symBinAddr: 0x6F010, symSize: 0x1C0 }
  - { offset: 0xFD4AD, size: 0x8, addend: 0x0, symName: __ZN4core3num7dec2flt11decimal_seq17parse_decimal_seq17h31d2265c086d22b6E, symObjAddr: 0x4DC, symBinAddr: 0x6F1D0, symSize: 0x3CC }
  - { offset: 0xFD88A, size: 0x8, addend: 0x0, symName: '__ZN59_$LT$f32$u20$as$u20$core..num..dec2flt..float..RawFloat$GT$15pow10_fast_path17h255120f643633428E', symObjAddr: 0x8A8, symBinAddr: 0x6F59C, symSize: 0x20 }
  - { offset: 0xFD8E6, size: 0x8, addend: 0x0, symName: '__ZN59_$LT$f64$u20$as$u20$core..num..dec2flt..float..RawFloat$GT$15pow10_fast_path17h760788e007f97dfeE', symObjAddr: 0x8C8, symBinAddr: 0x6F5BC, symSize: 0x20 }
  - { offset: 0xFD982, size: 0x8, addend: 0x0, symName: __ZN4core3num7dec2flt6lemire13compute_float17h2eb10e839bdc8f71E, symObjAddr: 0x8E8, symBinAddr: 0x6F5DC, symSize: 0x15C }
  - { offset: 0xFDA3F, size: 0x8, addend: 0x0, symName: __ZN4core3num7dec2flt6lemire13compute_float17h5a3c284380474173E, symObjAddr: 0xA44, symBinAddr: 0x6F738, symSize: 0x158 }
  - { offset: 0xFDAEF, size: 0x8, addend: 0x0, symName: __ZN4core3num7dec2flt6lemire22compute_product_approx17h5f61e556e480fb4cE, symObjAddr: 0xB9C, symBinAddr: 0x6F890, symSize: 0x6C }
  - { offset: 0xFDBB3, size: 0x8, addend: 0x0, symName: __ZN4core3num7dec2flt5parse12parse_number17hca3a6eed458d7169E, symObjAddr: 0xC08, symBinAddr: 0x6F8FC, symSize: 0x43C }
  - { offset: 0xFE1A8, size: 0x8, addend: 0x0, symName: '__ZN74_$LT$core..num..dec2flt..ParseFloatError$u20$as$u20$core..fmt..Display$GT$3fmt17hd74a00d8ef3775fbE', symObjAddr: 0x1044, symBinAddr: 0x6FD38, symSize: 0x48 }
  - { offset: 0xFE2A7, size: 0x8, addend: 0x0, symName: '__ZN4core3num7dec2flt60_$LT$impl$u20$core..str..traits..FromStr$u20$for$u20$f32$GT$8from_str17h85367fc644769cdeE', symObjAddr: 0x148F8, symBinAddr: 0x82C78, symSize: 0x470 }
  - { offset: 0xFE2D2, size: 0x8, addend: 0x0, symName: '__ZN4core3num7dec2flt60_$LT$impl$u20$core..str..traits..FromStr$u20$for$u20$f32$GT$8from_str17h85367fc644769cdeE', symObjAddr: 0x148F8, symBinAddr: 0x82C78, symSize: 0x470 }
  - { offset: 0xFE584, size: 0x8, addend: 0x0, symName: '__ZN4core3num7dec2flt60_$LT$impl$u20$core..str..traits..FromStr$u20$for$u20$f64$GT$8from_str17h83552dfa694021bfE', symObjAddr: 0x14D68, symBinAddr: 0x830E8, symSize: 0x44C }
  - { offset: 0xFEC3F, size: 0x8, addend: 0x0, symName: __ZN4core3num9diy_float2Fp3mul17h052241a20d2ddd98E, symObjAddr: 0x108C, symBinAddr: 0x6FD80, symSize: 0x24 }
  - { offset: 0xFEC80, size: 0x8, addend: 0x0, symName: __ZN4core3num9diy_float2Fp9normalize17hf21fba7a78434e1cE, symObjAddr: 0x10B0, symBinAddr: 0x6FDA4, symSize: 0x1C }
  - { offset: 0xFECAA, size: 0x8, addend: 0x0, symName: __ZN4core3num9diy_float2Fp12normalize_to17h0b7e3c5a406f8bf4E, symObjAddr: 0x10CC, symBinAddr: 0x6FDC0, symSize: 0x80 }
  - { offset: 0xFECF3, size: 0x8, addend: 0x0, symName: __ZN4core3num7flt2dec9estimator23estimate_scaling_factor17h1d343ffc41e2ab04E, symObjAddr: 0x114C, symBinAddr: 0x6FE40, symSize: 0x3C }
  - { offset: 0xFED37, size: 0x8, addend: 0x0, symName: __ZN4core3num7flt2dec8strategy6dragon9mul_pow1017hb8eb9b3365f7e95eE, symObjAddr: 0x1188, symBinAddr: 0x6FE7C, symSize: 0x1E4 }
  - { offset: 0xFEFD7, size: 0x8, addend: 0x0, symName: __ZN4core3num7flt2dec8strategy6dragon15format_shortest17h6289355728b8fa6eE, symObjAddr: 0x136C, symBinAddr: 0x70060, symSize: 0xBF8 }
  - { offset: 0x1007E0, size: 0x8, addend: 0x0, symName: __ZN4core3num7flt2dec8strategy6dragon12format_exact17hf0c98276b17afb1dE, symObjAddr: 0x1F64, symBinAddr: 0x70C58, symSize: 0xAB8 }
  - { offset: 0x101D70, size: 0x8, addend: 0x0, symName: __ZN4core3num7flt2dec8strategy5grisu12cached_power17hb25eeb675b0fc49dE, symObjAddr: 0x2A1C, symBinAddr: 0x71710, symSize: 0x74 }
  - { offset: 0x101DB3, size: 0x8, addend: 0x0, symName: __ZN4core3num7flt2dec8strategy5grisu19format_shortest_opt17h1a54231b1e9e53eeE, symObjAddr: 0x2A90, symBinAddr: 0x71784, symSize: 0x5D4 }
  - { offset: 0x101F54, size: 0x8, addend: 0x0, symName: __ZN4core3num7flt2dec8strategy5grisu15format_shortest17hdfba3bfdc0a179a9E, symObjAddr: 0x3064, symBinAddr: 0x71D58, symSize: 0x7C }
  - { offset: 0x101F68, size: 0x8, addend: 0x0, symName: __ZN4core3num7flt2dec8strategy5grisu16format_exact_opt17h813bab3a592ee6a2E, symObjAddr: 0x30E0, symBinAddr: 0x71DD4, symSize: 0x36C }
  - { offset: 0x10200D, size: 0x8, addend: 0x0, symName: __ZN4core3num7flt2dec8strategy5grisu16format_exact_opt14possibly_round17hde8899041d521a0eE, symObjAddr: 0x344C, symBinAddr: 0x72140, symSize: 0x1E0 }
  - { offset: 0x102179, size: 0x8, addend: 0x0, symName: __ZN4core3num7flt2dec8strategy5grisu12format_exact17h768ea3808369302eE, symObjAddr: 0x362C, symBinAddr: 0x72320, symSize: 0x90 }
  - { offset: 0x1021B8, size: 0x8, addend: 0x0, symName: __ZN4core3num7flt2dec8round_up17he6cec4dde862112dE, symObjAddr: 0x36BC, symBinAddr: 0x723B0, symSize: 0xB4 }
  - { offset: 0x102271, size: 0x8, addend: 0x0, symName: __ZN4core3num7flt2dec17digits_to_dec_str17h96bee6c6603b05b5E, symObjAddr: 0x3770, symBinAddr: 0x72464, symSize: 0x14C }
  - { offset: 0x102312, size: 0x8, addend: 0x0, symName: __ZN4core3num7flt2dec17digits_to_exp_str17h88e6607358d5b285E, symObjAddr: 0x38BC, symBinAddr: 0x725B0, symSize: 0x168 }
  - { offset: 0x102578, size: 0x8, addend: 0x0, symName: __ZN4core3num6bignum8Big32x408from_u6417h1b1ca835f354f854E, symObjAddr: 0x121C4, symBinAddr: 0x80544, symSize: 0x68 }
  - { offset: 0x10258C, size: 0x8, addend: 0x0, symName: __ZN4core3num6bignum8Big32x406digits17h04d4ddcb0d376acbE, symObjAddr: 0x1222C, symBinAddr: 0x805AC, symSize: 0x2C }
  - { offset: 0x1025DA, size: 0x8, addend: 0x0, symName: __ZN4core3num6bignum8Big32x407get_bit17h3a63181462042a0bE, symObjAddr: 0x12258, symBinAddr: 0x805D8, symSize: 0x38 }
  - { offset: 0x1025EE, size: 0x8, addend: 0x0, symName: __ZN4core3num6bignum8Big32x407is_zero17ha50430a50a0712eaE, symObjAddr: 0x12290, symBinAddr: 0x80610, symSize: 0x50 }
  - { offset: 0x102684, size: 0x8, addend: 0x0, symName: __ZN4core3num6bignum8Big32x4010bit_length17hce1274fe011047bfE, symObjAddr: 0x122E0, symBinAddr: 0x80660, symSize: 0x80 }
  - { offset: 0x1027A0, size: 0x8, addend: 0x0, symName: __ZN4core3num6bignum8Big32x403add17h9fe85d2228662149E, symObjAddr: 0x12360, symBinAddr: 0x806E0, symSize: 0xA0 }
  - { offset: 0x10284B, size: 0x8, addend: 0x0, symName: __ZN4core3num6bignum8Big32x409add_small17hab2ef0f49f9d8593E, symObjAddr: 0x12400, symBinAddr: 0x80780, symSize: 0x3EC }
  - { offset: 0x1028AF, size: 0x8, addend: 0x0, symName: __ZN4core3num6bignum8Big32x403sub17hf00d9348a64f5116E, symObjAddr: 0x127EC, symBinAddr: 0x80B6C, symSize: 0x98 }
  - { offset: 0x10295A, size: 0x8, addend: 0x0, symName: __ZN4core3num6bignum8Big32x409mul_small17h1576ef4b6d27a3e1E, symObjAddr: 0x12884, symBinAddr: 0x80C04, symSize: 0x88 }
  - { offset: 0x1029E7, size: 0x8, addend: 0x0, symName: __ZN4core3num6bignum8Big32x408mul_pow217h8e0ff96827158485E, symObjAddr: 0x1290C, symBinAddr: 0x80C8C, symSize: 0x3BC }
  - { offset: 0x102A9F, size: 0x8, addend: 0x0, symName: __ZN4core3num6bignum8Big32x408mul_pow517h58a35d392aefe495E, symObjAddr: 0x12CC8, symBinAddr: 0x81048, symSize: 0x18C }
  - { offset: 0x102CC9, size: 0x8, addend: 0x0, symName: __ZN4core3num6bignum8Big32x4010mul_digits17h97af13e1e9a9bafbE, symObjAddr: 0x12E54, symBinAddr: 0x811D4, symSize: 0x2EC }
  - { offset: 0x102FD7, size: 0x8, addend: 0x0, symName: __ZN4core3num6bignum8Big32x4013div_rem_small17h0c39df8d8947b961E, symObjAddr: 0x13140, symBinAddr: 0x814C0, symSize: 0x88 }
  - { offset: 0x103089, size: 0x8, addend: 0x0, symName: __ZN4core3num6bignum8Big32x407div_rem17h918badd1ccda8376E, symObjAddr: 0x131C8, symBinAddr: 0x81548, symSize: 0x268 }
  - { offset: 0x103535, size: 0x8, addend: 0x0, symName: '__ZN62_$LT$core..num..bignum..Big32x40$u20$as$u20$core..cmp..Ord$GT$3cmp17h479824deca23cc4cE', symObjAddr: 0x134C0, symBinAddr: 0x81840, symSize: 0x70 }
  - { offset: 0x10372C, size: 0x8, addend: 0x0, symName: '__ZN69_$LT$core..num..bignum..Big32x40$u20$as$u20$core..cmp..PartialOrd$GT$11partial_cmp17h3b5b453798b920c8E', symObjAddr: 0x13450, symBinAddr: 0x817D0, symSize: 0x70 }
  - { offset: 0x103931, size: 0x8, addend: 0x0, symName: '__ZN50_$LT$u32$u20$as$u20$core..num..bignum..FullOps$GT$12full_div_rem17hcbffa7fdfe666cc8E', symObjAddr: 0x12190, symBinAddr: 0x80510, symSize: 0x34 }
  - { offset: 0x103959, size: 0x8, addend: 0x0, symName: '__ZN49_$LT$u8$u20$as$u20$core..num..bignum..FullOps$GT$12full_div_rem17h1ff0b112c3504e08E', symObjAddr: 0x12124, symBinAddr: 0x804A4, symSize: 0x38 }
  - { offset: 0x10398E, size: 0x8, addend: 0x0, symName: '__ZN50_$LT$u16$u20$as$u20$core..num..bignum..FullOps$GT$12full_div_rem17h711ec264aeff82bfE', symObjAddr: 0x1215C, symBinAddr: 0x804DC, symSize: 0x34 }
  - { offset: 0x1039CB, size: 0x8, addend: 0x0, symName: '__ZN68_$LT$core..num..bignum..Big32x40$u20$as$u20$core..cmp..PartialEq$GT$2eq17h614b42dad800d06aE', symObjAddr: 0x13430, symBinAddr: 0x817B0, symSize: 0x20 }
  - { offset: 0x103A1A, size: 0x8, addend: 0x0, symName: '__ZN64_$LT$core..num..bignum..Big32x40$u20$as$u20$core..fmt..Debug$GT$3fmt17h622d5008fd1e9cd2E', symObjAddr: 0x13530, symBinAddr: 0x818B0, symSize: 0x14C }
  - { offset: 0x103AF6, size: 0x8, addend: 0x0, symName: __ZN4core3num6bignum5tests6Big8x38from_u6417ha34ef75ac56f4500E, symObjAddr: 0x1367C, symBinAddr: 0x819FC, symSize: 0xB4 }
  - { offset: 0x103B10, size: 0x8, addend: 0x0, symName: __ZN4core3num6bignum5tests6Big8x36digits17h40192da38c380aa4E, symObjAddr: 0x13730, symBinAddr: 0x81AB0, symSize: 0x30 }
  - { offset: 0x103B5E, size: 0x8, addend: 0x0, symName: __ZN4core3num6bignum5tests6Big8x37get_bit17h6037f8fdf58be89cE, symObjAddr: 0x13760, symBinAddr: 0x81AE0, symSize: 0x40 }
  - { offset: 0x103B7F, size: 0x8, addend: 0x0, symName: __ZN4core3num6bignum5tests6Big8x37is_zero17h0dc3c6dc65065dcdE, symObjAddr: 0x137A0, symBinAddr: 0x81B20, symSize: 0x7C }
  - { offset: 0x103BF7, size: 0x8, addend: 0x0, symName: __ZN4core3num6bignum5tests6Big8x310bit_length17h312ff3b0f16ad1d4E, symObjAddr: 0x1381C, symBinAddr: 0x81B9C, symSize: 0xC0 }
  - { offset: 0x103CFB, size: 0x8, addend: 0x0, symName: __ZN4core3num6bignum5tests6Big8x33add17h3634c1789b13725fE, symObjAddr: 0x138DC, symBinAddr: 0x81C5C, symSize: 0xB4 }
  - { offset: 0x103DD9, size: 0x8, addend: 0x0, symName: __ZN4core3num6bignum5tests6Big8x39add_small17h290e86cb2a3016d0E, symObjAddr: 0x13990, symBinAddr: 0x81D10, symSize: 0x8C }
  - { offset: 0x103E3D, size: 0x8, addend: 0x0, symName: __ZN4core3num6bignum5tests6Big8x33sub17h483e60d763f3f888E, symObjAddr: 0x13A1C, symBinAddr: 0x81D9C, symSize: 0xA4 }
  - { offset: 0x103F15, size: 0x8, addend: 0x0, symName: __ZN4core3num6bignum5tests6Big8x39mul_small17hf163ac6a26c66213E, symObjAddr: 0x13AC0, symBinAddr: 0x81E40, symSize: 0xA8 }
  - { offset: 0x103F8C, size: 0x8, addend: 0x0, symName: __ZN4core3num6bignum5tests6Big8x38mul_pow217h2487df73161e62c6E, symObjAddr: 0x13B68, symBinAddr: 0x81EE8, symSize: 0x24C }
  - { offset: 0x10403B, size: 0x8, addend: 0x0, symName: __ZN4core3num6bignum5tests6Big8x38mul_pow517hab643b2f0e687c6aE, symObjAddr: 0x13DB4, symBinAddr: 0x82134, symSize: 0x178 }
  - { offset: 0x1041F4, size: 0x8, addend: 0x0, symName: __ZN4core3num6bignum5tests6Big8x310mul_digits17hcd0990a878b5c0a9E, symObjAddr: 0x13F2C, symBinAddr: 0x822AC, symSize: 0x36C }
  - { offset: 0x1044D6, size: 0x8, addend: 0x0, symName: __ZN4core3num6bignum5tests6Big8x313div_rem_small17h50cb184645893d27E, symObjAddr: 0x14298, symBinAddr: 0x82618, symSize: 0xBC }
  - { offset: 0x1045C5, size: 0x8, addend: 0x0, symName: __ZN4core3num6bignum5tests6Big8x37div_rem17h74bf2d0da305a1b0E, symObjAddr: 0x14354, symBinAddr: 0x826D4, symSize: 0x2DC }
  - { offset: 0x104ACF, size: 0x8, addend: 0x0, symName: '__ZN67_$LT$core..num..bignum..tests..Big8x3$u20$as$u20$core..cmp..Ord$GT$3cmp17h425238b031b40752E', symObjAddr: 0x1470C, symBinAddr: 0x82A8C, symSize: 0xB0 }
  - { offset: 0x104C8D, size: 0x8, addend: 0x0, symName: '__ZN74_$LT$core..num..bignum..tests..Big8x3$u20$as$u20$core..cmp..PartialOrd$GT$11partial_cmp17h495d73091dab9442E', symObjAddr: 0x1465C, symBinAddr: 0x829DC, symSize: 0xB0 }
  - { offset: 0x104E4C, size: 0x8, addend: 0x0, symName: '__ZN73_$LT$core..num..bignum..tests..Big8x3$u20$as$u20$core..cmp..PartialEq$GT$2eq17h4d5ceb0d64126a07E', symObjAddr: 0x14630, symBinAddr: 0x829B0, symSize: 0x2C }
  - { offset: 0x104E9B, size: 0x8, addend: 0x0, symName: '__ZN69_$LT$core..num..bignum..tests..Big8x3$u20$as$u20$core..fmt..Debug$GT$3fmt17ha71fe2dc584d992cE', symObjAddr: 0x147BC, symBinAddr: 0x82B3C, symSize: 0x13C }
  - { offset: 0x10506C, size: 0x8, addend: 0x0, symName: __ZN4core3num3fmt4Part5write17hd28ca7897843eaa4E, symObjAddr: 0x3A24, symBinAddr: 0x72718, symSize: 0x164 }
  - { offset: 0x10518D, size: 0x8, addend: 0x0, symName: __ZN4core3num3fmt9Formatted3len17h7f2ff885e72d887bE, symObjAddr: 0x3B88, symBinAddr: 0x7287C, symSize: 0x98 }
  - { offset: 0x1051D2, size: 0x8, addend: 0x0, symName: __ZN4core3num3fmt9Formatted5write17h04a02e5523fee086E, symObjAddr: 0x3C20, symBinAddr: 0x72914, symSize: 0xBC }
  - { offset: 0x1052F6, size: 0x8, addend: 0x0, symName: '__ZN72_$LT$core..num..error..TryFromIntError$u20$as$u20$core..fmt..Display$GT$3fmt17h4e5f91909ed882afE', symObjAddr: 0x3CDC, symBinAddr: 0x729D0, symSize: 0x20 }
  - { offset: 0x105341, size: 0x8, addend: 0x0, symName: '__ZN70_$LT$core..num..error..ParseIntError$u20$as$u20$core..fmt..Display$GT$3fmt17hc8734ac50ddb8d25E', symObjAddr: 0x3CFC, symBinAddr: 0x729F0, symSize: 0x34 }
  - { offset: 0x10538E, size: 0x8, addend: 0x0, symName: __ZN4core3num9int_log1030panic_for_nonpositive_argument17hd38cc7d980abc5d4E, symObjAddr: 0x3D30, symBinAddr: 0x8CFB8, symSize: 0x34 }
  - { offset: 0x105406, size: 0x8, addend: 0x0, symName: __ZN4core3num8int_sqrt27panic_for_negative_argument17hc0b794cddbe6a3e0E, symObjAddr: 0x3D64, symBinAddr: 0x8CFEC, symSize: 0x34 }
  - { offset: 0x10543F, size: 0x8, addend: 0x0, symName: __ZN4core3num14overflow_panic3add17h280a7880e4c9e956E, symObjAddr: 0x3D98, symBinAddr: 0x8D020, symSize: 0x34 }
  - { offset: 0x10546F, size: 0x8, addend: 0x0, symName: __ZN4core3num14overflow_panic3sub17h1c989addc207bcc5E, symObjAddr: 0x3DCC, symBinAddr: 0x8D054, symSize: 0x34 }
  - { offset: 0x10549F, size: 0x8, addend: 0x0, symName: __ZN4core3num14overflow_panic3mul17ha1eece26400c9f59E, symObjAddr: 0x3E00, symBinAddr: 0x8D088, symSize: 0x34 }
  - { offset: 0x1054CF, size: 0x8, addend: 0x0, symName: __ZN4core3num14overflow_panic3div17h0fc996e423bc41f0E, symObjAddr: 0x3E34, symBinAddr: 0x8D0BC, symSize: 0x34 }
  - { offset: 0x1054FF, size: 0x8, addend: 0x0, symName: __ZN4core3num14overflow_panic3rem17he430b8109c6755e9E, symObjAddr: 0x3E68, symBinAddr: 0x8D0F0, symSize: 0x34 }
  - { offset: 0x10552F, size: 0x8, addend: 0x0, symName: __ZN4core3num14overflow_panic3neg17h03f32509ed5e1d06E, symObjAddr: 0x3E9C, symBinAddr: 0x8D124, symSize: 0x34 }
  - { offset: 0x10555F, size: 0x8, addend: 0x0, symName: __ZN4core3num14overflow_panic3shr17he7402e54d8eb5a5dE, symObjAddr: 0x3ED0, symBinAddr: 0x8D158, symSize: 0x34 }
  - { offset: 0x10558F, size: 0x8, addend: 0x0, symName: __ZN4core3num14overflow_panic3shl17h12e2ec3dda2af7fbE, symObjAddr: 0x3F04, symBinAddr: 0x8D18C, symSize: 0x34 }
  - { offset: 0x1055D9, size: 0x8, addend: 0x0, symName: __ZN4core3num22from_ascii_radix_panic8do_panic7runtime17hff4ab0dc658044f3E, symObjAddr: 0x16D98, symBinAddr: 0x8D92C, symSize: 0x44 }
  - { offset: 0x10560D, size: 0x8, addend: 0x0, symName: __ZN4core3num22from_ascii_radix_panic17h60399637aa49859eE, symObjAddr: 0x3F38, symBinAddr: 0x8D1C0, symSize: 0xC }
  - { offset: 0x1056DD, size: 0x8, addend: 0x0, symName: '__ZN73_$LT$core..num..nonzero..NonZero$LT$T$GT$$u20$as$u20$core..fmt..Debug$GT$3fmt17hd4b198d8f591cc5cE', symObjAddr: 0x151B4, symBinAddr: 0x83534, symSize: 0xE0 }
  - { offset: 0x10581F, size: 0x8, addend: 0x0, symName: '__ZN84_$LT$core..num..nonzero..NonZero$LT$u8$GT$$u20$as$u20$core..str..traits..FromStr$GT$8from_str17h4749bf0b4fc7c7d0E', symObjAddr: 0x15294, symBinAddr: 0x83614, symSize: 0x108 }
  - { offset: 0x1058FD, size: 0x8, addend: 0x0, symName: '__ZN85_$LT$core..num..nonzero..NonZero$LT$u16$GT$$u20$as$u20$core..str..traits..FromStr$GT$8from_str17hc0a98a05134af5c3E', symObjAddr: 0x1539C, symBinAddr: 0x8371C, symSize: 0x108 }
  - { offset: 0x1059EB, size: 0x8, addend: 0x0, symName: '__ZN85_$LT$core..num..nonzero..NonZero$LT$u32$GT$$u20$as$u20$core..str..traits..FromStr$GT$8from_str17h94334dc08398d3f4E', symObjAddr: 0x154A4, symBinAddr: 0x83824, symSize: 0x138 }
  - { offset: 0x105AED, size: 0x8, addend: 0x0, symName: '__ZN85_$LT$core..num..nonzero..NonZero$LT$u64$GT$$u20$as$u20$core..str..traits..FromStr$GT$8from_str17hbb833a6300a639cfE', symObjAddr: 0x155DC, symBinAddr: 0x8395C, symSize: 0xFC }
  - { offset: 0x105BE1, size: 0x8, addend: 0x0, symName: '__ZN86_$LT$core..num..nonzero..NonZero$LT$u128$GT$$u20$as$u20$core..str..traits..FromStr$GT$8from_str17ha751e390cc94d594E', symObjAddr: 0x156D8, symBinAddr: 0x83A58, symSize: 0x130 }
  - { offset: 0x105CDD, size: 0x8, addend: 0x0, symName: '__ZN84_$LT$core..num..nonzero..NonZero$LT$i8$GT$$u20$as$u20$core..str..traits..FromStr$GT$8from_str17h7748e14ea62aa128E', symObjAddr: 0x15808, symBinAddr: 0x83B88, symSize: 0x1D8 }
  - { offset: 0x105E51, size: 0x8, addend: 0x0, symName: '__ZN85_$LT$core..num..nonzero..NonZero$LT$i16$GT$$u20$as$u20$core..str..traits..FromStr$GT$8from_str17h3b350c9bf58c1cc4E', symObjAddr: 0x159E0, symBinAddr: 0x83D60, symSize: 0x1FC }
  - { offset: 0x105FC7, size: 0x8, addend: 0x0, symName: '__ZN85_$LT$core..num..nonzero..NonZero$LT$i32$GT$$u20$as$u20$core..str..traits..FromStr$GT$8from_str17h2fd87516b9daaaabE', symObjAddr: 0x15BDC, symBinAddr: 0x83F5C, symSize: 0x1E8 }
  - { offset: 0x10612E, size: 0x8, addend: 0x0, symName: '__ZN85_$LT$core..num..nonzero..NonZero$LT$i64$GT$$u20$as$u20$core..str..traits..FromStr$GT$8from_str17h33e88a8cda7885cbE', symObjAddr: 0x15DC4, symBinAddr: 0x84144, symSize: 0x1AC }
  - { offset: 0x1062A3, size: 0x8, addend: 0x0, symName: '__ZN86_$LT$core..num..nonzero..NonZero$LT$i128$GT$$u20$as$u20$core..str..traits..FromStr$GT$8from_str17h958e6b1fc494153aE', symObjAddr: 0x15F70, symBinAddr: 0x842F0, symSize: 0x22C }
  - { offset: 0x106AE7, size: 0x8, addend: 0x0, symName: '__ZN72_$LT$core..num..niche_types..Nanoseconds$u20$as$u20$core..fmt..Debug$GT$3fmt17h139d057c2e5abc23E', symObjAddr: 0x1619C, symBinAddr: 0x8451C, symSize: 0xE0 }
  - { offset: 0x106C29, size: 0x8, addend: 0x0, symName: '__ZN75_$LT$core..num..niche_types..NonZeroU8Inner$u20$as$u20$core..fmt..Debug$GT$3fmt17he4c02b2e3e6b493dE', symObjAddr: 0x1627C, symBinAddr: 0x845FC, symSize: 0x14 }
  - { offset: 0x106C4A, size: 0x8, addend: 0x0, symName: '__ZN76_$LT$core..num..niche_types..NonZeroU16Inner$u20$as$u20$core..fmt..Debug$GT$3fmt17h1200d5a77b43655dE', symObjAddr: 0x16290, symBinAddr: 0x84610, symSize: 0xE0 }
  - { offset: 0x106D7C, size: 0x8, addend: 0x0, symName: '__ZN76_$LT$core..num..niche_types..NonZeroU32Inner$u20$as$u20$core..fmt..Debug$GT$3fmt17hfdc3a4c111cb050bE', symObjAddr: 0x16370, symBinAddr: 0x846F0, symSize: 0xE0 }
  - { offset: 0x106EBE, size: 0x8, addend: 0x0, symName: '__ZN76_$LT$core..num..niche_types..NonZeroU64Inner$u20$as$u20$core..fmt..Debug$GT$3fmt17h42ff604d4057d40fE', symObjAddr: 0x16450, symBinAddr: 0x847D0, symSize: 0xE0 }
  - { offset: 0x107000, size: 0x8, addend: 0x0, symName: '__ZN77_$LT$core..num..niche_types..NonZeroU128Inner$u20$as$u20$core..fmt..Debug$GT$3fmt17haa3d1cfd078d3156E', symObjAddr: 0x16530, symBinAddr: 0x848B0, symSize: 0x18 }
  - { offset: 0x107021, size: 0x8, addend: 0x0, symName: '__ZN75_$LT$core..num..niche_types..NonZeroI8Inner$u20$as$u20$core..fmt..Debug$GT$3fmt17h9b629906045dd5c4E', symObjAddr: 0x16548, symBinAddr: 0x848C8, symSize: 0x14 }
  - { offset: 0x107042, size: 0x8, addend: 0x0, symName: '__ZN76_$LT$core..num..niche_types..NonZeroI16Inner$u20$as$u20$core..fmt..Debug$GT$3fmt17hc21bae548f8527e6E', symObjAddr: 0x1655C, symBinAddr: 0x848DC, symSize: 0xEC }
  - { offset: 0x1071A1, size: 0x8, addend: 0x0, symName: '__ZN76_$LT$core..num..niche_types..NonZeroI32Inner$u20$as$u20$core..fmt..Debug$GT$3fmt17had77e6b2c36e002cE', symObjAddr: 0x16648, symBinAddr: 0x849C8, symSize: 0xF0 }
  - { offset: 0x107310, size: 0x8, addend: 0x0, symName: '__ZN76_$LT$core..num..niche_types..NonZeroI64Inner$u20$as$u20$core..fmt..Debug$GT$3fmt17h17ed48fb3d18b6d0E', symObjAddr: 0x16738, symBinAddr: 0x84AB8, symSize: 0xEC }
  - { offset: 0x10747F, size: 0x8, addend: 0x0, symName: '__ZN77_$LT$core..num..niche_types..NonZeroI128Inner$u20$as$u20$core..fmt..Debug$GT$3fmt17h22fa73d38b1caddaE', symObjAddr: 0x16824, symBinAddr: 0x84BA4, symSize: 0x18 }
  - { offset: 0x1074A0, size: 0x8, addend: 0x0, symName: '__ZN75_$LT$core..num..niche_types..UsizeNoHighBit$u20$as$u20$core..fmt..Debug$GT$3fmt17h6315545c3a3bb75cE', symObjAddr: 0x1683C, symBinAddr: 0x84BBC, symSize: 0xE0 }
  - { offset: 0x1075E2, size: 0x8, addend: 0x0, symName: '__ZN78_$LT$core..num..niche_types..NonZeroUsizeInner$u20$as$u20$core..fmt..Debug$GT$3fmt17hf5bb0a874552c86bE', symObjAddr: 0x1691C, symBinAddr: 0x84C9C, symSize: 0xE0 }
  - { offset: 0x107724, size: 0x8, addend: 0x0, symName: '__ZN74_$LT$core..num..niche_types..U32NotAllOnes$u20$as$u20$core..fmt..Debug$GT$3fmt17h6c4f34c4e7a0eadcE', symObjAddr: 0x169FC, symBinAddr: 0x84D7C, symSize: 0xE0 }
  - { offset: 0x107866, size: 0x8, addend: 0x0, symName: '__ZN74_$LT$core..num..niche_types..I32NotAllOnes$u20$as$u20$core..fmt..Debug$GT$3fmt17h0481e0b203bb121bE', symObjAddr: 0x16ADC, symBinAddr: 0x84E5C, symSize: 0xF0 }
  - { offset: 0x1079D5, size: 0x8, addend: 0x0, symName: '__ZN74_$LT$core..num..niche_types..U64NotAllOnes$u20$as$u20$core..fmt..Debug$GT$3fmt17h005fabf253e646fbE', symObjAddr: 0x16BCC, symBinAddr: 0x84F4C, symSize: 0xE0 }
  - { offset: 0x107B17, size: 0x8, addend: 0x0, symName: '__ZN74_$LT$core..num..niche_types..I64NotAllOnes$u20$as$u20$core..fmt..Debug$GT$3fmt17h70a7f70c117fde02E', symObjAddr: 0x16CAC, symBinAddr: 0x8502C, symSize: 0xEC }
  - { offset: 0x1094A1, size: 0x8, addend: 0x0, symName: __ZN4core5slice5index26slice_start_index_len_fail8do_panic7runtime17hff64aa9bbc5c0294E, symObjAddr: 0x1B020, symBinAddr: 0x8DECC, symSize: 0x50 }
  - { offset: 0x1094D5, size: 0x8, addend: 0x0, symName: __ZN4core5slice5index26slice_start_index_len_fail17h9fb2100af9ea2ddcE, symObjAddr: 0xE780, symBinAddr: 0x8D774, symSize: 0xC }
  - { offset: 0x10951E, size: 0x8, addend: 0x0, symName: __ZN4core5slice5index24slice_end_index_len_fail8do_panic7runtime17hcd924e9d490ae75dE, symObjAddr: 0x1B070, symBinAddr: 0x8DF1C, symSize: 0x50 }
  - { offset: 0x109552, size: 0x8, addend: 0x0, symName: __ZN4core5slice5index24slice_end_index_len_fail17h1670da6428bf6177E, symObjAddr: 0xE78C, symBinAddr: 0x8D780, symSize: 0xC }
  - { offset: 0x10959B, size: 0x8, addend: 0x0, symName: __ZN4core5slice5index22slice_index_order_fail8do_panic7runtime17h503b840d64b43c25E, symObjAddr: 0x1B0C0, symBinAddr: 0x8DF6C, symSize: 0x50 }
  - { offset: 0x1095CF, size: 0x8, addend: 0x0, symName: __ZN4core5slice5index22slice_index_order_fail17h493032d595a0258eE, symObjAddr: 0xE798, symBinAddr: 0x8D78C, symSize: 0xC }
  - { offset: 0x1095FF, size: 0x8, addend: 0x0, symName: __ZN4core5slice5index31slice_start_index_overflow_fail17h2ec8be9c55ef8859E, symObjAddr: 0xE7A4, symBinAddr: 0x8D798, symSize: 0x34 }
  - { offset: 0x10962F, size: 0x8, addend: 0x0, symName: __ZN4core5slice5index29slice_end_index_overflow_fail17hf0cec553685db6bdE, symObjAddr: 0xE7D8, symBinAddr: 0x8D7CC, symSize: 0x34 }
  - { offset: 0x10965F, size: 0x8, addend: 0x0, symName: __ZN4core5slice5index10into_range17h7ba940ee0d7900c6E, symObjAddr: 0xE80C, symBinAddr: 0x7CCB8, symSize: 0x68 }
  - { offset: 0x1096E9, size: 0x8, addend: 0x0, symName: __ZN4core5slice5index16into_slice_range17hada9df669087c2e3E, symObjAddr: 0xE874, symBinAddr: 0x7CD20, symSize: 0x70 }
  - { offset: 0x109DD0, size: 0x8, addend: 0x0, symName: '__ZN4core5slice29_$LT$impl$u20$$u5b$T$u5d$$GT$15copy_from_slice17len_mismatch_fail8do_panic7runtime17he234f04130707d00E', symObjAddr: 0x1B110, symBinAddr: 0x8DFBC, symSize: 0x54 }
  - { offset: 0x109E04, size: 0x8, addend: 0x0, symName: '__ZN4core5slice29_$LT$impl$u20$$u5b$T$u5d$$GT$15copy_from_slice17len_mismatch_fail17hbbc443d1b80848e3E', symObjAddr: 0xE8E4, symBinAddr: 0x8D800, symSize: 0x18 }
  - { offset: 0x109E3C, size: 0x8, addend: 0x0, symName: '__ZN4core5slice29_$LT$impl$u20$$u5b$T$u5d$$GT$16align_to_offsets3gcd17h4fde4fb0193eeaa0E', symObjAddr: 0xE8FC, symBinAddr: 0x7CD90, symSize: 0x34 }
  - { offset: 0x10A24F, size: 0x8, addend: 0x0, symName: '__ZN105_$LT$core..slice..ascii..EscapeAscii$u20$as$u20$core..iter..traits..double_ended..DoubleEndedIterator$GT$9next_back17haac75b25e1756ec1E', symObjAddr: 0xE340, symBinAddr: 0x7C878, symSize: 0x15C }
  - { offset: 0x10A56D, size: 0x8, addend: 0x0, symName: '__ZN70_$LT$core..slice..ascii..EscapeAscii$u20$as$u20$core..fmt..Display$GT$3fmt17hc0a670d29a74b1e7E', symObjAddr: 0xE49C, symBinAddr: 0x7C9D4, symSize: 0x278 }
  - { offset: 0x10AA7C, size: 0x8, addend: 0x0, symName: '__ZN68_$LT$core..slice..ascii..EscapeAscii$u20$as$u20$core..fmt..Debug$GT$3fmt17hde6ef2776c8d4f83E', symObjAddr: 0xE714, symBinAddr: 0x7CC4C, symSize: 0x6C }
  - { offset: 0x10AB82, size: 0x8, addend: 0x0, symName: __ZN4core5slice6memchr14memchr_aligned17hfb3e419572d0e5a5E, symObjAddr: 0xE0C8, symBinAddr: 0x7C638, symSize: 0xE8 }
  - { offset: 0x10AC67, size: 0x8, addend: 0x0, symName: __ZN4core5slice6memchr7memrchr17hdb66d164d06c6f89E, symObjAddr: 0xE1B0, symBinAddr: 0x7C720, symSize: 0x120 }
  - { offset: 0x10ADF8, size: 0x8, addend: 0x0, symName: __ZN4core5slice4sort6stable5drift11sqrt_approx17h9190c5797b9b5ae1E, symObjAddr: 0xE2D0, symBinAddr: 0x7C840, symSize: 0x38 }
  - { offset: 0x10AE7B, size: 0x8, addend: 0x0, symName: __ZN4core5slice4sort6shared9smallsort22panic_on_ord_violation17hfa92245319cd16b2E, symObjAddr: 0xE308, symBinAddr: 0x8D73C, symSize: 0x38 }
  - { offset: 0x10AEB6, size: 0x8, addend: 0x0, symName: '__ZN71_$LT$core..slice..GetDisjointMutError$u20$as$u20$core..fmt..Display$GT$3fmt17hce2b0fbf8bce308aE', symObjAddr: 0xE930, symBinAddr: 0x7CDC4, symSize: 0x48 }
  - { offset: 0x10B381, size: 0x8, addend: 0x0, symName: __ZN4core10intrinsics3mir11PtrMetadata19panic_cold_explicit17h4fd6ab7961fa4c06E, symObjAddr: 0x16DDC, symBinAddr: 0x8D970, symSize: 0xC }
  - { offset: 0x10B56D, size: 0x8, addend: 0x0, symName: '__ZN68_$LT$core..ptr..alignment..Alignment$u20$as$u20$core..fmt..Debug$GT$3fmt17h5076887ca496d549E', symObjAddr: 0x3F5C, symBinAddr: 0x72A3C, symSize: 0x78 }
  - { offset: 0x10B7ED, size: 0x8, addend: 0x0, symName: '__ZN42_$LT$str$u20$as$u20$core..fmt..Display$GT$3fmt17h0bd902c453d7d278E', symObjAddr: 0xDD8C, symBinAddr: 0x7C2FC, symSize: 0x20 }
  - { offset: 0x10BE49, size: 0x8, addend: 0x0, symName: __ZN4core3fmt9Formatter12pad_integral17h1955b1e82d1daa05E, symObjAddr: 0xB650, symBinAddr: 0x79BC0, symSize: 0x3B4 }
  - { offset: 0x10C16F, size: 0x8, addend: 0x0, symName: __ZN4core3fmt9Formatter3pad17he4271ca7d923f182E, symObjAddr: 0xBA80, symBinAddr: 0x79FF0, symSize: 0x304 }
  - { offset: 0x10C4E8, size: 0x8, addend: 0x0, symName: __ZN4core3fmt9Formatter19pad_formatted_parts17h430a514de01e6f32E, symObjAddr: 0xBD84, symBinAddr: 0x7A2F4, symSize: 0x218 }
  - { offset: 0x10C70F, size: 0x8, addend: 0x0, symName: __ZN4core3fmt9Formatter21write_formatted_parts17h2ca5690fbca92353E, symObjAddr: 0xBF9C, symBinAddr: 0x7A50C, symSize: 0x23C }
  - { offset: 0x10C7FD, size: 0x8, addend: 0x0, symName: __ZN4core3fmt9Formatter9write_str17hea5e4aea72d95388E, symObjAddr: 0xC1D8, symBinAddr: 0x7A748, symSize: 0x1C }
  - { offset: 0x10C811, size: 0x8, addend: 0x0, symName: __ZN4core3fmt9Formatter4fill17he038e4df03d44ff6E, symObjAddr: 0xC1F4, symBinAddr: 0x7A764, symSize: 0x18 }
  - { offset: 0x10C83C, size: 0x8, addend: 0x0, symName: __ZN4core3fmt9Formatter12debug_struct17h9a63c134237f9530E, symObjAddr: 0xC20C, symBinAddr: 0x7A77C, symSize: 0x3C }
  - { offset: 0x10C87D, size: 0x8, addend: 0x0, symName: __ZN4core3fmt9Formatter26debug_struct_field1_finish17h135cdad1c83ddf97E, symObjAddr: 0xC248, symBinAddr: 0x7A7B8, symSize: 0xD0 }
  - { offset: 0x10C95C, size: 0x8, addend: 0x0, symName: __ZN4core3fmt9Formatter26debug_struct_field2_finish17h701587f2f2f3c6fcE, symObjAddr: 0xC318, symBinAddr: 0x7A888, symSize: 0x104 }
  - { offset: 0x10CA3B, size: 0x8, addend: 0x0, symName: __ZN4core3fmt9Formatter26debug_struct_field3_finish17h4965c0bb9d12e2ddE, symObjAddr: 0xC41C, symBinAddr: 0x7A98C, symSize: 0x12C }
  - { offset: 0x10CB1A, size: 0x8, addend: 0x0, symName: __ZN4core3fmt9Formatter26debug_struct_field4_finish17h9e00542722e3ba01E, symObjAddr: 0xC548, symBinAddr: 0x7AAB8, symSize: 0x15C }
  - { offset: 0x10CBF9, size: 0x8, addend: 0x0, symName: __ZN4core3fmt9Formatter26debug_struct_field5_finish17h5a932cd664d174a7E, symObjAddr: 0xC6A4, symBinAddr: 0x7AC14, symSize: 0x180 }
  - { offset: 0x10CCD8, size: 0x8, addend: 0x0, symName: __ZN4core3fmt9Formatter26debug_struct_fields_finish17hfe2aa585506e705aE, symObjAddr: 0xC824, symBinAddr: 0x7AD94, symSize: 0x108 }
  - { offset: 0x10CDD4, size: 0x8, addend: 0x0, symName: __ZN4core3fmt9Formatter11debug_tuple17h27fddbae94269e71E, symObjAddr: 0xC92C, symBinAddr: 0x7AE9C, symSize: 0x50 }
  - { offset: 0x10CE2B, size: 0x8, addend: 0x0, symName: __ZN4core3fmt9Formatter25debug_tuple_field1_finish17hd7322326edcf9548E, symObjAddr: 0xC97C, symBinAddr: 0x7AEEC, symSize: 0x160 }
  - { offset: 0x10D046, size: 0x8, addend: 0x0, symName: __ZN4core3fmt9Formatter25debug_tuple_field2_finish17h3d058d81494f8d85E, symObjAddr: 0xCADC, symBinAddr: 0x7B04C, symSize: 0x1D8 }
  - { offset: 0x10D364, size: 0x8, addend: 0x0, symName: __ZN4core3fmt9Formatter25debug_tuple_field3_finish17h836a291bc1f30545E, symObjAddr: 0xCCB4, symBinAddr: 0x7B224, symSize: 0x284 }
  - { offset: 0x10D7B1, size: 0x8, addend: 0x0, symName: __ZN4core3fmt9Formatter25debug_tuple_field4_finish17hd7828b4baf04a04fE, symObjAddr: 0xCF38, symBinAddr: 0x7B4A8, symSize: 0x324 }
  - { offset: 0x10DD2D, size: 0x8, addend: 0x0, symName: __ZN4core3fmt9Formatter25debug_tuple_field5_finish17hd35dd1fb5c96f79aE, symObjAddr: 0xD25C, symBinAddr: 0x7B7CC, symSize: 0x3C4 }
  - { offset: 0x10E3D8, size: 0x8, addend: 0x0, symName: __ZN4core3fmt9Formatter25debug_tuple_fields_finish17h33038b870f6cb225E, symObjAddr: 0xD620, symBinAddr: 0x7BB90, symSize: 0x270 }
  - { offset: 0x10E5E5, size: 0x8, addend: 0x0, symName: __ZN4core3fmt9Formatter10debug_list17hc4c814856a8b24d3E, symObjAddr: 0xD890, symBinAddr: 0x7BE00, symSize: 0x48 }
  - { offset: 0x10E627, size: 0x8, addend: 0x0, symName: __ZN4core3fmt9Formatter9debug_set17hd5828b06492b7713E, symObjAddr: 0xD8D8, symBinAddr: 0x7BE48, symSize: 0x48 }
  - { offset: 0x10E670, size: 0x8, addend: 0x0, symName: __ZN4core3fmt9Formatter9debug_map17h4d47ef27799c380dE, symObjAddr: 0xD920, symBinAddr: 0x7BE90, symSize: 0x58 }
  - { offset: 0x10E848, size: 0x8, addend: 0x0, symName: __ZN4core3fmt8builders11DebugStruct5field17hfc5fd16f9260f2beE, symObjAddr: 0x837C, symBinAddr: 0x768EC, symSize: 0x1B4 }
  - { offset: 0x10EA60, size: 0x8, addend: 0x0, symName: __ZN4core3fmt8builders11DebugStruct21finish_non_exhaustive17haee69564b2f01246E, symObjAddr: 0x8530, symBinAddr: 0x76AA0, symSize: 0xC4 }
  - { offset: 0x10EB7C, size: 0x8, addend: 0x0, symName: __ZN4core3fmt8builders11DebugStruct6finish17h8aaf42642976509aE, symObjAddr: 0x85F4, symBinAddr: 0x76B64, symSize: 0x80 }
  - { offset: 0x10EC8A, size: 0x8, addend: 0x0, symName: __ZN4core3fmt8builders10PadAdapter4wrap17h51161ce3d563f6c8E, symObjAddr: 0x8074, symBinAddr: 0x765E4, symSize: 0x30 }
  - { offset: 0x10ECF5, size: 0x8, addend: 0x0, symName: '__ZN68_$LT$core..fmt..builders..PadAdapter$u20$as$u20$core..fmt..Write$GT$9write_str17h46af221c48ba6033E', symObjAddr: 0x80A4, symBinAddr: 0x76614, symSize: 0x258 }
  - { offset: 0x10EFC1, size: 0x8, addend: 0x0, symName: '__ZN68_$LT$core..fmt..builders..PadAdapter$u20$as$u20$core..fmt..Write$GT$10write_char17h4e95e4b40803d23eE', symObjAddr: 0x82FC, symBinAddr: 0x7686C, symSize: 0x80 }
  - { offset: 0x10F097, size: 0x8, addend: 0x0, symName: __ZN4core3fmt8builders10DebugTuple5field17he1b12048b0e842e7E, symObjAddr: 0x8674, symBinAddr: 0x76BE4, symSize: 0x148 }
  - { offset: 0x10F226, size: 0x8, addend: 0x0, symName: __ZN4core3fmt8builders10DebugTuple21finish_non_exhaustive17hcb225dfef7678551E, symObjAddr: 0x87BC, symBinAddr: 0x76D2C, symSize: 0xC0 }
  - { offset: 0x10F367, size: 0x8, addend: 0x0, symName: __ZN4core3fmt8builders10DebugTuple6finish17ha01f9364bacc331bE, symObjAddr: 0x887C, symBinAddr: 0x76DEC, symSize: 0xB0 }
  - { offset: 0x10F521, size: 0x8, addend: 0x0, symName: __ZN4core3fmt8builders8DebugSet5entry17h6a3b1dc697926dceE, symObjAddr: 0x892C, symBinAddr: 0x76E9C, symSize: 0x148 }
  - { offset: 0x10F6B7, size: 0x8, addend: 0x0, symName: __ZN4core3fmt8builders8DebugSet21finish_non_exhaustive17h0a1ddb6ae883ec9bE, symObjAddr: 0x8A74, symBinAddr: 0x76FE4, symSize: 0xC4 }
  - { offset: 0x10F7E2, size: 0x8, addend: 0x0, symName: __ZN4core3fmt8builders8DebugSet6finish17h351c8d6743cae3e9E, symObjAddr: 0x8B38, symBinAddr: 0x770A8, symSize: 0x4C }
  - { offset: 0x10F887, size: 0x8, addend: 0x0, symName: __ZN4core3fmt8builders9DebugList21finish_non_exhaustive17h7903e96280878fedE, symObjAddr: 0x8B84, symBinAddr: 0x770F4, symSize: 0xC8 }
  - { offset: 0x10F9BA, size: 0x8, addend: 0x0, symName: __ZN4core3fmt8builders9DebugList6finish17hc432fd4f2183da47E, symObjAddr: 0x8C4C, symBinAddr: 0x771BC, symSize: 0x4C }
  - { offset: 0x10FA66, size: 0x8, addend: 0x0, symName: __ZN4core3fmt8builders8DebugMap5entry17h77bedc8b4e1f8444E, symObjAddr: 0x8C98, symBinAddr: 0x77208, symSize: 0x110 }
  - { offset: 0x10FBE3, size: 0x8, addend: 0x0, symName: __ZN4core3fmt8builders8DebugMap3key17h528e8e69d361edf3E, symObjAddr: 0x8DA8, symBinAddr: 0x77318, symSize: 0x1C8 }
  - { offset: 0x10FDB1, size: 0x8, addend: 0x0, symName: __ZN4core3fmt8builders8DebugMap5value17hb126bb1617d24fb8E, symObjAddr: 0x8F70, symBinAddr: 0x774E0, symSize: 0x108 }
  - { offset: 0x10FEFC, size: 0x8, addend: 0x0, symName: __ZN4core3fmt8builders8DebugMap21finish_non_exhaustive17h92b31350a5e749d4E, symObjAddr: 0x9078, symBinAddr: 0x775E8, symSize: 0xF8 }
  - { offset: 0x11003D, size: 0x8, addend: 0x0, symName: __ZN4core3fmt8builders8DebugMap6finish17hd8fb3ff51b400a31E, symObjAddr: 0x9170, symBinAddr: 0x776E0, symSize: 0x88 }
  - { offset: 0x11017B, size: 0x8, addend: 0x0, symName: '__ZN4core3fmt3num52_$LT$impl$u20$core..fmt..Debug$u20$for$u20$usize$GT$3fmt17h23bbb297e5573e03E', symObjAddr: 0x19698, symBinAddr: 0x87478, symSize: 0xE8 }
  - { offset: 0x1102C8, size: 0x8, addend: 0x0, symName: '__ZN4core3fmt3num3imp52_$LT$impl$u20$core..fmt..Display$u20$for$u20$u32$GT$3fmt17hf099570a0cae1199E', symObjAddr: 0x19A54, symBinAddr: 0x87834, symSize: 0x1C }
  - { offset: 0x1102F0, size: 0x8, addend: 0x0, symName: '__ZN4core3fmt3num3imp52_$LT$impl$u20$core..fmt..Display$u20$for$u20$u16$GT$3fmt17h8c5debd30a627b43E', symObjAddr: 0x19900, symBinAddr: 0x876E0, symSize: 0x1C }
  - { offset: 0x110318, size: 0x8, addend: 0x0, symName: '__ZN4core3fmt3num3imp52_$LT$impl$u20$core..fmt..Display$u20$for$u20$u64$GT$3fmt17h7aae346d0a4502bcE', symObjAddr: 0x19BBC, symBinAddr: 0x8799C, symSize: 0x1C }
  - { offset: 0x110340, size: 0x8, addend: 0x0, symName: '__ZN4core3fmt3num3imp52_$LT$impl$u20$core..fmt..Display$u20$for$u20$i16$GT$3fmt17h78c014fbaba4a055E', symObjAddr: 0x1991C, symBinAddr: 0x876FC, symSize: 0x2C }
  - { offset: 0x110395, size: 0x8, addend: 0x0, symName: '__ZN4core3fmt3num3imp52_$LT$impl$u20$core..fmt..Display$u20$for$u20$i32$GT$3fmt17h86f7c39781cb07dbE', symObjAddr: 0x19A70, symBinAddr: 0x87850, symSize: 0x28 }
  - { offset: 0x1103EA, size: 0x8, addend: 0x0, symName: '__ZN4core3fmt3num3imp52_$LT$impl$u20$core..fmt..Display$u20$for$u20$i64$GT$3fmt17hdeaa36585498e127E', symObjAddr: 0x19BD8, symBinAddr: 0x879B8, symSize: 0x28 }
  - { offset: 0x11043F, size: 0x8, addend: 0x0, symName: '__ZN4core3fmt3num3imp51_$LT$impl$u20$core..fmt..Display$u20$for$u20$i8$GT$3fmt17h368ae7667c41ecd8E', symObjAddr: 0x19830, symBinAddr: 0x87610, symSize: 0xD0 }
  - { offset: 0x110543, size: 0x8, addend: 0x0, symName: '__ZN4core3fmt3num3imp51_$LT$impl$u20$core..fmt..Display$u20$for$u20$u8$GT$3fmt17h8bfd78474a247d31E', symObjAddr: 0x19780, symBinAddr: 0x87560, symSize: 0xB0 }
  - { offset: 0x110612, size: 0x8, addend: 0x0, symName: '__ZN4core3fmt3num3imp21_$LT$impl$u20$u16$GT$4_fmt17h08de2af7678f4e72E', symObjAddr: 0x19948, symBinAddr: 0x87728, symSize: 0x10C }
  - { offset: 0x1106DD, size: 0x8, addend: 0x0, symName: '__ZN4core3fmt3num3imp21_$LT$impl$u20$u32$GT$4_fmt17h98235dff08f101fbE', symObjAddr: 0x19A98, symBinAddr: 0x87878, symSize: 0x124 }
  - { offset: 0x1107C8, size: 0x8, addend: 0x0, symName: '__ZN4core3fmt3num3imp21_$LT$impl$u20$u64$GT$4_fmt17h7010a5740408aca2E', symObjAddr: 0x19C00, symBinAddr: 0x879E0, symSize: 0x130 }
  - { offset: 0x1108AD, size: 0x8, addend: 0x0, symName: __ZN4core3fmt3num3imp7exp_u6417hc66e1999f966b544E, symObjAddr: 0x19D30, symBinAddr: 0x87B10, symSize: 0x488 }
  - { offset: 0x110AA0, size: 0x8, addend: 0x0, symName: '__ZN4core3fmt3num3imp52_$LT$impl$u20$core..fmt..LowerExp$u20$for$u20$i8$GT$3fmt17hb1d3b780693c3a8dE', symObjAddr: 0x1A1B8, symBinAddr: 0x87F98, symSize: 0x2C }
  - { offset: 0x110AC2, size: 0x8, addend: 0x0, symName: '__ZN4core3fmt3num3imp52_$LT$impl$u20$core..fmt..LowerExp$u20$for$u20$u8$GT$3fmt17h3c8da92fc6087f47E', symObjAddr: 0x1A1E4, symBinAddr: 0x87FC4, symSize: 0x20 }
  - { offset: 0x110AE4, size: 0x8, addend: 0x0, symName: '__ZN4core3fmt3num3imp53_$LT$impl$u20$core..fmt..LowerExp$u20$for$u20$i16$GT$3fmt17hd3fb04b87cc2a684E', symObjAddr: 0x1A204, symBinAddr: 0x87FE4, symSize: 0x2C }
  - { offset: 0x110B06, size: 0x8, addend: 0x0, symName: '__ZN4core3fmt3num3imp53_$LT$impl$u20$core..fmt..LowerExp$u20$for$u20$u16$GT$3fmt17h13dce66caf61b14aE', symObjAddr: 0x1A230, symBinAddr: 0x88010, symSize: 0x20 }
  - { offset: 0x110B28, size: 0x8, addend: 0x0, symName: '__ZN4core3fmt3num3imp53_$LT$impl$u20$core..fmt..LowerExp$u20$for$u20$i32$GT$3fmt17hd60856449a3e772dE', symObjAddr: 0x1A250, symBinAddr: 0x88030, symSize: 0x2C }
  - { offset: 0x110B4A, size: 0x8, addend: 0x0, symName: '__ZN4core3fmt3num3imp53_$LT$impl$u20$core..fmt..LowerExp$u20$for$u20$u32$GT$3fmt17h692d9a6944d85576E', symObjAddr: 0x1A27C, symBinAddr: 0x8805C, symSize: 0x20 }
  - { offset: 0x110B6C, size: 0x8, addend: 0x0, symName: '__ZN4core3fmt3num3imp53_$LT$impl$u20$core..fmt..LowerExp$u20$for$u20$i64$GT$3fmt17hc600ce7a2d4ba7cfE', symObjAddr: 0x1A29C, symBinAddr: 0x8807C, symSize: 0x2C }
  - { offset: 0x110B8E, size: 0x8, addend: 0x0, symName: '__ZN4core3fmt3num3imp53_$LT$impl$u20$core..fmt..LowerExp$u20$for$u20$u64$GT$3fmt17h848eab853abc0a7fE', symObjAddr: 0x1A2C8, symBinAddr: 0x880A8, symSize: 0x20 }
  - { offset: 0x110BB0, size: 0x8, addend: 0x0, symName: '__ZN4core3fmt3num3imp52_$LT$impl$u20$core..fmt..UpperExp$u20$for$u20$i8$GT$3fmt17h331b13e0b0d1babeE', symObjAddr: 0x1A2E8, symBinAddr: 0x880C8, symSize: 0x2C }
  - { offset: 0x110BD2, size: 0x8, addend: 0x0, symName: '__ZN4core3fmt3num3imp52_$LT$impl$u20$core..fmt..UpperExp$u20$for$u20$u8$GT$3fmt17hb08542da20592600E', symObjAddr: 0x1A314, symBinAddr: 0x880F4, symSize: 0x20 }
  - { offset: 0x110BF4, size: 0x8, addend: 0x0, symName: '__ZN4core3fmt3num3imp53_$LT$impl$u20$core..fmt..UpperExp$u20$for$u20$i16$GT$3fmt17h29c9d1f5dcf43054E', symObjAddr: 0x1A334, symBinAddr: 0x88114, symSize: 0x2C }
  - { offset: 0x110C16, size: 0x8, addend: 0x0, symName: '__ZN4core3fmt3num3imp53_$LT$impl$u20$core..fmt..UpperExp$u20$for$u20$u16$GT$3fmt17h3638eeebd48d5f6dE', symObjAddr: 0x1A360, symBinAddr: 0x88140, symSize: 0x20 }
  - { offset: 0x110C38, size: 0x8, addend: 0x0, symName: '__ZN4core3fmt3num3imp53_$LT$impl$u20$core..fmt..UpperExp$u20$for$u20$i32$GT$3fmt17h475e8f9cffa4b57fE', symObjAddr: 0x1A380, symBinAddr: 0x88160, symSize: 0x2C }
  - { offset: 0x110C5A, size: 0x8, addend: 0x0, symName: '__ZN4core3fmt3num3imp53_$LT$impl$u20$core..fmt..UpperExp$u20$for$u20$u32$GT$3fmt17h597c306ef3eb1b47E', symObjAddr: 0x1A3AC, symBinAddr: 0x8818C, symSize: 0x20 }
  - { offset: 0x110C7C, size: 0x8, addend: 0x0, symName: '__ZN4core3fmt3num3imp53_$LT$impl$u20$core..fmt..UpperExp$u20$for$u20$i64$GT$3fmt17h0c273d9590ffe9a8E', symObjAddr: 0x1A3CC, symBinAddr: 0x881AC, symSize: 0x2C }
  - { offset: 0x110C9E, size: 0x8, addend: 0x0, symName: '__ZN4core3fmt3num3imp53_$LT$impl$u20$core..fmt..UpperExp$u20$for$u20$u64$GT$3fmt17h30177875c8cbdb43E', symObjAddr: 0x1A3F8, symBinAddr: 0x881D8, symSize: 0x20 }
  - { offset: 0x110E1B, size: 0x8, addend: 0x0, symName: '__ZN73_$LT$core..fmt..num..LowerHex$u20$as$u20$core..fmt..num..GenericRadix$GT$5digit17hcce88cbb6657fddeE', symObjAddr: 0x185C4, symBinAddr: 0x863A4, symSize: 0x7C }
  - { offset: 0x110E6E, size: 0x8, addend: 0x0, symName: '__ZN73_$LT$core..fmt..num..UpperHex$u20$as$u20$core..fmt..num..GenericRadix$GT$5digit17h2b9bb9ab1cadd0dfE', symObjAddr: 0x18640, symBinAddr: 0x86420, symSize: 0x7C }
  - { offset: 0x110E9A, size: 0x8, addend: 0x0, symName: __ZN4core3fmt3num14parse_u64_into17h33b949f1ec85860eE, symObjAddr: 0xA8F8, symBinAddr: 0x78E68, symSize: 0x394 }
  - { offset: 0x111082, size: 0x8, addend: 0x0, symName: '__ZN4core3fmt3num53_$LT$impl$u20$core..fmt..Display$u20$for$u20$u128$GT$3fmt17hed6b11bb59ef926eE', symObjAddr: 0xAC8C, symBinAddr: 0x791FC, symSize: 0x1C }
  - { offset: 0x1110AB, size: 0x8, addend: 0x0, symName: '__ZN4core3fmt3num53_$LT$impl$u20$core..fmt..Display$u20$for$u20$i128$GT$3fmt17h601276021a7c1d34E', symObjAddr: 0xACA8, symBinAddr: 0x79218, symSize: 0x34 }
  - { offset: 0x1110DC, size: 0x8, addend: 0x0, symName: __ZN4core3fmt3num8fmt_u12817h204bd3ce32452e14E, symObjAddr: 0xACDC, symBinAddr: 0x7924C, symSize: 0x188 }
  - { offset: 0x1111D3, size: 0x8, addend: 0x0, symName: '__ZN4core3fmt3num50_$LT$impl$u20$core..fmt..Debug$u20$for$u20$u32$GT$3fmt17hcfe7baae256c1db4E', symObjAddr: 0x194A0, symBinAddr: 0x87280, symSize: 0xE8 }
  - { offset: 0x1113F6, size: 0x8, addend: 0x0, symName: '__ZN4core3fmt3num53_$LT$impl$u20$core..fmt..LowerHex$u20$for$u20$i16$GT$3fmt17h242abdf1aff93afdE', symObjAddr: 0x1897C, symBinAddr: 0x8675C, symSize: 0x80 }
  - { offset: 0x11149C, size: 0x8, addend: 0x0, symName: '__ZN4core3fmt3num53_$LT$impl$u20$core..fmt..UpperHex$u20$for$u20$i16$GT$3fmt17h9a03e18bc2650ae9E', symObjAddr: 0x189FC, symBinAddr: 0x867DC, symSize: 0x80 }
  - { offset: 0x111556, size: 0x8, addend: 0x0, symName: '__ZN4core3fmt3num53_$LT$impl$u20$core..fmt..LowerHex$u20$for$u20$i32$GT$3fmt17h06185dae2a8741bdE', symObjAddr: 0x18B5C, symBinAddr: 0x8693C, symSize: 0x80 }
  - { offset: 0x111604, size: 0x8, addend: 0x0, symName: '__ZN4core3fmt3num53_$LT$impl$u20$core..fmt..UpperHex$u20$for$u20$i32$GT$3fmt17hc8424daa18864ed5E', symObjAddr: 0x18BDC, symBinAddr: 0x869BC, symSize: 0x80 }
  - { offset: 0x1116C6, size: 0x8, addend: 0x0, symName: '__ZN4core3fmt3num53_$LT$impl$u20$core..fmt..LowerHex$u20$for$u20$i64$GT$3fmt17h1f61cec4c4196ee9E', symObjAddr: 0x18D3C, symBinAddr: 0x86B1C, symSize: 0x80 }
  - { offset: 0x111774, size: 0x8, addend: 0x0, symName: '__ZN4core3fmt3num53_$LT$impl$u20$core..fmt..UpperHex$u20$for$u20$i64$GT$3fmt17h72bc793a4531fe74E', symObjAddr: 0x18DBC, symBinAddr: 0x86B9C, symSize: 0x80 }
  - { offset: 0x111815, size: 0x8, addend: 0x0, symName: '__ZN71_$LT$core..fmt..num..Binary$u20$as$u20$core..fmt..num..GenericRadix$GT$5digit17h49dcfbec75cbbcbcE', symObjAddr: 0x184EC, symBinAddr: 0x862CC, symSize: 0x6C }
  - { offset: 0x111854, size: 0x8, addend: 0x0, symName: '__ZN70_$LT$core..fmt..num..Octal$u20$as$u20$core..fmt..num..GenericRadix$GT$5digit17hd23d173028dba738E', symObjAddr: 0x18558, symBinAddr: 0x86338, symSize: 0x6C }
  - { offset: 0x111893, size: 0x8, addend: 0x0, symName: '__ZN4core3fmt3num50_$LT$impl$u20$core..fmt..Binary$u20$for$u20$i8$GT$3fmt17hc3a2a1d55ef231fdE', symObjAddr: 0x186BC, symBinAddr: 0x8649C, symSize: 0x70 }
  - { offset: 0x11192D, size: 0x8, addend: 0x0, symName: '__ZN4core3fmt3num49_$LT$impl$u20$core..fmt..Octal$u20$for$u20$i8$GT$3fmt17h7d8cc7b8f131118bE', symObjAddr: 0x1872C, symBinAddr: 0x8650C, symSize: 0x70 }
  - { offset: 0x1119C7, size: 0x8, addend: 0x0, symName: '__ZN4core3fmt3num52_$LT$impl$u20$core..fmt..LowerHex$u20$for$u20$i8$GT$3fmt17h0e240ed74cb371f7E', symObjAddr: 0x1879C, symBinAddr: 0x8657C, symSize: 0x80 }
  - { offset: 0x111A7D, size: 0x8, addend: 0x0, symName: '__ZN4core3fmt3num52_$LT$impl$u20$core..fmt..UpperHex$u20$for$u20$i8$GT$3fmt17h2e541f66cb845f48E', symObjAddr: 0x1881C, symBinAddr: 0x865FC, symSize: 0x80 }
  - { offset: 0x111B33, size: 0x8, addend: 0x0, symName: '__ZN4core3fmt3num51_$LT$impl$u20$core..fmt..Binary$u20$for$u20$i16$GT$3fmt17h68c4caa47fe9875aE', symObjAddr: 0x1889C, symBinAddr: 0x8667C, symSize: 0x70 }
  - { offset: 0x111BEA, size: 0x8, addend: 0x0, symName: '__ZN4core3fmt3num50_$LT$impl$u20$core..fmt..Octal$u20$for$u20$i16$GT$3fmt17he9c1c10ae376167eE', symObjAddr: 0x1890C, symBinAddr: 0x866EC, symSize: 0x70 }
  - { offset: 0x111CA1, size: 0x8, addend: 0x0, symName: '__ZN4core3fmt3num51_$LT$impl$u20$core..fmt..Binary$u20$for$u20$i32$GT$3fmt17h35fbac52c9a77e01E', symObjAddr: 0x18A7C, symBinAddr: 0x8685C, symSize: 0x70 }
  - { offset: 0x111D58, size: 0x8, addend: 0x0, symName: '__ZN4core3fmt3num50_$LT$impl$u20$core..fmt..Octal$u20$for$u20$i32$GT$3fmt17h47873b7a3b693e6eE', symObjAddr: 0x18AEC, symBinAddr: 0x868CC, symSize: 0x70 }
  - { offset: 0x111E0F, size: 0x8, addend: 0x0, symName: '__ZN4core3fmt3num51_$LT$impl$u20$core..fmt..Binary$u20$for$u20$i64$GT$3fmt17h95f29a59270765fcE', symObjAddr: 0x18C5C, symBinAddr: 0x86A3C, symSize: 0x70 }
  - { offset: 0x111EC6, size: 0x8, addend: 0x0, symName: '__ZN4core3fmt3num50_$LT$impl$u20$core..fmt..Octal$u20$for$u20$i64$GT$3fmt17h47611a8ef698b6faE', symObjAddr: 0x18CCC, symBinAddr: 0x86AAC, symSize: 0x70 }
  - { offset: 0x111F91, size: 0x8, addend: 0x0, symName: '__ZN4core3fmt3num52_$LT$impl$u20$core..fmt..Binary$u20$for$u20$i128$GT$3fmt17h775641791909d376E', symObjAddr: 0x18E3C, symBinAddr: 0x86C1C, symSize: 0x90 }
  - { offset: 0x112045, size: 0x8, addend: 0x0, symName: '__ZN4core3fmt3num51_$LT$impl$u20$core..fmt..Octal$u20$for$u20$i128$GT$3fmt17h210475aee65d0adcE', symObjAddr: 0x18ECC, symBinAddr: 0x86CAC, symSize: 0x90 }
  - { offset: 0x1120F9, size: 0x8, addend: 0x0, symName: '__ZN4core3fmt3num54_$LT$impl$u20$core..fmt..LowerHex$u20$for$u20$i128$GT$3fmt17h7ea1321b296131f4E', symObjAddr: 0x18F5C, symBinAddr: 0x86D3C, symSize: 0xA0 }
  - { offset: 0x1121AC, size: 0x8, addend: 0x0, symName: '__ZN4core3fmt3num54_$LT$impl$u20$core..fmt..UpperHex$u20$for$u20$i128$GT$3fmt17hec6ea0ea1a09f447E', symObjAddr: 0x18FFC, symBinAddr: 0x86DDC, symSize: 0xA0 }
  - { offset: 0x11225F, size: 0x8, addend: 0x0, symName: '__ZN4core3fmt3num49_$LT$impl$u20$core..fmt..Debug$u20$for$u20$i8$GT$3fmt17hddb188a8e827ed16E', symObjAddr: 0x1909C, symBinAddr: 0x86E7C, symSize: 0x178 }
  - { offset: 0x112443, size: 0x8, addend: 0x0, symName: '__ZN4core3fmt3num51_$LT$impl$u20$core..fmt..Debug$u20$for$u20$i128$GT$3fmt17h97ec59505b3365bfE', symObjAddr: 0x19214, symBinAddr: 0x86FF4, symSize: 0x12C }
  - { offset: 0x1125B1, size: 0x8, addend: 0x0, symName: '__ZN4core3fmt3num49_$LT$impl$u20$core..fmt..Debug$u20$for$u20$u8$GT$3fmt17h182c554e1fecb87cE', symObjAddr: 0x19340, symBinAddr: 0x87120, symSize: 0x160 }
  - { offset: 0x1127A9, size: 0x8, addend: 0x0, symName: '__ZN4core3fmt3num51_$LT$impl$u20$core..fmt..Debug$u20$for$u20$u128$GT$3fmt17h49c0c8c1a89cbaf0E', symObjAddr: 0x19588, symBinAddr: 0x87368, symSize: 0x110 }
  - { offset: 0x1128E9, size: 0x8, addend: 0x0, symName: __ZN4core3fmt3num8exp_u12817h0144d65de2fde090E, symObjAddr: 0x1A418, symBinAddr: 0x881F8, symSize: 0x84C }
  - { offset: 0x112B10, size: 0x8, addend: 0x0, symName: '__ZN4core3fmt3num54_$LT$impl$u20$core..fmt..LowerExp$u20$for$u20$i128$GT$3fmt17hd6d783e2565063c2E', symObjAddr: 0x1AC64, symBinAddr: 0x88A44, symSize: 0x38 }
  - { offset: 0x112B32, size: 0x8, addend: 0x0, symName: '__ZN4core3fmt3num54_$LT$impl$u20$core..fmt..LowerExp$u20$for$u20$u128$GT$3fmt17hc6d3d04c69990f95E', symObjAddr: 0x1AC9C, symBinAddr: 0x88A7C, symSize: 0x20 }
  - { offset: 0x112B54, size: 0x8, addend: 0x0, symName: '__ZN4core3fmt3num54_$LT$impl$u20$core..fmt..UpperExp$u20$for$u20$i128$GT$3fmt17hb5436dbb4093054dE', symObjAddr: 0x1ACBC, symBinAddr: 0x88A9C, symSize: 0x38 }
  - { offset: 0x112B76, size: 0x8, addend: 0x0, symName: '__ZN4core3fmt3num54_$LT$impl$u20$core..fmt..UpperExp$u20$for$u20$u128$GT$3fmt17h13aee10434119790E', symObjAddr: 0x1ACF4, symBinAddr: 0x88AD4, symSize: 0x20 }
  - { offset: 0x112BB5, size: 0x8, addend: 0x0, symName: __ZN4core3fmt17FormattingOptions8get_fill17h9a523feca7af2f45E, symObjAddr: 0xB420, symBinAddr: 0x79990, symSize: 0x18 }
  - { offset: 0x112CA2, size: 0x8, addend: 0x0, symName: '__ZN57_$LT$core..fmt..Formatter$u20$as$u20$core..fmt..Write$GT$10write_char17h42e5177d9a4aac6bE', symObjAddr: 0xD978, symBinAddr: 0x7BEE8, symSize: 0x1C }
  - { offset: 0x112D40, size: 0x8, addend: 0x0, symName: __ZN4core3fmt5Write10write_char17haf179b2e868b15e8E, symObjAddr: 0xAE64, symBinAddr: 0x793D4, symSize: 0x14C }
  - { offset: 0x112E53, size: 0x8, addend: 0x0, symName: __ZN4core3fmt5Write10write_char17hc2b42a6e0a12dd12E, symObjAddr: 0xAFB0, symBinAddr: 0x79520, symSize: 0x14C }
  - { offset: 0x112F66, size: 0x8, addend: 0x0, symName: __ZN4core3fmt5Write10write_char17he0028428ca0c1cc2E, symObjAddr: 0xB0FC, symBinAddr: 0x7966C, symSize: 0x14C }
  - { offset: 0x113079, size: 0x8, addend: 0x0, symName: __ZN4core3fmt5Write10write_char17hf2e137f6416ec1d3E, symObjAddr: 0xB248, symBinAddr: 0x797B8, symSize: 0x14C }
  - { offset: 0x11318C, size: 0x8, addend: 0x0, symName: __ZN4core3fmt5Write9write_fmt17h41c5cbb8f05008ceE, symObjAddr: 0xB394, symBinAddr: 0x79904, symSize: 0x1C }
  - { offset: 0x1131BC, size: 0x8, addend: 0x0, symName: __ZN4core3fmt5Write9write_fmt17h54ac8dfa08d9e4f0E, symObjAddr: 0xB3B0, symBinAddr: 0x79920, symSize: 0x1C }
  - { offset: 0x1131EC, size: 0x8, addend: 0x0, symName: __ZN4core3fmt5Write9write_fmt17ha65d0ed3d334c498E, symObjAddr: 0xB3CC, symBinAddr: 0x7993C, symSize: 0x1C }
  - { offset: 0x11321C, size: 0x8, addend: 0x0, symName: __ZN4core3fmt5Write9write_fmt17he9743b4981197c2bE, symObjAddr: 0xB3E8, symBinAddr: 0x79958, symSize: 0x1C }
  - { offset: 0x11324C, size: 0x8, addend: 0x0, symName: __ZN4core3fmt5Write9write_fmt17hed79627c77c4ec6cE, symObjAddr: 0xB404, symBinAddr: 0x79974, symSize: 0x1C }
  - { offset: 0x1132E0, size: 0x8, addend: 0x0, symName: '__ZN43_$LT$bool$u20$as$u20$core..fmt..Display$GT$3fmt17h6bce0ab7457bebceE', symObjAddr: 0xD9B4, symBinAddr: 0x7BF24, symSize: 0x44 }
  - { offset: 0x11333D, size: 0x8, addend: 0x0, symName: __ZN4core3fmt5float29float_to_decimal_common_exact17h9cb8197843617202E, symObjAddr: 0x91F8, symBinAddr: 0x77768, symSize: 0x304 }
  - { offset: 0x113404, size: 0x8, addend: 0x0, symName: __ZN4core3fmt5float29float_to_decimal_common_exact17he25786b0d5348fd9E, symObjAddr: 0x94FC, symBinAddr: 0x77A6C, symSize: 0x300 }
  - { offset: 0x1134B5, size: 0x8, addend: 0x0, symName: __ZN4core3fmt5float32float_to_decimal_common_shortest17h5e6fd47708ff6353E, symObjAddr: 0x97FC, symBinAddr: 0x77D6C, symSize: 0x248 }
  - { offset: 0x11359A, size: 0x8, addend: 0x0, symName: __ZN4core3fmt5float32float_to_decimal_common_shortest17ha24e5b3abd634907E, symObjAddr: 0x9A44, symBinAddr: 0x77FB4, symSize: 0x244 }
  - { offset: 0x113669, size: 0x8, addend: 0x0, symName: __ZN4core3fmt5float33float_to_exponential_common_exact17hce678e0c89eefcf5E, symObjAddr: 0x9C88, symBinAddr: 0x781F8, symSize: 0x340 }
  - { offset: 0x113771, size: 0x8, addend: 0x0, symName: __ZN4core3fmt5float33float_to_exponential_common_exact17hd593cb1909b84d4cE, symObjAddr: 0x9FC8, symBinAddr: 0x78538, symSize: 0x344 }
  - { offset: 0x11388F, size: 0x8, addend: 0x0, symName: __ZN4core3fmt5float36float_to_exponential_common_shortest17h2169187c28ff3a61E, symObjAddr: 0xA30C, symBinAddr: 0x7887C, symSize: 0x2F8 }
  - { offset: 0x1139DE, size: 0x8, addend: 0x0, symName: __ZN4core3fmt5float36float_to_exponential_common_shortest17h23f8d47bc36fe2e8E, symObjAddr: 0xA604, symBinAddr: 0x78B74, symSize: 0x2F4 }
  - { offset: 0x113B1D, size: 0x8, addend: 0x0, symName: '__ZN55_$LT$f32$u20$as$u20$core..fmt..float..GeneralFormat$GT$44already_rounded_value_should_use_exponential17h255dba5f704392f1E', symObjAddr: 0x181B0, symBinAddr: 0x85F90, symSize: 0x4C }
  - { offset: 0x113B5B, size: 0x8, addend: 0x0, symName: '__ZN55_$LT$f64$u20$as$u20$core..fmt..float..GeneralFormat$GT$44already_rounded_value_should_use_exponential17hcf71808629ceb41cE', symObjAddr: 0x181FC, symBinAddr: 0x85FDC, symSize: 0x40 }
  - { offset: 0x113BA6, size: 0x8, addend: 0x0, symName: '__ZN4core3fmt5float50_$LT$impl$u20$core..fmt..Debug$u20$for$u20$f32$GT$3fmt17h9349b432c0526844E', symObjAddr: 0x1823C, symBinAddr: 0x8601C, symSize: 0x8C }
  - { offset: 0x113C40, size: 0x8, addend: 0x0, symName: '__ZN4core3fmt5float52_$LT$impl$u20$core..fmt..Display$u20$for$u20$f32$GT$3fmt17h17403521c71c5bf7E', symObjAddr: 0x182C8, symBinAddr: 0x860A8, symSize: 0x40 }
  - { offset: 0x113CAF, size: 0x8, addend: 0x0, symName: '__ZN4core3fmt5float53_$LT$impl$u20$core..fmt..LowerExp$u20$for$u20$f32$GT$3fmt17hb9b6c5ed1ba39c31E', symObjAddr: 0x18308, symBinAddr: 0x860E8, symSize: 0x48 }
  - { offset: 0x113D09, size: 0x8, addend: 0x0, symName: '__ZN4core3fmt5float53_$LT$impl$u20$core..fmt..UpperExp$u20$for$u20$f32$GT$3fmt17hb9f98ddb49740b05E', symObjAddr: 0x18350, symBinAddr: 0x86130, symSize: 0x48 }
  - { offset: 0x113D70, size: 0x8, addend: 0x0, symName: '__ZN4core3fmt5float50_$LT$impl$u20$core..fmt..Debug$u20$for$u20$f64$GT$3fmt17h482d72978ca14ccaE', symObjAddr: 0x18398, symBinAddr: 0x86178, symSize: 0x84 }
  - { offset: 0x113E0A, size: 0x8, addend: 0x0, symName: '__ZN4core3fmt5float52_$LT$impl$u20$core..fmt..Display$u20$for$u20$f64$GT$3fmt17hcbaf9960d90bc386E', symObjAddr: 0x1841C, symBinAddr: 0x861FC, symSize: 0x40 }
  - { offset: 0x113E79, size: 0x8, addend: 0x0, symName: '__ZN4core3fmt5float53_$LT$impl$u20$core..fmt..LowerExp$u20$for$u20$f64$GT$3fmt17h66da4a8ab30f6521E', symObjAddr: 0x1845C, symBinAddr: 0x8623C, symSize: 0x48 }
  - { offset: 0x113ED3, size: 0x8, addend: 0x0, symName: '__ZN4core3fmt5float53_$LT$impl$u20$core..fmt..UpperExp$u20$for$u20$f64$GT$3fmt17h2669b6d69574967fE', symObjAddr: 0x184A4, symBinAddr: 0x86284, symSize: 0x48 }
  - { offset: 0x113F3C, size: 0x8, addend: 0x0, symName: '__ZN59_$LT$core..fmt..Arguments$u20$as$u20$core..fmt..Display$GT$3fmt17hfb303a4f27e5a424E', symObjAddr: 0xB450, symBinAddr: 0x799C0, symSize: 0x18 }
  - { offset: 0x113F57, size: 0x8, addend: 0x0, symName: '__ZN57_$LT$core..fmt..Arguments$u20$as$u20$core..fmt..Debug$GT$3fmt17hc4c5bf34706aa0e7E', symObjAddr: 0xB438, symBinAddr: 0x799A8, symSize: 0x18 }
  - { offset: 0x113FA6, size: 0x8, addend: 0x0, symName: __ZN4core3fmt5write17h7370d0bd667cfeb0E, symObjAddr: 0xB468, symBinAddr: 0x799D8, symSize: 0x1E8 }
  - { offset: 0x1141E3, size: 0x8, addend: 0x0, symName: __ZN4core3fmt9Formatter12pad_integral12write_prefix17h9c5735ebfefd81acE, symObjAddr: 0xBA04, symBinAddr: 0x79F74, symSize: 0x7C }
  - { offset: 0x114240, size: 0x8, addend: 0x0, symName: '__ZN42_$LT$$RF$T$u20$as$u20$core..fmt..Debug$GT$3fmt17h1551bc4e32de3d56E', symObjAddr: 0x1AD38, symBinAddr: 0x88B18, symSize: 0xEC }
  - { offset: 0x11437D, size: 0x8, addend: 0x0, symName: '__ZN42_$LT$$RF$T$u20$as$u20$core..fmt..Debug$GT$3fmt17h77e7ad8e54c9d146E', symObjAddr: 0x1AE24, symBinAddr: 0x88C04, symSize: 0x1C }
  - { offset: 0x114391, size: 0x8, addend: 0x0, symName: '__ZN42_$LT$$RF$T$u20$as$u20$core..fmt..Debug$GT$3fmt17hb39167d97bdcbc5cE', symObjAddr: 0x1AE40, symBinAddr: 0x88C20, symSize: 0x14 }
  - { offset: 0x1143AC, size: 0x8, addend: 0x0, symName: '__ZN42_$LT$$RF$T$u20$as$u20$core..fmt..Debug$GT$3fmt17hb3bfc9f44213b3cfE', symObjAddr: 0x1AE54, symBinAddr: 0x88C34, symSize: 0xE4 }
  - { offset: 0x1144F0, size: 0x8, addend: 0x0, symName: '__ZN55_$LT$core..fmt..Error$u20$as$u20$core..fmt..Display$GT$3fmt17he411cf615c39107cE', symObjAddr: 0xD994, symBinAddr: 0x7BF04, symSize: 0x20 }
  - { offset: 0x11454C, size: 0x8, addend: 0x0, symName: '__ZN40_$LT$str$u20$as$u20$core..fmt..Debug$GT$3fmt17he29d455c3e046183E', symObjAddr: 0xD9F8, symBinAddr: 0x7BF68, symSize: 0x394 }
  - { offset: 0x11498A, size: 0x8, addend: 0x0, symName: '__ZN41_$LT$char$u20$as$u20$core..fmt..Debug$GT$3fmt17h4f2f634e3b6b938cE', symObjAddr: 0xDDAC, symBinAddr: 0x7C31C, symSize: 0xAC }
  - { offset: 0x114A9D, size: 0x8, addend: 0x0, symName: '__ZN43_$LT$char$u20$as$u20$core..fmt..Display$GT$3fmt17hfc1a6565f3f74cb3E', symObjAddr: 0xDE58, symBinAddr: 0x7C3C8, symSize: 0xEC }
  - { offset: 0x114B21, size: 0x8, addend: 0x0, symName: __ZN4core3fmt17pointer_fmt_inner17h5003766f983916f7E, symObjAddr: 0xDF44, symBinAddr: 0x7C4B4, symSize: 0xC0 }
  - { offset: 0x114C27, size: 0x8, addend: 0x0, symName: '__ZN52_$LT$$BP$const$u20$T$u20$as$u20$core..fmt..Debug$GT$3fmt17h649792a5a87129b6E', symObjAddr: 0xE004, symBinAddr: 0x7C574, symSize: 0xC4 }
  - { offset: 0x114D40, size: 0x8, addend: 0x0, symName: '__ZN53_$LT$core..fmt..Error$u20$as$u20$core..fmt..Debug$GT$3fmt17h81c3393b1a863c75E', symObjAddr: 0x1AD14, symBinAddr: 0x88AF4, symSize: 0x24 }
  - { offset: 0x114D77, size: 0x8, addend: 0x0, symName: '__ZN44_$LT$$RF$T$u20$as$u20$core..fmt..Display$GT$3fmt17h8cfe0765577687b6E', symObjAddr: 0x1AF38, symBinAddr: 0x88D18, symSize: 0x20 }
  - { offset: 0x114DA9, size: 0x8, addend: 0x0, symName: '__ZN44_$LT$$RF$T$u20$as$u20$core..fmt..Display$GT$3fmt17h92a538b575560d10E', symObjAddr: 0x1AF58, symBinAddr: 0x88D38, symSize: 0x14 }
  - { offset: 0x114DC4, size: 0x8, addend: 0x0, symName: '__ZN44_$LT$$RF$T$u20$as$u20$core..fmt..Display$GT$3fmt17hd459a5f2f0d5dca1E', symObjAddr: 0x1AF6C, symBinAddr: 0x88D4C, symSize: 0x1C }
  - { offset: 0x114DF6, size: 0x8, addend: 0x0, symName: '__ZN44_$LT$$RF$T$u20$as$u20$core..fmt..Display$GT$3fmt17hecda2fed12a2d931E', symObjAddr: 0x1AF88, symBinAddr: 0x88D68, symSize: 0x14 }
  - { offset: 0x114E18, size: 0x8, addend: 0x0, symName: '__ZN45_$LT$$RF$T$u20$as$u20$core..fmt..LowerHex$GT$3fmt17hd25c0353cb751585E', symObjAddr: 0x1AF9C, symBinAddr: 0x88D7C, symSize: 0x84 }
  - { offset: 0x11516E, size: 0x8, addend: 0x0, symName: '__ZN69_$LT$core..ffi..c_str..CStr$u20$as$u20$core..clone..CloneToUninit$GT$15clone_to_uninit17hd59c9a4489ec575dE', symObjAddr: 0x3FD4, symBinAddr: 0x72AB4, symSize: 0x20 }
  - { offset: 0x11556A, size: 0x8, addend: 0x0, symName: __ZN4core6option13unwrap_failed17h5d660ab2a43a13d8E, symObjAddr: 0x7A1C, symBinAddr: 0x8D28C, symSize: 0x1C }
  - { offset: 0x115585, size: 0x8, addend: 0x0, symName: __ZN4core6option13expect_failed17hafde5b2de9645e4eE, symObjAddr: 0x7A38, symBinAddr: 0x8D2A8, symSize: 0x48 }
  - { offset: 0x115787, size: 0x8, addend: 0x0, symName: '__ZN64_$LT$core..ops..range..RangeFull$u20$as$u20$core..fmt..Debug$GT$3fmt17h0f1bdf914e6968f5E', symObjAddr: 0x40AC, symBinAddr: 0x72B8C, symSize: 0x24 }
  - { offset: 0x1157BF, size: 0x8, addend: 0x0, symName: '__ZN71_$LT$core..ops..range..Range$LT$Idx$GT$$u20$as$u20$core..fmt..Debug$GT$3fmt17h2f90eaf67e84832cE', symObjAddr: 0x40D0, symBinAddr: 0x72BB0, symSize: 0x1FC }
  - { offset: 0x115D03, size: 0x8, addend: 0x0, symName: '__ZN76_$LT$core..mem..transmutability..Assume$u20$as$u20$core..ops..arith..Sub$GT$3sub17h80b1f253569ee8b9E', symObjAddr: 0x3F44, symBinAddr: 0x72A24, symSize: 0x18 }
  - { offset: 0x116269, size: 0x8, addend: 0x0, symName: __ZN4core6result13unwrap_failed17hc92295ca77e20b19E, symObjAddr: 0x7FD4, symBinAddr: 0x8D6E0, symSize: 0x5C }
  - { offset: 0x1162E8, size: 0x8, addend: 0x0, symName: '__ZN57_$LT$core..error..Request$u20$as$u20$core..fmt..Debug$GT$3fmt17h04eb00973c967e5fE', symObjAddr: 0x3FF4, symBinAddr: 0x72AD4, symSize: 0x6C }
  - { offset: 0x116397, size: 0x8, addend: 0x0, symName: '__ZN78_$LT$core..error..Source$u20$as$u20$core..iter..traits..iterator..Iterator$GT$4next17h0c56796b453b4dd3E', symObjAddr: 0x4060, symBinAddr: 0x72B40, symSize: 0x4C }
  - { offset: 0x1163EE, size: 0x8, addend: 0x0, symName: '__ZN105_$LT$dyn$u20$core..any..Any$u2b$core..marker..Sync$u2b$core..marker..Send$u20$as$u20$core..fmt..Debug$GT$3fmt17h11d122a2cc57bcb6E', symObjAddr: 0x42CC, symBinAddr: 0x72DAC, symSize: 0x6C }
  - { offset: 0x1164AF, size: 0x8, addend: 0x0, symName: '__ZN54_$LT$core..any..TypeId$u20$as$u20$core..fmt..Debug$GT$3fmt17h177e278ddbc98f09E', symObjAddr: 0x4338, symBinAddr: 0x72E18, symSize: 0x64 }
  - { offset: 0x116522, size: 0x8, addend: 0x0, symName: '__ZN73_$LT$core..ascii..ascii_char..AsciiChar$u20$as$u20$core..fmt..Display$GT$3fmt17h980d3502f32446d0E', symObjAddr: 0x439C, symBinAddr: 0x72E7C, symSize: 0x20 }
  - { offset: 0x11655B, size: 0x8, addend: 0x0, symName: '__ZN71_$LT$core..ascii..ascii_char..AsciiChar$u20$as$u20$core..fmt..Debug$GT$3fmt17hd61f2fe7879cc368E', symObjAddr: 0x43BC, symBinAddr: 0x72E9C, symSize: 0x158 }
  - { offset: 0x1165B9, size: 0x8, addend: 0x0, symName: __ZN4core5ascii14escape_default17h73caeb5f005b29c8E, symObjAddr: 0x4514, symBinAddr: 0x72FF4, symSize: 0x78 }
  - { offset: 0x116640, size: 0x8, addend: 0x0, symName: '__ZN65_$LT$core..ascii..EscapeDefault$u20$as$u20$core..fmt..Display$GT$3fmt17h5cf70f97c99f3e4bE', symObjAddr: 0x458C, symBinAddr: 0x7306C, symSize: 0x2C }
  - { offset: 0x1166D4, size: 0x8, addend: 0x0, symName: '__ZN63_$LT$core..ascii..EscapeDefault$u20$as$u20$core..fmt..Debug$GT$3fmt17h02da3ae520466369E', symObjAddr: 0x45B8, symBinAddr: 0x73098, symSize: 0x6C }
  - { offset: 0x1169C1, size: 0x8, addend: 0x0, symName: '__ZN4core3str21_$LT$impl$u20$str$GT$9from_utf817hf45f62d9288c7321E', symObjAddr: 0x1106C, symBinAddr: 0x7F48C, symSize: 0x10 }
  - { offset: 0x1169DB, size: 0x8, addend: 0x0, symName: '__ZN4core3str21_$LT$impl$u20$str$GT$13from_utf8_mut17he6c8cc9720c371e9E', symObjAddr: 0x1107C, symBinAddr: 0x7F49C, symSize: 0x10 }
  - { offset: 0x1169F6, size: 0x8, addend: 0x0, symName: '__ZN4core3str21_$LT$impl$u20$str$GT$18split_at_unchecked17h06be3b674ee3ecbbE', symObjAddr: 0x1108C, symBinAddr: 0x7F4AC, symSize: 0x20 }
  - { offset: 0x116A28, size: 0x8, addend: 0x0, symName: '__ZN4core3str21_$LT$impl$u20$str$GT$22split_at_mut_unchecked17hed94db3d384384cfE', symObjAddr: 0x110AC, symBinAddr: 0x7F4CC, symSize: 0x20 }
  - { offset: 0x116A7D, size: 0x8, addend: 0x0, symName: '__ZN4core3str21_$LT$impl$u20$str$GT$12escape_debug17hc26ab2b6e542a192E', symObjAddr: 0x110CC, symBinAddr: 0x7F4EC, symSize: 0x104 }
  - { offset: 0x116BC5, size: 0x8, addend: 0x0, symName: '__ZN4core3str21_$LT$impl$u20$str$GT$12substr_range17ha0c3c899d2042b82E', symObjAddr: 0x111D0, symBinAddr: 0x7F5F0, symSize: 0x38 }
  - { offset: 0x116D50, size: 0x8, addend: 0x0, symName: '__ZN59_$LT$core..str..iter..Chars$u20$as$u20$core..fmt..Debug$GT$3fmt17h270cc703c1ecb2aaE', symObjAddr: 0xF744, symBinAddr: 0x7DBD8, symSize: 0x610 }
  - { offset: 0x11728F, size: 0x8, addend: 0x0, symName: '__ZN65_$LT$core..str..iter..EncodeUtf16$u20$as$u20$core..fmt..Debug$GT$3fmt17hd84623c25c73370dE', symObjAddr: 0xFD54, symBinAddr: 0x7E1E8, symSize: 0x6C }
  - { offset: 0x11737D, size: 0x8, addend: 0x0, symName: '__ZN67_$LT$core..str..iter..EscapeDebug$u20$as$u20$core..fmt..Display$GT$3fmt17ha40443bc88815197E', symObjAddr: 0x1B164, symBinAddr: 0x88E00, symSize: 0x8C0 }
  - { offset: 0x117D74, size: 0x8, addend: 0x0, symName: '__ZN69_$LT$core..str..iter..EscapeDefault$u20$as$u20$core..fmt..Display$GT$3fmt17h06729a1af2a93297E', symObjAddr: 0x1BA24, symBinAddr: 0x896C0, symSize: 0x48C }
  - { offset: 0x118361, size: 0x8, addend: 0x0, symName: '__ZN69_$LT$core..str..iter..EscapeUnicode$u20$as$u20$core..fmt..Display$GT$3fmt17h2dbe3d93066c81e7E', symObjAddr: 0x1BEB0, symBinAddr: 0x89B4C, symSize: 0x338 }
  - { offset: 0x118960, size: 0x8, addend: 0x0, symName: __ZN4core3str5count14do_count_chars17h5f5ec9f86e97aed2E, symObjAddr: 0xEE00, symBinAddr: 0x7D294, symSize: 0x5E8 }
  - { offset: 0x118CD8, size: 0x8, addend: 0x0, symName: __ZN4core3str5count23char_count_general_case17h9b12391aa541a7e3E, symObjAddr: 0xF3E8, symBinAddr: 0x7D87C, symSize: 0x2B0 }
  - { offset: 0x118E2F, size: 0x8, addend: 0x0, symName: __ZN4core3str7pattern11StrSearcher3new17hdbd33b22e65024d1E, symObjAddr: 0xFDF4, symBinAddr: 0x7E254, symSize: 0x8BC }
  - { offset: 0x11918C, size: 0x8, addend: 0x0, symName: __ZN4core3str6traits23str_index_overflow_fail17ha017d7272cb762edE, symObjAddr: 0xFDC0, symBinAddr: 0x8D818, symSize: 0x34 }
  - { offset: 0x1191E6, size: 0x8, addend: 0x0, symName: __ZN4core3str8converts9from_utf817h32133403f9a63053E, symObjAddr: 0xE978, symBinAddr: 0x7CE0C, symSize: 0x244 }
  - { offset: 0x11924E, size: 0x8, addend: 0x0, symName: __ZN4core3str8converts13from_utf8_mut17he68d1688db735004E, symObjAddr: 0xEBBC, symBinAddr: 0x7D050, symSize: 0x244 }
  - { offset: 0x1192D0, size: 0x8, addend: 0x0, symName: '__ZN66_$LT$core..str..error..Utf8Error$u20$as$u20$core..fmt..Display$GT$3fmt17h5e16901e5eb7d62fE', symObjAddr: 0xF698, symBinAddr: 0x7DB2C, symSize: 0x8C }
  - { offset: 0x119336, size: 0x8, addend: 0x0, symName: '__ZN71_$LT$core..str..error..ParseBoolError$u20$as$u20$core..fmt..Display$GT$3fmt17hf49c97123dcc492dE', symObjAddr: 0xF724, symBinAddr: 0x7DBB8, symSize: 0x20 }
  - { offset: 0x119374, size: 0x8, addend: 0x0, symName: '__ZN60_$LT$core..str..lossy..Debug$u20$as$u20$core..fmt..Debug$GT$3fmt17h3d399b6317c7a3b6E', symObjAddr: 0x106B0, symBinAddr: 0x7EB10, symSize: 0x39C }
  - { offset: 0x119709, size: 0x8, addend: 0x0, symName: '__ZN87_$LT$core..str..lossy..Utf8Chunks$u20$as$u20$core..iter..traits..iterator..Iterator$GT$4next17h601d34667d539eaeE', symObjAddr: 0x10A4C, symBinAddr: 0x7EEAC, symSize: 0x1CC }
  - { offset: 0x11993D, size: 0x8, addend: 0x0, symName: '__ZN65_$LT$core..str..lossy..Utf8Chunks$u20$as$u20$core..fmt..Debug$GT$3fmt17hfc2af0df18a93fd1E', symObjAddr: 0x10C18, symBinAddr: 0x7F078, symSize: 0xCC }
  - { offset: 0x119A4B, size: 0x8, addend: 0x0, symName: __ZN4core3str16slice_error_fail17h098a186dbad5c0b7E, symObjAddr: 0x10CE4, symBinAddr: 0x8D84C, symSize: 0xC }
  - { offset: 0x119A65, size: 0x8, addend: 0x0, symName: __ZN4core3str19slice_error_fail_ct17h0ce496345d6cced5E, symObjAddr: 0x10CF0, symBinAddr: 0x8D858, symSize: 0x34 }
  - { offset: 0x119A95, size: 0x8, addend: 0x0, symName: __ZN4core3str19slice_error_fail_rt17h6028bbdcf0e0e803E, symObjAddr: 0x10D24, symBinAddr: 0x7F144, symSize: 0x348 }
  - { offset: 0x119D5F, size: 0x8, addend: 0x0, symName: '__ZN4core4char7methods22_$LT$impl$u20$char$GT$16escape_debug_ext17h91362f4f6fa8f56bE', symObjAddr: 0x4EF4, symBinAddr: 0x73914, symSize: 0x268 }
  - { offset: 0x11A038, size: 0x8, addend: 0x0, symName: __ZN4core4char7methods15encode_utf8_raw8do_panic7runtime17h2f1bc70ad1282867E, symObjAddr: 0x16E54, symBinAddr: 0x8D97C, symSize: 0x6C }
  - { offset: 0x11A078, size: 0x8, addend: 0x0, symName: __ZN4core4char7methods16encode_utf16_raw8do_panic7runtime17h5c9b49dccd62cf01E, symObjAddr: 0x16EC0, symBinAddr: 0x8D9E8, symSize: 0x6C }
  - { offset: 0x11A0CD, size: 0x8, addend: 0x0, symName: '__ZN74_$LT$core..char..convert..ParseCharError$u20$as$u20$core..fmt..Display$GT$3fmt17h522643e9f940ccfbE', symObjAddr: 0x4E40, symBinAddr: 0x73860, symSize: 0x48 }
  - { offset: 0x11A12E, size: 0x8, addend: 0x0, symName: '__ZN76_$LT$core..char..convert..CharTryFromError$u20$as$u20$core..fmt..Display$GT$3fmt17hfa68da94f71f2778E', symObjAddr: 0x4E88, symBinAddr: 0x738A8, symSize: 0x20 }
  - { offset: 0x11A1BC, size: 0x8, addend: 0x0, symName: '__ZN75_$LT$core..char..decode..DecodeUtf16Error$u20$as$u20$core..fmt..Display$GT$3fmt17h2b85ccadfb7bc3a9E', symObjAddr: 0x4EA8, symBinAddr: 0x738C8, symSize: 0x4C }
  - { offset: 0x11A259, size: 0x8, addend: 0x0, symName: '__ZN64_$LT$core..char..EscapeDefault$u20$as$u20$core..fmt..Display$GT$3fmt17hf48845a614ad91dbE', symObjAddr: 0x515C, symBinAddr: 0x73B7C, symSize: 0x2C }
  - { offset: 0x11A2F0, size: 0x8, addend: 0x0, symName: '__ZN62_$LT$core..char..EscapeDebug$u20$as$u20$core..fmt..Display$GT$3fmt17hfbddaa1021b6cdcaE', symObjAddr: 0x5188, symBinAddr: 0x73BA8, symSize: 0x50 }
  - { offset: 0x11A3A4, size: 0x8, addend: 0x0, symName: '__ZN86_$LT$core..char..CaseMappingIter$u20$as$u20$core..iter..traits..iterator..Iterator$GT$4next17h17096a097731cb7dE', symObjAddr: 0x51D8, symBinAddr: 0x73BF8, symSize: 0x34 }
  - { offset: 0x11A4D8, size: 0x8, addend: 0x0, symName: '__ZN86_$LT$core..char..CaseMappingIter$u20$as$u20$core..iter..traits..iterator..Iterator$GT$5count17h850c42a2ee9f427dE', symObjAddr: 0x520C, symBinAddr: 0x73C2C, symSize: 0x18 }
  - { offset: 0x11A547, size: 0x8, addend: 0x0, symName: '__ZN86_$LT$core..char..CaseMappingIter$u20$as$u20$core..iter..traits..iterator..Iterator$GT$4last17h471307cbd6da16bdE', symObjAddr: 0x5224, symBinAddr: 0x73C44, symSize: 0x48 }
  - { offset: 0x11A693, size: 0x8, addend: 0x0, symName: '__ZN86_$LT$core..char..CaseMappingIter$u20$as$u20$core..iter..traits..iterator..Iterator$GT$10advance_by17h0f47dee876e64632E', symObjAddr: 0x526C, symBinAddr: 0x73C8C, symSize: 0x2C }
  - { offset: 0x11A72D, size: 0x8, addend: 0x0, symName: '__ZN86_$LT$core..char..CaseMappingIter$u20$as$u20$core..iter..traits..iterator..Iterator$GT$24__iterator_get_unchecked17hf10fb7a6eb4e0581E', symObjAddr: 0x5298, symBinAddr: 0x73CB8, symSize: 0x20 }
  - { offset: 0x11A857, size: 0x8, addend: 0x0, symName: '__ZN101_$LT$core..char..CaseMappingIter$u20$as$u20$core..iter..traits..double_ended..DoubleEndedIterator$GT$9next_back17h3a6ada00cd1a92b9E', symObjAddr: 0x52B8, symBinAddr: 0x73CD8, symSize: 0x34 }
  - { offset: 0x11A98C, size: 0x8, addend: 0x0, symName: '__ZN101_$LT$core..char..CaseMappingIter$u20$as$u20$core..iter..traits..double_ended..DoubleEndedIterator$GT$15advance_back_by17h55188645809d01f0E', symObjAddr: 0x52EC, symBinAddr: 0x73D0C, symSize: 0x30 }
  - { offset: 0x11AA5E, size: 0x8, addend: 0x0, symName: '__ZN67_$LT$core..char..TryFromCharError$u20$as$u20$core..fmt..Display$GT$3fmt17heb5554738c27e59bE', symObjAddr: 0x531C, symBinAddr: 0x73D3C, symSize: 0x20 }
  - { offset: 0x11AADD, size: 0x8, addend: 0x0, symName: '__ZN82_$LT$core..char..ToLowercase$u20$as$u20$core..iter..traits..iterator..Iterator$GT$4next17h2f3e52c7fa6aa6a4E', symObjAddr: 0x16F2C, symBinAddr: 0x85184, symSize: 0x34 }
  - { offset: 0x11AC2F, size: 0x8, addend: 0x0, symName: '__ZN82_$LT$core..char..ToLowercase$u20$as$u20$core..iter..traits..iterator..Iterator$GT$5count17h046ca89cbc75471bE', symObjAddr: 0x16F60, symBinAddr: 0x851B8, symSize: 0x18 }
  - { offset: 0x11ACBC, size: 0x8, addend: 0x0, symName: '__ZN82_$LT$core..char..ToLowercase$u20$as$u20$core..iter..traits..iterator..Iterator$GT$4last17h9fc258e28419b936E', symObjAddr: 0x16F78, symBinAddr: 0x851D0, symSize: 0x48 }
  - { offset: 0x11AE26, size: 0x8, addend: 0x0, symName: '__ZN82_$LT$core..char..ToLowercase$u20$as$u20$core..iter..traits..iterator..Iterator$GT$10advance_by17h51f1df7ab29475f4E', symObjAddr: 0x16FC0, symBinAddr: 0x85218, symSize: 0x2C }
  - { offset: 0x11AEDE, size: 0x8, addend: 0x0, symName: '__ZN82_$LT$core..char..ToLowercase$u20$as$u20$core..iter..traits..iterator..Iterator$GT$24__iterator_get_unchecked17h0a010c432023ba9dE', symObjAddr: 0x16FEC, symBinAddr: 0x85244, symSize: 0x20 }
  - { offset: 0x11AFE0, size: 0x8, addend: 0x0, symName: '__ZN97_$LT$core..char..ToLowercase$u20$as$u20$core..iter..traits..double_ended..DoubleEndedIterator$GT$9next_back17h5f08e852ef0c57d0E', symObjAddr: 0x1700C, symBinAddr: 0x85264, symSize: 0x34 }
  - { offset: 0x11B133, size: 0x8, addend: 0x0, symName: '__ZN97_$LT$core..char..ToLowercase$u20$as$u20$core..iter..traits..double_ended..DoubleEndedIterator$GT$15advance_back_by17h8d7dcbc632e41523E', symObjAddr: 0x17040, symBinAddr: 0x85298, symSize: 0x30 }
  - { offset: 0x11B21C, size: 0x8, addend: 0x0, symName: '__ZN62_$LT$core..char..ToLowercase$u20$as$u20$core..fmt..Display$GT$3fmt17h880face58ba7765fE', symObjAddr: 0x17070, symBinAddr: 0x852C8, symSize: 0xDC }
  - { offset: 0x11B46C, size: 0x8, addend: 0x0, symName: '__ZN56_$LT$core..bstr..ByteStr$u20$as$u20$core..fmt..Debug$GT$3fmt17h48dd7a5153105723E', symObjAddr: 0x4624, symBinAddr: 0x73104, symSize: 0x298 }
  - { offset: 0x11B717, size: 0x8, addend: 0x0, symName: '__ZN58_$LT$core..bstr..ByteStr$u20$as$u20$core..fmt..Display$GT$3fmt17hd13b968f537d6b1cE', symObjAddr: 0x48BC, symBinAddr: 0x7339C, symSize: 0x43C }
  - { offset: 0x11BAD7, size: 0x8, addend: 0x0, symName: __ZN4core4cell4lazy14panic_poisoned17he577323d707ce516E, symObjAddr: 0x4CF8, symBinAddr: 0x8D1CC, symSize: 0x38 }
  - { offset: 0x11BB10, size: 0x8, addend: 0x0, symName: '__ZN60_$LT$core..cell..BorrowError$u20$as$u20$core..fmt..Debug$GT$3fmt17hb297de906a4c303fE', symObjAddr: 0x4D30, symBinAddr: 0x737D8, symSize: 0x24 }
  - { offset: 0x11BB76, size: 0x8, addend: 0x0, symName: '__ZN62_$LT$core..cell..BorrowError$u20$as$u20$core..fmt..Display$GT$3fmt17hb5750243dfa37648E', symObjAddr: 0x4D54, symBinAddr: 0x737FC, symSize: 0x20 }
  - { offset: 0x11BBAF, size: 0x8, addend: 0x0, symName: '__ZN63_$LT$core..cell..BorrowMutError$u20$as$u20$core..fmt..Debug$GT$3fmt17h96f7b1f531b60146E', symObjAddr: 0x4D74, symBinAddr: 0x7381C, symSize: 0x24 }
  - { offset: 0x11BC15, size: 0x8, addend: 0x0, symName: '__ZN65_$LT$core..cell..BorrowMutError$u20$as$u20$core..fmt..Display$GT$3fmt17hfc0d986816406a76E', symObjAddr: 0x4D98, symBinAddr: 0x73840, symSize: 0x20 }
  - { offset: 0x11BC48, size: 0x8, addend: 0x0, symName: __ZN4core4cell22panic_already_borrowed17h4801b4630c8c3595E, symObjAddr: 0x4DB8, symBinAddr: 0x8D204, symSize: 0x44 }
  - { offset: 0x11BC7B, size: 0x8, addend: 0x0, symName: __ZN4core4cell30panic_already_mutably_borrowed17h24a6d471d0b55064E, symObjAddr: 0x4DFC, symBinAddr: 0x8D248, symSize: 0x44 }
  - { offset: 0x11BCCF, size: 0x8, addend: 0x0, symName: __ZN4core7unicode12unicode_data15grapheme_extend11lookup_slow17h9e8049dee3918776E, symObjAddr: 0x1C534, symBinAddr: 0x8A1D0, symSize: 0x114 }
  - { offset: 0x11BF8E, size: 0x8, addend: 0x0, symName: __ZN4core7unicode12unicode_data10alphabetic6lookup17hf21083c7a045fc68E, symObjAddr: 0x1C1E8, symBinAddr: 0x89E84, symSize: 0x110 }
  - { offset: 0x11C139, size: 0x8, addend: 0x0, symName: __ZN4core7unicode12unicode_data14case_ignorable6lookup17h9de605b9633c87fcE, symObjAddr: 0x1C2F8, symBinAddr: 0x89F94, symSize: 0x118 }
  - { offset: 0x11C2E6, size: 0x8, addend: 0x0, symName: __ZN4core7unicode12unicode_data5cased6lookup17h59dffef16d5f1370E, symObjAddr: 0x1C410, symBinAddr: 0x8A0AC, symSize: 0x100 }
  - { offset: 0x11C493, size: 0x8, addend: 0x0, symName: __ZN4core7unicode12unicode_data2cc6lookup17he716e7ba7b2c07a6E, symObjAddr: 0x1C510, symBinAddr: 0x8A1AC, symSize: 0x24 }
  - { offset: 0x11C4E6, size: 0x8, addend: 0x0, symName: __ZN4core7unicode12unicode_data9lowercase6lookup17hb83c934cbe8aaf7bE, symObjAddr: 0x1C648, symBinAddr: 0x8A2E4, symSize: 0x104 }
  - { offset: 0x11C53A, size: 0x8, addend: 0x0, symName: __ZN4core7unicode12unicode_data1n6lookup17he830716f6dd53bf1E, symObjAddr: 0x1C74C, symBinAddr: 0x8A3E8, symSize: 0x118 }
  - { offset: 0x11C6E7, size: 0x8, addend: 0x0, symName: __ZN4core7unicode12unicode_data9uppercase6lookup17hd4d6da161a1f85d3E, symObjAddr: 0x1C864, symBinAddr: 0x8A500, symSize: 0x104 }
  - { offset: 0x11C743, size: 0x8, addend: 0x0, symName: __ZN4core7unicode12unicode_data11conversions8to_lower17hd0509c795007fd72E, symObjAddr: 0x1C968, symBinAddr: 0x8A604, symSize: 0x184 }
  - { offset: 0x11C8B3, size: 0x8, addend: 0x0, symName: __ZN4core7unicode12unicode_data11conversions8to_upper17hed2c57d1780aaa18E, symObjAddr: 0x1CAEC, symBinAddr: 0x8A788, symSize: 0x1A4 }
  - { offset: 0x11CA80, size: 0x8, addend: 0x0, symName: __ZN4core7unicode9printable12is_printable17h828aa37547cf8aa2E, symObjAddr: 0x11AC0, symBinAddr: 0x7FEE0, symSize: 0x2B4 }
  - { offset: 0x11CDE8, size: 0x8, addend: 0x0, symName: '__ZN79_$LT$core..ffi..c_str..FromBytesUntilNulError$u20$as$u20$core..fmt..Display$GT$3fmt17h804633e2939c241dE', symObjAddr: 0x533C, symBinAddr: 0x73D5C, symSize: 0x24 }
  - { offset: 0x11CE20, size: 0x8, addend: 0x0, symName: '__ZN59_$LT$core..ffi..c_str..CStr$u20$as$u20$core..fmt..Debug$GT$3fmt17h9ac7090bf4e24703E', symObjAddr: 0x5360, symBinAddr: 0x73D80, symSize: 0x6C }
  - { offset: 0x11CEDB, size: 0x8, addend: 0x0, symName: '__ZN78_$LT$core..ffi..c_str..FromBytesWithNulError$u20$as$u20$core..fmt..Display$GT$3fmt17h3874424dc04cd78bE', symObjAddr: 0x53CC, symBinAddr: 0x73DEC, symSize: 0xC4 }
  - { offset: 0x11CF76, size: 0x8, addend: 0x0, symName: __ZN4core3ffi5c_str4CStr20from_bytes_until_nul17hf4c078368b3b660eE, symObjAddr: 0x5490, symBinAddr: 0x73EB0, symSize: 0xE0 }
  - { offset: 0x11D04E, size: 0x8, addend: 0x0, symName: __ZN4core3ffi5c_str4CStr19from_bytes_with_nul17hede97d2cb253e4deE, symObjAddr: 0x5570, symBinAddr: 0x73F90, symSize: 0xFC }
  - { offset: 0x11D13C, size: 0x8, addend: 0x0, symName: __ZN4core3ffi5c_str4CStr6to_str17hc7a8e73b6a095632E, symObjAddr: 0x566C, symBinAddr: 0x7408C, symSize: 0x14 }
  - { offset: 0x11D17C, size: 0x8, addend: 0x0, symName: '__ZN67_$LT$core..ffi..va_list..VaListImpl$u20$as$u20$core..fmt..Debug$GT$3fmt17h27ce57339c6ccc2cE', symObjAddr: 0x5680, symBinAddr: 0x740A0, symSize: 0x4C }
  - { offset: 0x11D1CC, size: 0x8, addend: 0x0, symName: '__ZN54_$LT$core..ffi..c_void$u20$as$u20$core..fmt..Debug$GT$3fmt17h3e25305a2eb0da61E', symObjAddr: 0x56CC, symBinAddr: 0x740EC, symSize: 0x24 }
  - { offset: 0x11D251, size: 0x8, addend: 0x0, symName: '__ZN72_$LT$core..io..borrowed_buf..BorrowedBuf$u20$as$u20$core..fmt..Debug$GT$3fmt17h01ca1b1bcd7c73c7E', symObjAddr: 0x56F0, symBinAddr: 0x74110, symSize: 0x108 }
  - { offset: 0x11D36E, size: 0x8, addend: 0x0, symName: '__ZN86_$LT$core..net..display_buffer..DisplayBuffer$LT$_$GT$$u20$as$u20$core..fmt..Write$GT$9write_str17h2bdc5879d6ae5465E', symObjAddr: 0x57F8, symBinAddr: 0x74218, symSize: 0x50 }
  - { offset: 0x11D425, size: 0x8, addend: 0x0, symName: '__ZN86_$LT$core..net..display_buffer..DisplayBuffer$LT$_$GT$$u20$as$u20$core..fmt..Write$GT$9write_str17ha3694c5acd099409E', symObjAddr: 0x5848, symBinAddr: 0x74268, symSize: 0x50 }
  - { offset: 0x11D4DC, size: 0x8, addend: 0x0, symName: '__ZN86_$LT$core..net..display_buffer..DisplayBuffer$LT$_$GT$$u20$as$u20$core..fmt..Write$GT$9write_str17hbdc20a1e4fab6922E', symObjAddr: 0x5898, symBinAddr: 0x742B8, symSize: 0x50 }
  - { offset: 0x11D593, size: 0x8, addend: 0x0, symName: '__ZN86_$LT$core..net..display_buffer..DisplayBuffer$LT$_$GT$$u20$as$u20$core..fmt..Write$GT$9write_str17hc16eb8270bf17853E', symObjAddr: 0x58E8, symBinAddr: 0x74308, symSize: 0x50 }
  - { offset: 0x11D6FB, size: 0x8, addend: 0x0, symName: '__ZN65_$LT$core..net..ip_addr..IpAddr$u20$as$u20$core..fmt..Display$GT$3fmt17h3015e460e5aca3caE', symObjAddr: 0x5938, symBinAddr: 0x74358, symSize: 0x24 }
  - { offset: 0x11D724, size: 0x8, addend: 0x0, symName: '__ZN63_$LT$core..net..ip_addr..IpAddr$u20$as$u20$core..fmt..Debug$GT$3fmt17hbd6bb736940d34d1E', symObjAddr: 0x595C, symBinAddr: 0x7437C, symSize: 0x24 }
  - { offset: 0x11D76B, size: 0x8, addend: 0x0, symName: '__ZN4core3net6parser46_$LT$impl$u20$core..net..ip_addr..Ipv4Addr$GT$11parse_ascii17h9bc232a26efa9689E', symObjAddr: 0x6F74, symBinAddr: 0x75994, symSize: 0x8C }
  - { offset: 0x11D7EC, size: 0x8, addend: 0x0, symName: '__ZN67_$LT$core..net..ip_addr..Ipv4Addr$u20$as$u20$core..fmt..Display$GT$3fmt17h07b3a718530cfcfbE', symObjAddr: 0x5980, symBinAddr: 0x743A0, symSize: 0x148 }
  - { offset: 0x11D8F9, size: 0x8, addend: 0x0, symName: '__ZN65_$LT$core..net..ip_addr..Ipv4Addr$u20$as$u20$core..fmt..Debug$GT$3fmt17h0515bf5caa282326E', symObjAddr: 0x5AC8, symBinAddr: 0x744E8, symSize: 0x10 }
  - { offset: 0x11D953, size: 0x8, addend: 0x0, symName: '__ZN4core3net6parser46_$LT$impl$u20$core..net..ip_addr..Ipv6Addr$GT$11parse_ascii17h4ff177c67508cc03E', symObjAddr: 0x708C, symBinAddr: 0x75AAC, symSize: 0x70 }
  - { offset: 0x11D9E0, size: 0x8, addend: 0x0, symName: '__ZN67_$LT$core..net..ip_addr..Ipv6Addr$u20$as$u20$core..fmt..Display$GT$3fmt12fmt_subslice17he2ab875981ff947aE', symObjAddr: 0x6204, symBinAddr: 0x74C24, symSize: 0x104 }
  - { offset: 0x11DB3B, size: 0x8, addend: 0x0, symName: '__ZN67_$LT$core..net..ip_addr..Ipv6Addr$u20$as$u20$core..fmt..Display$GT$3fmt17h2e4a91ac29c74cdeE', symObjAddr: 0x5AD8, symBinAddr: 0x744F8, symSize: 0x72C }
  - { offset: 0x11DED6, size: 0x8, addend: 0x0, symName: '__ZN65_$LT$core..net..ip_addr..Ipv6Addr$u20$as$u20$core..fmt..Debug$GT$3fmt17hb56645ca6dbc4fbcE', symObjAddr: 0x6308, symBinAddr: 0x74D28, symSize: 0x10 }
  - { offset: 0x11DF0D, size: 0x8, addend: 0x0, symName: '__ZN4core3net6parser44_$LT$impl$u20$core..net..ip_addr..IpAddr$GT$11parse_ascii17h891e4e3e85d28380E', symObjAddr: 0x6E04, symBinAddr: 0x75824, symSize: 0xB8 }
  - { offset: 0x11DFE5, size: 0x8, addend: 0x0, symName: '__ZN77_$LT$core..net..ip_addr..Ipv4Addr$u20$as$u20$core..ops..bit..BitAndAssign$GT$13bitand_assign17h3865e224ee969579E', symObjAddr: 0x1714C, symBinAddr: 0x853A4, symSize: 0x40 }
  - { offset: 0x11E025, size: 0x8, addend: 0x0, symName: '__ZN117_$LT$core..net..ip_addr..Ipv4Addr$u20$as$u20$core..ops..bit..BitAndAssign$LT$$RF$core..net..ip_addr..Ipv4Addr$GT$$GT$13bitand_assign17h9d18196bf88e2ca8E', symObjAddr: 0x1718C, symBinAddr: 0x853E4, symSize: 0x48 }
  - { offset: 0x11E13F, size: 0x8, addend: 0x0, symName: '__ZN76_$LT$core..net..ip_addr..Ipv4Addr$u20$as$u20$core..ops..bit..BitOrAssign$GT$12bitor_assign17hac835802a5481845E', symObjAddr: 0x171D4, symBinAddr: 0x8542C, symSize: 0x40 }
  - { offset: 0x11E17F, size: 0x8, addend: 0x0, symName: '__ZN116_$LT$core..net..ip_addr..Ipv4Addr$u20$as$u20$core..ops..bit..BitOrAssign$LT$$RF$core..net..ip_addr..Ipv4Addr$GT$$GT$12bitor_assign17hb5f5047d15c8dcdfE', symObjAddr: 0x17214, symBinAddr: 0x8546C, symSize: 0x48 }
  - { offset: 0x11E299, size: 0x8, addend: 0x0, symName: '__ZN77_$LT$core..net..ip_addr..Ipv6Addr$u20$as$u20$core..ops..bit..BitAndAssign$GT$13bitand_assign17h0d9e2b7a3ff06a2dE', symObjAddr: 0x1725C, symBinAddr: 0x854B4, symSize: 0xA0 }
  - { offset: 0x11E31B, size: 0x8, addend: 0x0, symName: '__ZN117_$LT$core..net..ip_addr..Ipv6Addr$u20$as$u20$core..ops..bit..BitAndAssign$LT$$RF$core..net..ip_addr..Ipv6Addr$GT$$GT$13bitand_assign17he2948a32d30b168cE', symObjAddr: 0x172FC, symBinAddr: 0x85554, symSize: 0x20 }
  - { offset: 0x11E3AD, size: 0x8, addend: 0x0, symName: '__ZN76_$LT$core..net..ip_addr..Ipv6Addr$u20$as$u20$core..ops..bit..BitOrAssign$GT$12bitor_assign17h24518f96f829396fE', symObjAddr: 0x1731C, symBinAddr: 0x85574, symSize: 0xA0 }
  - { offset: 0x11E42F, size: 0x8, addend: 0x0, symName: '__ZN116_$LT$core..net..ip_addr..Ipv6Addr$u20$as$u20$core..ops..bit..BitOrAssign$LT$$RF$core..net..ip_addr..Ipv6Addr$GT$$GT$12bitor_assign17h31daeed605f9b6a5E', symObjAddr: 0x173BC, symBinAddr: 0x85614, symSize: 0x20 }
  - { offset: 0x11E571, size: 0x8, addend: 0x0, symName: __ZN4core3net6parser6Parser14read_ipv4_addr17hbf800c5dd477f7bcE, symObjAddr: 0x65A0, symBinAddr: 0x74FC0, symSize: 0x3A0 }
  - { offset: 0x11E738, size: 0x8, addend: 0x0, symName: __ZN4core3net6parser6Parser14read_ipv6_addr17h6c8d7fe90ad52abaE, symObjAddr: 0x6940, symBinAddr: 0x75360, symSize: 0x13C }
  - { offset: 0x11EAB3, size: 0x8, addend: 0x0, symName: __ZN4core3net6parser6Parser19read_socket_addr_v617h099eededc61ebecdE, symObjAddr: 0x6C40, symBinAddr: 0x75660, symSize: 0x1C4 }
  - { offset: 0x11F08B, size: 0x8, addend: 0x0, symName: '__ZN4core3net6parser6Parser11read_number28_$u7b$$u7b$closure$u7d$$u7d$17h7a659fbd44f2c477E', symObjAddr: 0x6318, symBinAddr: 0x74D38, symSize: 0x288 }
  - { offset: 0x11F316, size: 0x8, addend: 0x0, symName: __ZN4core3net6parser6Parser14read_ipv6_addr11read_groups17h06ed327a68791e48E, symObjAddr: 0x6A7C, symBinAddr: 0x7549C, symSize: 0x1C4 }
  - { offset: 0x11F614, size: 0x8, addend: 0x0, symName: '__ZN4core3net6parser83_$LT$impl$u20$core..str..traits..FromStr$u20$for$u20$core..net..ip_addr..IpAddr$GT$8from_str17hb61c2aaa8f365cf1E', symObjAddr: 0x6EBC, symBinAddr: 0x758DC, symSize: 0xB8 }
  - { offset: 0x11F718, size: 0x8, addend: 0x0, symName: '__ZN4core3net6parser85_$LT$impl$u20$core..str..traits..FromStr$u20$for$u20$core..net..ip_addr..Ipv4Addr$GT$8from_str17h1cae40b44307e39eE', symObjAddr: 0x7000, symBinAddr: 0x75A20, symSize: 0x8C }
  - { offset: 0x11F7BD, size: 0x8, addend: 0x0, symName: '__ZN4core3net6parser85_$LT$impl$u20$core..str..traits..FromStr$u20$for$u20$core..net..ip_addr..Ipv6Addr$GT$8from_str17h88de12d38ce14a06E', symObjAddr: 0x70FC, symBinAddr: 0x75B1C, symSize: 0x70 }
  - { offset: 0x11F862, size: 0x8, addend: 0x0, symName: '__ZN4core3net6parser93_$LT$impl$u20$core..str..traits..FromStr$u20$for$u20$core..net..socket_addr..SocketAddrV4$GT$8from_str17h1fc993b22a81e000E', symObjAddr: 0x7278, symBinAddr: 0x75C98, symSize: 0x108 }
  - { offset: 0x11FA73, size: 0x8, addend: 0x0, symName: '__ZN4core3net6parser93_$LT$impl$u20$core..str..traits..FromStr$u20$for$u20$core..net..socket_addr..SocketAddrV6$GT$8from_str17h1993554ec593b7c4E', symObjAddr: 0x73EC, symBinAddr: 0x75E0C, symSize: 0x6C }
  - { offset: 0x11FB18, size: 0x8, addend: 0x0, symName: '__ZN4core3net6parser91_$LT$impl$u20$core..str..traits..FromStr$u20$for$u20$core..net..socket_addr..SocketAddr$GT$8from_str17ha74926dbbe486308E', symObjAddr: 0x75E8, symBinAddr: 0x76008, symSize: 0x10 }
  - { offset: 0x11FB4F, size: 0x8, addend: 0x0, symName: '__ZN72_$LT$core..net..parser..AddrParseError$u20$as$u20$core..fmt..Display$GT$3fmt17h30eb466ec35b3c81E', symObjAddr: 0x75F8, symBinAddr: 0x76018, symSize: 0x38 }
  - { offset: 0x11FBB3, size: 0x8, addend: 0x0, symName: '__ZN4core3net6parser54_$LT$impl$u20$core..net..socket_addr..SocketAddrV6$GT$11parse_ascii17hd37b0d9d3ca025c6E', symObjAddr: 0x7380, symBinAddr: 0x75DA0, symSize: 0x6C }
  - { offset: 0x11FC56, size: 0x8, addend: 0x0, symName: '__ZN4core3net6parser54_$LT$impl$u20$core..net..socket_addr..SocketAddrV4$GT$11parse_ascii17hdd2626c2f21b3c54E', symObjAddr: 0x716C, symBinAddr: 0x75B8C, symSize: 0x10C }
  - { offset: 0x11FE63, size: 0x8, addend: 0x0, symName: '__ZN4core3net6parser52_$LT$impl$u20$core..net..socket_addr..SocketAddr$GT$11parse_ascii17h5fad2946fd18da02E', symObjAddr: 0x7458, symBinAddr: 0x75E78, symSize: 0x190 }
  - { offset: 0x120097, size: 0x8, addend: 0x0, symName: '__ZN73_$LT$core..net..socket_addr..SocketAddr$u20$as$u20$core..fmt..Display$GT$3fmt17h29362ee746ed399eE', symObjAddr: 0x7630, symBinAddr: 0x76050, symSize: 0x2C }
  - { offset: 0x1200C0, size: 0x8, addend: 0x0, symName: '__ZN71_$LT$core..net..socket_addr..SocketAddr$u20$as$u20$core..fmt..Debug$GT$3fmt17h1b856387ccaa5dc3E', symObjAddr: 0x765C, symBinAddr: 0x7607C, symSize: 0x2C }
  - { offset: 0x1200F9, size: 0x8, addend: 0x0, symName: '__ZN75_$LT$core..net..socket_addr..SocketAddrV4$u20$as$u20$core..fmt..Display$GT$3fmt17h12015349dae07b90E', symObjAddr: 0x7688, symBinAddr: 0x760A8, symSize: 0x144 }
  - { offset: 0x120248, size: 0x8, addend: 0x0, symName: '__ZN73_$LT$core..net..socket_addr..SocketAddrV4$u20$as$u20$core..fmt..Debug$GT$3fmt17h4705cb36cd5b6b9aE', symObjAddr: 0x77CC, symBinAddr: 0x761EC, symSize: 0x10 }
  - { offset: 0x12026A, size: 0x8, addend: 0x0, symName: '__ZN75_$LT$core..net..socket_addr..SocketAddrV6$u20$as$u20$core..fmt..Display$GT$3fmt17h02af909ee9583cd7E', symObjAddr: 0x77DC, symBinAddr: 0x761FC, symSize: 0x230 }
  - { offset: 0x1204C4, size: 0x8, addend: 0x0, symName: '__ZN73_$LT$core..net..socket_addr..SocketAddrV6$u20$as$u20$core..fmt..Debug$GT$3fmt17h6efd22765febabbaE', symObjAddr: 0x7A0C, symBinAddr: 0x7642C, symSize: 0x10 }
  - { offset: 0x1205C4, size: 0x8, addend: 0x0, symName: __ZN4core9panicking9panic_fmt17hb606dbe0b2cbbad3E, symObjAddr: 0x7B70, symBinAddr: 0x8D2F0, symSize: 0x20 }
  - { offset: 0x120609, size: 0x8, addend: 0x0, symName: __ZN4core9panicking18panic_nounwind_fmt17h5c78563eb708b2feE, symObjAddr: 0x7B90, symBinAddr: 0x8D310, symSize: 0x3C }
  - { offset: 0x120650, size: 0x8, addend: 0x0, symName: __ZN4core9panicking5panic17ha033a5805bacba83E, symObjAddr: 0x7BCC, symBinAddr: 0x8D34C, symSize: 0x34 }
  - { offset: 0x120680, size: 0x8, addend: 0x0, symName: __ZN4core9panicking14panic_nounwind17ha3d4aafccec32f80E, symObjAddr: 0x7C00, symBinAddr: 0x8D380, symSize: 0x3C }
  - { offset: 0x1206B0, size: 0x8, addend: 0x0, symName: __ZN4core9panicking26panic_nounwind_nobacktrace17h024e726845abc952E, symObjAddr: 0x7C3C, symBinAddr: 0x8D3BC, symSize: 0x3C }
  - { offset: 0x1206EE, size: 0x8, addend: 0x0, symName: __ZN4core9panicking14panic_explicit17hdb9e107951bf6476E, symObjAddr: 0x7C78, symBinAddr: 0x8D3F8, symSize: 0x48 }
  - { offset: 0x120736, size: 0x8, addend: 0x0, symName: __ZN4core9panicking18panic_bounds_check17hd5d78886b67a6395E, symObjAddr: 0x7CC0, symBinAddr: 0x8D440, symSize: 0x50 }
  - { offset: 0x120769, size: 0x8, addend: 0x0, symName: __ZN4core9panicking36panic_misaligned_pointer_dereference17hf2634374940d44c2E, symObjAddr: 0x7D10, symBinAddr: 0x8D490, symSize: 0x58 }
  - { offset: 0x12079C, size: 0x8, addend: 0x0, symName: __ZN4core9panicking30panic_null_pointer_dereference17h72bd57c21d75cc9cE, symObjAddr: 0x7D68, symBinAddr: 0x8D4E8, symSize: 0x38 }
  - { offset: 0x1207CE, size: 0x8, addend: 0x0, symName: __ZN4core9panicking19panic_cannot_unwind17h2df48aa010624dc5E, symObjAddr: 0x7DA0, symBinAddr: 0x8D520, symSize: 0x18 }
  - { offset: 0x1207E9, size: 0x8, addend: 0x0, symName: __ZN4core9panicking16panic_in_cleanup17h7c97b76eab311cc3E, symObjAddr: 0x7DB8, symBinAddr: 0x8D538, symSize: 0x18 }
  - { offset: 0x120812, size: 0x8, addend: 0x0, symName: __ZN4core9panicking15const_panic_fmt17hf4bab6e796784cb9E, symObjAddr: 0x7DD0, symBinAddr: 0x8D550, symSize: 0x64 }
  - { offset: 0x120831, size: 0x8, addend: 0x0, symName: __ZN4core9panicking15const_panic_fmt17hf4bab6e796784cb9E, symObjAddr: 0x7DD0, symBinAddr: 0x8D550, symSize: 0x64 }
  - { offset: 0x120872, size: 0x8, addend: 0x0, symName: __ZN4core9panicking13assert_failed17h157318bf144014d0E, symObjAddr: 0x7E34, symBinAddr: 0x8D5B4, symSize: 0x24 }
  - { offset: 0x12088D, size: 0x8, addend: 0x0, symName: __ZN4core9panicking13assert_failed17hd815da086e821d46E, symObjAddr: 0x7E58, symBinAddr: 0x8D5D8, symSize: 0x24 }
  - { offset: 0x1208B4, size: 0x8, addend: 0x0, symName: '__ZN84_$LT$core..panicking..assert_matches_failed..Pattern$u20$as$u20$core..fmt..Debug$GT$3fmt17h1f1fe5d9c4952813E', symObjAddr: 0x7E7C, symBinAddr: 0x7652C, symSize: 0x20 }
  - { offset: 0x1208E8, size: 0x8, addend: 0x0, symName: __ZN4core9panicking19assert_failed_inner17h22ccd8384b75453bE, symObjAddr: 0x7E9C, symBinAddr: 0x8D5FC, symSize: 0xE4 }
  - { offset: 0x120938, size: 0x8, addend: 0x0, symName: __ZN4core9panicking11panic_const24panic_const_add_overflow17h44329732ce808d9aE, symObjAddr: 0x173DC, symBinAddr: 0x8DA54, symSize: 0x34 }
  - { offset: 0x120968, size: 0x8, addend: 0x0, symName: __ZN4core9panicking11panic_const24panic_const_sub_overflow17h9c0622ee52b7bc0bE, symObjAddr: 0x17410, symBinAddr: 0x8DA88, symSize: 0x34 }
  - { offset: 0x120998, size: 0x8, addend: 0x0, symName: __ZN4core9panicking11panic_const24panic_const_mul_overflow17h6290b678a80706e1E, symObjAddr: 0x17444, symBinAddr: 0x8DABC, symSize: 0x34 }
  - { offset: 0x1209C8, size: 0x8, addend: 0x0, symName: __ZN4core9panicking11panic_const24panic_const_div_overflow17hcaea62c867967411E, symObjAddr: 0x17478, symBinAddr: 0x8DAF0, symSize: 0x34 }
  - { offset: 0x1209F8, size: 0x8, addend: 0x0, symName: __ZN4core9panicking11panic_const24panic_const_rem_overflow17h05df15a41d1bfd9eE, symObjAddr: 0x174AC, symBinAddr: 0x8DB24, symSize: 0x34 }
  - { offset: 0x120A28, size: 0x8, addend: 0x0, symName: __ZN4core9panicking11panic_const24panic_const_neg_overflow17hb07c50c9b8c517dcE, symObjAddr: 0x174E0, symBinAddr: 0x8DB58, symSize: 0x34 }
  - { offset: 0x120A58, size: 0x8, addend: 0x0, symName: __ZN4core9panicking11panic_const24panic_const_shr_overflow17h5c069c09a177072dE, symObjAddr: 0x17514, symBinAddr: 0x8DB8C, symSize: 0x34 }
  - { offset: 0x120A88, size: 0x8, addend: 0x0, symName: __ZN4core9panicking11panic_const24panic_const_shl_overflow17h40b589d4f31f22baE, symObjAddr: 0x17548, symBinAddr: 0x8DBC0, symSize: 0x34 }
  - { offset: 0x120AB8, size: 0x8, addend: 0x0, symName: __ZN4core9panicking11panic_const23panic_const_div_by_zero17hcbb5ee6d8b01d5ebE, symObjAddr: 0x1757C, symBinAddr: 0x8DBF4, symSize: 0x34 }
  - { offset: 0x120AE8, size: 0x8, addend: 0x0, symName: __ZN4core9panicking11panic_const23panic_const_rem_by_zero17h7dd219dfb3411412E, symObjAddr: 0x175B0, symBinAddr: 0x8DC28, symSize: 0x34 }
  - { offset: 0x120B18, size: 0x8, addend: 0x0, symName: __ZN4core9panicking11panic_const29panic_const_coroutine_resumed17h9224f8e15a539f43E, symObjAddr: 0x175E4, symBinAddr: 0x8DC5C, symSize: 0x34 }
  - { offset: 0x120B48, size: 0x8, addend: 0x0, symName: __ZN4core9panicking11panic_const28panic_const_async_fn_resumed17hb376fb1615022c88E, symObjAddr: 0x17618, symBinAddr: 0x8DC90, symSize: 0x34 }
  - { offset: 0x120B78, size: 0x8, addend: 0x0, symName: __ZN4core9panicking11panic_const32panic_const_async_gen_fn_resumed17h517fae676e393b84E, symObjAddr: 0x1764C, symBinAddr: 0x8DCC4, symSize: 0x34 }
  - { offset: 0x120BA8, size: 0x8, addend: 0x0, symName: __ZN4core9panicking11panic_const23panic_const_gen_fn_none17h2c06801526abe343E, symObjAddr: 0x17680, symBinAddr: 0x8DCF8, symSize: 0x34 }
  - { offset: 0x120BD8, size: 0x8, addend: 0x0, symName: __ZN4core9panicking11panic_const35panic_const_coroutine_resumed_panic17h22cb30bf159c10ecE, symObjAddr: 0x176B4, symBinAddr: 0x8DD2C, symSize: 0x34 }
  - { offset: 0x120C08, size: 0x8, addend: 0x0, symName: __ZN4core9panicking11panic_const34panic_const_async_fn_resumed_panic17h09ffbbedc3c2ee4dE, symObjAddr: 0x176E8, symBinAddr: 0x8DD60, symSize: 0x34 }
  - { offset: 0x120C38, size: 0x8, addend: 0x0, symName: __ZN4core9panicking11panic_const38panic_const_async_gen_fn_resumed_panic17h8405f94161652d95E, symObjAddr: 0x1771C, symBinAddr: 0x8DD94, symSize: 0x34 }
  - { offset: 0x120C68, size: 0x8, addend: 0x0, symName: __ZN4core9panicking11panic_const29panic_const_gen_fn_none_panic17h90a6d54264be0a54E, symObjAddr: 0x17750, symBinAddr: 0x8DDC8, symSize: 0x34 }
  - { offset: 0x120C98, size: 0x8, addend: 0x0, symName: __ZN4core9panicking11panic_const34panic_const_coroutine_resumed_drop17ha2a2dfc93be35e7aE, symObjAddr: 0x17784, symBinAddr: 0x8DDFC, symSize: 0x34 }
  - { offset: 0x120CC8, size: 0x8, addend: 0x0, symName: __ZN4core9panicking11panic_const33panic_const_async_fn_resumed_drop17hb7c510ff1c4392dfE, symObjAddr: 0x177B8, symBinAddr: 0x8DE30, symSize: 0x34 }
  - { offset: 0x120CF8, size: 0x8, addend: 0x0, symName: __ZN4core9panicking11panic_const37panic_const_async_gen_fn_resumed_drop17ha71b6846b5bc0232E, symObjAddr: 0x177EC, symBinAddr: 0x8DE64, symSize: 0x34 }
  - { offset: 0x120D28, size: 0x8, addend: 0x0, symName: __ZN4core9panicking11panic_const28panic_const_gen_fn_none_drop17h81d47b9937969ee9E, symObjAddr: 0x17820, symBinAddr: 0x8DE98, symSize: 0x34 }
  - { offset: 0x120D87, size: 0x8, addend: 0x0, symName: '__ZN73_$LT$core..panic..panic_info..PanicInfo$u20$as$u20$core..fmt..Display$GT$3fmt17h9edc150903b3fc6cE', symObjAddr: 0x7A80, symBinAddr: 0x7643C, symSize: 0xF0 }
  - { offset: 0x120EEF, size: 0x8, addend: 0x0, symName: '__ZN48_$LT$char$u20$as$u20$core..pat..RangePattern$GT$7sub_one17hc37c6c1d08a7e6a1E', symObjAddr: 0x7F80, symBinAddr: 0x7654C, symSize: 0x54 }
  - { offset: 0x120F67, size: 0x8, addend: 0x0, symName: '__ZN46_$LT$i8$u20$as$u20$core..pat..RangePattern$GT$7sub_one17h84ef6a192bb1197eE', symObjAddr: 0x17854, symBinAddr: 0x85634, symSize: 0x48 }
  - { offset: 0x120FE0, size: 0x8, addend: 0x0, symName: '__ZN47_$LT$i16$u20$as$u20$core..pat..RangePattern$GT$7sub_one17h81e916489c5d11c7E', symObjAddr: 0x1789C, symBinAddr: 0x8567C, symSize: 0x48 }
  - { offset: 0x121059, size: 0x8, addend: 0x0, symName: '__ZN47_$LT$i32$u20$as$u20$core..pat..RangePattern$GT$7sub_one17h455c716135fa61ddE', symObjAddr: 0x178E4, symBinAddr: 0x856C4, symSize: 0x3C }
  - { offset: 0x121077, size: 0x8, addend: 0x0, symName: '__ZN47_$LT$i32$u20$as$u20$core..pat..RangePattern$GT$7sub_one17h455c716135fa61ddE', symObjAddr: 0x178E4, symBinAddr: 0x856C4, symSize: 0x3C }
  - { offset: 0x12108C, size: 0x8, addend: 0x0, symName: '__ZN47_$LT$i32$u20$as$u20$core..pat..RangePattern$GT$7sub_one17h455c716135fa61ddE', symObjAddr: 0x178E4, symBinAddr: 0x856C4, symSize: 0x3C }
  - { offset: 0x1210D2, size: 0x8, addend: 0x0, symName: '__ZN47_$LT$i64$u20$as$u20$core..pat..RangePattern$GT$7sub_one17h74bd88005bd8cd62E', symObjAddr: 0x17920, symBinAddr: 0x85700, symSize: 0x3C }
  - { offset: 0x1210F0, size: 0x8, addend: 0x0, symName: '__ZN47_$LT$i64$u20$as$u20$core..pat..RangePattern$GT$7sub_one17h74bd88005bd8cd62E', symObjAddr: 0x17920, symBinAddr: 0x85700, symSize: 0x3C }
  - { offset: 0x121105, size: 0x8, addend: 0x0, symName: '__ZN47_$LT$i64$u20$as$u20$core..pat..RangePattern$GT$7sub_one17h74bd88005bd8cd62E', symObjAddr: 0x17920, symBinAddr: 0x85700, symSize: 0x3C }
  - { offset: 0x12114B, size: 0x8, addend: 0x0, symName: '__ZN48_$LT$i128$u20$as$u20$core..pat..RangePattern$GT$7sub_one17h47f7e6054868e481E', symObjAddr: 0x1795C, symBinAddr: 0x8573C, symSize: 0x4C }
  - { offset: 0x121169, size: 0x8, addend: 0x0, symName: '__ZN48_$LT$i128$u20$as$u20$core..pat..RangePattern$GT$7sub_one17h47f7e6054868e481E', symObjAddr: 0x1795C, symBinAddr: 0x8573C, symSize: 0x4C }
  - { offset: 0x12117E, size: 0x8, addend: 0x0, symName: '__ZN48_$LT$i128$u20$as$u20$core..pat..RangePattern$GT$7sub_one17h47f7e6054868e481E', symObjAddr: 0x1795C, symBinAddr: 0x8573C, symSize: 0x4C }
  - { offset: 0x1211C4, size: 0x8, addend: 0x0, symName: '__ZN46_$LT$u8$u20$as$u20$core..pat..RangePattern$GT$7sub_one17h76b9dc75d1c37cd7E', symObjAddr: 0x179A8, symBinAddr: 0x85788, symSize: 0x40 }
  - { offset: 0x121210, size: 0x8, addend: 0x0, symName: '__ZN47_$LT$u16$u20$as$u20$core..pat..RangePattern$GT$7sub_one17hd743313e227472dcE', symObjAddr: 0x179E8, symBinAddr: 0x857C8, symSize: 0x40 }
  - { offset: 0x12125C, size: 0x8, addend: 0x0, symName: '__ZN47_$LT$u32$u20$as$u20$core..pat..RangePattern$GT$7sub_one17hf31dcdf8de100bdbE', symObjAddr: 0x17A28, symBinAddr: 0x85808, symSize: 0x3C }
  - { offset: 0x12127A, size: 0x8, addend: 0x0, symName: '__ZN47_$LT$u32$u20$as$u20$core..pat..RangePattern$GT$7sub_one17hf31dcdf8de100bdbE', symObjAddr: 0x17A28, symBinAddr: 0x85808, symSize: 0x3C }
  - { offset: 0x1212A8, size: 0x8, addend: 0x0, symName: '__ZN47_$LT$u64$u20$as$u20$core..pat..RangePattern$GT$7sub_one17heda5cb53cc25b99fE', symObjAddr: 0x17A64, symBinAddr: 0x85844, symSize: 0x3C }
  - { offset: 0x1212C6, size: 0x8, addend: 0x0, symName: '__ZN47_$LT$u64$u20$as$u20$core..pat..RangePattern$GT$7sub_one17heda5cb53cc25b99fE', symObjAddr: 0x17A64, symBinAddr: 0x85844, symSize: 0x3C }
  - { offset: 0x1212F4, size: 0x8, addend: 0x0, symName: '__ZN48_$LT$u128$u20$as$u20$core..pat..RangePattern$GT$7sub_one17h149ade1305c68c2bE', symObjAddr: 0x17AA0, symBinAddr: 0x85880, symSize: 0x4C }
  - { offset: 0x121312, size: 0x8, addend: 0x0, symName: '__ZN48_$LT$u128$u20$as$u20$core..pat..RangePattern$GT$7sub_one17h149ade1305c68c2bE', symObjAddr: 0x17AA0, symBinAddr: 0x85880, symSize: 0x4C }
  - { offset: 0x121370, size: 0x8, addend: 0x0, symName: '__ZN67_$LT$core..sync..atomic..AtomicBool$u20$as$u20$core..fmt..Debug$GT$3fmt17hef40a62a7f1d7f86E', symObjAddr: 0x8030, symBinAddr: 0x765A0, symSize: 0x44 }
  - { offset: 0x12143D, size: 0x8, addend: 0x0, symName: '__ZN65_$LT$core..sync..atomic..AtomicI8$u20$as$u20$core..fmt..Debug$GT$3fmt17haa949cf1a3e24bfdE', symObjAddr: 0x17AEC, symBinAddr: 0x858CC, symSize: 0x14 }
  - { offset: 0x1214A2, size: 0x8, addend: 0x0, symName: '__ZN65_$LT$core..sync..atomic..AtomicU8$u20$as$u20$core..fmt..Debug$GT$3fmt17h33abae16701f8974E', symObjAddr: 0x17B00, symBinAddr: 0x858E0, symSize: 0x14 }
  - { offset: 0x121515, size: 0x8, addend: 0x0, symName: '__ZN66_$LT$core..sync..atomic..AtomicI16$u20$as$u20$core..fmt..Debug$GT$3fmt17ha8ce2b364e6de200E', symObjAddr: 0x17B14, symBinAddr: 0x858F4, symSize: 0xF0 }
  - { offset: 0x1216C6, size: 0x8, addend: 0x0, symName: '__ZN66_$LT$core..sync..atomic..AtomicU16$u20$as$u20$core..fmt..Debug$GT$3fmt17ha31bc34165ad447aE', symObjAddr: 0x17C04, symBinAddr: 0x859E4, symSize: 0xE0 }
  - { offset: 0x12184A, size: 0x8, addend: 0x0, symName: '__ZN66_$LT$core..sync..atomic..AtomicI32$u20$as$u20$core..fmt..Debug$GT$3fmt17hb73557caa343604aE', symObjAddr: 0x17CE4, symBinAddr: 0x85AC4, symSize: 0xF0 }
  - { offset: 0x121A0B, size: 0x8, addend: 0x0, symName: '__ZN66_$LT$core..sync..atomic..AtomicU32$u20$as$u20$core..fmt..Debug$GT$3fmt17h96bb184c2709e623E', symObjAddr: 0x17DD4, symBinAddr: 0x85BB4, symSize: 0xE0 }
  - { offset: 0x121B9F, size: 0x8, addend: 0x0, symName: '__ZN66_$LT$core..sync..atomic..AtomicI64$u20$as$u20$core..fmt..Debug$GT$3fmt17h817bfcc6c8f6bda4E', symObjAddr: 0x17EB4, symBinAddr: 0x85C94, symSize: 0xEC }
  - { offset: 0x121D60, size: 0x8, addend: 0x0, symName: '__ZN66_$LT$core..sync..atomic..AtomicU64$u20$as$u20$core..fmt..Debug$GT$3fmt17h14ac0221cfab3595E', symObjAddr: 0x17FA0, symBinAddr: 0x85D80, symSize: 0xE0 }
  - { offset: 0x121EF4, size: 0x8, addend: 0x0, symName: '__ZN67_$LT$core..sync..atomic..AtomicI128$u20$as$u20$core..fmt..Debug$GT$3fmt17he92822315be982caE', symObjAddr: 0x18080, symBinAddr: 0x85E60, symSize: 0x28 }
  - { offset: 0x121F67, size: 0x8, addend: 0x0, symName: '__ZN67_$LT$core..sync..atomic..AtomicU128$u20$as$u20$core..fmt..Debug$GT$3fmt17hd50fd5c51fc3151fE', symObjAddr: 0x180A8, symBinAddr: 0x85E88, symSize: 0x28 }
  - { offset: 0x121FDA, size: 0x8, addend: 0x0, symName: '__ZN68_$LT$core..sync..atomic..AtomicUsize$u20$as$u20$core..fmt..Debug$GT$3fmt17hd2e56875b85a6f4bE', symObjAddr: 0x180D0, symBinAddr: 0x85EB0, symSize: 0xE0 }
  - { offset: 0x12217B, size: 0x8, addend: 0x0, symName: '__ZN4core3f6421_$LT$impl$u20$f64$GT$5clamp8do_panic7runtime17h4f8e9eb47db47022E', symObjAddr: 0x120D4, symBinAddr: 0x8D8DC, symSize: 0x50 }
  - { offset: 0x1221F3, size: 0x8, addend: 0x0, symName: '__ZN4core3f3221_$LT$impl$u20$f32$GT$5clamp8do_panic7runtime17h8d0065ccace0ca56E', symObjAddr: 0x12084, symBinAddr: 0x8D88C, symSize: 0x50 }
  - { offset: 0x122251, size: 0x8, addend: 0x0, symName: '__ZN57_$LT$core..time..Duration$u20$as$u20$core..fmt..Debug$GT$3fmt17h5bff3c5f11460611E', symObjAddr: 0x11208, symBinAddr: 0x7F628, symSize: 0xF4 }
  - { offset: 0x122289, size: 0x8, addend: 0x0, symName: '__ZN57_$LT$core..time..Duration$u20$as$u20$core..fmt..Debug$GT$3fmt11fmt_decimal17h32d18169671dd45bE', symObjAddr: 0x112FC, symBinAddr: 0x7F71C, symSize: 0x56C }
  - { offset: 0x12258C, size: 0x8, addend: 0x0, symName: '__ZN57_$LT$core..time..Duration$u20$as$u20$core..fmt..Debug$GT$3fmt11fmt_decimal28_$u7b$$u7b$closure$u7d$$u7d$17he30a7a8e1df02138E', symObjAddr: 0x11868, symBinAddr: 0x7FC88, symSize: 0x210 }
  - { offset: 0x12271B, size: 0x8, addend: 0x0, symName: '__ZN72_$LT$core..time..TryFromFloatSecsError$u20$as$u20$core..fmt..Display$GT$3fmt17he86cbc3785c3b97cE', symObjAddr: 0x11A78, symBinAddr: 0x7FE98, symSize: 0x48 }
  - { offset: 0x12278D, size: 0x8, addend: 0x0, symName: '__ZN62_$LT$core..task..wake..Context$u20$as$u20$core..fmt..Debug$GT$3fmt17hdae558a3b5df0776E', symObjAddr: 0x11D74, symBinAddr: 0x80194, symSize: 0xC4 }
  - { offset: 0x12288A, size: 0x8, addend: 0x0, symName: '__ZN60_$LT$core..task..wake..Waker$u20$as$u20$core..fmt..Debug$GT$3fmt17h73fad3ff13466137E', symObjAddr: 0x11E38, symBinAddr: 0x80258, symSize: 0xEC }
  - { offset: 0x122987, size: 0x8, addend: 0x0, symName: '__ZN65_$LT$core..task..wake..LocalWaker$u20$as$u20$core..fmt..Debug$GT$3fmt17hbfc8d5294e83c831E', symObjAddr: 0x11F24, symBinAddr: 0x80344, symSize: 0xEC }
  - { offset: 0x122A92, size: 0x8, addend: 0x0, symName: __ZN4core5alloc6layout6Layout19is_size_align_valid17hfe75c388ef978965E, symObjAddr: 0x12010, symBinAddr: 0x80430, symSize: 0x2C }
  - { offset: 0x122AC9, size: 0x8, addend: 0x0, symName: '__ZN71_$LT$core..alloc..layout..LayoutError$u20$as$u20$core..fmt..Display$GT$3fmt17h317f78166c956450E', symObjAddr: 0x1203C, symBinAddr: 0x8045C, symSize: 0x24 }
  - { offset: 0x122B03, size: 0x8, addend: 0x0, symName: '__ZN62_$LT$core..alloc..AllocError$u20$as$u20$core..fmt..Display$GT$3fmt17h6fc1494cebc804f0E', symObjAddr: 0x12060, symBinAddr: 0x80480, symSize: 0x24 }
  - { offset: 0x122B47, size: 0x8, addend: 0x0, symName: '__ZN85_$LT$core..marker..variance..PhantomCovariantLifetime$u20$as$u20$core..fmt..Debug$GT$3fmt17h466e596f77cbd800E', symObjAddr: 0x16DE8, symBinAddr: 0x85118, symSize: 0x24 }
  - { offset: 0x122B7F, size: 0x8, addend: 0x0, symName: '__ZN89_$LT$core..marker..variance..PhantomContravariantLifetime$u20$as$u20$core..fmt..Debug$GT$3fmt17h7a5791df55d569c3E', symObjAddr: 0x16E0C, symBinAddr: 0x8513C, symSize: 0x24 }
  - { offset: 0x122BB7, size: 0x8, addend: 0x0, symName: '__ZN85_$LT$core..marker..variance..PhantomInvariantLifetime$u20$as$u20$core..fmt..Debug$GT$3fmt17h9eccab541e5e18c4E', symObjAddr: 0x16E30, symBinAddr: 0x85160, symSize: 0x24 }
  - { offset: 0x122C1F, size: 0x8, addend: 0x0, symName: __ZN17compiler_builtins3int19specialized_div_rem12u128_div_rem17h4d9e17e2922511e8E, symObjAddr: 0x0, symBinAddr: 0x8A92C, symSize: 0x334 }
  - { offset: 0x122CF1, size: 0x8, addend: 0x0, symName: __ZN17compiler_builtins3int19specialized_div_rem12u128_div_rem17h4d9e17e2922511e8E, symObjAddr: 0x0, symBinAddr: 0x8A92C, symSize: 0x334 }
  - { offset: 0x122D0F, size: 0x8, addend: 0x0, symName: __ZN17compiler_builtins3int19specialized_div_rem12u128_div_rem17h4d9e17e2922511e8E, symObjAddr: 0x0, symBinAddr: 0x8A92C, symSize: 0x334 }
  - { offset: 0x123043, size: 0x8, addend: 0x0, symName: ___udivti3, symObjAddr: 0x0, symBinAddr: 0x8AC60, symSize: 0x28 }
  - { offset: 0x123069, size: 0x8, addend: 0x0, symName: ___udivti3, symObjAddr: 0x0, symBinAddr: 0x8AC60, symSize: 0x28 }
...
