---
triple:          'arm64-apple-darwin'
binary-path:     '/Users/klaus/Library/Developer/Xcode/DerivedData/OPAQUEAAWaaSModule-fuqdibrybtakesgrgcfiezbbnsbb/Build/Intermediates.noindex/ArchiveIntermediates/OPAQUEAAWaaSModule/InstallationBuildProductsLocation/Library/Frameworks/OPAQUEAAWaaSModule.framework/Versions/A/OPAQUEAAWaaSModule'
relocations:
  - { offset: 0x8D8A3, size: 0x8, addend: 0x0, symName: '__ZN108_$LT$alloc..collections..btree..map..Iter$LT$K$C$V$GT$$u20$as$u20$core..iter..traits..iterator..Iterator$GT$4next17h0cec5f5d0e87a8fdE', symObjAddr: 0x0, symBinAddr: 0x5B6C, symSize: 0x13C }
  - { offset: 0x8DDA1, size: 0x8, addend: 0x0, symName: '__ZN5alloc11collections5btree4node208Handle$LT$alloc..collections..btree..node..NodeRef$LT$alloc..collections..btree..node..marker..Mut$C$K$C$V$C$alloc..collections..btree..node..marker..Leaf$GT$$C$alloc..collections..btree..node..marker..KV$GT$5split17habdaa6d1e1367ed4E', symObjAddr: 0xEAD4, symBinAddr: 0x14390, symSize: 0x1D4 }
  - { offset: 0x8E2C4, size: 0x8, addend: 0x0, symName: '__ZN5alloc11collections5btree4node208Handle$LT$alloc..collections..btree..node..NodeRef$LT$alloc..collections..btree..node..marker..Mut$C$K$C$V$C$alloc..collections..btree..node..marker..Leaf$GT$$C$alloc..collections..btree..node..marker..KV$GT$5split17hc08196e262c72743E', symObjAddr: 0xECA8, symBinAddr: 0x14564, symSize: 0x1C8 }
  - { offset: 0x8E7BE, size: 0x8, addend: 0x0, symName: '__ZN5alloc11collections5btree4node212Handle$LT$alloc..collections..btree..node..NodeRef$LT$alloc..collections..btree..node..marker..Mut$C$K$C$V$C$alloc..collections..btree..node..marker..Internal$GT$$C$alloc..collections..btree..node..marker..KV$GT$5split17h07566a46ae43fa14E', symObjAddr: 0xEE70, symBinAddr: 0x1472C, symSize: 0x294 }
  - { offset: 0x8EEF4, size: 0x8, addend: 0x0, symName: '__ZN5alloc11collections5btree4node212Handle$LT$alloc..collections..btree..node..NodeRef$LT$alloc..collections..btree..node..marker..Mut$C$K$C$V$C$alloc..collections..btree..node..marker..Internal$GT$$C$alloc..collections..btree..node..marker..KV$GT$5split17h4f7add8565b45a6dE', symObjAddr: 0xF104, symBinAddr: 0x149C0, symSize: 0x2A0 }
  - { offset: 0x8F6A7, size: 0x8, addend: 0x0, symName: '__ZN5alloc11collections5btree6remove259_$LT$impl$u20$alloc..collections..btree..node..Handle$LT$alloc..collections..btree..node..NodeRef$LT$alloc..collections..btree..node..marker..Mut$C$K$C$V$C$alloc..collections..btree..node..marker..Leaf$GT$$C$alloc..collections..btree..node..marker..KV$GT$$GT$14remove_leaf_kv17h5a34abd22189ad3eE', symObjAddr: 0xFB4C, symBinAddr: 0x15408, symSize: 0x570 }
  - { offset: 0x903E4, size: 0x8, addend: 0x0, symName: '__ZN5alloc11collections5btree6remove259_$LT$impl$u20$alloc..collections..btree..node..Handle$LT$alloc..collections..btree..node..NodeRef$LT$alloc..collections..btree..node..marker..Mut$C$K$C$V$C$alloc..collections..btree..node..marker..Leaf$GT$$C$alloc..collections..btree..node..marker..KV$GT$$GT$14remove_leaf_kv17hacd1b5df4c719688E', symObjAddr: 0x100BC, symBinAddr: 0x15978, symSize: 0x570 }
  - { offset: 0x91FAE, size: 0x8, addend: 0x0, symName: '__ZN5alloc11collections5btree4node29BalancingContext$LT$K$C$V$GT$15bulk_steal_left17h0caf65b88ff32092E', symObjAddr: 0xF3A4, symBinAddr: 0x14C60, symSize: 0x284 }
  - { offset: 0x925EF, size: 0x8, addend: 0x0, symName: '__ZN5alloc11collections5btree4node29BalancingContext$LT$K$C$V$GT$16bulk_steal_right17h6b89dcdf4a9a815dE', symObjAddr: 0xF628, symBinAddr: 0x14EE4, symSize: 0x2CC }
  - { offset: 0x92CF8, size: 0x8, addend: 0x0, symName: '__ZN5alloc11collections5btree4node29BalancingContext$LT$K$C$V$GT$8do_merge17h058bae853c797457E', symObjAddr: 0xF8F4, symBinAddr: 0x151B0, symSize: 0x258 }
  - { offset: 0x93535, size: 0x8, addend: 0x0, symName: '__ZN108_$LT$alloc..collections..btree..map..Iter$LT$K$C$V$GT$$u20$as$u20$core..iter..traits..iterator..Iterator$GT$4next17h0cec5f5d0e87a8fdE', symObjAddr: 0x0, symBinAddr: 0x5B6C, symSize: 0x13C }
  - { offset: 0x9393A, size: 0x8, addend: 0x0, symName: '__ZN5alloc11collections5btree3map25BTreeMap$LT$K$C$V$C$A$GT$6insert17h5a2b7ce360e4d055E', symObjAddr: 0xD0A8, symBinAddr: 0x12964, symSize: 0x9BC }
  - { offset: 0x95200, size: 0x8, addend: 0x0, symName: '__ZN5alloc11collections5btree3map25BTreeMap$LT$K$C$V$C$A$GT$6insert17h95722f51a7f33ea9E', symObjAddr: 0xDA64, symBinAddr: 0x13320, symSize: 0x9F8 }
  - { offset: 0x96C6F, size: 0x8, addend: 0x0, symName: '__ZN5alloc11collections5btree3map25IntoIter$LT$K$C$V$C$A$GT$10dying_next17h0a2247744e139363E', symObjAddr: 0xE45C, symBinAddr: 0x13D18, symSize: 0x228 }
  - { offset: 0x97059, size: 0x8, addend: 0x0, symName: '__ZN5alloc11collections5btree3map25IntoIter$LT$K$C$V$C$A$GT$10dying_next17h6346b91333c5b901E', symObjAddr: 0xE684, symBinAddr: 0x13F40, symSize: 0x228 }
  - { offset: 0x97443, size: 0x8, addend: 0x0, symName: '__ZN5alloc11collections5btree3map25IntoIter$LT$K$C$V$C$A$GT$10dying_next17h68d18f8af8323a5bE', symObjAddr: 0xE8AC, symBinAddr: 0x14168, symSize: 0x228 }
  - { offset: 0x97834, size: 0x8, addend: 0x0, symName: '__ZN94_$LT$alloc..collections..btree..map..BTreeMap$LT$K$C$V$C$A$GT$$u20$as$u20$core..fmt..Debug$GT$3fmt17h8d2fa59156d682d9E', symObjAddr: 0x18E6C, symBinAddr: 0x1E5B0, symSize: 0xB8 }
  - { offset: 0x98965, size: 0x8, addend: 0x0, symName: '__ZN5alloc7raw_vec19RawVec$LT$T$C$A$GT$8grow_one17h005b1fefd5dab5bcE', symObjAddr: 0x10C30, symBinAddr: 0x16464, symSize: 0xB4 }
  - { offset: 0x98A87, size: 0x8, addend: 0x0, symName: '__ZN5alloc7raw_vec19RawVec$LT$T$C$A$GT$8grow_one17h02708a5f25ff72e8E', symObjAddr: 0x10CE4, symBinAddr: 0x16518, symSize: 0xB4 }
  - { offset: 0x98BA9, size: 0x8, addend: 0x0, symName: '__ZN5alloc7raw_vec19RawVec$LT$T$C$A$GT$8grow_one17h052f01a629fddb85E', symObjAddr: 0x10D98, symBinAddr: 0x165CC, symSize: 0xC4 }
  - { offset: 0x98CCB, size: 0x8, addend: 0x0, symName: '__ZN5alloc7raw_vec19RawVec$LT$T$C$A$GT$8grow_one17h29c5c38526183d6dE', symObjAddr: 0x10E5C, symBinAddr: 0x16690, symSize: 0xC4 }
  - { offset: 0x98DED, size: 0x8, addend: 0x0, symName: '__ZN5alloc7raw_vec19RawVec$LT$T$C$A$GT$8grow_one17h2cd77badb1241026E', symObjAddr: 0x10F20, symBinAddr: 0x16754, symSize: 0xC4 }
  - { offset: 0x98F0F, size: 0x8, addend: 0x0, symName: '__ZN5alloc7raw_vec19RawVec$LT$T$C$A$GT$8grow_one17h59708c6c8595b912E', symObjAddr: 0x10FE4, symBinAddr: 0x16818, symSize: 0xC4 }
  - { offset: 0x99031, size: 0x8, addend: 0x0, symName: '__ZN5alloc7raw_vec19RawVec$LT$T$C$A$GT$8grow_one17h6481f71c1e6c2602E', symObjAddr: 0x110A8, symBinAddr: 0x168DC, symSize: 0xC0 }
  - { offset: 0x99153, size: 0x8, addend: 0x0, symName: '__ZN5alloc7raw_vec19RawVec$LT$T$C$A$GT$8grow_one17h69fb10d749d914b5E', symObjAddr: 0x11168, symBinAddr: 0x1699C, symSize: 0xB4 }
  - { offset: 0x99275, size: 0x8, addend: 0x0, symName: '__ZN5alloc7raw_vec19RawVec$LT$T$C$A$GT$8grow_one17h7b6cfde1871e4629E', symObjAddr: 0x1121C, symBinAddr: 0x16A50, symSize: 0xC4 }
  - { offset: 0x99397, size: 0x8, addend: 0x0, symName: '__ZN5alloc7raw_vec19RawVec$LT$T$C$A$GT$8grow_one17h81d292509ab6c5c7E', symObjAddr: 0x112E0, symBinAddr: 0x16B14, symSize: 0xC0 }
  - { offset: 0x994B9, size: 0x8, addend: 0x0, symName: '__ZN5alloc7raw_vec19RawVec$LT$T$C$A$GT$8grow_one17hd5271f7a6f08be2bE', symObjAddr: 0x113A0, symBinAddr: 0x16BD4, symSize: 0xB4 }
  - { offset: 0x995DB, size: 0x8, addend: 0x0, symName: '__ZN5alloc7raw_vec19RawVec$LT$T$C$A$GT$8grow_one17he403b815ca4de11fE', symObjAddr: 0x11454, symBinAddr: 0x16C88, symSize: 0xC0 }
  - { offset: 0x9A2CD, size: 0x8, addend: 0x0, symName: '__ZN5alloc7raw_vec20RawVecInner$LT$A$GT$7reserve21do_reserve_and_handle17h1e9e54d6a2872148E', symObjAddr: 0x11514, symBinAddr: 0x8BE80, symSize: 0xF0 }
  - { offset: 0x9BB52, size: 0x8, addend: 0x0, symName: '__ZN65_$LT$alloc..vec..Vec$LT$T$C$A$GT$$u20$as$u20$core..fmt..Debug$GT$3fmt17h7133c0f39156bf43E', symObjAddr: 0x183B4, symBinAddr: 0x1DAF8, symSize: 0x70 }
  - { offset: 0x9BC57, size: 0x8, addend: 0x0, symName: '__ZN65_$LT$alloc..vec..Vec$LT$T$C$A$GT$$u20$as$u20$core..fmt..Debug$GT$3fmt17hc5136f7d9d61afeeE', symObjAddr: 0x18424, symBinAddr: 0x1DB68, symSize: 0x74 }
  - { offset: 0x9C7EB, size: 0x8, addend: 0x0, symName: __ZN5alloc5alloc15exchange_malloc17h57b4dbc9784038b5E, symObjAddr: 0x10B54, symBinAddr: 0x16410, symSize: 0x54 }
  - { offset: 0x9C8BD, size: 0x8, addend: 0x0, symName: '__ZN5alloc4sync16Arc$LT$T$C$A$GT$9drop_slow17h0527b3f6c04ca9edE', symObjAddr: 0x1062C, symBinAddr: 0x15EE8, symSize: 0x74 }
  - { offset: 0x9CA85, size: 0x8, addend: 0x0, symName: '__ZN5alloc4sync16Arc$LT$T$C$A$GT$9drop_slow17h227fcb344499345eE', symObjAddr: 0x106A0, symBinAddr: 0x15F5C, symSize: 0xA0 }
  - { offset: 0x9CDA1, size: 0x8, addend: 0x0, symName: '__ZN5alloc4sync16Arc$LT$T$C$A$GT$9drop_slow17h413a9d0cdbbf430fE', symObjAddr: 0x10740, symBinAddr: 0x15FFC, symSize: 0x130 }
  - { offset: 0x9D15D, size: 0x8, addend: 0x0, symName: '__ZN5alloc4sync16Arc$LT$T$C$A$GT$9drop_slow17h585a396a785a3339E', symObjAddr: 0x10870, symBinAddr: 0x1612C, symSize: 0x78 }
  - { offset: 0x9D33D, size: 0x8, addend: 0x0, symName: '__ZN5alloc4sync16Arc$LT$T$C$A$GT$9drop_slow17h6a1941be6f2e4d26E', symObjAddr: 0x108E8, symBinAddr: 0x161A4, symSize: 0xC0 }
  - { offset: 0x9D68A, size: 0x8, addend: 0x0, symName: '__ZN5alloc4sync16Arc$LT$T$C$A$GT$9drop_slow17hd9f07aa33b86932dE', symObjAddr: 0x109A8, symBinAddr: 0x16264, symSize: 0x44 }
  - { offset: 0x9D770, size: 0x8, addend: 0x0, symName: '__ZN5alloc4sync16Arc$LT$T$C$A$GT$9drop_slow17he6507ec62bd04c59E', symObjAddr: 0x109EC, symBinAddr: 0x162A8, symSize: 0xD0 }
  - { offset: 0x9D9B6, size: 0x8, addend: 0x0, symName: '__ZN5alloc4sync16Arc$LT$T$C$A$GT$9drop_slow17hee33152d68ecd50bE', symObjAddr: 0x10ABC, symBinAddr: 0x16378, symSize: 0x98 }
  - { offset: 0x9E1A8, size: 0x8, addend: 0x0, symName: '__ZN64_$LT$alloc..ffi..c_str..NulError$u20$as$u20$core..fmt..Debug$GT$3fmt17h2355dcd0f422436aE', symObjAddr: 0x18368, symBinAddr: 0x1DAAC, symSize: 0x4C }
  - { offset: 0x9E94F, size: 0x8, addend: 0x0, symName: '__ZN58_$LT$alloc..string..String$u20$as$u20$core..fmt..Debug$GT$3fmt17h63bf7582360df819E', symObjAddr: 0xCED4, symBinAddr: 0x12790, symSize: 0x1C }
  - { offset: 0x9EA12, size: 0x8, addend: 0x0, symName: '__ZN58_$LT$alloc..string..String$u20$as$u20$core..fmt..Write$GT$10write_char17h7f0e695dc12136c9E', symObjAddr: 0xCEF0, symBinAddr: 0x127AC, symSize: 0x138 }
  - { offset: 0x9EBC8, size: 0x8, addend: 0x0, symName: '__ZN58_$LT$alloc..string..String$u20$as$u20$core..fmt..Write$GT$9write_str17h348ed9977dfcc75fE', symObjAddr: 0xD028, symBinAddr: 0x128E4, symSize: 0x80 }
  - { offset: 0x9ED33, size: 0x8, addend: 0x0, symName: '__ZN60_$LT$alloc..string..String$u20$as$u20$core..fmt..Display$GT$3fmt17he3f86ae210a7e38cE', symObjAddr: 0x1834C, symBinAddr: 0x1DA90, symSize: 0x1C }
  - { offset: 0x9EE51, size: 0x8, addend: 0x0, symName: '__ZN66_$LT$alloc..borrow..Cow$LT$B$GT$$u20$as$u20$core..fmt..Display$GT$3fmt17h6af7094c4f58f6cfE', symObjAddr: 0x18498, symBinAddr: 0x1DBDC, symSize: 0x1C }
  - { offset: 0x9FC57, size: 0x8, addend: 0x0, symName: '__ZN66_$LT$core..option..Option$LT$T$GT$$u20$as$u20$core..fmt..Debug$GT$3fmt17h2daa9fd564bc6311E', symObjAddr: 0x184B4, symBinAddr: 0x1DBF8, symSize: 0x64 }
  - { offset: 0x9FC72, size: 0x8, addend: 0x0, symName: '__ZN66_$LT$core..option..Option$LT$T$GT$$u20$as$u20$core..fmt..Debug$GT$3fmt17h51cf7139ee7bb1daE', symObjAddr: 0x18518, symBinAddr: 0x1DC5C, symSize: 0x60 }
  - { offset: 0x9FC8D, size: 0x8, addend: 0x0, symName: '__ZN66_$LT$core..option..Option$LT$T$GT$$u20$as$u20$core..fmt..Debug$GT$3fmt17h60f7ff4d55c145c2E', symObjAddr: 0x18578, symBinAddr: 0x1DCBC, symSize: 0x60 }
  - { offset: 0x9FCA8, size: 0x8, addend: 0x0, symName: '__ZN66_$LT$core..option..Option$LT$T$GT$$u20$as$u20$core..fmt..Debug$GT$3fmt17h89f4ff72afd3737dE', symObjAddr: 0x185D8, symBinAddr: 0x1DD1C, symSize: 0x60 }
  - { offset: 0x9FCC3, size: 0x8, addend: 0x0, symName: '__ZN66_$LT$core..option..Option$LT$T$GT$$u20$as$u20$core..fmt..Debug$GT$3fmt17hb48f330663c9a6dbE', symObjAddr: 0x18638, symBinAddr: 0x1DD7C, symSize: 0x5C }
  - { offset: 0x9FCDE, size: 0x8, addend: 0x0, symName: '__ZN66_$LT$core..option..Option$LT$T$GT$$u20$as$u20$core..fmt..Debug$GT$3fmt17hc2482aa156b16d5fE', symObjAddr: 0x18694, symBinAddr: 0x1DDD8, symSize: 0x5C }
  - { offset: 0x9FCF9, size: 0x8, addend: 0x0, symName: '__ZN66_$LT$core..option..Option$LT$T$GT$$u20$as$u20$core..fmt..Debug$GT$3fmt17hdff01b5556312b65E', symObjAddr: 0x186F0, symBinAddr: 0x1DE34, symSize: 0x5C }
  - { offset: 0x9FD14, size: 0x8, addend: 0x0, symName: '__ZN66_$LT$core..option..Option$LT$T$GT$$u20$as$u20$core..fmt..Debug$GT$3fmt17hf06ad992d57bdd1cE', symObjAddr: 0x1874C, symBinAddr: 0x1DE90, symSize: 0x60 }
  - { offset: 0x9FD2F, size: 0x8, addend: 0x0, symName: '__ZN66_$LT$core..option..Option$LT$T$GT$$u20$as$u20$core..fmt..Debug$GT$3fmt17hf7ee5d51ad13e6dcE', symObjAddr: 0x187AC, symBinAddr: 0x1DEF0, symSize: 0x64 }
  - { offset: 0xA123C, size: 0x8, addend: 0x0, symName: '__ZN4core3ptr107drop_in_place$LT$alloc..vec..Vec$LT$$LP$std..ffi..os_str..OsString$C$std..ffi..os_str..OsString$RP$$GT$$GT$17hdab9367916b11bffE', symObjAddr: 0x1E70, symBinAddr: 0x79C8, symSize: 0x94 }
  - { offset: 0xA148A, size: 0x8, addend: 0x0, symName: '__ZN4core3ptr107drop_in_place$LT$core..pin..Pin$LT$alloc..boxed..Box$LT$std..sys..pal..unix..sync..mutex..Mutex$GT$$GT$$GT$17hf8215846e388bf56E', symObjAddr: 0x1F04, symBinAddr: 0x7A5C, symSize: 0x2C }
  - { offset: 0xA1535, size: 0x8, addend: 0x0, symName: '__ZN4core3ptr112drop_in_place$LT$$LP$std..ffi..os_str..OsString$C$core..option..Option$LT$std..ffi..os_str..OsString$GT$$RP$$GT$17h5c3ac499d3906809E', symObjAddr: 0x1F30, symBinAddr: 0x7A88, symSize: 0x58 }
  - { offset: 0xA16BC, size: 0x8, addend: 0x0, symName: '__ZN4core3ptr118drop_in_place$LT$$LT$std..backtrace..Backtrace$u20$as$u20$core..fmt..Display$GT$..fmt..$u7b$$u7b$closure$u7d$$u7d$$GT$17h51aec83d68271cacE', symObjAddr: 0x1F88, symBinAddr: 0x7AE0, symSize: 0x40 }
  - { offset: 0xA17A4, size: 0x8, addend: 0x0, symName: '__ZN4core3ptr119drop_in_place$LT$std..io..default_write_fmt..Adapter$LT$std..io..cursor..Cursor$LT$$RF$mut$u20$$u5b$u8$u5d$$GT$$GT$$GT$17hb978c09c78955997E', symObjAddr: 0x1FC8, symBinAddr: 0x7B20, symSize: 0x20 }
  - { offset: 0xA17DD, size: 0x8, addend: 0x0, symName: '__ZN4core3ptr123drop_in_place$LT$addr2line..Context$LT$gimli..read..endian_slice..EndianSlice$LT$gimli..endianity..LittleEndian$GT$$GT$$GT$17h0c82da6163508709E', symObjAddr: 0x1FE8, symBinAddr: 0x7B40, symSize: 0x70 }
  - { offset: 0xA18B9, size: 0x8, addend: 0x0, symName: '__ZN4core3ptr124drop_in_place$LT$alloc..collections..btree..map..BTreeMap$LT$std..ffi..os_str..OsString$C$std..ffi..os_str..OsString$GT$$GT$17hfd4d40f329e303ceE', symObjAddr: 0x2058, symBinAddr: 0x7BB0, symSize: 0xB8 }
  - { offset: 0xA1B07, size: 0x8, addend: 0x0, symName: '__ZN4core3ptr124drop_in_place$LT$alloc..collections..btree..map..IntoIter$LT$std..ffi..os_str..OsString$C$std..ffi..os_str..OsString$GT$$GT$17hee4e1defc3e1ef78E', symObjAddr: 0x2110, symBinAddr: 0x7C68, symSize: 0x90 }
  - { offset: 0xA1D28, size: 0x8, addend: 0x0, symName: '__ZN4core3ptr128drop_in_place$LT$core..result..Result$LT$$RF$std..thread..Thread$C$$LP$$RF$std..thread..Thread$C$std..thread..Thread$RP$$GT$$GT$17hc53c155a5802c917E', symObjAddr: 0x21A0, symBinAddr: 0x7CF8, symSize: 0x38 }
  - { offset: 0xA1EDC, size: 0x8, addend: 0x0, symName: '__ZN4core3ptr129drop_in_place$LT$addr2line..unit..ResUnit$LT$gimli..read..endian_slice..EndianSlice$LT$gimli..endianity..LittleEndian$GT$$GT$$GT$17h976aecdb9d98ef5bE', symObjAddr: 0x21D8, symBinAddr: 0x7D30, symSize: 0xE4 }
  - { offset: 0xA2118, size: 0x8, addend: 0x0, symName: '__ZN4core3ptr129drop_in_place$LT$addr2line..unit..SupUnit$LT$gimli..read..endian_slice..EndianSlice$LT$gimli..endianity..LittleEndian$GT$$GT$$GT$17hf391bd96b654099aE', symObjAddr: 0x22BC, symBinAddr: 0x7E14, symSize: 0x54 }
  - { offset: 0xA21FB, size: 0x8, addend: 0x0, symName: '__ZN4core3ptr130drop_in_place$LT$addr2line..unit..ResUnits$LT$gimli..read..endian_slice..EndianSlice$LT$gimli..endianity..LittleEndian$GT$$GT$$GT$17hd1c493907ac14cebE', symObjAddr: 0x2310, symBinAddr: 0x7E68, symSize: 0xD0 }
  - { offset: 0xA23B5, size: 0x8, addend: 0x0, symName: '__ZN4core3ptr130drop_in_place$LT$addr2line..unit..SupUnits$LT$gimli..read..endian_slice..EndianSlice$LT$gimli..endianity..LittleEndian$GT$$GT$$GT$17hdd17bb8d7c88fc91E', symObjAddr: 0x23E0, symBinAddr: 0x7F38, symSize: 0xE4 }
  - { offset: 0xA2588, size: 0x8, addend: 0x0, symName: '__ZN4core3ptr130drop_in_place$LT$gimli..read..dwarf..Dwarf$LT$gimli..read..endian_slice..EndianSlice$LT$gimli..endianity..LittleEndian$GT$$GT$$GT$17hbb60adf380f44d6dE', symObjAddr: 0x24C4, symBinAddr: 0x801C, symSize: 0x58 }
  - { offset: 0xA265C, size: 0x8, addend: 0x0, symName: '__ZN4core3ptr131drop_in_place$LT$$u5b$core..option..Option$LT$core..option..Option$LT$std..backtrace_rs..symbolize..gimli..Mapping$GT$$GT$$u5d$$GT$17h8075ef4bccaeb4c6E', symObjAddr: 0x251C, symBinAddr: 0x8074, symSize: 0xCC }
  - { offset: 0xA270E, size: 0x8, addend: 0x0, symName: '__ZN4core3ptr131drop_in_place$LT$alloc..boxed..Box$LT$dyn$u20$core..ops..function..FnOnce$LT$$LP$$RP$$GT$$u2b$Output$u20$$u3d$$u20$$LP$$RP$$GT$$GT$17hce2eab99a9a443f7E', symObjAddr: 0x25E8, symBinAddr: 0x8140, symSize: 0x78 }
  - { offset: 0xA2811, size: 0x8, addend: 0x0, symName: '__ZN4core3ptr135drop_in_place$LT$std..sync..poison..PoisonError$LT$std..sync..poison..mutex..MutexGuard$LT$std..sync..barrier..BarrierState$GT$$GT$$GT$17hd87e68bc92bfc7aeE', symObjAddr: 0x2660, symBinAddr: 0x81B8, symSize: 0x4C }
  - { offset: 0xA295D, size: 0x8, addend: 0x0, symName: '__ZN4core3ptr137drop_in_place$LT$gimli..read..dwarf..Unit$LT$gimli..read..endian_slice..EndianSlice$LT$gimli..endianity..LittleEndian$GT$$C$usize$GT$$GT$17hb7dfe91daf450ee7E', symObjAddr: 0x26AC, symBinAddr: 0x8204, symSize: 0x54 }
  - { offset: 0xA2A61, size: 0x8, addend: 0x0, symName: '__ZN4core3ptr138drop_in_place$LT$addr2line..function..LazyFunction$LT$gimli..read..endian_slice..EndianSlice$LT$gimli..endianity..LittleEndian$GT$$GT$$GT$17h9e107881bd47793dE', symObjAddr: 0x2700, symBinAddr: 0x8258, symSize: 0x64 }
  - { offset: 0xA2A79, size: 0x8, addend: 0x0, symName: '__ZN4core3ptr138drop_in_place$LT$addr2line..function..LazyFunction$LT$gimli..read..endian_slice..EndianSlice$LT$gimli..endianity..LittleEndian$GT$$GT$$GT$17h9e107881bd47793dE', symObjAddr: 0x2700, symBinAddr: 0x8258, symSize: 0x64 }
  - { offset: 0xA2A8F, size: 0x8, addend: 0x0, symName: '__ZN4core3ptr138drop_in_place$LT$addr2line..function..LazyFunction$LT$gimli..read..endian_slice..EndianSlice$LT$gimli..endianity..LittleEndian$GT$$GT$$GT$17h9e107881bd47793dE', symObjAddr: 0x2700, symBinAddr: 0x8258, symSize: 0x64 }
  - { offset: 0xA2AA5, size: 0x8, addend: 0x0, symName: '__ZN4core3ptr138drop_in_place$LT$addr2line..function..LazyFunction$LT$gimli..read..endian_slice..EndianSlice$LT$gimli..endianity..LittleEndian$GT$$GT$$GT$17h9e107881bd47793dE', symObjAddr: 0x2700, symBinAddr: 0x8258, symSize: 0x64 }
  - { offset: 0xA2BF5, size: 0x8, addend: 0x0, symName: '__ZN4core3ptr144drop_in_place$LT$alloc..vec..Vec$LT$core..option..Option$LT$core..option..Option$LT$std..backtrace_rs..symbolize..gimli..Mapping$GT$$GT$$GT$$GT$17h2d17cc915deaae00E', symObjAddr: 0x2764, symBinAddr: 0x82BC, symSize: 0x78 }
  - { offset: 0xA2D88, size: 0x8, addend: 0x0, symName: '__ZN4core3ptr152drop_in_place$LT$alloc..collections..btree..map..BTreeMap$LT$std..ffi..os_str..OsString$C$core..option..Option$LT$std..ffi..os_str..OsString$GT$$GT$$GT$17hd6f31a83fc35bdbaE', symObjAddr: 0x27DC, symBinAddr: 0x8334, symSize: 0xCC }
  - { offset: 0xA2FFE, size: 0x8, addend: 0x0, symName: '__ZN4core3ptr152drop_in_place$LT$alloc..vec..Vec$LT$addr2line..unit..ResUnit$LT$gimli..read..endian_slice..EndianSlice$LT$gimli..endianity..LittleEndian$GT$$GT$$GT$$GT$17h930033d8cc511a25E', symObjAddr: 0x28A8, symBinAddr: 0x8400, symSize: 0xC4 }
  - { offset: 0xA317C, size: 0x8, addend: 0x0, symName: '__ZN4core3ptr152drop_in_place$LT$alloc..vec..Vec$LT$addr2line..unit..SupUnit$LT$gimli..read..endian_slice..EndianSlice$LT$gimli..endianity..LittleEndian$GT$$GT$$GT$$GT$17h4d701fa48e46056bE', symObjAddr: 0x296C, symBinAddr: 0x84C4, symSize: 0xF4 }
  - { offset: 0xA33AD, size: 0x8, addend: 0x0, symName: '__ZN4core3ptr156drop_in_place$LT$alloc..boxed..Box$LT$$u5b$core..option..Option$LT$core..option..Option$LT$std..backtrace_rs..symbolize..gimli..Mapping$GT$$GT$$u5d$$GT$$GT$17ha07d445091d3e2e5E', symObjAddr: 0x2A60, symBinAddr: 0x85B8, symSize: 0xF8 }
  - { offset: 0xA34E3, size: 0x8, addend: 0x0, symName: '__ZN4core3ptr159drop_in_place$LT$alloc..sync..ArcInner$LT$gimli..read..dwarf..Dwarf$LT$gimli..read..endian_slice..EndianSlice$LT$gimli..endianity..LittleEndian$GT$$GT$$GT$$GT$17h5dd3b8741238035fE', symObjAddr: 0x2B58, symBinAddr: 0x86B0, symSize: 0x58 }
  - { offset: 0xA35C7, size: 0x8, addend: 0x0, symName: '__ZN4core3ptr161drop_in_place$LT$alloc..vec..Vec$LT$addr2line..function..LazyFunction$LT$gimli..read..endian_slice..EndianSlice$LT$gimli..endianity..LittleEndian$GT$$GT$$GT$$GT$17h76148174053d04c0E', symObjAddr: 0x2BB0, symBinAddr: 0x8708, symSize: 0xAC }
  - { offset: 0xA381F, size: 0x8, addend: 0x0, symName: '__ZN4core3ptr164drop_in_place$LT$$u5b$alloc..boxed..Box$LT$dyn$u20$core..ops..function..FnOnce$LT$$LP$$RP$$GT$$u2b$Output$u20$$u3d$$u20$$LP$$RP$$u2b$core..marker..Send$GT$$u5d$$GT$17h66eccce5a5e1ccfaE', symObjAddr: 0x2C5C, symBinAddr: 0x87B4, symSize: 0xAC }
  - { offset: 0xA3938, size: 0x8, addend: 0x0, symName: '__ZN4core3ptr172drop_in_place$LT$core..result..Result$LT$addr2line..Context$LT$gimli..read..endian_slice..EndianSlice$LT$gimli..endianity..LittleEndian$GT$$GT$$C$gimli..read..Error$GT$$GT$17h9b8f85c733b7ba47E', symObjAddr: 0x2D08, symBinAddr: 0x8860, symSize: 0x80 }
  - { offset: 0xA39D3, size: 0x8, addend: 0x0, symName: '__ZN4core3ptr173drop_in_place$LT$alloc..boxed..Box$LT$$u5b$addr2line..function..LazyFunction$LT$gimli..read..endian_slice..EndianSlice$LT$gimli..endianity..LittleEndian$GT$$GT$$u5d$$GT$$GT$17h168b8dd46548632dE', symObjAddr: 0x2D88, symBinAddr: 0x88E0, symSize: 0x9C }
  - { offset: 0xA39EB, size: 0x8, addend: 0x0, symName: '__ZN4core3ptr173drop_in_place$LT$alloc..boxed..Box$LT$$u5b$addr2line..function..LazyFunction$LT$gimli..read..endian_slice..EndianSlice$LT$gimli..endianity..LittleEndian$GT$$GT$$u5d$$GT$$GT$17h168b8dd46548632dE', symObjAddr: 0x2D88, symBinAddr: 0x88E0, symSize: 0x9C }
  - { offset: 0xA3BE5, size: 0x8, addend: 0x0, symName: '__ZN4core3ptr177drop_in_place$LT$alloc..vec..Vec$LT$alloc..boxed..Box$LT$dyn$u20$core..ops..function..FnOnce$LT$$LP$$RP$$GT$$u2b$Output$u20$$u3d$$u20$$LP$$RP$$u2b$core..marker..Send$GT$$GT$$GT$17hd3a2a6df9c35ef80E', symObjAddr: 0x2E24, symBinAddr: 0x897C, symSize: 0x70 }
  - { offset: 0xA3DC5, size: 0x8, addend: 0x0, symName: '__ZN4core3ptr181drop_in_place$LT$core..option..Option$LT$gimli..read..line..IncompleteLineProgram$LT$gimli..read..endian_slice..EndianSlice$LT$gimli..endianity..LittleEndian$GT$$C$usize$GT$$GT$$GT$17hb1e82662c486c1deE', symObjAddr: 0x2E94, symBinAddr: 0x89EC, symSize: 0x98 }
  - { offset: 0xA40A2, size: 0x8, addend: 0x0, symName: '__ZN4core3ptr181drop_in_place$LT$core..result..Result$LT$addr2line..frame..FrameIter$LT$gimli..read..endian_slice..EndianSlice$LT$gimli..endianity..LittleEndian$GT$$GT$$C$gimli..read..Error$GT$$GT$17h65c14baf7c73b706E', symObjAddr: 0x2F2C, symBinAddr: 0x8A84, symSize: 0x44 }
  - { offset: 0xA41EF, size: 0x8, addend: 0x0, symName: '__ZN4core3ptr184drop_in_place$LT$core..result..Result$LT$addr2line..function..Functions$LT$gimli..read..endian_slice..EndianSlice$LT$gimli..endianity..LittleEndian$GT$$GT$$C$gimli..read..Error$GT$$GT$17h74d5b096a136f311E', symObjAddr: 0x2F70, symBinAddr: 0x8AC8, symSize: 0xD8 }
  - { offset: 0xA4D87, size: 0x8, addend: 0x0, symName: '__ZN4core3ptr193drop_in_place$LT$alloc..vec..into_iter..IntoIter$LT$alloc..boxed..Box$LT$dyn$u20$core..ops..function..FnOnce$LT$$LP$$RP$$GT$$u2b$Output$u20$$u3d$$u20$$LP$$RP$$u2b$core..marker..Send$GT$$GT$$GT$17hcce6445a3044e677E', symObjAddr: 0x3048, symBinAddr: 0x8BA0, symSize: 0x74 }
  - { offset: 0xA4FBD, size: 0x8, addend: 0x0, symName: '__ZN4core3ptr199drop_in_place$LT$core..result..Result$LT$core..option..Option$LT$alloc..sync..Arc$LT$std..sync..poison..mutex..Mutex$LT$alloc..vec..Vec$LT$u8$GT$$GT$$GT$$GT$$C$std..thread..local..AccessError$GT$$GT$17h7db7fd1c5d6a35eeE', symObjAddr: 0x30BC, symBinAddr: 0x8C14, symSize: 0x3C }
  - { offset: 0xA508A, size: 0x8, addend: 0x0, symName: '__ZN4core3ptr231drop_in_place$LT$core..result..Result$LT$core..option..Option$LT$alloc..boxed..Box$LT$addr2line..unit..DwoUnit$LT$gimli..read..endian_slice..EndianSlice$LT$gimli..endianity..LittleEndian$GT$$GT$$GT$$GT$$C$gimli..read..Error$GT$$GT$17hd9b55f34273576fdE', symObjAddr: 0x30F8, symBinAddr: 0x8C50, symSize: 0xD4 }
  - { offset: 0xA528A, size: 0x8, addend: 0x0, symName: '__ZN4core3ptr238drop_in_place$LT$alloc..boxed..convert..$LT$impl$u20$core..convert..From$LT$alloc..string..String$GT$$u20$for$u20$alloc..boxed..Box$LT$dyn$u20$core..error..Error$u2b$core..marker..Send$u2b$core..marker..Sync$GT$$GT$..from..StringError$GT$17h9dcc0228f2b303aeE', symObjAddr: 0x31CC, symBinAddr: 0x8D24, symSize: 0x28 }
  - { offset: 0xA533D, size: 0x8, addend: 0x0, symName: '__ZN4core3ptr275drop_in_place$LT$gimli..read..line..LineRows$LT$gimli..read..endian_slice..EndianSlice$LT$gimli..endianity..LittleEndian$GT$$C$gimli..read..line..IncompleteLineProgram$LT$gimli..read..endian_slice..EndianSlice$LT$gimli..endianity..LittleEndian$GT$$C$usize$GT$$C$usize$GT$$GT$17hd1b1c0ea128da33fE', symObjAddr: 0x31F4, symBinAddr: 0x8D4C, symSize: 0x8C }
  - { offset: 0xA55D4, size: 0x8, addend: 0x0, symName: '__ZN4core3ptr280drop_in_place$LT$$LT$alloc..collections..btree..map..IntoIter$LT$K$C$V$C$A$GT$$u20$as$u20$core..ops..drop..Drop$GT$..drop..DropGuard$LT$u64$C$core..result..Result$LT$alloc..sync..Arc$LT$gimli..read..abbrev..Abbreviations$GT$$C$gimli..read..Error$GT$$C$alloc..alloc..Global$GT$$GT$17he08924a0a99e0d45E', symObjAddr: 0x3280, symBinAddr: 0x8DD8, symSize: 0x84 }
  - { offset: 0xA5787, size: 0x8, addend: 0x0, symName: '__ZN4core3ptr37drop_in_place$LT$std..env..VarsOs$GT$17h980640747b804c05E', symObjAddr: 0x3304, symBinAddr: 0x8E5C, symSize: 0xAC }
  - { offset: 0xA5A82, size: 0x8, addend: 0x0, symName: '__ZN4core3ptr39drop_in_place$LT$std..path..PathBuf$GT$17h55e552bb536d884dE', symObjAddr: 0x33B0, symBinAddr: 0x8F08, symSize: 0x28 }
  - { offset: 0xA5BBA, size: 0x8, addend: 0x0, symName: '__ZN4core3ptr40drop_in_place$LT$std..process..Child$GT$17h6b42c9ea274ceb9bE', symObjAddr: 0x33D8, symBinAddr: 0x8F30, symSize: 0x54 }
  - { offset: 0xA5D6A, size: 0x8, addend: 0x0, symName: '__ZN4core3ptr40drop_in_place$LT$std..thread..Thread$GT$17h9d5ec17d3a5c2972E', symObjAddr: 0x342C, symBinAddr: 0x8F84, symSize: 0x30 }
  - { offset: 0xA5E41, size: 0x8, addend: 0x0, symName: '__ZN4core3ptr41drop_in_place$LT$std..panicking..Hook$GT$17h2a548ad4ef14bfcaE', symObjAddr: 0x345C, symBinAddr: 0x8FB4, symSize: 0x7C }
  - { offset: 0xA5F45, size: 0x8, addend: 0x0, symName: '__ZN4core3ptr42drop_in_place$LT$alloc..string..String$GT$17h0b81694d981c7c71E', symObjAddr: 0x34D8, symBinAddr: 0x9030, symSize: 0x28 }
  - { offset: 0xA6027, size: 0x8, addend: 0x0, symName: '__ZN4core3ptr42drop_in_place$LT$std..io..error..Error$GT$17hab325d4585e00381E', symObjAddr: 0x3500, symBinAddr: 0x9058, symSize: 0xAC }
  - { offset: 0xA6268, size: 0x8, addend: 0x0, symName: '__ZN4core3ptr44drop_in_place$LT$object..read..ObjectMap$GT$17hb4633eede0f08b87E', symObjAddr: 0x35AC, symBinAddr: 0x9104, symSize: 0x58 }
  - { offset: 0xA63D2, size: 0x8, addend: 0x0, symName: '__ZN4core3ptr44drop_in_place$LT$std..backtrace..Capture$GT$17h4c4ffbb1e75bca92E', symObjAddr: 0x3604, symBinAddr: 0x915C, symSize: 0x6C }
  - { offset: 0xA64D1, size: 0x8, addend: 0x0, symName: '__ZN4core3ptr46drop_in_place$LT$alloc..vec..Vec$LT$u8$GT$$GT$17h489c47232c5a7d5cE', symObjAddr: 0x3670, symBinAddr: 0x91C8, symSize: 0x28 }
  - { offset: 0xA6564, size: 0x8, addend: 0x0, symName: '__ZN4core3ptr46drop_in_place$LT$std..io..stdio..StdinLock$GT$17hc3d2d89e5a15fdfaE', symObjAddr: 0x3698, symBinAddr: 0x91F0, symSize: 0x54 }
  - { offset: 0xA657C, size: 0x8, addend: 0x0, symName: '__ZN4core3ptr46drop_in_place$LT$std..io..stdio..StdinLock$GT$17hc3d2d89e5a15fdfaE', symObjAddr: 0x3698, symBinAddr: 0x91F0, symSize: 0x54 }
  - { offset: 0xA6592, size: 0x8, addend: 0x0, symName: '__ZN4core3ptr46drop_in_place$LT$std..io..stdio..StdinLock$GT$17hc3d2d89e5a15fdfaE', symObjAddr: 0x3698, symBinAddr: 0x91F0, symSize: 0x54 }
  - { offset: 0xA668F, size: 0x8, addend: 0x0, symName: '__ZN4core3ptr47drop_in_place$LT$alloc..ffi..c_str..CString$GT$17h6d9be1c2246a9613E', symObjAddr: 0x36EC, symBinAddr: 0x9244, symSize: 0x30 }
  - { offset: 0xA6715, size: 0x8, addend: 0x0, symName: '__ZN4core3ptr47drop_in_place$LT$std..ffi..os_str..OsString$GT$17he959984e4b68dffeE', symObjAddr: 0x371C, symBinAddr: 0x9274, symSize: 0x28 }
  - { offset: 0xA67B8, size: 0x8, addend: 0x0, symName: '__ZN4core3ptr47drop_in_place$LT$std..sys..env..common..Env$GT$17h829512613f102d6aE', symObjAddr: 0x3744, symBinAddr: 0x929C, symSize: 0xAC }
  - { offset: 0xA6A9C, size: 0x8, addend: 0x0, symName: '__ZN4core3ptr48drop_in_place$LT$alloc..ffi..c_str..NulError$GT$17h15a70b4799397ac2E', symObjAddr: 0x37F0, symBinAddr: 0x9348, symSize: 0x28 }
  - { offset: 0xA6B70, size: 0x8, addend: 0x0, symName: '__ZN4core3ptr49drop_in_place$LT$std..sys..args..common..Args$GT$17h8a23c08646e87e66E', symObjAddr: 0x3818, symBinAddr: 0x9370, symSize: 0x98 }
  - { offset: 0xA6DA7, size: 0x8, addend: 0x0, symName: '__ZN4core3ptr49drop_in_place$LT$std..sys..fd..unix..FileDesc$GT$17h9801f6b9d3f589ffE', symObjAddr: 0x38B0, symBinAddr: 0x9408, symSize: 0x14 }
  - { offset: 0xA6E67, size: 0x8, addend: 0x0, symName: '__ZN4core3ptr51drop_in_place$LT$std..backtrace..BacktraceFrame$GT$17h720fdbcb64b96eb1E', symObjAddr: 0x38C4, symBinAddr: 0x941C, symSize: 0xE4 }
  - { offset: 0xA7141, size: 0x8, addend: 0x0, symName: '__ZN4core3ptr52drop_in_place$LT$std..backtrace..BacktraceSymbol$GT$17h4dd98e491ab5072eE', symObjAddr: 0x39A8, symBinAddr: 0x9500, symSize: 0x90 }
  - { offset: 0xA73C3, size: 0x8, addend: 0x0, symName: '__ZN4core3ptr55drop_in_place$LT$gimli..read..abbrev..Abbreviations$GT$17h56369725eabfba74E', symObjAddr: 0x3A38, symBinAddr: 0x9590, symSize: 0x118 }
  - { offset: 0xA7759, size: 0x8, addend: 0x0, symName: '__ZN4core3ptr55drop_in_place$LT$std..sys..process..env..CommandEnv$GT$17he292b52800201bb0E', symObjAddr: 0x3B50, symBinAddr: 0x96A8, symSize: 0x10 }
  - { offset: 0xA7790, size: 0x8, addend: 0x0, symName: '__ZN4core3ptr55drop_in_place$LT$std..thread..spawnhook..SpawnHooks$GT$17h6461c197e627e582E', symObjAddr: 0x3B60, symBinAddr: 0x96B8, symSize: 0x80 }
  - { offset: 0xA78DD, size: 0x8, addend: 0x0, symName: '__ZN4core3ptr60drop_in_place$LT$gimli..read..abbrev..AbbreviationsCache$GT$17h8af67701b8ab55f1E', symObjAddr: 0x3BE0, symBinAddr: 0x9738, symSize: 0xCC }
  - { offset: 0xA7AB3, size: 0x8, addend: 0x0, symName: '__ZN4core3ptr64drop_in_place$LT$std..sys..pal..unix..sync..mutex..AttrGuard$GT$17h7839b4c079597c7cE', symObjAddr: 0x3CAC, symBinAddr: 0x9804, symSize: 0x48 }
  - { offset: 0xA7AE4, size: 0x8, addend: 0x0, symName: '__ZN4core3ptr64drop_in_place$LT$std..sys..process..unix..common..ChildPipes$GT$17h9ed28c5d403b3beaE', symObjAddr: 0x3CF4, symBinAddr: 0x984C, symSize: 0x78 }
  - { offset: 0xA7C00, size: 0x8, addend: 0x0, symName: '__ZN4core3ptr64drop_in_place$LT$std..sys..process..unix..common..StdioPipes$GT$17h9f3daa8d4586a020E', symObjAddr: 0x3D6C, symBinAddr: 0x98C4, symSize: 0x54 }
  - { offset: 0xA7DCD, size: 0x8, addend: 0x0, symName: '__ZN4core3ptr65drop_in_place$LT$std..backtrace_rs..symbolize..gimli..Context$GT$17h43b926d0d30c3bf1E', symObjAddr: 0x3E40, symBinAddr: 0x9918, symSize: 0xE8 }
  - { offset: 0xA8083, size: 0x8, addend: 0x0, symName: '__ZN4core3ptr65drop_in_place$LT$std..sys..pal..unix..stack_overflow..Handler$GT$17h33829779a616bc5bE', symObjAddr: 0x3F28, symBinAddr: 0x9A00, symSize: 0x58 }
  - { offset: 0xA809B, size: 0x8, addend: 0x0, symName: '__ZN4core3ptr65drop_in_place$LT$std..sys..pal..unix..stack_overflow..Handler$GT$17h33829779a616bc5bE', symObjAddr: 0x3F28, symBinAddr: 0x9A00, symSize: 0x58 }
  - { offset: 0xA80B1, size: 0x8, addend: 0x0, symName: '__ZN4core3ptr65drop_in_place$LT$std..sys..pal..unix..stack_overflow..Handler$GT$17h33829779a616bc5bE', symObjAddr: 0x3F28, symBinAddr: 0x9A00, symSize: 0x58 }
  - { offset: 0xA8107, size: 0x8, addend: 0x0, symName: '__ZN4core3ptr66drop_in_place$LT$std..backtrace_rs..backtrace..libunwind..Bomb$GT$17h936e79d784298831E', symObjAddr: 0x3F80, symBinAddr: 0x9A58, symSize: 0x40 }
  - { offset: 0xA819B, size: 0x8, addend: 0x0, symName: '__ZN4core3ptr66drop_in_place$LT$std..sys..process..unix..common..CStringArray$GT$17h9f1360a738afd92fE', symObjAddr: 0x3FC0, symBinAddr: 0x9A98, symSize: 0x94 }
  - { offset: 0xA8392, size: 0x8, addend: 0x0, symName: '__ZN4core3ptr70drop_in_place$LT$alloc..vec..Vec$LT$alloc..ffi..c_str..CString$GT$$GT$17h96bd2ed825216ab6E', symObjAddr: 0x4054, symBinAddr: 0x9B2C, symSize: 0x7C }
  - { offset: 0xA8554, size: 0x8, addend: 0x0, symName: '__ZN4core3ptr70drop_in_place$LT$std..backtrace_rs..symbolize..gimli..stash..Stash$GT$17h67f1fd4cea1199e4E', symObjAddr: 0x4150, symBinAddr: 0x9BA8, symSize: 0xB8 }
  - { offset: 0xA8818, size: 0x8, addend: 0x0, symName: '__ZN4core3ptr71drop_in_place$LT$std..backtrace_rs..symbolize..gimli..macho..Object$GT$17h86f8cd4e56022428E', symObjAddr: 0x4208, symBinAddr: 0x9C60, symSize: 0xD8 }
  - { offset: 0xA8B11, size: 0x8, addend: 0x0, symName: '__ZN4core3ptr71drop_in_place$LT$std..panicking..rust_panic_without_hook..RewrapBox$GT$17h5e44a21d79a9c5c6E', symObjAddr: 0x42E0, symBinAddr: 0x9D38, symSize: 0x6C }
  - { offset: 0xA8C15, size: 0x8, addend: 0x0, symName: '__ZN4core3ptr72drop_in_place$LT$core..option..Option$LT$object..read..ObjectMap$GT$$GT$17h8009e4e14db8b5dfE', symObjAddr: 0x434C, symBinAddr: 0x9DA4, symSize: 0x64 }
  - { offset: 0xA8DA4, size: 0x8, addend: 0x0, symName: '__ZN4core3ptr73drop_in_place$LT$alloc..vec..Vec$LT$addr2line..line..LineSequence$GT$$GT$17h3fa4c137ddc03b68E', symObjAddr: 0x43B0, symBinAddr: 0x9E08, symSize: 0x84 }
  - { offset: 0xA8F0C, size: 0x8, addend: 0x0, symName: '__ZN4core3ptr73drop_in_place$LT$core..option..Option$LT$std..process..ChildStdin$GT$$GT$17h3b1dae4f626d6b76E', symObjAddr: 0x4434, symBinAddr: 0x9E8C, symSize: 0x24 }
  - { offset: 0xA8F93, size: 0x8, addend: 0x0, symName: '__ZN4core3ptr75drop_in_place$LT$core..option..Option$LT$alloc..ffi..c_str..CString$GT$$GT$17h48ca21e9e0ecff0fE', symObjAddr: 0x4458, symBinAddr: 0x9EB0, symSize: 0x34 }
  - { offset: 0xA9030, size: 0x8, addend: 0x0, symName: '__ZN4core3ptr77drop_in_place$LT$alloc..boxed..Box$LT$$u5b$alloc..string..String$u5d$$GT$$GT$17hb602538d157647a3E', symObjAddr: 0x448C, symBinAddr: 0x9EE4, symSize: 0x70 }
  - { offset: 0xA9048, size: 0x8, addend: 0x0, symName: '__ZN4core3ptr77drop_in_place$LT$alloc..boxed..Box$LT$$u5b$alloc..string..String$u5d$$GT$$GT$17hb602538d157647a3E', symObjAddr: 0x448C, symBinAddr: 0x9EE4, symSize: 0x70 }
  - { offset: 0xA9160, size: 0x8, addend: 0x0, symName: '__ZN4core3ptr77drop_in_place$LT$std..panicking..begin_panic_handler..FormatStringPayload$GT$17h21f81329014224e6E', symObjAddr: 0x44FC, symBinAddr: 0x9F54, symSize: 0x34 }
  - { offset: 0xA9224, size: 0x8, addend: 0x0, symName: '__ZN4core3ptr78drop_in_place$LT$core..result..Result$LT$usize$C$std..io..error..Error$GT$$GT$17hcbae4a28a8b76a5aE', symObjAddr: 0x4530, symBinAddr: 0x9F88, symSize: 0x24 }
  - { offset: 0xA9238, size: 0x8, addend: 0x0, symName: '__ZN4core3ptr79drop_in_place$LT$std..sync..poison..rwlock..RwLockReadGuard$LT$$LP$$RP$$GT$$GT$17h101679a9186a172bE', symObjAddr: 0x4554, symBinAddr: 0x9FAC, symSize: 0x68 }
  - { offset: 0xA92DA, size: 0x8, addend: 0x0, symName: '__ZN4core3ptr81drop_in_place$LT$core..result..Result$LT$$LP$$RP$$C$std..io..error..Error$GT$$GT$17h16f075beb9f73ab3E', symObjAddr: 0x45BC, symBinAddr: 0xA014, symSize: 0x20 }
  - { offset: 0xA930A, size: 0x8, addend: 0x0, symName: '__ZN4core3ptr82drop_in_place$LT$alloc..sync..ArcInner$LT$std..sys..fs..unix..InnerReadDir$GT$$GT$17h5ae3bfa87e96e275E', symObjAddr: 0x45DC, symBinAddr: 0xA034, symSize: 0x60 }
  - { offset: 0xA94C3, size: 0x8, addend: 0x0, symName: '__ZN4core3ptr84drop_in_place$LT$$LP$std..ffi..os_str..OsString$C$std..ffi..os_str..OsString$RP$$GT$17hb6dcebf31407c7a3E', symObjAddr: 0x463C, symBinAddr: 0xA094, symSize: 0x4C }
  - { offset: 0xA9630, size: 0x8, addend: 0x0, symName: '__ZN4core3ptr87drop_in_place$LT$core..option..Option$LT$alloc..boxed..Box$LT$$u5b$u32$u5d$$GT$$GT$$GT$17he3e1bab31e2f05ebE', symObjAddr: 0x4688, symBinAddr: 0xA0E0, symSize: 0x34 }
  - { offset: 0xA96DA, size: 0x8, addend: 0x0, symName: '__ZN4core3ptr87drop_in_place$LT$core..option..Option$LT$std..sys..process..unix..common..Stdio$GT$$GT$17h5c592cbeb2995d7fE', symObjAddr: 0x46BC, symBinAddr: 0xA114, symSize: 0x28 }
  - { offset: 0xA9766, size: 0x8, addend: 0x0, symName: '__ZN4core3ptr90drop_in_place$LT$std..io..buffered..bufwriter..BufWriter$LT$W$GT$..flush_buf..BufGuard$GT$17h33cf7cac7917e455E', symObjAddr: 0x46E4, symBinAddr: 0xA13C, symSize: 0x60 }
  - { offset: 0xA98E2, size: 0x8, addend: 0x0, symName: '__ZN4core3ptr91drop_in_place$LT$core..result..Result$LT$alloc..string..String$C$std..env..VarError$GT$$GT$17h881cb334e693b4d3E', symObjAddr: 0x4744, symBinAddr: 0xA19C, symSize: 0x3C }
  - { offset: 0xA9996, size: 0x8, addend: 0x0, symName: '__ZN4core3ptr91drop_in_place$LT$core..result..Result$LT$std..path..PathBuf$C$std..io..error..Error$GT$$GT$17h75b4985662096a9dE', symObjAddr: 0x4780, symBinAddr: 0xA1D8, symSize: 0x40 }
  - { offset: 0xA9A91, size: 0x8, addend: 0x0, symName: '__ZN4core3ptr92drop_in_place$LT$core..result..Result$LT$addr2line..line..Lines$C$gimli..read..Error$GT$$GT$17hc01265670dd865e8E', symObjAddr: 0x47C0, symBinAddr: 0xA218, symSize: 0xE4 }
  - { offset: 0xA9CF4, size: 0x8, addend: 0x0, symName: '__ZN4core3ptr93drop_in_place$LT$core..option..Option$LT$std..backtrace_rs..symbolize..gimli..Mapping$GT$$GT$17h1d93226e42573231E', symObjAddr: 0x48A4, symBinAddr: 0xA2FC, symSize: 0x6C }
  - { offset: 0xA9D88, size: 0x8, addend: 0x0, symName: '__ZN4core3ptr94drop_in_place$LT$core..option..Option$LT$std..sys..process..unix..common..CStringArray$GT$$GT$17hd81d1a4f511bd26aE', symObjAddr: 0x4910, symBinAddr: 0xA368, symSize: 0xAC }
  - { offset: 0xA9FB2, size: 0x8, addend: 0x0, symName: '__ZN4core3ptr95drop_in_place$LT$std..io..buffered..linewriter..LineWriter$LT$std..io..stdio..StdoutRaw$GT$$GT$17ha1abcf8da04932f2E', symObjAddr: 0x49BC, symBinAddr: 0xA414, symSize: 0xF8 }
  - { offset: 0xAD6E6, size: 0x8, addend: 0x0, symName: __ZN4core5slice4sort6shared5pivot11median3_rec17h233c983efd541eafE, symObjAddr: 0x4D8C, symBinAddr: 0xA6C4, symSize: 0xCC }
  - { offset: 0xAD7E8, size: 0x8, addend: 0x0, symName: __ZN4core5slice4sort6shared5pivot11median3_rec17h4290c206c8b41201E, symObjAddr: 0x4E58, symBinAddr: 0xA790, symSize: 0xD0 }
  - { offset: 0xAD8EC, size: 0x8, addend: 0x0, symName: __ZN4core5slice4sort6shared5pivot11median3_rec17h6436ce4c3d30060dE, symObjAddr: 0x4F28, symBinAddr: 0xA860, symSize: 0xCC }
  - { offset: 0xADA1C, size: 0x8, addend: 0x0, symName: __ZN4core5slice4sort6shared5pivot11median3_rec17h6c343641855fdf9aE, symObjAddr: 0x4FF4, symBinAddr: 0xA92C, symSize: 0xD0 }
  - { offset: 0xADB1E, size: 0x8, addend: 0x0, symName: __ZN4core5slice4sort6shared5pivot11median3_rec17h78d61428387b46fdE, symObjAddr: 0x50C4, symBinAddr: 0xA9FC, symSize: 0xCC }
  - { offset: 0xADC20, size: 0x8, addend: 0x0, symName: __ZN4core5slice4sort6shared5pivot11median3_rec17ha5220d412019f0c1E, symObjAddr: 0x5190, symBinAddr: 0xAAC8, symSize: 0x11C }
  - { offset: 0xADD25, size: 0x8, addend: 0x0, symName: __ZN4core5slice4sort6shared5pivot11median3_rec17hccf189185b2932e0E, symObjAddr: 0x52AC, symBinAddr: 0xABE4, symSize: 0x134 }
  - { offset: 0xADF63, size: 0x8, addend: 0x0, symName: __ZN4core5slice4sort6shared5pivot11median3_rec17hedcfa885c83e52e0E, symObjAddr: 0x53E0, symBinAddr: 0xAD18, symSize: 0xD0 }
  - { offset: 0xAE0C7, size: 0x8, addend: 0x0, symName: __ZN4core5slice4sort6shared9smallsort12sort4_stable17h81ab11b4ba2aacddE, symObjAddr: 0x54B0, symBinAddr: 0xADE8, symSize: 0x1A0 }
  - { offset: 0xAE283, size: 0x8, addend: 0x0, symName: __ZN4core5slice4sort6shared9smallsort12sort4_stable17ha4a11613f6ebfeebE, symObjAddr: 0x5650, symBinAddr: 0xAF88, symSize: 0x180 }
  - { offset: 0xAE6D2, size: 0x8, addend: 0x0, symName: __ZN4core5slice4sort6shared9smallsort12sort8_stable17h24f9dcf671163354E, symObjAddr: 0x57D0, symBinAddr: 0xB108, symSize: 0x2B8 }
  - { offset: 0xAEC58, size: 0x8, addend: 0x0, symName: __ZN4core5slice4sort6shared9smallsort18small_sort_general17h18a6b899fcbbcae5E, symObjAddr: 0x5A88, symBinAddr: 0xB3C0, symSize: 0x400 }
  - { offset: 0xAF201, size: 0x8, addend: 0x0, symName: __ZN4core5slice4sort6shared9smallsort18small_sort_general17h72c55f9d0750ed2bE, symObjAddr: 0x5E88, symBinAddr: 0xB7C0, symSize: 0x4A4 }
  - { offset: 0xAF93B, size: 0x8, addend: 0x0, symName: __ZN4core5slice4sort6shared9smallsort25insertion_sort_shift_left17h441365008f6186b0E, symObjAddr: 0x632C, symBinAddr: 0xBC64, symSize: 0xF4 }
  - { offset: 0xAFB14, size: 0x8, addend: 0x0, symName: __ZN4core5slice4sort6shared9smallsort25insertion_sort_shift_left17h456b2e529b8bad54E, symObjAddr: 0x6420, symBinAddr: 0xBD58, symSize: 0xA0 }
  - { offset: 0xAFBF3, size: 0x8, addend: 0x0, symName: __ZN4core5slice4sort6shared9smallsort25insertion_sort_shift_left17h54c7eaadf7ff75a0E, symObjAddr: 0x64C0, symBinAddr: 0xBDF8, symSize: 0xC4 }
  - { offset: 0xAFD2C, size: 0x8, addend: 0x0, symName: __ZN4core5slice4sort6shared9smallsort25insertion_sort_shift_left17h744ea439b3b06b49E, symObjAddr: 0x6584, symBinAddr: 0xBEBC, symSize: 0xB4 }
  - { offset: 0xB00BE, size: 0x8, addend: 0x0, symName: __ZN4core5slice4sort6stable14driftsort_main17h2820ac9276ea13d4E, symObjAddr: 0x6638, symBinAddr: 0xBF70, symSize: 0x148 }
  - { offset: 0xB02F9, size: 0x8, addend: 0x0, symName: __ZN4core5slice4sort6stable14driftsort_main17h4901144328e12c34E, symObjAddr: 0x6780, symBinAddr: 0xC0B8, symSize: 0x148 }
  - { offset: 0xB05BC, size: 0x8, addend: 0x0, symName: __ZN4core5slice4sort6stable14driftsort_main17h951a312f028e8a5dE, symObjAddr: 0x68C8, symBinAddr: 0xC200, symSize: 0x148 }
  - { offset: 0xB087F, size: 0x8, addend: 0x0, symName: __ZN4core5slice4sort6stable14driftsort_main17h9acc9b55e8680a1dE, symObjAddr: 0x6A10, symBinAddr: 0xC348, symSize: 0x16C }
  - { offset: 0xB0B9C, size: 0x8, addend: 0x0, symName: __ZN4core5slice4sort6stable14driftsort_main17hd03eac101107beedE, symObjAddr: 0x6B7C, symBinAddr: 0xC4B4, symSize: 0x148 }
  - { offset: 0xB0E5F, size: 0x8, addend: 0x0, symName: __ZN4core5slice4sort6stable14driftsort_main17hf3e16d7e44ddb687E, symObjAddr: 0x6CC4, symBinAddr: 0xC5FC, symSize: 0x16C }
  - { offset: 0xB136F, size: 0x8, addend: 0x0, symName: __ZN4core5slice4sort6stable5drift4sort17h243397888a6532ffE, symObjAddr: 0x6E30, symBinAddr: 0xC768, symSize: 0x4F8 }
  - { offset: 0xB1A64, size: 0x8, addend: 0x0, symName: __ZN4core5slice4sort6stable5drift4sort17h35d09f8557b6118dE, symObjAddr: 0x7328, symBinAddr: 0xCC60, symSize: 0x4E0 }
  - { offset: 0xB20C3, size: 0x8, addend: 0x0, symName: __ZN4core5slice4sort6stable5drift4sort17h3d55b65950889658E, symObjAddr: 0x7808, symBinAddr: 0xD140, symSize: 0x530 }
  - { offset: 0xB27A3, size: 0x8, addend: 0x0, symName: __ZN4core5slice4sort6stable5drift4sort17h7a5f47525a26f3dcE, symObjAddr: 0x7D38, symBinAddr: 0xD670, symSize: 0x4F8 }
  - { offset: 0xB2E98, size: 0x8, addend: 0x0, symName: __ZN4core5slice4sort6stable5drift4sort17h829b03dc83716b52E, symObjAddr: 0x8230, symBinAddr: 0xDB68, symSize: 0x5EC }
  - { offset: 0xB35CA, size: 0x8, addend: 0x0, symName: __ZN4core5slice4sort6stable5drift4sort17h8bc4c4b49194b4b9E, symObjAddr: 0x881C, symBinAddr: 0xE154, symSize: 0x538 }
  - { offset: 0xB3EDE, size: 0x8, addend: 0x0, symName: __ZN4core5slice4sort6stable9quicksort9quicksort17h292457ff01d4d10dE, symObjAddr: 0x8D54, symBinAddr: 0xE68C, symSize: 0x6E0 }
  - { offset: 0xB4A1A, size: 0x8, addend: 0x0, symName: __ZN4core5slice4sort6stable9quicksort9quicksort17h5cd5b014bcfaba9eE, symObjAddr: 0x9434, symBinAddr: 0xED6C, symSize: 0x6D8 }
  - { offset: 0xB5556, size: 0x8, addend: 0x0, symName: __ZN4core5slice4sort6stable9quicksort9quicksort17h8af2b47a15147ca0E, symObjAddr: 0x9B0C, symBinAddr: 0xF444, symSize: 0x834 }
  - { offset: 0xB65A4, size: 0x8, addend: 0x0, symName: __ZN4core5slice4sort6stable9quicksort9quicksort17ha39e95e93f4d67a7E, symObjAddr: 0xA340, symBinAddr: 0xFC78, symSize: 0x74C }
  - { offset: 0xB6D38, size: 0x8, addend: 0x0, symName: __ZN4core5slice4sort6stable9quicksort9quicksort17ha8cbe747cd0e230bE, symObjAddr: 0xAA8C, symBinAddr: 0x103C4, symSize: 0x834 }
  - { offset: 0xB79C6, size: 0x8, addend: 0x0, symName: __ZN4core5slice4sort6stable9quicksort9quicksort17hcdb7d98a5156ed6eE, symObjAddr: 0xB2C0, symBinAddr: 0x10BF8, symSize: 0x810 }
  - { offset: 0xB8683, size: 0x8, addend: 0x0, symName: __ZN4core5slice4sort8unstable7ipnsort17h0b07a8d807225d26E, symObjAddr: 0xBAD0, symBinAddr: 0x11408, symSize: 0x1A8 }
  - { offset: 0xB8965, size: 0x8, addend: 0x0, symName: __ZN4core5slice4sort8unstable7ipnsort17hd88029cbef8de4cbE, symObjAddr: 0xBC78, symBinAddr: 0x115B0, symSize: 0xFC }
  - { offset: 0xB8AC7, size: 0x8, addend: 0x0, symName: __ZN4core5slice4sort8unstable8heapsort8heapsort17h76bb1d364d932357E, symObjAddr: 0xBD74, symBinAddr: 0x116AC, symSize: 0x10C }
  - { offset: 0xB8CC7, size: 0x8, addend: 0x0, symName: __ZN4core5slice4sort8unstable8heapsort8heapsort17hd8af55f6c4cf626eE, symObjAddr: 0xBE80, symBinAddr: 0x117B8, symSize: 0x160 }
  - { offset: 0xB906F, size: 0x8, addend: 0x0, symName: __ZN4core5slice4sort8unstable9quicksort9quicksort17h9d8be53928accf49E, symObjAddr: 0xBFE0, symBinAddr: 0x11918, symSize: 0x408 }
  - { offset: 0xB9987, size: 0x8, addend: 0x0, symName: __ZN4core5slice4sort8unstable9quicksort9quicksort17hc4ec331631b4f728E, symObjAddr: 0xC3E8, symBinAddr: 0x11D20, symSize: 0x598 }
  - { offset: 0xBA797, size: 0x8, addend: 0x0, symName: '__ZN36_$LT$T$u20$as$u20$core..any..Any$GT$7type_id17h6eaf20470eafc089E', symObjAddr: 0x13C, symBinAddr: 0x5CA8, symSize: 0x30 }
  - { offset: 0xBA7B1, size: 0x8, addend: 0x0, symName: '__ZN36_$LT$T$u20$as$u20$core..any..Any$GT$7type_id17h8b5967a9e0d8138eE', symObjAddr: 0x16C, symBinAddr: 0x5CD8, symSize: 0x30 }
  - { offset: 0xBA7CB, size: 0x8, addend: 0x0, symName: '__ZN36_$LT$T$u20$as$u20$core..any..Any$GT$7type_id17hf219924f466d0272E', symObjAddr: 0x19C, symBinAddr: 0x5D08, symSize: 0x30 }
  - { offset: 0xBA86B, size: 0x8, addend: 0x0, symName: '__ZN41_$LT$bool$u20$as$u20$core..fmt..Debug$GT$3fmt17h3176033884ad0d03E', symObjAddr: 0x1E0, symBinAddr: 0x5D38, symSize: 0x10 }
  - { offset: 0xBA88D, size: 0x8, addend: 0x0, symName: '__ZN42_$LT$$RF$T$u20$as$u20$core..fmt..Debug$GT$3fmt17h0548503aa411e35dE', symObjAddr: 0x1F0, symBinAddr: 0x5D48, symSize: 0x38 }
  - { offset: 0xBA8BF, size: 0x8, addend: 0x0, symName: '__ZN42_$LT$$RF$T$u20$as$u20$core..fmt..Debug$GT$3fmt17h0892c6a2564c6feaE', symObjAddr: 0x228, symBinAddr: 0x5D80, symSize: 0x68 }
  - { offset: 0xBA8EA, size: 0x8, addend: 0x0, symName: '__ZN42_$LT$$RF$T$u20$as$u20$core..fmt..Debug$GT$3fmt17h17bed09842b659dbE', symObjAddr: 0x290, symBinAddr: 0x5DE8, symSize: 0x144 }
  - { offset: 0xBA91C, size: 0x8, addend: 0x0, symName: '__ZN42_$LT$$RF$T$u20$as$u20$core..fmt..Debug$GT$3fmt17h1fabf3cebe5edc43E', symObjAddr: 0x3D4, symBinAddr: 0x5F2C, symSize: 0x6C }
  - { offset: 0xBA94E, size: 0x8, addend: 0x0, symName: '__ZN42_$LT$$RF$T$u20$as$u20$core..fmt..Debug$GT$3fmt17h3086ea0b9973a8c0E', symObjAddr: 0x440, symBinAddr: 0x5F98, symSize: 0xEC }
  - { offset: 0xBAA1E, size: 0x8, addend: 0x0, symName: '__ZN42_$LT$$RF$T$u20$as$u20$core..fmt..Debug$GT$3fmt17h31b70d78910f3b2fE', symObjAddr: 0x52C, symBinAddr: 0x6084, symSize: 0x14 }
  - { offset: 0xBAA39, size: 0x8, addend: 0x0, symName: '__ZN42_$LT$$RF$T$u20$as$u20$core..fmt..Debug$GT$3fmt17h377695e4650a6503E', symObjAddr: 0x540, symBinAddr: 0x6098, symSize: 0x74 }
  - { offset: 0xBAA6B, size: 0x8, addend: 0x0, symName: '__ZN42_$LT$$RF$T$u20$as$u20$core..fmt..Debug$GT$3fmt17h450d77ac228c65e4E', symObjAddr: 0x5B4, symBinAddr: 0x610C, symSize: 0x4C }
  - { offset: 0xBAAEC, size: 0x8, addend: 0x0, symName: '__ZN42_$LT$$RF$T$u20$as$u20$core..fmt..Debug$GT$3fmt17h49d0f4f4d97fca06E', symObjAddr: 0x600, symBinAddr: 0x6158, symSize: 0x9C }
  - { offset: 0xBAB80, size: 0x8, addend: 0x0, symName: '__ZN42_$LT$$RF$T$u20$as$u20$core..fmt..Debug$GT$3fmt17h5dcedabc5b6bca52E', symObjAddr: 0x69C, symBinAddr: 0x61F4, symSize: 0x1C }
  - { offset: 0xBABA2, size: 0x8, addend: 0x0, symName: '__ZN42_$LT$$RF$T$u20$as$u20$core..fmt..Debug$GT$3fmt17h6935af7e2367422dE', symObjAddr: 0x6B8, symBinAddr: 0x6210, symSize: 0x1C }
  - { offset: 0xBABD4, size: 0x8, addend: 0x0, symName: '__ZN42_$LT$$RF$T$u20$as$u20$core..fmt..Debug$GT$3fmt17h6b94708b4fc4241eE', symObjAddr: 0x6D4, symBinAddr: 0x622C, symSize: 0x2C }
  - { offset: 0xBACF9, size: 0x8, addend: 0x0, symName: '__ZN42_$LT$$RF$T$u20$as$u20$core..fmt..Debug$GT$3fmt17h726bab907bbca747E', symObjAddr: 0x700, symBinAddr: 0x6258, symSize: 0x74 }
  - { offset: 0xBAE1C, size: 0x8, addend: 0x0, symName: '__ZN42_$LT$$RF$T$u20$as$u20$core..fmt..Debug$GT$3fmt17h7a255ed7ae30f56bE', symObjAddr: 0x774, symBinAddr: 0x62CC, symSize: 0x1C }
  - { offset: 0xBAE37, size: 0x8, addend: 0x0, symName: '__ZN42_$LT$$RF$T$u20$as$u20$core..fmt..Debug$GT$3fmt17h7b4f370a2d40748eE', symObjAddr: 0x790, symBinAddr: 0x62E8, symSize: 0x14 }
  - { offset: 0xBAE52, size: 0x8, addend: 0x0, symName: '__ZN42_$LT$$RF$T$u20$as$u20$core..fmt..Debug$GT$3fmt17h86b239d000778960E', symObjAddr: 0x7A4, symBinAddr: 0x62FC, symSize: 0x30 }
  - { offset: 0xBAE9A, size: 0x8, addend: 0x0, symName: '__ZN42_$LT$$RF$T$u20$as$u20$core..fmt..Debug$GT$3fmt17h982a7c849e8daf15E', symObjAddr: 0x7D4, symBinAddr: 0x632C, symSize: 0x64 }
  - { offset: 0xBAECC, size: 0x8, addend: 0x0, symName: '__ZN42_$LT$$RF$T$u20$as$u20$core..fmt..Debug$GT$3fmt17h9890a585800c7a61E', symObjAddr: 0x838, symBinAddr: 0x6390, symSize: 0x58 }
  - { offset: 0xBAEFE, size: 0x8, addend: 0x0, symName: '__ZN42_$LT$$RF$T$u20$as$u20$core..fmt..Debug$GT$3fmt17h9c49fdb99ca26ebbE', symObjAddr: 0x890, symBinAddr: 0x63E8, symSize: 0x38 }
  - { offset: 0xBAF30, size: 0x8, addend: 0x0, symName: '__ZN42_$LT$$RF$T$u20$as$u20$core..fmt..Debug$GT$3fmt17h9fb4d50c88c61995E', symObjAddr: 0x8C8, symBinAddr: 0x6420, symSize: 0x14 }
  - { offset: 0xBAF4B, size: 0x8, addend: 0x0, symName: '__ZN42_$LT$$RF$T$u20$as$u20$core..fmt..Debug$GT$3fmt17h9fbe2e300f9de007E', symObjAddr: 0x8DC, symBinAddr: 0x6434, symSize: 0x64 }
  - { offset: 0xBAF8B, size: 0x8, addend: 0x0, symName: '__ZN42_$LT$$RF$T$u20$as$u20$core..fmt..Debug$GT$3fmt17ha0f331ea5150484fE', symObjAddr: 0x940, symBinAddr: 0x6498, symSize: 0x6C }
  - { offset: 0xBAFD4, size: 0x8, addend: 0x0, symName: '__ZN42_$LT$$RF$T$u20$as$u20$core..fmt..Debug$GT$3fmt17ha3dacd862d355739E', symObjAddr: 0x9AC, symBinAddr: 0x6504, symSize: 0x20 }
  - { offset: 0xBB014, size: 0x8, addend: 0x0, symName: '__ZN42_$LT$$RF$T$u20$as$u20$core..fmt..Debug$GT$3fmt17haca32a023e43107bE', symObjAddr: 0x9CC, symBinAddr: 0x6524, symSize: 0x74 }
  - { offset: 0xBB0BC, size: 0x8, addend: 0x0, symName: '__ZN42_$LT$$RF$T$u20$as$u20$core..fmt..Debug$GT$3fmt17hb2483c2b4fa574f0E', symObjAddr: 0xA40, symBinAddr: 0x6598, symSize: 0x2C }
  - { offset: 0xBB132, size: 0x8, addend: 0x0, symName: '__ZN42_$LT$$RF$T$u20$as$u20$core..fmt..Debug$GT$3fmt17hb9a760cbd1b9d57eE', symObjAddr: 0xA6C, symBinAddr: 0x65C4, symSize: 0x78 }
  - { offset: 0xBB1CC, size: 0x8, addend: 0x0, symName: '__ZN42_$LT$$RF$T$u20$as$u20$core..fmt..Debug$GT$3fmt17hbf5c148ab5649aacE', symObjAddr: 0xAE4, symBinAddr: 0x663C, symSize: 0x68 }
  - { offset: 0xBB1F6, size: 0x8, addend: 0x0, symName: '__ZN42_$LT$$RF$T$u20$as$u20$core..fmt..Debug$GT$3fmt17hc7f6fdbd02c3b872E', symObjAddr: 0xB4C, symBinAddr: 0x66A4, symSize: 0x44 }
  - { offset: 0xBB236, size: 0x8, addend: 0x0, symName: '__ZN42_$LT$$RF$T$u20$as$u20$core..fmt..Debug$GT$3fmt17hd10815b3ea7318dfE', symObjAddr: 0xB90, symBinAddr: 0x66E8, symSize: 0x30 }
  - { offset: 0xBB379, size: 0x8, addend: 0x0, symName: '__ZN42_$LT$$RF$T$u20$as$u20$core..fmt..Debug$GT$3fmt17hd3c05eec0918f9d5E', symObjAddr: 0xBC0, symBinAddr: 0x6718, symSize: 0x70 }
  - { offset: 0xBB3AB, size: 0x8, addend: 0x0, symName: '__ZN42_$LT$$RF$T$u20$as$u20$core..fmt..Debug$GT$3fmt17hd703401e3e76aca2E', symObjAddr: 0xC30, symBinAddr: 0x6788, symSize: 0x30 }
  - { offset: 0xBB3F3, size: 0x8, addend: 0x0, symName: '__ZN42_$LT$$RF$T$u20$as$u20$core..fmt..Debug$GT$3fmt17hda480e7680a74fadE', symObjAddr: 0xC60, symBinAddr: 0x67B8, symSize: 0x1C }
  - { offset: 0xBB425, size: 0x8, addend: 0x0, symName: '__ZN42_$LT$$RF$T$u20$as$u20$core..fmt..Debug$GT$3fmt17hdd1533b105bee53bE', symObjAddr: 0xC7C, symBinAddr: 0x67D4, symSize: 0x30 }
  - { offset: 0xBB46D, size: 0x8, addend: 0x0, symName: '__ZN42_$LT$$RF$T$u20$as$u20$core..fmt..Debug$GT$3fmt17hdd877d44fb288905E', symObjAddr: 0xCAC, symBinAddr: 0x6804, symSize: 0xC4 }
  - { offset: 0xBB497, size: 0x8, addend: 0x0, symName: '__ZN42_$LT$$RF$T$u20$as$u20$core..fmt..Debug$GT$3fmt17hf84028813bbc24efE', symObjAddr: 0xD70, symBinAddr: 0x68C8, symSize: 0x38 }
  - { offset: 0xBB5B7, size: 0x8, addend: 0x0, symName: '__ZN50_$LT$$LP$U$C$T$RP$$u20$as$u20$core..fmt..Debug$GT$3fmt17h4863f5c650e509e4E', symObjAddr: 0xCA10, symBinAddr: 0x122CC, symSize: 0x74 }
  - { offset: 0xBB5D2, size: 0x8, addend: 0x0, symName: '__ZN50_$LT$$LP$U$C$T$RP$$u20$as$u20$core..fmt..Debug$GT$3fmt17h4c97714735532d66E', symObjAddr: 0xCA84, symBinAddr: 0x12340, symSize: 0x74 }
  - { offset: 0xBB67E, size: 0x8, addend: 0x0, symName: '__ZN4core3fmt3num50_$LT$impl$u20$core..fmt..Debug$u20$for$u20$u64$GT$3fmt17h4a60713ca82ab596E', symObjAddr: 0xEFC, symBinAddr: 0x6A54, symSize: 0x2C }
  - { offset: 0xBB6BC, size: 0x8, addend: 0x0, symName: '__ZN4core3fmt3num50_$LT$impl$u20$core..fmt..Debug$u20$for$u20$i32$GT$3fmt17hbc58b0a008e21b13E', symObjAddr: 0xE78, symBinAddr: 0x69D0, symSize: 0x2C }
  - { offset: 0xBB6FA, size: 0x8, addend: 0x0, symName: '__ZN4core3fmt3num49_$LT$impl$u20$core..fmt..Debug$u20$for$u20$u8$GT$3fmt17h5d59df3a30f1c8ccE', symObjAddr: 0xE4C, symBinAddr: 0x69A4, symSize: 0x2C }
  - { offset: 0xBB738, size: 0x8, addend: 0x0, symName: '__ZN4core3fmt3num50_$LT$impl$u20$core..fmt..Debug$u20$for$u20$u32$GT$3fmt17hf65d91e056f27db7E', symObjAddr: 0xED0, symBinAddr: 0x6A28, symSize: 0x2C }
  - { offset: 0xBB769, size: 0x8, addend: 0x0, symName: '__ZN4core3fmt3num50_$LT$impl$u20$core..fmt..Debug$u20$for$u20$i64$GT$3fmt17h3696f4c82873e463E', symObjAddr: 0xEA4, symBinAddr: 0x69FC, symSize: 0x2C }
  - { offset: 0xBB7A0, size: 0x8, addend: 0x0, symName: '__ZN4core3fmt3num52_$LT$impl$u20$core..fmt..Debug$u20$for$u20$usize$GT$3fmt17hebd4d92e9a615c26E', symObjAddr: 0xF28, symBinAddr: 0x6A80, symSize: 0x2C }
  - { offset: 0xBB82C, size: 0x8, addend: 0x0, symName: '__ZN45_$LT$$LP$$RP$$u20$as$u20$core..fmt..Debug$GT$3fmt17hb35a3f247ed31636E', symObjAddr: 0xE2C, symBinAddr: 0x6984, symSize: 0x20 }
  - { offset: 0xBB847, size: 0x8, addend: 0x0, symName: '__ZN44_$LT$$RF$T$u20$as$u20$core..fmt..Display$GT$3fmt17h2bab1f1af294e5ccE', symObjAddr: 0xDA8, symBinAddr: 0x6900, symSize: 0x1C }
  - { offset: 0xBB862, size: 0x8, addend: 0x0, symName: '__ZN44_$LT$$RF$T$u20$as$u20$core..fmt..Display$GT$3fmt17hd5ce45d305e39be6E', symObjAddr: 0xDC4, symBinAddr: 0x691C, symSize: 0x68 }
  - { offset: 0xBBE15, size: 0x8, addend: 0x0, symName: __ZN4core3fmt5Write10write_char17h2cbb486834d73e0fE, symObjAddr: 0xF54, symBinAddr: 0x6AAC, symSize: 0x150 }
  - { offset: 0xBBFD6, size: 0x8, addend: 0x0, symName: __ZN4core3fmt5Write10write_char17h718a93aec85174bbE, symObjAddr: 0x10A4, symBinAddr: 0x6BFC, symSize: 0x180 }
  - { offset: 0xBC1AE, size: 0x8, addend: 0x0, symName: __ZN4core3fmt5Write10write_char17h762e636c7fd3e1c2E, symObjAddr: 0x1224, symBinAddr: 0x6D7C, symSize: 0x140 }
  - { offset: 0xBC23D, size: 0x8, addend: 0x0, symName: __ZN4core3fmt5Write10write_char17h837428d157832cf7E, symObjAddr: 0x1364, symBinAddr: 0x6EBC, symSize: 0x180 }
  - { offset: 0xBC415, size: 0x8, addend: 0x0, symName: __ZN4core3fmt5Write10write_char17h8fd724b56eb11b58E, symObjAddr: 0x14E4, symBinAddr: 0x703C, symSize: 0x140 }
  - { offset: 0xBC4A4, size: 0x8, addend: 0x0, symName: __ZN4core3fmt5Write10write_char17hcec60e3c1537bd2eE, symObjAddr: 0x1624, symBinAddr: 0x717C, symSize: 0x128 }
  - { offset: 0xBC6DE, size: 0x8, addend: 0x0, symName: __ZN4core3fmt5Write9write_fmt17h1641b316c536689aE, symObjAddr: 0x174C, symBinAddr: 0x72A4, symSize: 0x1C }
  - { offset: 0xBC70E, size: 0x8, addend: 0x0, symName: __ZN4core3fmt5Write9write_fmt17h3cc97dc0328dac81E, symObjAddr: 0x1768, symBinAddr: 0x72C0, symSize: 0x1C }
  - { offset: 0xBC73E, size: 0x8, addend: 0x0, symName: __ZN4core3fmt5Write9write_fmt17h615d22bb19bdb743E, symObjAddr: 0x1784, symBinAddr: 0x72DC, symSize: 0x1C }
  - { offset: 0xBC76E, size: 0x8, addend: 0x0, symName: __ZN4core3fmt5Write9write_fmt17h644f3a8c97bea26cE, symObjAddr: 0x17A0, symBinAddr: 0x72F8, symSize: 0x1C }
  - { offset: 0xBC79E, size: 0x8, addend: 0x0, symName: __ZN4core3fmt5Write9write_fmt17hadcf024edc5d4ec5E, symObjAddr: 0x17BC, symBinAddr: 0x7314, symSize: 0x1C }
  - { offset: 0xBC7CE, size: 0x8, addend: 0x0, symName: __ZN4core3fmt5Write9write_fmt17hafe5d16534e6587bE, symObjAddr: 0x17D8, symBinAddr: 0x7330, symSize: 0x1C }
  - { offset: 0xBC7FE, size: 0x8, addend: 0x0, symName: __ZN4core3fmt5Write9write_fmt17hca1e74c7378bb6fcE, symObjAddr: 0x17F4, symBinAddr: 0x734C, symSize: 0x1C }
  - { offset: 0xBC85F, size: 0x8, addend: 0x0, symName: '__ZN50_$LT$$BP$mut$u20$T$u20$as$u20$core..fmt..Debug$GT$3fmt17hea30ba52550d5c4eE', symObjAddr: 0xC9FC, symBinAddr: 0x122B8, symSize: 0x14 }
  - { offset: 0xBC8AF, size: 0x8, addend: 0x0, symName: '__ZN52_$LT$$RF$mut$u20$T$u20$as$u20$core..fmt..Display$GT$3fmt17hbf2c0795dd8d655cE', symObjAddr: 0xCAF8, symBinAddr: 0x123B4, symSize: 0x1C }
  - { offset: 0xBC9EE, size: 0x8, addend: 0x0, symName: '__ZN73_$LT$core..num..nonzero..NonZero$LT$T$GT$$u20$as$u20$core..fmt..Debug$GT$3fmt17h5618956dfb34d4e1E', symObjAddr: 0x18DBC, symBinAddr: 0x1E500, symSize: 0x48 }
  - { offset: 0xBD0CB, size: 0x8, addend: 0x0, symName: '__ZN70_$LT$core..num..error..TryFromIntError$u20$as$u20$core..fmt..Debug$GT$3fmt17hf1a64b4b75ca0aa7E', symObjAddr: 0x18D60, symBinAddr: 0x1E4A4, symSize: 0x40 }
  - { offset: 0xBD0EC, size: 0x8, addend: 0x0, symName: '__ZN72_$LT$core..num..error..TryFromIntError$u20$as$u20$core..error..Error$GT$11description17h7002cf8f83a2c3bcE', symObjAddr: 0x18DA0, symBinAddr: 0x1E4E4, symSize: 0x1C }
  - { offset: 0xBD42D, size: 0x8, addend: 0x0, symName: '__ZN4core5array69_$LT$impl$u20$core..fmt..Debug$u20$for$u20$$u5b$T$u3b$$u20$N$u5d$$GT$3fmt17h1b820d04c748150aE', symObjAddr: 0x4BD4, symBinAddr: 0xA50C, symSize: 0xFC }
  - { offset: 0xBD9F8, size: 0x8, addend: 0x0, symName: '__ZN55_$LT$$RF$str$u20$as$u20$core..str..pattern..Pattern$GT$15is_contained_in17hf0ee11aa3348df02E', symObjAddr: 0xCB14, symBinAddr: 0x123D0, symSize: 0x3C0 }
  - { offset: 0xBDEFC, size: 0x8, addend: 0x0, symName: __ZN4core5panic12PanicPayload6as_str17h12026afcfebb9a8aE, symObjAddr: 0x4D78, symBinAddr: 0xA6B0, symSize: 0x14 }
  - { offset: 0xBF53D, size: 0x8, addend: 0x0, symName: __ZN4core3ops8function2Fn4call17h24e325d210a9d954E, symObjAddr: 0x1810, symBinAddr: 0x7368, symSize: 0x14 }
  - { offset: 0xBF557, size: 0x8, addend: 0x0, symName: __ZN4core3ops8function2Fn4call17h5a4a71e82c64f420E, symObjAddr: 0x1824, symBinAddr: 0x737C, symSize: 0x38 }
  - { offset: 0xBF5F3, size: 0x8, addend: 0x0, symName: __ZN4core3ops8function2Fn4call17h90198407119dbb86E, symObjAddr: 0x185C, symBinAddr: 0x73B4, symSize: 0xAC }
  - { offset: 0xBF6F9, size: 0x8, addend: 0x0, symName: __ZN4core3ops8function2Fn4call17h91c222e4c225f7d8E, symObjAddr: 0x1908, symBinAddr: 0x7460, symSize: 0x38 }
  - { offset: 0xBF795, size: 0x8, addend: 0x0, symName: __ZN4core3ops8function2Fn4call17hcbfabc3ae1cfb3d1E, symObjAddr: 0x1940, symBinAddr: 0x7498, symSize: 0x14 }
  - { offset: 0xBF7A9, size: 0x8, addend: 0x0, symName: __ZN4core3ops8function2Fn4call17hd03cd7924108a593E, symObjAddr: 0x1954, symBinAddr: 0x74AC, symSize: 0xAC }
  - { offset: 0xBF8AF, size: 0x8, addend: 0x0, symName: __ZN4core3ops8function2Fn4call17hf00964584159298fE, symObjAddr: 0x1A00, symBinAddr: 0x7558, symSize: 0x14 }
  - { offset: 0xBF8C3, size: 0x8, addend: 0x0, symName: __ZN4core3ops8function2Fn4call17hf53586f30b55f43aE, symObjAddr: 0x1A14, symBinAddr: 0x756C, symSize: 0xA4 }
  - { offset: 0xBFA0A, size: 0x8, addend: 0x0, symName: __ZN4core3ops8function5FnMut8call_mut17hd50a65b76898a66eE, symObjAddr: 0x1AB8, symBinAddr: 0x7610, symSize: 0x14 }
  - { offset: 0xBFA5F, size: 0x8, addend: 0x0, symName: '__ZN4core3ops8function6FnOnce40call_once$u7b$$u7b$vtable.shim$u7d$$u7d$17h0485059a7f678c54E', symObjAddr: 0x1ACC, symBinAddr: 0x7624, symSize: 0xA4 }
  - { offset: 0xBFBB3, size: 0x8, addend: 0x0, symName: '__ZN4core3ops8function6FnOnce40call_once$u7b$$u7b$vtable.shim$u7d$$u7d$17h11413fbdaad7f384E', symObjAddr: 0x1B70, symBinAddr: 0x76C8, symSize: 0x60 }
  - { offset: 0xBFCA0, size: 0x8, addend: 0x0, symName: '__ZN4core3ops8function6FnOnce40call_once$u7b$$u7b$vtable.shim$u7d$$u7d$17h17fee329a928f635E', symObjAddr: 0x1BD0, symBinAddr: 0x7728, symSize: 0x18 }
  - { offset: 0xBFCF3, size: 0x8, addend: 0x0, symName: '__ZN4core3ops8function6FnOnce40call_once$u7b$$u7b$vtable.shim$u7d$$u7d$17h1add1a00e18bb5bdE', symObjAddr: 0x1BE8, symBinAddr: 0x7740, symSize: 0x28 }
  - { offset: 0xBFD30, size: 0x8, addend: 0x0, symName: '__ZN4core3ops8function6FnOnce40call_once$u7b$$u7b$vtable.shim$u7d$$u7d$17h2488c5330ea84586E', symObjAddr: 0x1C10, symBinAddr: 0x7768, symSize: 0xB0 }
  - { offset: 0xBFE91, size: 0x8, addend: 0x0, symName: '__ZN4core3ops8function6FnOnce40call_once$u7b$$u7b$vtable.shim$u7d$$u7d$17h25021ed9f558461cE', symObjAddr: 0x1CC0, symBinAddr: 0x7818, symSize: 0x80 }
  - { offset: 0xC000E, size: 0x8, addend: 0x0, symName: '__ZN4core3ops8function6FnOnce40call_once$u7b$$u7b$vtable.shim$u7d$$u7d$17h25298b37cf3d92fcE', symObjAddr: 0x1D40, symBinAddr: 0x7898, symSize: 0x28 }
  - { offset: 0xC004B, size: 0x8, addend: 0x0, symName: '__ZN4core3ops8function6FnOnce40call_once$u7b$$u7b$vtable.shim$u7d$$u7d$17h54f1e9cc3c1ee2f1E', symObjAddr: 0x1D68, symBinAddr: 0x78C0, symSize: 0x18 }
  - { offset: 0xC009E, size: 0x8, addend: 0x0, symName: '__ZN4core3ops8function6FnOnce40call_once$u7b$$u7b$vtable.shim$u7d$$u7d$17h5c9e57362044e433E', symObjAddr: 0x1D80, symBinAddr: 0x78D8, symSize: 0x10 }
  - { offset: 0xC00DB, size: 0x8, addend: 0x0, symName: '__ZN4core3ops8function6FnOnce40call_once$u7b$$u7b$vtable.shim$u7d$$u7d$17h5e4e7d4cc7e7ce6aE', symObjAddr: 0x1D90, symBinAddr: 0x78E8, symSize: 0x10 }
  - { offset: 0xC0118, size: 0x8, addend: 0x0, symName: '__ZN4core3ops8function6FnOnce40call_once$u7b$$u7b$vtable.shim$u7d$$u7d$17h5ef69879f5fbaf45E', symObjAddr: 0x1DA0, symBinAddr: 0x78F8, symSize: 0x7C }
  - { offset: 0xC0277, size: 0x8, addend: 0x0, symName: '__ZN4core3ops8function6FnOnce40call_once$u7b$$u7b$vtable.shim$u7d$$u7d$17h8e58d6c747639e9bE', symObjAddr: 0x1E1C, symBinAddr: 0x7974, symSize: 0x14 }
  - { offset: 0xC02B4, size: 0x8, addend: 0x0, symName: '__ZN4core3ops8function6FnOnce40call_once$u7b$$u7b$vtable.shim$u7d$$u7d$17ha67ed2d11f8faad9E', symObjAddr: 0x1E30, symBinAddr: 0x7988, symSize: 0x18 }
  - { offset: 0xC02F1, size: 0x8, addend: 0x0, symName: '__ZN4core3ops8function6FnOnce40call_once$u7b$$u7b$vtable.shim$u7d$$u7d$17hff19e4741408dcd2E', symObjAddr: 0x1E48, symBinAddr: 0x79A0, symSize: 0x28 }
  - { offset: 0xC46EA, size: 0x8, addend: 0x0, symName: '__ZN4core4cell4once17OnceCell$LT$T$GT$8try_init17h59956b75ba948db8E', symObjAddr: 0x4AB4, symBinAddr: 0x8BCE4, symSize: 0x120 }
  - { offset: 0xC4D1B, size: 0x8, addend: 0x0, symName: __ZN4core5error5Error5cause17hd2f085d69dca2674E, symObjAddr: 0x4CD0, symBinAddr: 0xA608, symSize: 0x14 }
  - { offset: 0xC4D35, size: 0x8, addend: 0x0, symName: __ZN4core5error5Error5cause17hea5b9fdb8275f557E, symObjAddr: 0x4CE4, symBinAddr: 0xA61C, symSize: 0x14 }
  - { offset: 0xC4D4F, size: 0x8, addend: 0x0, symName: __ZN4core5error5Error7provide17h3f11d26a8a7ae820E, symObjAddr: 0x4CF8, symBinAddr: 0xA630, symSize: 0x10 }
  - { offset: 0xC4D69, size: 0x8, addend: 0x0, symName: __ZN4core5error5Error7provide17hc093fa43a2edfc3dE, symObjAddr: 0x4D08, symBinAddr: 0xA640, symSize: 0x10 }
  - { offset: 0xC4D83, size: 0x8, addend: 0x0, symName: __ZN4core5error5Error7type_id17h656520c98a2e76b6E, symObjAddr: 0x4D18, symBinAddr: 0xA650, symSize: 0x30 }
  - { offset: 0xC4D9D, size: 0x8, addend: 0x0, symName: __ZN4core5error5Error7type_id17hac406cb4fbe121f5E, symObjAddr: 0x4D48, symBinAddr: 0xA680, symSize: 0x30 }
  - { offset: 0xC4E52, size: 0x8, addend: 0x0, symName: __ZN4core9panicking13assert_failed17h0c1aadf1a028af59E, symObjAddr: 0xC980, symBinAddr: 0x8BE04, symSize: 0x34 }
  - { offset: 0xC4E6D, size: 0x8, addend: 0x0, symName: __ZN4core9panicking13assert_failed17ha5d7e0693ae82dfdE, symObjAddr: 0xC9B4, symBinAddr: 0x8BE38, symSize: 0x24 }
  - { offset: 0xC4E88, size: 0x8, addend: 0x0, symName: __ZN4core9panicking13assert_failed17hb47457e371974382E, symObjAddr: 0xC9D8, symBinAddr: 0x8BE5C, symSize: 0x24 }
  - { offset: 0xC56B9, size: 0x8, addend: 0x0, symName: '__ZN3std9panicking41begin_panic$u7b$$u7b$reify.shim$u7d$$u7d$17hcc1c22a6bf8e8573E', symObjAddr: 0x1CC, symBinAddr: 0x8BCD0, symSize: 0x14 }
  - { offset: 0xC5766, size: 0x8, addend: 0x0, symName: __ZN3std9panicking11panic_count8increase17h02c09a63c634749eE, symObjAddr: 0x3B3A8, symBinAddr: 0x3F9AC, symSize: 0x80 }
  - { offset: 0xC583C, size: 0x8, addend: 0x0, symName: __ZN3std9panicking11panic_count19finished_panic_hook17h8fcbea3cffc22d00E, symObjAddr: 0x3B428, symBinAddr: 0x3FA2C, symSize: 0x24 }
  - { offset: 0xC58DA, size: 0x8, addend: 0x0, symName: __ZN3std9panicking11panic_count8decrease17h55bbef4abfa79312E, symObjAddr: 0x3B44C, symBinAddr: 0x3FA50, symSize: 0x50 }
  - { offset: 0xC59BB, size: 0x8, addend: 0x0, symName: __ZN3std9panicking11panic_count9get_count17hc6193389f8a48f7aE, symObjAddr: 0x3B49C, symBinAddr: 0x3FAA0, symSize: 0x24 }
  - { offset: 0xC5A12, size: 0x8, addend: 0x0, symName: __ZN3std9panicking11panic_count17is_zero_slow_path17h05f43ff55fd196c5E, symObjAddr: 0x3B4C0, symBinAddr: 0x8CFC0, symSize: 0x2C }
  - { offset: 0xC5B05, size: 0x8, addend: 0x0, symName: __ZN3std9panicking3try7cleanup17hb65c5034cb1a0d0cE, symObjAddr: 0x3B4EC, symBinAddr: 0x8CFEC, symSize: 0x54 }
  - { offset: 0xC5C44, size: 0x8, addend: 0x0, symName: __RNvCs691rhTbG0Ee_7___rustc17___rust_drop_panic, symObjAddr: 0x3A9F0, symBinAddr: 0x3EFF4, symSize: 0xBC }
  - { offset: 0xC5E53, size: 0x8, addend: 0x0, symName: __RNvCs691rhTbG0Ee_7___rustc24___rust_foreign_exception, symObjAddr: 0x3AAAC, symBinAddr: 0x3F0B0, symSize: 0xBC }
  - { offset: 0xC6070, size: 0x8, addend: 0x0, symName: __ZN3std9panicking8set_hook17h5dc94117b6d95eabE, symObjAddr: 0x3AB68, symBinAddr: 0x3F16C, symSize: 0x178 }
  - { offset: 0xC634D, size: 0x8, addend: 0x0, symName: __ZN3std9panicking9take_hook17h50dd1c01f51e2055E, symObjAddr: 0x3ACE0, symBinAddr: 0x3F2E4, symSize: 0xF4 }
  - { offset: 0xC6528, size: 0x8, addend: 0x0, symName: __ZN3std9panicking12default_hook17h18c3aa3e3a3584d5E, symObjAddr: 0x3ADD4, symBinAddr: 0x3F3D8, symSize: 0x1AC }
  - { offset: 0xC6863, size: 0x8, addend: 0x0, symName: '__ZN3std9panicking12default_hook28_$u7b$$u7b$closure$u7d$$u7d$17h195a9b2c829547ebE', symObjAddr: 0x3AF80, symBinAddr: 0x3F584, symSize: 0x1A4 }
  - { offset: 0xC6A4F, size: 0x8, addend: 0x0, symName: '__ZN3std9panicking12default_hook28_$u7b$$u7b$closure$u7d$$u7d$28_$u7b$$u7b$closure$u7d$$u7d$17hf6b13e8947087eb8E', symObjAddr: 0x3B124, symBinAddr: 0x3F728, symSize: 0x284 }
  - { offset: 0xC6EFE, size: 0x8, addend: 0x0, symName: __RNvCs691rhTbG0Ee_7___rustc17rust_begin_unwind, symObjAddr: 0x3B540, symBinAddr: 0x3FAC4, symSize: 0x20 }
  - { offset: 0xC6F6D, size: 0x8, addend: 0x0, symName: '__ZN102_$LT$std..panicking..begin_panic_handler..FormatStringPayload$u20$as$u20$core..panic..PanicPayload$GT$8take_box17hd86fec799483129fE', symObjAddr: 0x3B560, symBinAddr: 0x3FAE4, symSize: 0x120 }
  - { offset: 0xC7207, size: 0x8, addend: 0x0, symName: '__ZN102_$LT$std..panicking..begin_panic_handler..FormatStringPayload$u20$as$u20$core..panic..PanicPayload$GT$3get17hb8a4db0526e00ebaE', symObjAddr: 0x3B680, symBinAddr: 0x3FC04, symSize: 0xB0 }
  - { offset: 0xC734F, size: 0x8, addend: 0x0, symName: '__ZN95_$LT$std..panicking..begin_panic_handler..FormatStringPayload$u20$as$u20$core..fmt..Display$GT$3fmt17h609422fb9f0f9e0bE', symObjAddr: 0x3B730, symBinAddr: 0x3FCB4, symSize: 0x5C }
  - { offset: 0xC7456, size: 0x8, addend: 0x0, symName: '__ZN99_$LT$std..panicking..begin_panic_handler..StaticStrPayload$u20$as$u20$core..panic..PanicPayload$GT$8take_box17h687f4cc0e035c086E', symObjAddr: 0x3B78C, symBinAddr: 0x3FD10, symSize: 0x50 }
  - { offset: 0xC74D2, size: 0x8, addend: 0x0, symName: '__ZN99_$LT$std..panicking..begin_panic_handler..StaticStrPayload$u20$as$u20$core..panic..PanicPayload$GT$3get17h035c7885bbbfbeacE', symObjAddr: 0x3B7DC, symBinAddr: 0x3FD60, symSize: 0x18 }
  - { offset: 0xC74ED, size: 0x8, addend: 0x0, symName: '__ZN99_$LT$std..panicking..begin_panic_handler..StaticStrPayload$u20$as$u20$core..panic..PanicPayload$GT$6as_str17h208678e110da4f79E', symObjAddr: 0x3B7F4, symBinAddr: 0x3FD78, symSize: 0x18 }
  - { offset: 0xC750F, size: 0x8, addend: 0x0, symName: '__ZN92_$LT$std..panicking..begin_panic_handler..StaticStrPayload$u20$as$u20$core..fmt..Display$GT$3fmt17head93423ca47a406E', symObjAddr: 0x3B80C, symBinAddr: 0x3FD90, symSize: 0x1C }
  - { offset: 0xC752B, size: 0x8, addend: 0x0, symName: '__ZN3std9panicking19begin_panic_handler28_$u7b$$u7b$closure$u7d$$u7d$17hd1cc56578f819958E', symObjAddr: 0x3B828, symBinAddr: 0x3FDAC, symSize: 0xC4 }
  - { offset: 0xC7693, size: 0x8, addend: 0x0, symName: __ZN3std9panicking11begin_panic17h2e7fb6a9a2460afaE, symObjAddr: 0x3B8EC, symBinAddr: 0x8D040, symSize: 0x1C }
  - { offset: 0xC76BA, size: 0x8, addend: 0x0, symName: '__ZN91_$LT$std..panicking..begin_panic..Payload$LT$A$GT$$u20$as$u20$core..panic..PanicPayload$GT$8take_box17h00903078450ec485E', symObjAddr: 0x3B908, symBinAddr: 0x3FE70, symSize: 0x5C }
  - { offset: 0xC7763, size: 0x8, addend: 0x0, symName: '__ZN91_$LT$std..panicking..begin_panic..Payload$LT$A$GT$$u20$as$u20$core..panic..PanicPayload$GT$3get17hb01ffb365728e71bE', symObjAddr: 0x3B964, symBinAddr: 0x3FECC, symSize: 0x20 }
  - { offset: 0xC7785, size: 0x8, addend: 0x0, symName: '__ZN84_$LT$std..panicking..begin_panic..Payload$LT$A$GT$$u20$as$u20$core..fmt..Display$GT$3fmt17h0900849d05d2f52eE', symObjAddr: 0x3B984, symBinAddr: 0x3FEEC, symSize: 0x24 }
  - { offset: 0xC77B8, size: 0x8, addend: 0x0, symName: '__ZN3std9panicking11begin_panic28_$u7b$$u7b$closure$u7d$$u7d$17h65715a04918d5352E', symObjAddr: 0x3B9A8, symBinAddr: 0x3FF10, symSize: 0x30 }
  - { offset: 0xC77E2, size: 0x8, addend: 0x0, symName: __ZN3std9panicking14payload_as_str17h4f70eff4afcbba70E, symObjAddr: 0x3B9D8, symBinAddr: 0x3FF40, symSize: 0xB0 }
  - { offset: 0xC78D0, size: 0x8, addend: 0x0, symName: __ZN3std9panicking20rust_panic_with_hook17h02a9fa3cad928562E, symObjAddr: 0x3BA88, symBinAddr: 0x3FFF0, symSize: 0x398 }
  - { offset: 0xC8155, size: 0x8, addend: 0x0, symName: __ZN3std9panicking23rust_panic_without_hook17hcd8d9ad7973c11ccE, symObjAddr: 0x3BE20, symBinAddr: 0x8D05C, symSize: 0xD4 }
  - { offset: 0xC8366, size: 0x8, addend: 0x0, symName: '__ZN96_$LT$std..panicking..rust_panic_without_hook..RewrapBox$u20$as$u20$core..panic..PanicPayload$GT$8take_box17h6bbe5d07c97f5ecaE', symObjAddr: 0x3BEF4, symBinAddr: 0x40388, symSize: 0x28 }
  - { offset: 0xC8398, size: 0x8, addend: 0x0, symName: '__ZN96_$LT$std..panicking..rust_panic_without_hook..RewrapBox$u20$as$u20$core..panic..PanicPayload$GT$3get17h072a50bdf9b5fc3aE', symObjAddr: 0x3BF1C, symBinAddr: 0x403B0, symSize: 0x18 }
  - { offset: 0xC83BA, size: 0x8, addend: 0x0, symName: '__ZN89_$LT$std..panicking..rust_panic_without_hook..RewrapBox$u20$as$u20$core..fmt..Display$GT$3fmt17h3f0c8506dc434028E', symObjAddr: 0x3BF34, symBinAddr: 0x403C8, symSize: 0x20 }
  - { offset: 0xC83D7, size: 0x8, addend: 0x0, symName: __RNvCs691rhTbG0Ee_7___rustc10rust_panic, symObjAddr: 0x3BF54, symBinAddr: 0x8D130, symSize: 0x60 }
  - { offset: 0xC8432, size: 0x8, addend: 0x0, symName: '__ZN61_$LT$std..process..ChildStdin$u20$as$u20$core..fmt..Debug$GT$3fmt17hd1587a06279384c3E', symObjAddr: 0x342BC, symBinAddr: 0x39424, symSize: 0x38 }
  - { offset: 0xC845B, size: 0x8, addend: 0x0, symName: '__ZN62_$LT$std..process..ChildStdout$u20$as$u20$core..fmt..Debug$GT$3fmt17h43a74c19e7ede801E', symObjAddr: 0x342F4, symBinAddr: 0x3945C, symSize: 0x38 }
  - { offset: 0xC8484, size: 0x8, addend: 0x0, symName: '__ZN62_$LT$std..process..ChildStderr$u20$as$u20$core..fmt..Debug$GT$3fmt17hf823faa5517dbf11E', symObjAddr: 0x343FC, symBinAddr: 0x39564, symSize: 0x38 }
  - { offset: 0xC849F, size: 0x8, addend: 0x0, symName: '__ZN112_$LT$std..process..Child$u20$as$u20$std..sys_common..IntoInner$LT$std..sys..process..unix..unix..Process$GT$$GT$10into_inner17h463ce12280206a9eE', symObjAddr: 0x341C0, symBinAddr: 0x39328, symSize: 0x60 }
  - { offset: 0xC8674, size: 0x8, addend: 0x0, symName: '__ZN56_$LT$std..process..Child$u20$as$u20$core..fmt..Debug$GT$3fmt17hc21f6965d5e72baaE', symObjAddr: 0x34220, symBinAddr: 0x39388, symSize: 0x9C }
  - { offset: 0xC8696, size: 0x8, addend: 0x0, symName: '__ZN59_$LT$std..process..ChildStderr$u20$as$u20$std..io..Read$GT$4read17ha9d6ceed1f6e1ee4E', symObjAddr: 0x3432C, symBinAddr: 0x39494, symSize: 0x58 }
  - { offset: 0xC8791, size: 0x8, addend: 0x0, symName: '__ZN59_$LT$std..process..ChildStderr$u20$as$u20$std..io..Read$GT$8read_buf17h4ed15645ee569bfaE', symObjAddr: 0x34384, symBinAddr: 0x394EC, symSize: 0x78 }
  - { offset: 0xC895A, size: 0x8, addend: 0x0, symName: __ZN3std7process7Command9env_clear17h6337c0ae0c7669ceE, symObjAddr: 0x34434, symBinAddr: 0x3959C, symSize: 0xE8 }
  - { offset: 0xC8C4B, size: 0x8, addend: 0x0, symName: __ZN3std7process7Command5spawn17h8176e6271ac49124E, symObjAddr: 0x3451C, symBinAddr: 0x39684, symSize: 0x78 }
  - { offset: 0xC8C7D, size: 0x8, addend: 0x0, symName: __ZN3std7process7Command6output17h3c56467cdc4834ccE, symObjAddr: 0x34594, symBinAddr: 0x396FC, symSize: 0x2F8 }
  - { offset: 0xC9229, size: 0x8, addend: 0x0, symName: __ZN3std7process7Command6status17h75ad67a2c5e47730E, symObjAddr: 0x3488C, symBinAddr: 0x399F4, symSize: 0x100 }
  - { offset: 0xC94FC, size: 0x8, addend: 0x0, symName: __ZN3std7process7Command11get_program17h3273c9198cbcc1faE, symObjAddr: 0x3498C, symBinAddr: 0x39AF4, symSize: 0x1C }
  - { offset: 0xC9545, size: 0x8, addend: 0x0, symName: __ZN3std7process7Command8get_args17h51a1f9f61f0404cdE, symObjAddr: 0x349A8, symBinAddr: 0x39B10, symSize: 0x24 }
  - { offset: 0xC95D1, size: 0x8, addend: 0x0, symName: __ZN3std7process7Command15get_current_dir17h3d6b622092b0c103E, symObjAddr: 0x349CC, symBinAddr: 0x39B34, symSize: 0x1C }
  - { offset: 0xC962F, size: 0x8, addend: 0x0, symName: __ZN3std7process5Child4kill17h3f447cb268ec0306E, symObjAddr: 0x34DEC, symBinAddr: 0x39F54, symSize: 0x4C }
  - { offset: 0xC96CB, size: 0x8, addend: 0x0, symName: __ZN3std7process5Child4wait17ha9d5baf6406b7151E, symObjAddr: 0x34E38, symBinAddr: 0x39FA0, symSize: 0xBC }
  - { offset: 0xC9868, size: 0x8, addend: 0x0, symName: __ZN3std7process5Child8try_wait17h935911d52353ae2bE, symObjAddr: 0x34EF4, symBinAddr: 0x3A05C, symSize: 0xB0 }
  - { offset: 0xC9931, size: 0x8, addend: 0x0, symName: __ZN3std7process5Child16wait_with_output17hc181db8d20805c93E, symObjAddr: 0x34FA4, symBinAddr: 0x3A10C, symSize: 0x2C8 }
  - { offset: 0xC9F93, size: 0x8, addend: 0x0, symName: '__ZN58_$LT$std..process..Command$u20$as$u20$core..fmt..Debug$GT$3fmt17h24f527bace7a2674E', symObjAddr: 0x349E8, symBinAddr: 0x39B50, symSize: 0x10 }
  - { offset: 0xC9FB5, size: 0x8, addend: 0x0, symName: '__ZN84_$LT$std..process..CommandArgs$u20$as$u20$core..iter..traits..iterator..Iterator$GT$4next17h31dca097c305244bE', symObjAddr: 0x349F8, symBinAddr: 0x39B60, symSize: 0x34 }
  - { offset: 0xC9FD4, size: 0x8, addend: 0x0, symName: '__ZN84_$LT$std..process..CommandArgs$u20$as$u20$core..iter..traits..iterator..Iterator$GT$4next17h31dca097c305244bE', symObjAddr: 0x349F8, symBinAddr: 0x39B60, symSize: 0x34 }
  - { offset: 0xC9FEA, size: 0x8, addend: 0x0, symName: '__ZN84_$LT$std..process..CommandArgs$u20$as$u20$core..iter..traits..iterator..Iterator$GT$4next17h31dca097c305244bE', symObjAddr: 0x349F8, symBinAddr: 0x39B60, symSize: 0x34 }
  - { offset: 0xCA058, size: 0x8, addend: 0x0, symName: '__ZN84_$LT$std..process..CommandArgs$u20$as$u20$core..iter..traits..iterator..Iterator$GT$9size_hint17h55615751bd700f8fE', symObjAddr: 0x34A2C, symBinAddr: 0x39B94, symSize: 0x28 }
  - { offset: 0xCA0EC, size: 0x8, addend: 0x0, symName: '__ZN95_$LT$std..process..CommandArgs$u20$as$u20$core..iter..traits..exact_size..ExactSizeIterator$GT$3len17h35b44500ebf58db9E', symObjAddr: 0x34A54, symBinAddr: 0x39BBC, symSize: 0x1C }
  - { offset: 0xCA180, size: 0x8, addend: 0x0, symName: '__ZN84_$LT$std..process..CommandEnvs$u20$as$u20$core..iter..traits..iterator..Iterator$GT$4next17h17c518ee035f4bbdE', symObjAddr: 0x34A70, symBinAddr: 0x39BD8, symSize: 0x50 }
  - { offset: 0xCA213, size: 0x8, addend: 0x0, symName: '__ZN62_$LT$std..process..CommandEnvs$u20$as$u20$core..fmt..Debug$GT$3fmt17h0170a6e370de7065E', symObjAddr: 0x34AC0, symBinAddr: 0x39C28, symSize: 0x4C }
  - { offset: 0xCA261, size: 0x8, addend: 0x0, symName: __ZN3std7process6Output7exit_ok17h293bd0606d766a9cE, symObjAddr: 0x34B0C, symBinAddr: 0x39C74, symSize: 0x7C }
  - { offset: 0xCA41B, size: 0x8, addend: 0x0, symName: '__ZN57_$LT$std..process..Output$u20$as$u20$core..fmt..Debug$GT$3fmt17h0509f30b2e1500ccE', symObjAddr: 0x34B88, symBinAddr: 0x39CF0, symSize: 0x10C }
  - { offset: 0xCA555, size: 0x8, addend: 0x0, symName: '__ZN56_$LT$std..process..Stdio$u20$as$u20$core..fmt..Debug$GT$3fmt17hab95041ce90cb4b6E', symObjAddr: 0x34C94, symBinAddr: 0x39DFC, symSize: 0x38 }
  - { offset: 0xCA577, size: 0x8, addend: 0x0, symName: '__ZN63_$LT$std..process..ExitStatus$u20$as$u20$core..fmt..Display$GT$3fmt17h8db1ce7180e946b6E', symObjAddr: 0x34CCC, symBinAddr: 0x39E34, symSize: 0x10 }
  - { offset: 0xCA5A7, size: 0x8, addend: 0x0, symName: __ZN3std7process15ExitStatusError4code17hfe0973120028112dE, symObjAddr: 0x34CDC, symBinAddr: 0x39E44, symSize: 0x58 }
  - { offset: 0xCA684, size: 0x8, addend: 0x0, symName: __ZN3std7process15ExitStatusError12code_nonzero17h58bb549d30f6240aE, symObjAddr: 0x34D34, symBinAddr: 0x39E9C, symSize: 0x50 }
  - { offset: 0xCA760, size: 0x8, addend: 0x0, symName: '__ZN68_$LT$std..process..ExitStatusError$u20$as$u20$core..fmt..Display$GT$3fmt17h3785f7fffdca2da7E', symObjAddr: 0x34D84, symBinAddr: 0x39EEC, symSize: 0x58 }
  - { offset: 0xCA7D4, size: 0x8, addend: 0x0, symName: __ZN3std7process8ExitCode12exit_process17h349ae4ab9c28da29E, symObjAddr: 0x34DDC, symBinAddr: 0x39F44, symSize: 0x10 }
  - { offset: 0xCA833, size: 0x8, addend: 0x0, symName: __ZN3std7process4exit17h8c4a3b47ac03882fE, symObjAddr: 0x3526C, symBinAddr: 0x3A3D4, symSize: 0x1C }
  - { offset: 0xCA84E, size: 0x8, addend: 0x0, symName: __ZN3std7process5abort17he369d08d74c245edE, symObjAddr: 0x35288, symBinAddr: 0x8C45C, symSize: 0xC }
  - { offset: 0xCA869, size: 0x8, addend: 0x0, symName: __ZN3std7process2id17hb4e5e8b700f7dd46E, symObjAddr: 0x35294, symBinAddr: 0x3A3F0, symSize: 0x10 }
  - { offset: 0xCA8A1, size: 0x8, addend: 0x0, symName: '__ZN61_$LT$std..process..ExitStatus$u20$as$u20$core..fmt..Debug$GT$3fmt17hb53e1300267c50c0E', symObjAddr: 0x3CE2C, symBinAddr: 0x41260, symSize: 0x40 }
  - { offset: 0xCAA19, size: 0x8, addend: 0x0, symName: __ZN3std4path4Path11is_absolute17h740e1ad5264c3bc9E, symObjAddr: 0x32DC0, symBinAddr: 0x37F28, symSize: 0x2C }
  - { offset: 0xCAA9E, size: 0x8, addend: 0x0, symName: __ZN3std4path4Path6parent17h84848b58672eed18E, symObjAddr: 0x32DEC, symBinAddr: 0x37F54, symSize: 0x74 }
  - { offset: 0xCAAB6, size: 0x8, addend: 0x0, symName: __ZN3std4path4Path6parent17h84848b58672eed18E, symObjAddr: 0x32DEC, symBinAddr: 0x37F54, symSize: 0x74 }
  - { offset: 0xCAACC, size: 0x8, addend: 0x0, symName: __ZN3std4path4Path6parent17h84848b58672eed18E, symObjAddr: 0x32DEC, symBinAddr: 0x37F54, symSize: 0x74 }
  - { offset: 0xCAB24, size: 0x8, addend: 0x0, symName: __ZN3std4path4Path9file_name17hf0964a909af61c73E, symObjAddr: 0x32E60, symBinAddr: 0x37FC8, symSize: 0x64 }
  - { offset: 0xCAB3C, size: 0x8, addend: 0x0, symName: __ZN3std4path4Path9file_name17hf0964a909af61c73E, symObjAddr: 0x32E60, symBinAddr: 0x37FC8, symSize: 0x64 }
  - { offset: 0xCAB52, size: 0x8, addend: 0x0, symName: __ZN3std4path4Path9file_name17hf0964a909af61c73E, symObjAddr: 0x32E60, symBinAddr: 0x37FC8, symSize: 0x64 }
  - { offset: 0xCAB93, size: 0x8, addend: 0x0, symName: __ZN3std4path4Path13_strip_prefix17h913922eefc12cd26E, symObjAddr: 0x32EC4, symBinAddr: 0x3802C, symSize: 0x21C }
  - { offset: 0xCACAE, size: 0x8, addend: 0x0, symName: __ZN3std4path4Path12_starts_with17h809f278ed3d51473E, symObjAddr: 0x330E0, symBinAddr: 0x38248, symSize: 0x198 }
  - { offset: 0xCADB2, size: 0x8, addend: 0x0, symName: __ZN3std4path4Path10_ends_with17h3909e7181fd2657fE, symObjAddr: 0x33278, symBinAddr: 0x383E0, symSize: 0x198 }
  - { offset: 0xCAF1E, size: 0x8, addend: 0x0, symName: __ZN3std4path4Path9file_stem17h8a6e04bff95cd2f7E, symObjAddr: 0x33410, symBinAddr: 0x38578, symSize: 0xF0 }
  - { offset: 0xCAF36, size: 0x8, addend: 0x0, symName: __ZN3std4path4Path9file_stem17h8a6e04bff95cd2f7E, symObjAddr: 0x33410, symBinAddr: 0x38578, symSize: 0xF0 }
  - { offset: 0xCAF4C, size: 0x8, addend: 0x0, symName: __ZN3std4path4Path9file_stem17h8a6e04bff95cd2f7E, symObjAddr: 0x33410, symBinAddr: 0x38578, symSize: 0xF0 }
  - { offset: 0xCAF62, size: 0x8, addend: 0x0, symName: __ZN3std4path4Path9file_stem17h8a6e04bff95cd2f7E, symObjAddr: 0x33410, symBinAddr: 0x38578, symSize: 0xF0 }
  - { offset: 0xCB21E, size: 0x8, addend: 0x0, symName: __ZN3std4path4Path11file_prefix17h7ebbf96ef4545ed3E, symObjAddr: 0x33500, symBinAddr: 0x38668, symSize: 0x130 }
  - { offset: 0xCB41F, size: 0x8, addend: 0x0, symName: __ZN3std4path4Path9extension17hd9c60f5535fe9014E, symObjAddr: 0x33630, symBinAddr: 0x38798, symSize: 0xC0 }
  - { offset: 0xCB437, size: 0x8, addend: 0x0, symName: __ZN3std4path4Path9extension17hd9c60f5535fe9014E, symObjAddr: 0x33630, symBinAddr: 0x38798, symSize: 0xC0 }
  - { offset: 0xCB44D, size: 0x8, addend: 0x0, symName: __ZN3std4path4Path9extension17hd9c60f5535fe9014E, symObjAddr: 0x33630, symBinAddr: 0x38798, symSize: 0xC0 }
  - { offset: 0xCB463, size: 0x8, addend: 0x0, symName: __ZN3std4path4Path9extension17hd9c60f5535fe9014E, symObjAddr: 0x33630, symBinAddr: 0x38798, symSize: 0xC0 }
  - { offset: 0xCB6E9, size: 0x8, addend: 0x0, symName: __ZN3std4path4Path5_join17h14f26258831e4ab8E, symObjAddr: 0x336F0, symBinAddr: 0x38858, symSize: 0x1AC }
  - { offset: 0xCBBB3, size: 0x8, addend: 0x0, symName: __ZN3std4path4Path15_with_file_name17h129de8dc69d5c98fE, symObjAddr: 0x3389C, symBinAddr: 0x38A04, symSize: 0xF0 }
  - { offset: 0xCBDFE, size: 0x8, addend: 0x0, symName: __ZN3std4path4Path15_with_extension17hf5d3b26358ecee57E, symObjAddr: 0x3398C, symBinAddr: 0x38AF4, symSize: 0x21C }
  - { offset: 0xCC315, size: 0x8, addend: 0x0, symName: __ZN3std4path4Path10components17hb8b53d176ba0ac66E, symObjAddr: 0x33BA8, symBinAddr: 0x38D10, symSize: 0x40 }
  - { offset: 0xCC357, size: 0x8, addend: 0x0, symName: __ZN3std4path4Path7is_file17h50bf9d0390a81c88E, symObjAddr: 0x33BE8, symBinAddr: 0x38D50, symSize: 0x1C8 }
  - { offset: 0xCC776, size: 0x8, addend: 0x0, symName: __ZN3std4path4Path6is_dir17h16aeee0f105b865fE, symObjAddr: 0x33DB0, symBinAddr: 0x38F18, symSize: 0x1C8 }
  - { offset: 0xCCB95, size: 0x8, addend: 0x0, symName: __ZN3std4path4Path10is_symlink17hd5b27f6d7c1704a4E, symObjAddr: 0x33F78, symBinAddr: 0x390E0, symSize: 0x1C8 }
  - { offset: 0xCD1A5, size: 0x8, addend: 0x0, symName: '__ZN58_$LT$std..path..Components$u20$as$u20$core..fmt..Debug$GT$3fmt17h9bedc1cee5377609E', symObjAddr: 0x311D0, symBinAddr: 0x36338, symSize: 0x64 }
  - { offset: 0xCD1CC, size: 0x8, addend: 0x0, symName: '__ZN112_$LT$$LT$std..path..Components$u20$as$u20$core..fmt..Debug$GT$..fmt..DebugHelper$u20$as$u20$core..fmt..Debug$GT$3fmt17h361e49e7d06bde45E', symObjAddr: 0x31234, symBinAddr: 0x3639C, symSize: 0xD4 }
  - { offset: 0xCD2A6, size: 0x8, addend: 0x0, symName: __ZN3std4path10Components15len_before_body17he83d5fcb64c6fa65E, symObjAddr: 0x31308, symBinAddr: 0x36470, symSize: 0x188 }
  - { offset: 0xCD2BE, size: 0x8, addend: 0x0, symName: __ZN3std4path10Components15len_before_body17he83d5fcb64c6fa65E, symObjAddr: 0x31308, symBinAddr: 0x36470, symSize: 0x188 }
  - { offset: 0xCD2D4, size: 0x8, addend: 0x0, symName: __ZN3std4path10Components15len_before_body17he83d5fcb64c6fa65E, symObjAddr: 0x31308, symBinAddr: 0x36470, symSize: 0x188 }
  - { offset: 0xCD4B4, size: 0x8, addend: 0x0, symName: __ZN3std4path10Components7as_path17h1ff76f4ec055ab1bE, symObjAddr: 0x31490, symBinAddr: 0x365F8, symSize: 0x318 }
  - { offset: 0xCD76D, size: 0x8, addend: 0x0, symName: __ZN3std4path10Components25parse_next_component_back17h7337e9591ebd0f38E, symObjAddr: 0x317A8, symBinAddr: 0x36910, symSize: 0x124 }
  - { offset: 0xCD96B, size: 0x8, addend: 0x0, symName: '__ZN52_$LT$std..path..Iter$u20$as$u20$core..fmt..Debug$GT$3fmt17h4411706af91c8ffcE', symObjAddr: 0x318CC, symBinAddr: 0x36A34, symSize: 0x64 }
  - { offset: 0xCD9A9, size: 0x8, addend: 0x0, symName: '__ZN106_$LT$$LT$std..path..Iter$u20$as$u20$core..fmt..Debug$GT$..fmt..DebugHelper$u20$as$u20$core..fmt..Debug$GT$3fmt17h21a084dd7981ee9bE', symObjAddr: 0x31930, symBinAddr: 0x36A98, symSize: 0x134 }
  - { offset: 0xCDA9C, size: 0x8, addend: 0x0, symName: '__ZN80_$LT$std..path..Components$u20$as$u20$core..iter..traits..iterator..Iterator$GT$4next17h3933defeb3357570E', symObjAddr: 0x31A64, symBinAddr: 0x36BCC, symSize: 0x340 }
  - { offset: 0xCDE16, size: 0x8, addend: 0x0, symName: '__ZN95_$LT$std..path..Components$u20$as$u20$core..iter..traits..double_ended..DoubleEndedIterator$GT$9next_back17h2325b38a28df9a4aE', symObjAddr: 0x31DA4, symBinAddr: 0x36F0C, symSize: 0x360 }
  - { offset: 0xCDFCB, size: 0x8, addend: 0x0, symName: __ZN3std4path18compare_components17h019943a85c5e0fecE, symObjAddr: 0x32104, symBinAddr: 0x3726C, symSize: 0x2F0 }
  - { offset: 0xCE3DD, size: 0x8, addend: 0x0, symName: __ZN3std4path7PathBuf5_push17h5016953c84305866E, symObjAddr: 0x323F4, symBinAddr: 0x3755C, symSize: 0x10C }
  - { offset: 0xCE6E5, size: 0x8, addend: 0x0, symName: __ZN3std4path7PathBuf3pop17h50c12a3f2e4251feE, symObjAddr: 0x32500, symBinAddr: 0x37668, symSize: 0xE4 }
  - { offset: 0xCE93C, size: 0x8, addend: 0x0, symName: __ZN3std4path7PathBuf14_set_file_name17h20f74807f1259ad2E, symObjAddr: 0x325E4, symBinAddr: 0x3774C, symSize: 0x154 }
  - { offset: 0xCEDA9, size: 0x8, addend: 0x0, symName: __ZN3std4path7PathBuf14_set_extension17h26f1055168bfe3c9E, symObjAddr: 0x32738, symBinAddr: 0x378A0, symSize: 0x2F4 }
  - { offset: 0xCF64E, size: 0x8, addend: 0x0, symName: __ZN3std4path7PathBuf14_add_extension17hd516d9f64f8f8a96E, symObjAddr: 0x32A2C, symBinAddr: 0x37B94, symSize: 0x25C }
  - { offset: 0xCFCDB, size: 0x8, addend: 0x0, symName: '__ZN3std4path117_$LT$impl$u20$core..convert..From$LT$$RF$std..path..Path$GT$$u20$for$u20$alloc..boxed..Box$LT$std..path..Path$GT$$GT$4from17hc58b5695b2dc5679E', symObjAddr: 0x32C88, symBinAddr: 0x37DF0, symSize: 0x88 }
  - { offset: 0xCFE14, size: 0x8, addend: 0x0, symName: '__ZN3std4path125_$LT$impl$u20$core..convert..From$LT$$RF$mut$u20$std..path..Path$GT$$u20$for$u20$alloc..boxed..Box$LT$std..path..Path$GT$$GT$4from17h5bd2ab691c62a0f5E', symObjAddr: 0x32D10, symBinAddr: 0x37E78, symSize: 0x88 }
  - { offset: 0xCFF63, size: 0x8, addend: 0x0, symName: '__ZN52_$LT$std..path..Path$u20$as$u20$core..fmt..Debug$GT$3fmt17h5d91315f86f00b92E', symObjAddr: 0x34140, symBinAddr: 0x392A8, symSize: 0x28 }
  - { offset: 0xCFFC2, size: 0x8, addend: 0x0, symName: '__ZN55_$LT$std..path..PathBuf$u20$as$u20$core..fmt..Debug$GT$3fmt17h913ec20254acf8e4E', symObjAddr: 0x32D98, symBinAddr: 0x37F00, symSize: 0x28 }
  - { offset: 0xD0164, size: 0x8, addend: 0x0, symName: '__ZN55_$LT$std..path..Display$u20$as$u20$core..fmt..Debug$GT$3fmt17hdcee3262939eb198E', symObjAddr: 0x34168, symBinAddr: 0x392D0, symSize: 0x28 }
  - { offset: 0xD01F8, size: 0x8, addend: 0x0, symName: '__ZN57_$LT$std..path..Display$u20$as$u20$core..fmt..Display$GT$3fmt17h9bff3c56c713e51bE', symObjAddr: 0x34190, symBinAddr: 0x392F8, symSize: 0x10 }
  - { offset: 0xD0221, size: 0x8, addend: 0x0, symName: '__ZN66_$LT$std..path..StripPrefixError$u20$as$u20$core..fmt..Display$GT$3fmt17hc992dec66750a463E', symObjAddr: 0x341A0, symBinAddr: 0x39308, symSize: 0x20 }
  - { offset: 0xD026C, size: 0x8, addend: 0x0, symName: '__ZN61_$LT$std..path..Component$u20$as$u20$core..cmp..PartialEq$GT$2eq17he6e61539ce1058d2E', symObjAddr: 0x3CC24, symBinAddr: 0x41058, symSize: 0x138 }
  - { offset: 0xD03D6, size: 0x8, addend: 0x0, symName: '__ZN57_$LT$std..path..Component$u20$as$u20$core..fmt..Debug$GT$3fmt17h052a2084657bcc20E', symObjAddr: 0x3CD5C, symBinAddr: 0x41190, symSize: 0xD0 }
  - { offset: 0xD0458, size: 0x8, addend: 0x0, symName: '__ZN72_$LT$std..sys..fs..unix..FilePermissions$u20$as$u20$core..fmt..Debug$GT$3fmt17ha4838d4bd08bafcaE', symObjAddr: 0x3F8D0, symBinAddr: 0x43BBC, symSize: 0x6C }
  - { offset: 0xD0514, size: 0x8, addend: 0x0, symName: __ZN3std3sys2fs4unix15remove_dir_impl24remove_dir_all_recursive17h6ed664ed01172c43E, symObjAddr: 0x410BC, symBinAddr: 0x453A8, symSize: 0x350 }
  - { offset: 0xD0F18, size: 0x8, addend: 0x0, symName: __ZN3std3sys2fs4unix4File6open_c17h7dcab5bd4e8838fdE, symObjAddr: 0x3FE04, symBinAddr: 0x440F0, symSize: 0x1B0 }
  - { offset: 0xD1002, size: 0x8, addend: 0x0, symName: __ZN3std3sys2fs4unix4File4read17hd038579472f5867dE, symObjAddr: 0x3FFB4, symBinAddr: 0x442A0, symSize: 0x58 }
  - { offset: 0xD110C, size: 0x8, addend: 0x0, symName: __ZN3std3sys2fs4unix4File13read_vectored17ha07615aa15750ba7E, symObjAddr: 0x4000C, symBinAddr: 0x442F8, symSize: 0x58 }
  - { offset: 0xD1216, size: 0x8, addend: 0x0, symName: __ZN3std3sys2fs4unix4File8read_buf17h4bd019ddd8eeb4c4E, symObjAddr: 0x40064, symBinAddr: 0x44350, symSize: 0x78 }
  - { offset: 0xD1568, size: 0x8, addend: 0x0, symName: '__ZN86_$LT$std..sys..fs..unix..ReadDir$u20$as$u20$core..iter..traits..iterator..Iterator$GT$4next17h6ff155497045098bE', symObjAddr: 0x3F968, symBinAddr: 0x43C54, symSize: 0x138 }
  - { offset: 0xD186E, size: 0x8, addend: 0x0, symName: __ZN3std3sys2fs4unix8DirEntry8metadata17hfc222f62d4d008fcE, symObjAddr: 0x3FB6C, symBinAddr: 0x43E58, symSize: 0x178 }
  - { offset: 0xD1E6A, size: 0x8, addend: 0x0, symName: '__ZN3std3sys2fs4unix10DirBuilder5mkdir28_$u7b$$u7b$closure$u7d$$u7d$17h1f9109dbe68b5daaE', symObjAddr: 0x400DC, symBinAddr: 0x443C8, symSize: 0x44 }
  - { offset: 0xD2001, size: 0x8, addend: 0x0, symName: '__ZN78_$LT$std..sys..fs..unix..copy..FreeOnDrop$u20$as$u20$core..ops..drop..Drop$GT$4drop17h34741fd1b7751ca5E', symObjAddr: 0x40B90, symBinAddr: 0x44E7C, symSize: 0x14 }
  - { offset: 0xD2016, size: 0x8, addend: 0x0, symName: '__ZN3std3sys2fs4unix4copy28_$u7b$$u7b$closure$u7d$$u7d$17h5350226006f1a601E', symObjAddr: 0x40BA4, symBinAddr: 0x44E90, symSize: 0x64 }
  - { offset: 0xD210C, size: 0x8, addend: 0x0, symName: '__ZN65_$LT$std..sys..fs..unix..FileType$u20$as$u20$core..fmt..Debug$GT$3fmt17h55b45086e62e7c08E', symObjAddr: 0x3F864, symBinAddr: 0x43B50, symSize: 0x6C }
  - { offset: 0xD212E, size: 0x8, addend: 0x0, symName: '__ZN64_$LT$std..sys..fs..unix..ReadDir$u20$as$u20$core..fmt..Debug$GT$3fmt17h28e9ee78beec9f58E', symObjAddr: 0x3F93C, symBinAddr: 0x43C28, symSize: 0x2C }
  - { offset: 0xD22EA, size: 0x8, addend: 0x0, symName: '__ZN65_$LT$std..sys..fs..unix..Dir$u20$as$u20$core..ops..drop..Drop$GT$4drop17h0dedf947794163c4E', symObjAddr: 0x3FAA0, symBinAddr: 0x43D8C, symSize: 0xCC }
  - { offset: 0xD23C2, size: 0x8, addend: 0x0, symName: '__ZN68_$LT$std..sys..fs..unix..OpenOptions$u20$as$u20$core..fmt..Debug$GT$3fmt17h03771db6e40fe3f5E', symObjAddr: 0x3FCE4, symBinAddr: 0x43FD0, symSize: 0x120 }
  - { offset: 0xD23E4, size: 0x8, addend: 0x0, symName: '__ZN67_$LT$std..sys..fs..unix..DirBuilder$u20$as$u20$core..fmt..Debug$GT$3fmt17hc2b975ef8a61802dE', symObjAddr: 0x40120, symBinAddr: 0x4440C, symSize: 0x6C }
  - { offset: 0xD2406, size: 0x8, addend: 0x0, symName: '__ZN72_$LT$std..sys..fs..unix..File$u20$as$u20$std..os..fd..raw..FromRawFd$GT$11from_raw_fd17h62a7fb6abb29520fE', symObjAddr: 0x4018C, symBinAddr: 0x44478, symSize: 0x2C }
  - { offset: 0xD2441, size: 0x8, addend: 0x0, symName: '__ZN72_$LT$std..sys..fs..unix..File$u20$as$u20$std..os..fd..raw..FromRawFd$GT$11from_raw_fd17h62a7fb6abb29520fE', symObjAddr: 0x4018C, symBinAddr: 0x44478, symSize: 0x2C }
  - { offset: 0xD2494, size: 0x8, addend: 0x0, symName: '__ZN61_$LT$std..sys..fs..unix..File$u20$as$u20$core..fmt..Debug$GT$3fmt17h083377e3c5a190deE', symObjAddr: 0x401B8, symBinAddr: 0x444A4, symSize: 0x23C }
  - { offset: 0xD2948, size: 0x8, addend: 0x0, symName: '__ZN61_$LT$std..sys..fs..unix..Mode$u20$as$u20$core..fmt..Debug$GT$3fmt17h0190b118b3095d68E', symObjAddr: 0x403F4, symBinAddr: 0x446E0, symSize: 0x300 }
  - { offset: 0xD2992, size: 0x8, addend: 0x0, symName: __ZN3std3sys2fs4unix8readlink17h11f55d31e7045beaE, symObjAddr: 0x406F4, symBinAddr: 0x449E0, symSize: 0x1A4 }
  - { offset: 0xD2D52, size: 0x8, addend: 0x0, symName: __ZN3std3sys2fs4unix12canonicalize17ha8ceae852712b441E, symObjAddr: 0x40898, symBinAddr: 0x44B84, symSize: 0xD0 }
  - { offset: 0xD2F26, size: 0x8, addend: 0x0, symName: '__ZN77_$LT$std..sys..fs..unix..cfm..CachedFileMetadata$u20$as$u20$std..io..Read$GT$4read17h6227ad4b1030bc8bE', symObjAddr: 0x40968, symBinAddr: 0x44C54, symSize: 0x58 }
  - { offset: 0xD307C, size: 0x8, addend: 0x0, symName: '__ZN77_$LT$std..sys..fs..unix..cfm..CachedFileMetadata$u20$as$u20$std..io..Read$GT$13read_vectored17h5eaef8c264e82b0cE', symObjAddr: 0x409C0, symBinAddr: 0x44CAC, symSize: 0x58 }
  - { offset: 0xD31D2, size: 0x8, addend: 0x0, symName: '__ZN77_$LT$std..sys..fs..unix..cfm..CachedFileMetadata$u20$as$u20$std..io..Read$GT$8read_buf17h880c047dca682f76E', symObjAddr: 0x40A18, symBinAddr: 0x44D04, symSize: 0x78 }
  - { offset: 0xD33E1, size: 0x8, addend: 0x0, symName: '__ZN77_$LT$std..sys..fs..unix..cfm..CachedFileMetadata$u20$as$u20$std..io..Read$GT$11read_to_end17hd700b015c551364bE', symObjAddr: 0x40A90, symBinAddr: 0x44D7C, symSize: 0x28 }
  - { offset: 0xD3413, size: 0x8, addend: 0x0, symName: '__ZN77_$LT$std..sys..fs..unix..cfm..CachedFileMetadata$u20$as$u20$std..io..Read$GT$14read_to_string17he1b513adb37a2f82E', symObjAddr: 0x40AB8, symBinAddr: 0x44DA4, symSize: 0x28 }
  - { offset: 0xD344C, size: 0x8, addend: 0x0, symName: '__ZN78_$LT$std..sys..fs..unix..cfm..CachedFileMetadata$u20$as$u20$std..io..Write$GT$5write17h4f19e8f086652881E', symObjAddr: 0x40AE0, symBinAddr: 0x44DCC, symSize: 0x58 }
  - { offset: 0xD3578, size: 0x8, addend: 0x0, symName: '__ZN78_$LT$std..sys..fs..unix..cfm..CachedFileMetadata$u20$as$u20$std..io..Write$GT$14write_vectored17hc438bad1da1f035aE', symObjAddr: 0x40B38, symBinAddr: 0x44E24, symSize: 0x58 }
  - { offset: 0xD36BA, size: 0x8, addend: 0x0, symName: '__ZN3std3sys2fs4unix5chown28_$u7b$$u7b$closure$u7d$$u7d$17h37b732e250618d87E', symObjAddr: 0x40CD0, symBinAddr: 0x44FBC, symSize: 0x48 }
  - { offset: 0xD3741, size: 0x8, addend: 0x0, symName: __ZN3std3sys2fs4unix5chown17h7659a4dc300cba41E, symObjAddr: 0x40C08, symBinAddr: 0x44EF4, symSize: 0xC8 }
  - { offset: 0xD3858, size: 0x8, addend: 0x0, symName: __ZN3std3sys2fs4unix6fchown17he63a92c0de30b92bE, symObjAddr: 0x40D18, symBinAddr: 0x45004, symSize: 0x34 }
  - { offset: 0xD38F9, size: 0x8, addend: 0x0, symName: '__ZN3std3sys2fs4unix6lchown28_$u7b$$u7b$closure$u7d$$u7d$17h36c3291382627195E', symObjAddr: 0x40E14, symBinAddr: 0x45100, symSize: 0x48 }
  - { offset: 0xD3980, size: 0x8, addend: 0x0, symName: __ZN3std3sys2fs4unix6lchown17hb335bc8195d4589aE, symObjAddr: 0x40D4C, symBinAddr: 0x45038, symSize: 0xC8 }
  - { offset: 0xD3AAB, size: 0x8, addend: 0x0, symName: '__ZN3std3sys2fs4unix6chroot28_$u7b$$u7b$closure$u7d$$u7d$17h9afced59f98ad004E', symObjAddr: 0x40F1C, symBinAddr: 0x45208, symSize: 0x38 }
  - { offset: 0xD3B32, size: 0x8, addend: 0x0, symName: __ZN3std3sys2fs4unix6chroot17he8b8131b12588726E, symObjAddr: 0x40E5C, symBinAddr: 0x45148, symSize: 0xC0 }
  - { offset: 0xD3C5D, size: 0x8, addend: 0x0, symName: '__ZN3std3sys2fs4unix6mkfifo28_$u7b$$u7b$closure$u7d$$u7d$17h8d8d249e42b089f9E', symObjAddr: 0x41044, symBinAddr: 0x45330, symSize: 0x78 }
  - { offset: 0xD3D27, size: 0x8, addend: 0x0, symName: __ZN3std3sys2fs4unix6mkfifo17h7340d9ce1a4fe281E, symObjAddr: 0x40F54, symBinAddr: 0x45240, symSize: 0xF0 }
  - { offset: 0xD3E8C, size: 0x8, addend: 0x0, symName: __ZN3std3sys2fs8read_dir17hfd1fce03c5df7414E, symObjAddr: 0x37EC0, symBinAddr: 0x3C73C, symSize: 0x1A4 }
  - { offset: 0xD4156, size: 0x8, addend: 0x0, symName: __ZN3std3sys2fs11remove_file17h4b706628f53bddd6E, symObjAddr: 0x38064, symBinAddr: 0x3C8E0, symSize: 0xC0 }
  - { offset: 0xD42A7, size: 0x8, addend: 0x0, symName: '__ZN3std3sys2fs6rename28_$u7b$$u7b$closure$u7d$$u7d$28_$u7b$$u7b$closure$u7d$$u7d$17h64ece3adca2d1cfaE', symObjAddr: 0x38304, symBinAddr: 0x3CB80, symSize: 0x38 }
  - { offset: 0xD4344, size: 0x8, addend: 0x0, symName: '__ZN3std3sys2fs6rename28_$u7b$$u7b$closure$u7d$$u7d$17hf15312fb771952d6E', symObjAddr: 0x38248, symBinAddr: 0x3CAC4, symSize: 0xBC }
  - { offset: 0xD446A, size: 0x8, addend: 0x0, symName: __ZN3std3sys2fs6rename17h47984a9e4ac697d3E, symObjAddr: 0x38124, symBinAddr: 0x3C9A0, symSize: 0x124 }
  - { offset: 0xD4606, size: 0x8, addend: 0x0, symName: __ZN3std3sys2fs10remove_dir17hce7bf26fd93100ccE, symObjAddr: 0x3833C, symBinAddr: 0x3CBB8, symSize: 0xC0 }
  - { offset: 0xD4731, size: 0x8, addend: 0x0, symName: __ZN3std3sys2fs14remove_dir_all17heaa3e951ba814a50E, symObjAddr: 0x383FC, symBinAddr: 0x3CC78, symSize: 0x118 }
  - { offset: 0xD48AF, size: 0x8, addend: 0x0, symName: __ZN3std3sys2fs9read_link17h4ff3ca505d50131dE, symObjAddr: 0x38514, symBinAddr: 0x3CD90, symSize: 0xB0 }
  - { offset: 0xD4978, size: 0x8, addend: 0x0, symName: '__ZN3std3sys2fs7symlink28_$u7b$$u7b$closure$u7d$$u7d$28_$u7b$$u7b$closure$u7d$$u7d$17hb28e67df570311beE', symObjAddr: 0x387A4, symBinAddr: 0x3D020, symSize: 0x38 }
  - { offset: 0xD4A15, size: 0x8, addend: 0x0, symName: '__ZN3std3sys2fs7symlink28_$u7b$$u7b$closure$u7d$$u7d$17h73e1f7782aac65eeE', symObjAddr: 0x386E8, symBinAddr: 0x3CF64, symSize: 0xBC }
  - { offset: 0xD4B3B, size: 0x8, addend: 0x0, symName: __ZN3std3sys2fs7symlink17h6b7dd6f2639f1673E, symObjAddr: 0x385C4, symBinAddr: 0x3CE40, symSize: 0x124 }
  - { offset: 0xD4CFD, size: 0x8, addend: 0x0, symName: '__ZN3std3sys2fs9hard_link28_$u7b$$u7b$closure$u7d$$u7d$28_$u7b$$u7b$closure$u7d$$u7d$17hfce2a60896c8ea9aE', symObjAddr: 0x389D4, symBinAddr: 0x3D250, symSize: 0x48 }
  - { offset: 0xD4D9A, size: 0x8, addend: 0x0, symName: '__ZN3std3sys2fs9hard_link28_$u7b$$u7b$closure$u7d$$u7d$17hba4ac84e405c3036E', symObjAddr: 0x3890C, symBinAddr: 0x3D188, symSize: 0xC8 }
  - { offset: 0xD4EC0, size: 0x8, addend: 0x0, symName: __ZN3std3sys2fs9hard_link17h769a9de2e2b9a071E, symObjAddr: 0x387DC, symBinAddr: 0x3D058, symSize: 0x130 }
  - { offset: 0xD505C, size: 0x8, addend: 0x0, symName: __ZN3std3sys2fs8metadata17hbaf5d82877e2b0b8E, symObjAddr: 0x38A1C, symBinAddr: 0x3D298, symSize: 0x128 }
  - { offset: 0xD51D4, size: 0x8, addend: 0x0, symName: __ZN3std3sys2fs16symlink_metadata17h044788e43e03dcfbE, symObjAddr: 0x38B44, symBinAddr: 0x3D3C0, symSize: 0x128 }
  - { offset: 0xD535F, size: 0x8, addend: 0x0, symName: '__ZN3std3sys2fs15set_permissions28_$u7b$$u7b$closure$u7d$$u7d$17h22ec07f136d9a8d6E', symObjAddr: 0x38D48, symBinAddr: 0x3D5C4, symSize: 0x68 }
  - { offset: 0xD543E, size: 0x8, addend: 0x0, symName: __ZN3std3sys2fs15set_permissions17hcbfd7957abdc5791E, symObjAddr: 0x38C6C, symBinAddr: 0x3D4E8, symSize: 0xDC }
  - { offset: 0xD55AB, size: 0x8, addend: 0x0, symName: __ZN3std3sys2fs12canonicalize17h320bfb758194d460E, symObjAddr: 0x38DB0, symBinAddr: 0x3D62C, symSize: 0xB0 }
  - { offset: 0xD564E, size: 0x8, addend: 0x0, symName: __ZN3std3sys2fs4copy17h6cca907e7fe5bcacE, symObjAddr: 0x38E60, symBinAddr: 0x3D6DC, symSize: 0x39C }
  - { offset: 0xD5FBA, size: 0x8, addend: 0x0, symName: __ZN3std3sys2fs6exists17h48c3dee970a82699E, symObjAddr: 0x391FC, symBinAddr: 0x3DA78, symSize: 0x21C }
  - { offset: 0xD662E, size: 0x8, addend: 0x0, symName: '__ZN69_$LT$std..sys..os_str..bytes..Slice$u20$as$u20$core..fmt..Display$GT$3fmt17hf765a6d45f667111E', symObjAddr: 0x429DC, symBinAddr: 0x46CC8, symSize: 0xA0 }
  - { offset: 0xD6674, size: 0x8, addend: 0x0, symName: '__ZN67_$LT$std..sys..os_str..bytes..Buf$u20$as$u20$core..fmt..Display$GT$3fmt17h817b102191dd0f70E', symObjAddr: 0x42930, symBinAddr: 0x46C1C, symSize: 0xAC }
  - { offset: 0xD674B, size: 0x8, addend: 0x0, symName: __ZN3std3sys6os_str5bytes5Slice21check_public_boundary9slow_path17h87fa5180d2e401c9E, symObjAddr: 0x42A7C, symBinAddr: 0x46D68, symSize: 0x138 }
  - { offset: 0xD6919, size: 0x8, addend: 0x0, symName: '__ZN78_$LT$std..sys..process..unix..unix..ExitStatus$u20$as$u20$core..fmt..Debug$GT$3fmt17h4eb03736522ac5cfE', symObjAddr: 0x45B48, symBinAddr: 0x49E34, symSize: 0x58 }
  - { offset: 0xD697A, size: 0x8, addend: 0x0, symName: __ZN3std3sys7process4unix4unix7Process4wait17habfe7c1738319923E, symObjAddr: 0x45AA8, symBinAddr: 0x49D94, symSize: 0xA0 }
  - { offset: 0xD6B76, size: 0x8, addend: 0x0, symName: '__ZN166_$LT$std..sys..process..unix..unix..$LT$impl$u20$std..sys..process..unix..common..Command$GT$..posix_spawn..PosixSpawnFileActions$u20$as$u20$core..ops..drop..Drop$GT$4drop17h81c0988bc2f366bfE', symObjAddr: 0x45A80, symBinAddr: 0x49D6C, symSize: 0x14 }
  - { offset: 0xD6B9F, size: 0x8, addend: 0x0, symName: '__ZN159_$LT$std..sys..process..unix..unix..$LT$impl$u20$std..sys..process..unix..common..Command$GT$..posix_spawn..PosixSpawnattr$u20$as$u20$core..ops..drop..Drop$GT$4drop17h746c4d7f350cb97fE', symObjAddr: 0x45A94, symBinAddr: 0x49D80, symSize: 0x14 }
  - { offset: 0xD6C07, size: 0x8, addend: 0x0, symName: '__ZN146_$LT$std..sys..process..unix..unix..$LT$impl$u20$std..sys..process..unix..common..Command$GT$..do_exec..Reset$u20$as$u20$core..ops..drop..Drop$GT$4drop17hdc149398b1a8ef2dE', symObjAddr: 0x45A5C, symBinAddr: 0x49D48, symSize: 0x24 }
  - { offset: 0xD6C49, size: 0x8, addend: 0x0, symName: '__ZN80_$LT$std..sys..process..unix..unix..ExitStatus$u20$as$u20$core..fmt..Display$GT$3fmt17h398c1674ca53c90cE', symObjAddr: 0x45BA0, symBinAddr: 0x49E8C, symSize: 0x1F8 }
  - { offset: 0xD6E0E, size: 0x8, addend: 0x0, symName: '__ZN83_$LT$std..sys..process..unix..unix..ExitStatusError$u20$as$u20$core..fmt..Debug$GT$3fmt17h2d9e60113fbf626eE', symObjAddr: 0x45D98, symBinAddr: 0x4A084, symSize: 0x58 }
  - { offset: 0xD6E9D, size: 0x8, addend: 0x0, symName: __ZN3std3sys7process4unix6common7Command3new17h2ecd44da4ce85932E, symObjAddr: 0x42F50, symBinAddr: 0x4723C, symSize: 0x2C8 }
  - { offset: 0xD7440, size: 0x8, addend: 0x0, symName: __ZN3std3sys7process4unix6common7Command9set_arg_017h1a313ff56c3cb899E, symObjAddr: 0x43218, symBinAddr: 0x47504, symSize: 0x134 }
  - { offset: 0xD7814, size: 0x8, addend: 0x0, symName: __ZN3std3sys7process4unix6common7Command3arg17h2714877c2a909643E, symObjAddr: 0x4334C, symBinAddr: 0x47638, symSize: 0x15C }
  - { offset: 0xD7BB7, size: 0x8, addend: 0x0, symName: __ZN3std3sys7process4unix6common7Command3cwd17h15c92b98bd50b820E, symObjAddr: 0x434A8, symBinAddr: 0x47794, symSize: 0xD4 }
  - { offset: 0xD7E08, size: 0x8, addend: 0x0, symName: __ZN3std3sys7process4unix6common7Command8pre_exec17h8e211583e75d2f5cE, symObjAddr: 0x4357C, symBinAddr: 0x47868, symSize: 0x78 }
  - { offset: 0xD7EE7, size: 0x8, addend: 0x0, symName: __ZN3std3sys7process4unix6common7Command5stdin17h71feea65901a89a1E, symObjAddr: 0x435F4, symBinAddr: 0x478E0, symSize: 0x44 }
  - { offset: 0xD7F75, size: 0x8, addend: 0x0, symName: __ZN3std3sys7process4unix6common7Command6stdout17hc07d1705ce319f59E, symObjAddr: 0x43638, symBinAddr: 0x47924, symSize: 0x44 }
  - { offset: 0xD8003, size: 0x8, addend: 0x0, symName: __ZN3std3sys7process4unix6common7Command6stderr17hf09b28ac3de384e2E, symObjAddr: 0x4367C, symBinAddr: 0x47968, symSize: 0x44 }
  - { offset: 0xD8091, size: 0x8, addend: 0x0, symName: __ZN3std3sys7process4unix6common7Command11capture_env17hc3185bb04805f408E, symObjAddr: 0x436C0, symBinAddr: 0x479AC, symSize: 0xA74 }
  - { offset: 0xD9E3E, size: 0x8, addend: 0x0, symName: __ZN3std3sys7process4unix6common7Command8setup_io17h3b6299cac6ed349cE, symObjAddr: 0x44134, symBinAddr: 0x48420, symSize: 0x2F8 }
  - { offset: 0xDA336, size: 0x8, addend: 0x0, symName: '__ZN3std3sys7process4unix4unix58_$LT$impl$u20$std..sys..process..unix..common..Command$GT$5spawn17h6066bd02be2e13feE', symObjAddr: 0x44D64, symBinAddr: 0x49050, symSize: 0x98C }
  - { offset: 0xDB60D, size: 0x8, addend: 0x0, symName: '__ZN3std3sys7process4unix4unix58_$LT$impl$u20$std..sys..process..unix..common..Command$GT$7do_exec17h3fa1b4e848a164e5E', symObjAddr: 0x456F0, symBinAddr: 0x499DC, symSize: 0x36C }
  - { offset: 0xDBF50, size: 0x8, addend: 0x0, symName: '__ZN103_$LT$std..sys..process..unix..common..CommandArgs$u20$as$u20$core..iter..traits..iterator..Iterator$GT$4next17hf616fc369ba60170E', symObjAddr: 0x44C74, symBinAddr: 0x48F60, symSize: 0x34 }
  - { offset: 0xDBF68, size: 0x8, addend: 0x0, symName: '__ZN103_$LT$std..sys..process..unix..common..CommandArgs$u20$as$u20$core..iter..traits..iterator..Iterator$GT$4next17hf616fc369ba60170E', symObjAddr: 0x44C74, symBinAddr: 0x48F60, symSize: 0x34 }
  - { offset: 0xDBFD5, size: 0x8, addend: 0x0, symName: '__ZN103_$LT$std..sys..process..unix..common..CommandArgs$u20$as$u20$core..iter..traits..iterator..Iterator$GT$9size_hint17he6f4e1ae6f98b3eaE', symObjAddr: 0x44CA8, symBinAddr: 0x48F94, symSize: 0x28 }
  - { offset: 0xDC059, size: 0x8, addend: 0x0, symName: '__ZN114_$LT$std..sys..process..unix..common..CommandArgs$u20$as$u20$core..iter..traits..exact_size..ExactSizeIterator$GT$3len17hc8c019bcacd62a1fE', symObjAddr: 0x44CD0, symBinAddr: 0x48FBC, symSize: 0x1C }
  - { offset: 0xDC184, size: 0x8, addend: 0x0, symName: __ZN3std3sys7process4unix6common5Stdio14to_child_stdio17h86a3df6a20ce7414E, symObjAddr: 0x4442C, symBinAddr: 0x48718, symSize: 0x15C }
  - { offset: 0xDC2C2, size: 0x8, addend: 0x0, symName: '__ZN77_$LT$std..sys..process..unix..common..Command$u20$as$u20$core..fmt..Debug$GT$3fmt17h21e2ff9dbd9cad26E', symObjAddr: 0x44588, symBinAddr: 0x48874, symSize: 0x694 }
  - { offset: 0xDCA6D, size: 0x8, addend: 0x0, symName: '__ZN78_$LT$std..sys..process..unix..common..ExitCode$u20$as$u20$core..fmt..Debug$GT$3fmt17hd70efa6b674bdaceE', symObjAddr: 0x44C1C, symBinAddr: 0x48F08, symSize: 0x58 }
  - { offset: 0xDCA8F, size: 0x8, addend: 0x0, symName: '__ZN81_$LT$std..sys..process..unix..common..CommandArgs$u20$as$u20$core..fmt..Debug$GT$3fmt17h4706a291884c296eE', symObjAddr: 0x44CEC, symBinAddr: 0x48FD8, symSize: 0x78 }
  - { offset: 0xDCB48, size: 0x8, addend: 0x0, symName: __ZN3std3sys7process3env10CommandEnv3set17he49fb4ca313e24ebE, symObjAddr: 0x3949C, symBinAddr: 0x3DD18, symSize: 0x1A8 }
  - { offset: 0xDD041, size: 0x8, addend: 0x0, symName: __ZN3std3sys7process3env10CommandEnv6remove17h4c0474996bec69baE, symObjAddr: 0x39644, symBinAddr: 0x3DEC0, symSize: 0x3C0 }
  - { offset: 0xDDBE4, size: 0x8, addend: 0x0, symName: '__ZN94_$LT$std..sys..process..env..CommandEnvs$u20$as$u20$core..iter..traits..iterator..Iterator$GT$4next17hd7f4d69e526ba293E', symObjAddr: 0x39A04, symBinAddr: 0x3E280, symSize: 0x50 }
  - { offset: 0xDDC6D, size: 0x8, addend: 0x0, symName: '__ZN71_$LT$std..sys..process..env..CommandEnv$u20$as$u20$core..fmt..Debug$GT$3fmt17h7b831a3903dc0302E', symObjAddr: 0x39418, symBinAddr: 0x3DC94, symSize: 0x84 }
  - { offset: 0xDDCB6, size: 0x8, addend: 0x0, symName: '__ZN65_$LT$std..sys..fd..unix..FileDesc$u20$as$u20$core..fmt..Debug$GT$3fmt17h3dfb6371d00d6640E', symObjAddr: 0x3F824, symBinAddr: 0x43B10, symSize: 0x40 }
  - { offset: 0xDDD82, size: 0x8, addend: 0x0, symName: __ZN3std3sys2fd4unix8FileDesc4read17h5f6d806deb5c0c00E, symObjAddr: 0x3F06C, symBinAddr: 0x43358, symSize: 0x58 }
  - { offset: 0xDDE75, size: 0x8, addend: 0x0, symName: __ZN3std3sys2fd4unix8FileDesc13read_vectored17he26130ed0dc5b28dE, symObjAddr: 0x3F0C4, symBinAddr: 0x433B0, symSize: 0x58 }
  - { offset: 0xDDF68, size: 0x8, addend: 0x0, symName: __ZN3std3sys2fd4unix8FileDesc11read_to_end17h7a950fdca85b9c5eE, symObjAddr: 0x3F11C, symBinAddr: 0x43408, symSize: 0x23C }
  - { offset: 0xDE3AB, size: 0x8, addend: 0x0, symName: __ZN3std3sys2fd4unix8FileDesc7read_at17h1840e4057fcd4594E, symObjAddr: 0x3F358, symBinAddr: 0x43644, symSize: 0x58 }
  - { offset: 0xDE49E, size: 0x8, addend: 0x0, symName: __ZN3std3sys2fd4unix8FileDesc8read_buf17h32f24d2ebbfadfb3E, symObjAddr: 0x3F3B0, symBinAddr: 0x4369C, symSize: 0x78 }
  - { offset: 0xDE64A, size: 0x8, addend: 0x0, symName: __ZN3std3sys2fd4unix8FileDesc16read_vectored_at17h0b565590200a97b4E, symObjAddr: 0x3F428, symBinAddr: 0x43714, symSize: 0x10C }
  - { offset: 0xDE7F8, size: 0x8, addend: 0x0, symName: __ZN3std3sys2fd4unix8FileDesc5write17h82aef0a19a7e6ca6E, symObjAddr: 0x3F534, symBinAddr: 0x43820, symSize: 0x58 }
  - { offset: 0xDE8EE, size: 0x8, addend: 0x0, symName: __ZN3std3sys2fd4unix8FileDesc14write_vectored17h075124761889f70eE, symObjAddr: 0x3F58C, symBinAddr: 0x43878, symSize: 0x58 }
  - { offset: 0xDE9E4, size: 0x8, addend: 0x0, symName: __ZN3std3sys2fd4unix8FileDesc8write_at17h63876dac1bbda893E, symObjAddr: 0x3F5E4, symBinAddr: 0x438D0, symSize: 0x58 }
  - { offset: 0xDEADA, size: 0x8, addend: 0x0, symName: __ZN3std3sys2fd4unix8FileDesc17write_vectored_at17h43708bc1cc702d95E, symObjAddr: 0x3F63C, symBinAddr: 0x43928, symSize: 0x10C }
  - { offset: 0xDEC89, size: 0x8, addend: 0x0, symName: __ZN3std3sys2fd4unix8FileDesc11set_cloexec17h6867c9c3a8364ea0E, symObjAddr: 0x3F748, symBinAddr: 0x43A34, symSize: 0x40 }
  - { offset: 0xDED3C, size: 0x8, addend: 0x0, symName: __ZN3std3sys2fd4unix8FileDesc15set_nonblocking17h358d23bda070ea47E, symObjAddr: 0x3F788, symBinAddr: 0x43A74, symSize: 0x88 }
  - { offset: 0xDEF7E, size: 0x8, addend: 0x0, symName: '__ZN73_$LT$std..sys..fd..unix..FileDesc$u20$as$u20$std..os..fd..owned..AsFd$GT$5as_fd17hc9fe2cbf0209f318E', symObjAddr: 0x3F810, symBinAddr: 0x43AFC, symSize: 0x14 }
  - { offset: 0xDF070, size: 0x8, addend: 0x0, symName: '__ZN94_$LT$std..sys..pal..unix..os..SplitPaths$u20$as$u20$core..iter..traits..iterator..Iterator$GT$4next17hcedb9a83455718e4E', symObjAddr: 0x3D060, symBinAddr: 0x4143C, symSize: 0xA8 }
  - { offset: 0xDF1CC, size: 0x8, addend: 0x0, symName: '__ZN78_$LT$std..sys..pal..unix..os..JoinPathsError$u20$as$u20$core..fmt..Display$GT$3fmt17h077691901320f857E', symObjAddr: 0x3D108, symBinAddr: 0x414E4, symSize: 0x5C }
  - { offset: 0xDF2F1, size: 0x8, addend: 0x0, symName: '__ZN3std3sys3pal4unix2os5chdir28_$u7b$$u7b$closure$u7d$$u7d$17h19a2cf984348b83aE', symObjAddr: 0x3CFA0, symBinAddr: 0x4137C, symSize: 0x28 }
  - { offset: 0xDF306, size: 0x8, addend: 0x0, symName: __ZN3std3sys3pal4unix2os5chdir17h9a745946d17d8e05E, symObjAddr: 0x3CEC4, symBinAddr: 0x412A0, symSize: 0xDC }
  - { offset: 0xDF40E, size: 0x8, addend: 0x0, symName: __ZN3std3sys3pal4unix2os11split_paths13bytes_to_path17hb6b0624ccc350198E, symObjAddr: 0x3CFC8, symBinAddr: 0x413A4, symSize: 0x98 }
  - { offset: 0xDF578, size: 0x8, addend: 0x0, symName: __ZN3std3sys3pal4unix2os4exit17h0d129a26db33bff2E, symObjAddr: 0x3D164, symBinAddr: 0x41540, symSize: 0xC }
  - { offset: 0xDF5DC, size: 0x8, addend: 0x0, symName: '__ZN81_$LT$std..sys..pal..unix..sync..mutex..Mutex$u20$as$u20$core..ops..drop..Drop$GT$4drop17h01bdd5e2704ed188E', symObjAddr: 0x3DBC8, symBinAddr: 0x41EC0, symSize: 0x10 }
  - { offset: 0xDF62B, size: 0x8, addend: 0x0, symName: __ZN3std3sys3pal4unix4sync5mutex5Mutex4init17h5e303a3e604879e1E, symObjAddr: 0x3D930, symBinAddr: 0x41D0C, symSize: 0x16C }
  - { offset: 0xDF6C8, size: 0x8, addend: 0x0, symName: __ZN3std3sys3pal4unix4sync5mutex5Mutex4lock17h427795fe8c3807acE, symObjAddr: 0x3DA9C, symBinAddr: 0x41E78, symSize: 0x1C }
  - { offset: 0xDF6DC, size: 0x8, addend: 0x0, symName: __ZN3std3sys3pal4unix4sync5mutex5Mutex8try_lock17h17897905f0be618eE, symObjAddr: 0x3DB9C, symBinAddr: 0x41E94, symSize: 0x1C }
  - { offset: 0xDF6F0, size: 0x8, addend: 0x0, symName: __ZN3std3sys3pal4unix4sync5mutex5Mutex6unlock17h2f6ee33eee32dd37E, symObjAddr: 0x3DBB8, symBinAddr: 0x41EB0, symSize: 0x10 }
  - { offset: 0xDF718, size: 0x8, addend: 0x0, symName: '__ZN85_$LT$std..sys..pal..unix..sync..mutex..AttrGuard$u20$as$u20$core..ops..drop..Drop$GT$4drop17hab37155dd42c18ddE', symObjAddr: 0x3DBD8, symBinAddr: 0x41ED0, symSize: 0x4C }
  - { offset: 0xDF739, size: 0x8, addend: 0x0, symName: __ZN3std3sys3pal4unix4sync5mutex5Mutex4lock4fail17ha899a996815683d2E, symObjAddr: 0x3DAB8, symBinAddr: 0x8D1E8, symSize: 0xE4 }
  - { offset: 0xDFA94, size: 0x8, addend: 0x0, symName: __ZN3std3sys3pal4unix14stack_overflow3imp14signal_handler17hf88c98fd17b8dfdbE, symObjAddr: 0x3D59C, symBinAddr: 0x41978, symSize: 0xB0 }
  - { offset: 0xDFB4D, size: 0x8, addend: 0x0, symName: '__ZN3std3sys3pal4unix14stack_overflow3imp14signal_handler28_$u7b$$u7b$closure$u7d$$u7d$17ha89ab9f0b6865cf9E', symObjAddr: 0x3D64C, symBinAddr: 0x41A28, symSize: 0x104 }
  - { offset: 0xDFDB5, size: 0x8, addend: 0x0, symName: __ZN3std3sys3pal4unix14stack_overflow3imp12make_handler17h48618e7b718269b5E, symObjAddr: 0x3D750, symBinAddr: 0x41B2C, symSize: 0x1E0 }
  - { offset: 0xE00D7, size: 0x8, addend: 0x0, symName: '__ZN86_$LT$std..sys..pal..unix..stack_overflow..Handler$u20$as$u20$core..ops..drop..Drop$GT$4drop17he91b988d89bcc095E', symObjAddr: 0x3D544, symBinAddr: 0x41920, symSize: 0x58 }
  - { offset: 0xE01C9, size: 0x8, addend: 0x0, symName: __ZN3std3sys3pal4unix6thread6Thread3new17hb97e44308caec9c9E, symObjAddr: 0x3DC24, symBinAddr: 0x41F1C, symSize: 0x228 }
  - { offset: 0xE0487, size: 0x8, addend: 0x0, symName: __ZN3std3sys3pal4unix6thread6Thread8set_name17h3f7ea0617021126eE, symObjAddr: 0x3DF24, symBinAddr: 0x4221C, symSize: 0x70 }
  - { offset: 0xE0583, size: 0x8, addend: 0x0, symName: __ZN3std3sys3pal4unix6thread6Thread4join17h66d39b9b7f0e0400E, symObjAddr: 0x3DF94, symBinAddr: 0x4228C, symSize: 0x90 }
  - { offset: 0xE05F6, size: 0x8, addend: 0x0, symName: __ZN3std3sys3pal4unix6thread6Thread3new12thread_start17hf0cf67e969add794E, symObjAddr: 0x3DE4C, symBinAddr: 0x42144, symSize: 0xD8 }
  - { offset: 0xE0838, size: 0x8, addend: 0x0, symName: '__ZN77_$LT$std..sys..pal..unix..thread..Thread$u20$as$u20$core..ops..drop..Drop$GT$4drop17h15e9628ab768e0cbE', symObjAddr: 0x3E024, symBinAddr: 0x4231C, symSize: 0x14 }
  - { offset: 0xE08C7, size: 0x8, addend: 0x0, symName: __ZN3std3sys3pal4unix4time8Timespec3now17h4988c1223a072dbbE, symObjAddr: 0x3E0B8, symBinAddr: 0x423B0, symSize: 0x114 }
  - { offset: 0xE0979, size: 0x8, addend: 0x0, symName: __ZN3std3sys3pal4unix4time8Timespec12sub_timespec17hdcfb442f6c35c135E, symObjAddr: 0x3E1CC, symBinAddr: 0x424C4, symSize: 0xDC }
  - { offset: 0xE0AA6, size: 0x8, addend: 0x0, symName: '__ZN71_$LT$std..sys..pal..unix..time..Instant$u20$as$u20$core..fmt..Debug$GT$3fmt17h802e850acdc12782E', symObjAddr: 0x3E2A8, symBinAddr: 0x425A0, symSize: 0x80 }
  - { offset: 0xE0ACE, size: 0x8, addend: 0x0, symName: '__ZN74_$LT$std..sys..pal..unix..time..SystemTime$u20$as$u20$core..fmt..Debug$GT$3fmt17h5a19796de5dbf1fdE', symObjAddr: 0x3E038, symBinAddr: 0x42330, symSize: 0x80 }
  - { offset: 0xE0BA9, size: 0x8, addend: 0x0, symName: __ZN3std3sys3pal4unix4pipe8AnonPipe5write17h35c0ccbe025f4793E, symObjAddr: 0x3D298, symBinAddr: 0x41674, symSize: 0x54 }
  - { offset: 0xE0C8F, size: 0x8, addend: 0x0, symName: __ZN3std3sys3pal4unix4pipe9anon_pipe17hcae120b523047145E, symObjAddr: 0x3D170, symBinAddr: 0x4154C, symSize: 0x128 }
  - { offset: 0xE0FA6, size: 0x8, addend: 0x0, symName: __ZN3std3sys3pal4unix4pipe5read217h4c75436400739acdE, symObjAddr: 0x3D2EC, symBinAddr: 0x416C8, symSize: 0x258 }
  - { offset: 0xE151B, size: 0x8, addend: 0x0, symName: '__ZN3std3sys3pal4unix4weak18DlsymWeak$LT$F$GT$10initialize17h3958e9df6a2faf39E', symObjAddr: 0x3CE6C, symBinAddr: 0x8D190, symSize: 0x58 }
  - { offset: 0xE15AC, size: 0x8, addend: 0x0, symName: __ZN3std3sys3pal4unix17decode_error_kind17h9a4a0c06a96cb6a5E, symObjAddr: 0x3E328, symBinAddr: 0x42620, symSize: 0x15C }
  - { offset: 0xE15C6, size: 0x8, addend: 0x0, symName: __ZN3std3sys3pal4unix14abort_internal17ha68f3fb13456b873E, symObjAddr: 0x3E484, symBinAddr: 0x8D2CC, symSize: 0xC }
  - { offset: 0xE1704, size: 0x8, addend: 0x0, symName: __ZN3std3sys3pal6common14small_c_string24run_with_cstr_allocating17h33ceef18164ab374E, symObjAddr: 0x36C98, symBinAddr: 0x8C72C, symSize: 0xE4 }
  - { offset: 0xE18E1, size: 0x8, addend: 0x0, symName: __ZN3std3sys3pal6common14small_c_string24run_with_cstr_allocating17h5cfd4b38419161bdE, symObjAddr: 0x36D7C, symBinAddr: 0x8C810, symSize: 0xD0 }
  - { offset: 0xE1ABE, size: 0x8, addend: 0x0, symName: __ZN3std3sys3pal6common14small_c_string24run_with_cstr_allocating17h6237c513e9de6534E, symObjAddr: 0x36E4C, symBinAddr: 0x8C8E0, symSize: 0xCC }
  - { offset: 0xE1C9B, size: 0x8, addend: 0x0, symName: __ZN3std3sys3pal6common14small_c_string24run_with_cstr_allocating17h7acbf996662dc90aE, symObjAddr: 0x36F18, symBinAddr: 0x8C9AC, symSize: 0xA4 }
  - { offset: 0xE1E03, size: 0x8, addend: 0x0, symName: __ZN3std3sys3pal6common14small_c_string24run_with_cstr_allocating17hb042e97b5e3d1358E, symObjAddr: 0x36FBC, symBinAddr: 0x8CA50, symSize: 0xBC }
  - { offset: 0xE1FF5, size: 0x8, addend: 0x0, symName: __ZN3std3sys3pal6common14small_c_string24run_with_cstr_allocating17hb0f2fb0201af72eaE, symObjAddr: 0x37078, symBinAddr: 0x8CB0C, symSize: 0xC4 }
  - { offset: 0xE21D2, size: 0x8, addend: 0x0, symName: __ZN3std3sys3pal6common14small_c_string24run_with_cstr_allocating17hd76a1c4dc05913f1E, symObjAddr: 0x3713C, symBinAddr: 0x8CBD0, symSize: 0xCC }
  - { offset: 0xE23AF, size: 0x8, addend: 0x0, symName: __ZN3std3sys3pal6common14small_c_string24run_with_cstr_allocating17hed8ace20210d9da7E, symObjAddr: 0x37208, symBinAddr: 0x8CC9C, symSize: 0xAC }
  - { offset: 0xE279F, size: 0x8, addend: 0x0, symName: '__ZN64_$LT$std..sys..stdio..unix..Stderr$u20$as$u20$std..io..Write$GT$5write17h983908c33cb911d3E', symObjAddr: 0x45FC8, symBinAddr: 0x4A2B4, symSize: 0x58 }
  - { offset: 0xE287E, size: 0x8, addend: 0x0, symName: '__ZN64_$LT$std..sys..stdio..unix..Stderr$u20$as$u20$std..io..Write$GT$14write_vectored17h3b14d44343cb3d67E', symObjAddr: 0x46020, symBinAddr: 0x4A30C, symSize: 0x58 }
  - { offset: 0xE295D, size: 0x8, addend: 0x0, symName: '__ZN64_$LT$std..sys..stdio..unix..Stderr$u20$as$u20$std..io..Write$GT$17is_write_vectored17hf930a567acd25e84E', symObjAddr: 0x46078, symBinAddr: 0x4A364, symSize: 0x14 }
  - { offset: 0xE2977, size: 0x8, addend: 0x0, symName: '__ZN64_$LT$std..sys..stdio..unix..Stderr$u20$as$u20$std..io..Write$GT$5flush17h51209dca9a1a57a2E', symObjAddr: 0x4608C, symBinAddr: 0x4A378, symSize: 0x14 }
  - { offset: 0xE29B2, size: 0x8, addend: 0x0, symName: '__ZN64_$LT$std..sys..stdio..unix..Stdout$u20$as$u20$std..io..Write$GT$5write17hbe6a673e417a2f25E', symObjAddr: 0x45F18, symBinAddr: 0x4A204, symSize: 0x58 }
  - { offset: 0xE2A91, size: 0x8, addend: 0x0, symName: '__ZN64_$LT$std..sys..stdio..unix..Stdout$u20$as$u20$std..io..Write$GT$14write_vectored17he35ed981180f2ea3E', symObjAddr: 0x45F70, symBinAddr: 0x4A25C, symSize: 0x58 }
  - { offset: 0xE2B9E, size: 0x8, addend: 0x0, symName: '__ZN62_$LT$std..sys..stdio..unix..Stdin$u20$as$u20$std..io..Read$GT$4read17hd5d8fa7fb3ad877cE', symObjAddr: 0x45DF0, symBinAddr: 0x4A0DC, symSize: 0x58 }
  - { offset: 0xE2C7B, size: 0x8, addend: 0x0, symName: '__ZN62_$LT$std..sys..stdio..unix..Stdin$u20$as$u20$std..io..Read$GT$8read_buf17h1e8d7f27889813b1E', symObjAddr: 0x45E48, symBinAddr: 0x4A134, symSize: 0x78 }
  - { offset: 0xE2E11, size: 0x8, addend: 0x0, symName: '__ZN62_$LT$std..sys..stdio..unix..Stdin$u20$as$u20$std..io..Read$GT$13read_vectored17h50923ba4584e3ae2E', symObjAddr: 0x45EC0, symBinAddr: 0x4A1AC, symSize: 0x58 }
  - { offset: 0xE2F0A, size: 0x8, addend: 0x0, symName: '__ZN3std3sys9backtrace10_print_fmt28_$u7b$$u7b$closure$u7d$$u7d$17hbd73d7f4e53283a1E', symObjAddr: 0x37818, symBinAddr: 0x3C094, symSize: 0x30 }
  - { offset: 0xE2F34, size: 0x8, addend: 0x0, symName: '__ZN3std3sys9backtrace10_print_fmt28_$u7b$$u7b$closure$u7d$$u7d$17h6879c16817a98ea9E', symObjAddr: 0x37848, symBinAddr: 0x3C0C4, symSize: 0x130 }
  - { offset: 0xE3055, size: 0x8, addend: 0x0, symName: '__ZN3std3sys9backtrace10_print_fmt28_$u7b$$u7b$closure$u7d$$u7d$28_$u7b$$u7b$closure$u7d$$u7d$17h27bb0db74740d50aE', symObjAddr: 0x37978, symBinAddr: 0x3C1F4, symSize: 0x264 }
  - { offset: 0xE329C, size: 0x8, addend: 0x0, symName: __ZN3std3sys9backtrace4lock17hb80c2472fe896ec6E, symObjAddr: 0x3752C, symBinAddr: 0x3BDA8, symSize: 0x70 }
  - { offset: 0xE33F7, size: 0x8, addend: 0x0, symName: __ZN3std3sys9backtrace13BacktraceLock5print17h1fb87370474572edE, symObjAddr: 0x3759C, symBinAddr: 0x3BE18, symSize: 0x54 }
  - { offset: 0xE3448, size: 0x8, addend: 0x0, symName: '__ZN98_$LT$std..sys..backtrace..BacktraceLock..print..DisplayBacktrace$u20$as$u20$core..fmt..Display$GT$3fmt17h2c3f7b4c4ce00f07E', symObjAddr: 0x375F0, symBinAddr: 0x3BE6C, symSize: 0x228 }
  - { offset: 0xE396A, size: 0x8, addend: 0x0, symName: __ZN3std3sys9backtrace26__rust_end_short_backtrace17h3d1b897f4c243dccE, symObjAddr: 0x37BDC, symBinAddr: 0x3C458, symSize: 0xC }
  - { offset: 0xE3984, size: 0x8, addend: 0x0, symName: __ZN3std3sys9backtrace26__rust_end_short_backtrace17h52c1e479035e4bc4E, symObjAddr: 0x37BE8, symBinAddr: 0x3C464, symSize: 0xC }
  - { offset: 0xE399E, size: 0x8, addend: 0x0, symName: __ZN3std3sys9backtrace15output_filename17h92145fff01ea656fE, symObjAddr: 0x37BF4, symBinAddr: 0x3C470, symSize: 0xF4 }
  - { offset: 0xE3B3F, size: 0x8, addend: 0x0, symName: '__ZN3std3sys11personality3gcc14find_eh_action28_$u7b$$u7b$closure$u7d$$u7d$17h06eb976456ea1d2aE', symObjAddr: 0x3E490, symBinAddr: 0x4277C, symSize: 0x18 }
  - { offset: 0xE3B53, size: 0x8, addend: 0x0, symName: '__ZN3std3sys11personality3gcc14find_eh_action28_$u7b$$u7b$closure$u7d$$u7d$17h222986aa84d6cbecE', symObjAddr: 0x3E4A8, symBinAddr: 0x42794, symSize: 0x18 }
  - { offset: 0xE3B83, size: 0x8, addend: 0x0, symName: _rust_eh_personality, symObjAddr: 0x3E4C0, symBinAddr: 0x427AC, symSize: 0x378 }
  - { offset: 0xE3EF1, size: 0x8, addend: 0x0, symName: __ZN3std3sys11personality5dwarf2eh19read_encoded_offset17h6de3def32cf0dcb2E, symObjAddr: 0x37364, symBinAddr: 0x3BBE0, symSize: 0x150 }
  - { offset: 0xE40EA, size: 0x8, addend: 0x0, symName: '__ZN3std3sys4sync8once_box16OnceBox$LT$T$GT$10initialize17hc7a5e95ec7bbd1f2E', symObjAddr: 0x39AC4, symBinAddr: 0x8CD48, symSize: 0xEC }
  - { offset: 0xE428D, size: 0x8, addend: 0x0, symName: '__ZN3std3sys4sync8once_box16OnceBox$LT$T$GT$10initialize17hcfe0fed7fc49c635E', symObjAddr: 0x39BB0, symBinAddr: 0x8CE34, symSize: 0xBC }
  - { offset: 0xE4553, size: 0x8, addend: 0x0, symName: '__ZN79_$LT$std..sys..sync..mutex..pthread..Mutex$u20$as$u20$core..ops..drop..Drop$GT$4drop17hc01e3e75ba676592E', symObjAddr: 0x46290, symBinAddr: 0x4A57C, symSize: 0x58 }
  - { offset: 0xE473C, size: 0x8, addend: 0x0, symName: __ZN3std3sys4sync6rwlock5queue6RwLock14lock_contended17h910b3755218623c0E, symObjAddr: 0x469FC, symBinAddr: 0x8D728, symSize: 0x1F0 }
  - { offset: 0xE4D2F, size: 0x8, addend: 0x0, symName: __ZN3std3sys4sync6rwlock5queue6RwLock21read_unlock_contended17h216108424f8220f7E, symObjAddr: 0x46BEC, symBinAddr: 0x8D918, symSize: 0x50 }
  - { offset: 0xE4EAF, size: 0x8, addend: 0x0, symName: __ZN3std3sys4sync6rwlock5queue6RwLock16unlock_contended17h5bb4de85bc484b46E, symObjAddr: 0x46C3C, symBinAddr: 0x8D968, symSize: 0x50 }
  - { offset: 0xE4F94, size: 0x8, addend: 0x0, symName: __ZN3std3sys4sync6rwlock5queue6RwLock14downgrade_slow17heee7f0ffa88c3516E, symObjAddr: 0x46C8C, symBinAddr: 0x8D9B8, symSize: 0x10C }
  - { offset: 0xE539C, size: 0x8, addend: 0x0, symName: __ZN3std3sys4sync6rwlock5queue6RwLock12unlock_queue17h55cba5315e9c92ebE, symObjAddr: 0x46D98, symBinAddr: 0x4A898, symSize: 0x1CC }
  - { offset: 0xE5AF3, size: 0x8, addend: 0x0, symName: __ZN3std3sys4sync6rwlock5queue10write_lock17hb3702be53efacfd0E, symObjAddr: 0x4696C, symBinAddr: 0x4A84C, symSize: 0x20 }
  - { offset: 0xE5B07, size: 0x8, addend: 0x0, symName: __ZN3std3sys4sync6rwlock5queue9read_lock17h2369bf269d4f4597E, symObjAddr: 0x4698C, symBinAddr: 0x4A86C, symSize: 0x2C }
  - { offset: 0xE5B21, size: 0x8, addend: 0x0, symName: '__ZN83_$LT$std..sys..sync..rwlock..queue..PanicGuard$u20$as$u20$core..ops..drop..Drop$GT$4drop17h855ac4778c5e6ccfE', symObjAddr: 0x469B8, symBinAddr: 0x8D6E4, symSize: 0x44 }
  - { offset: 0xE5BB8, size: 0x8, addend: 0x0, symName: '__ZN88_$LT$std..sys..sync..thread_parking..darwin..Parker$u20$as$u20$core..ops..drop..Drop$GT$4drop17he6f746b980aa80eaE', symObjAddr: 0x46F94, symBinAddr: 0x4AA94, symSize: 0x14 }
  - { offset: 0xE5C07, size: 0x8, addend: 0x0, symName: __ZN3std3sys4sync14thread_parking6darwin6Parker6unpark17hc28543f5da3a6763E, symObjAddr: 0x46F64, symBinAddr: 0x4AA64, symSize: 0x30 }
  - { offset: 0xE5CE8, size: 0x8, addend: 0x0, symName: __ZN3std3sys4sync4once5queue4Once4wait17h7edd8151154eead7E, symObjAddr: 0x462E8, symBinAddr: 0x8D2D8, symSize: 0x200 }
  - { offset: 0xE62D5, size: 0x8, addend: 0x0, symName: __ZN3std3sys4sync4once5queue4Once4call17h3c6cfbe80b9e563eE, symObjAddr: 0x464E8, symBinAddr: 0x8D4D8, symSize: 0x20C }
  - { offset: 0xE6608, size: 0x8, addend: 0x0, symName: '__ZN82_$LT$std..sys..sync..once..queue..WaiterQueue$u20$as$u20$core..ops..drop..Drop$GT$4drop17h9416d57e2555c9deE', symObjAddr: 0x4688C, symBinAddr: 0x4A76C, symSize: 0xE0 }
  - { offset: 0xE67E2, size: 0x8, addend: 0x0, symName: __ZN3std3sys4sync4once5queue4wait17hab6e639adb246e31E, symObjAddr: 0x466F4, symBinAddr: 0x4A5D4, symSize: 0x198 }
  - { offset: 0xE6DE9, size: 0x8, addend: 0x0, symName: __ZN3std3sys4sync7condvar7pthread7Condvar12wait_timeout17hdc0f6cf981cbe528E, symObjAddr: 0x460A0, symBinAddr: 0x4A38C, symSize: 0x1F0 }
  - { offset: 0xE72CE, size: 0x8, addend: 0x0, symName: __ZN3std3sys12thread_local6native5eager7destroy17h3d2049e869db48c5E, symObjAddr: 0x46FA8, symBinAddr: 0x4AAA8, symSize: 0x3C }
  - { offset: 0xE740D, size: 0x8, addend: 0x0, symName: __ZN3std3sys12thread_local6native5eager7destroy17hb66bed6a7703eea1E, symObjAddr: 0x46FE4, symBinAddr: 0x4AAE4, symSize: 0x84 }
  - { offset: 0xE75F9, size: 0x8, addend: 0x0, symName: __ZN3std3sys12thread_local5guard5apple6enable9run_dtors17h3b1d427e88f47b45E, symObjAddr: 0x471AC, symBinAddr: 0x4ACAC, symSize: 0x13C }
  - { offset: 0xE7B3B, size: 0x8, addend: 0x0, symName: '__ZN103_$LT$std..sys..thread_local..abort_on_dtor_unwind..DtorUnwindGuard$u20$as$u20$core..ops..drop..Drop$GT$4drop17h00139d7beca7b9c1E', symObjAddr: 0x39C6C, symBinAddr: 0x8CEF0, symSize: 0x44 }
  - { offset: 0xE7B97, size: 0x8, addend: 0x0, symName: __ZN3std3sys12thread_local11destructors4list8register17hfd06391dc1b51a3cE, symObjAddr: 0x47068, symBinAddr: 0x4AB68, symSize: 0x144 }
  - { offset: 0xE7F16, size: 0x8, addend: 0x0, symName: __ZN3std3sys3env4unix13env_read_lock17h16542bfda5aef8ddE, symObjAddr: 0x3E838, symBinAddr: 0x42B24, symSize: 0x23C }
  - { offset: 0xE867B, size: 0x8, addend: 0x0, symName: '__ZN3std3sys3env4unix6getenv28_$u7b$$u7b$closure$u7d$$u7d$17h5f6993a976cc25d1E', symObjAddr: 0x3EA74, symBinAddr: 0x42D60, symSize: 0x150 }
  - { offset: 0xE8881, size: 0x8, addend: 0x0, symName: __ZN3std3sys3env4unix6setenv17h9e840b8b48a9023aE, symObjAddr: 0x3EBC4, symBinAddr: 0x42EB0, symSize: 0x9C }
  - { offset: 0xE891A, size: 0x8, addend: 0x0, symName: '__ZN3std3sys3env4unix6setenv28_$u7b$$u7b$closure$u7d$$u7d$28_$u7b$$u7b$closure$u7d$$u7d$17h1cb1d0968b749674E', symObjAddr: 0x3EDA0, symBinAddr: 0x4308C, symSize: 0xCC }
  - { offset: 0xE89A5, size: 0x8, addend: 0x0, symName: '__ZN3std3sys3env4unix6setenv28_$u7b$$u7b$closure$u7d$$u7d$17h788c4c1872431b3cE', symObjAddr: 0x3EC60, symBinAddr: 0x42F4C, symSize: 0x140 }
  - { offset: 0xE8AB4, size: 0x8, addend: 0x0, symName: '__ZN3std3sys3env4unix8unsetenv28_$u7b$$u7b$closure$u7d$$u7d$17h95556205ae101758E', symObjAddr: 0x3EFAC, symBinAddr: 0x43298, symSize: 0xC0 }
  - { offset: 0xE8B3F, size: 0x8, addend: 0x0, symName: __ZN3std3sys3env4unix8unsetenv17h577bd116da8d9135E, symObjAddr: 0x3EE6C, symBinAddr: 0x43158, symSize: 0x140 }
  - { offset: 0xE8C82, size: 0x8, addend: 0x0, symName: '__ZN85_$LT$std..sys..env..common..Env$u20$as$u20$core..iter..traits..iterator..Iterator$GT$4next17h6128e1e6fad57168E', symObjAddr: 0x37E40, symBinAddr: 0x3C6BC, symSize: 0x48 }
  - { offset: 0xE8CFB, size: 0x8, addend: 0x0, symName: '__ZN85_$LT$std..sys..env..common..Env$u20$as$u20$core..iter..traits..iterator..Iterator$GT$9size_hint17hc1074486d7e6ab0fE', symObjAddr: 0x37E88, symBinAddr: 0x3C704, symSize: 0x38 }
  - { offset: 0xE8D84, size: 0x8, addend: 0x0, symName: '__ZN71_$LT$std..sys..env..common..EnvStrDebug$u20$as$u20$core..fmt..Debug$GT$3fmt17hb8683c61a1ec0423E', symObjAddr: 0x37CE8, symBinAddr: 0x3C564, symSize: 0xDC }
  - { offset: 0xE9033, size: 0x8, addend: 0x0, symName: '__ZN63_$LT$std..sys..env..common..Env$u20$as$u20$core..fmt..Debug$GT$3fmt17h73af9d5b135f0d07E', symObjAddr: 0x37DC4, symBinAddr: 0x3C640, symSize: 0x7C }
  - { offset: 0xE9101, size: 0x8, addend: 0x0, symName: '__ZN65_$LT$std..sys..args..common..Args$u20$as$u20$core..fmt..Debug$GT$3fmt17h069a30114a52a8d1E', symObjAddr: 0x374B4, symBinAddr: 0x3BD30, symSize: 0x78 }
  - { offset: 0xE91A3, size: 0x8, addend: 0x0, symName: __ZN3std3sys4path4unix8absolute17h047194fd9c21fb2bE, symObjAddr: 0x42BB4, symBinAddr: 0x46EA0, symSize: 0x39C }
  - { offset: 0xE9BA2, size: 0x8, addend: 0x0, symName: '__ZN104_$LT$std..sys..net..connection..socket..LookupHost$u20$as$u20$core..iter..traits..iterator..Iterator$GT$4next17h0709f4194693e715E', symObjAddr: 0x4140C, symBinAddr: 0x456F8, symSize: 0xF8 }
  - { offset: 0xE9C91, size: 0x8, addend: 0x0, symName: '__ZN87_$LT$std..sys..net..connection..socket..LookupHost$u20$as$u20$core..ops..drop..Drop$GT$4drop17h5a1d993747297589E', symObjAddr: 0x41504, symBinAddr: 0x457F0, symSize: 0x14 }
  - { offset: 0xE9CD4, size: 0x8, addend: 0x0, symName: '__ZN117_$LT$std..sys..net..connection..socket..LookupHost$u20$as$u20$core..convert..TryFrom$LT$$LP$$RF$str$C$u16$RP$$GT$$GT$8try_from17h03b11e1c8ce9117bE', symObjAddr: 0x416FC, symBinAddr: 0x459E8, symSize: 0xBC }
  - { offset: 0xE9D62, size: 0x8, addend: 0x0, symName: '__ZN117_$LT$std..sys..net..connection..socket..LookupHost$u20$as$u20$core..convert..TryFrom$LT$$LP$$RF$str$C$u16$RP$$GT$$GT$8try_from28_$u7b$$u7b$closure$u7d$$u7d$17hfe4a08c0e8ba4500E', symObjAddr: 0x417B8, symBinAddr: 0x45AA4, symSize: 0x18C }
  - { offset: 0xEA2B5, size: 0x8, addend: 0x0, symName: __ZN3std3sys3net10connection6socket9TcpStream7connect17he4c4efd50c62d571E, symObjAddr: 0x41944, symBinAddr: 0x45C30, symSize: 0x140 }
  - { offset: 0xEA4BF, size: 0x8, addend: 0x0, symName: __ZN3std3sys3net10connection6socket9TcpStream9peer_addr17h83914389c265847bE, symObjAddr: 0x41A84, symBinAddr: 0x45D70, symSize: 0x148 }
  - { offset: 0xEA7EC, size: 0x8, addend: 0x0, symName: __ZN3std3sys3net10connection6socket4unix6Socket7new_raw17h08e19e2b4e347bb7E, symObjAddr: 0x42564, symBinAddr: 0x46850, symSize: 0xF8 }
  - { offset: 0xEAA3B, size: 0x8, addend: 0x0, symName: __ZN3std3sys3net10connection6socket4unix6Socket8new_pair17h45f1419a37b4789cE, symObjAddr: 0x4265C, symBinAddr: 0x46948, symSize: 0x130 }
  - { offset: 0xEAD1E, size: 0x8, addend: 0x0, symName: __ZN3std3sys3net10connection6socket4unix6Socket20recv_from_with_flags17h04c27613fe965ac8E, symObjAddr: 0x4278C, symBinAddr: 0x46A78, symSize: 0x134 }
  - { offset: 0xEAE4A, size: 0x8, addend: 0x0, symName: __ZN3std3sys3net10connection6socket4unix6Socket10take_error17hccfedae756bb74aeE, symObjAddr: 0x428C0, symBinAddr: 0x46BAC, symSize: 0x70 }
  - { offset: 0xEB072, size: 0x8, addend: 0x0, symName: __ZN3std3sys3net10connection6socket11TcpListener4bind17he5a4db37da2ef392E, symObjAddr: 0x41DA8, symBinAddr: 0x46094, symSize: 0x15C }
  - { offset: 0xEB282, size: 0x8, addend: 0x0, symName: __ZN3std3sys3net10connection6socket11TcpListener11socket_addr17h3721243219569e26E, symObjAddr: 0x41F04, symBinAddr: 0x461F0, symSize: 0x148 }
  - { offset: 0xEB513, size: 0x8, addend: 0x0, symName: __ZN3std3sys3net10connection6socket9UdpSocket4bind17ha9a8632138893dcfE, symObjAddr: 0x42180, symBinAddr: 0x4646C, symSize: 0x120 }
  - { offset: 0xEB74B, size: 0x8, addend: 0x0, symName: __ZN3std3sys3net10connection6socket9UdpSocket7send_to17h991dc7a72c5c9d47E, symObjAddr: 0x422A0, symBinAddr: 0x4658C, symSize: 0xBC }
  - { offset: 0xEB76A, size: 0x8, addend: 0x0, symName: __ZN3std3sys3net10connection6socket9UdpSocket7send_to17h991dc7a72c5c9d47E, symObjAddr: 0x422A0, symBinAddr: 0x4658C, symSize: 0xBC }
  - { offset: 0xEB90E, size: 0x8, addend: 0x0, symName: __ZN3std3sys3net10connection6socket9UdpSocket7connect17h45fbebbaedc2408eE, symObjAddr: 0x4235C, symBinAddr: 0x46648, symSize: 0xD4 }
  - { offset: 0xEBB29, size: 0x8, addend: 0x0, symName: '__ZN103_$LT$std..sys..net..connection..socket..LookupHost$u20$as$u20$core..convert..TryFrom$LT$$RF$str$GT$$GT$8try_from17hf7b30daa4409a469E', symObjAddr: 0x41518, symBinAddr: 0x45804, symSize: 0x1E4 }
  - { offset: 0xEBE29, size: 0x8, addend: 0x0, symName: '__ZN81_$LT$std..sys..net..connection..socket..TcpStream$u20$as$u20$core..fmt..Debug$GT$3fmt17h09cbc414cb1561c8E', symObjAddr: 0x41BCC, symBinAddr: 0x45EB8, symSize: 0x1DC }
  - { offset: 0xEC34F, size: 0x8, addend: 0x0, symName: '__ZN83_$LT$std..sys..net..connection..socket..TcpListener$u20$as$u20$core..fmt..Debug$GT$3fmt17h3f4c9171478ceaa2E', symObjAddr: 0x4204C, symBinAddr: 0x46338, symSize: 0x134 }
  - { offset: 0xEC5D7, size: 0x8, addend: 0x0, symName: '__ZN81_$LT$std..sys..net..connection..socket..UdpSocket$u20$as$u20$core..fmt..Debug$GT$3fmt17h73506a99a567ddafE', symObjAddr: 0x42430, symBinAddr: 0x4671C, symSize: 0x134 }
  - { offset: 0xEC876, size: 0x8, addend: 0x0, symName: __ZN3std3sys6random19hashmap_random_keys17h5db5fb3e6a5b8ae5E, symObjAddr: 0x39A54, symBinAddr: 0x3E2D0, symSize: 0x70 }
  - { offset: 0xEC947, size: 0x8, addend: 0x0, symName: __ZN3std3sys5alloc16realloc_fallback17hd0ab4c0615f33e84E, symObjAddr: 0x372B4, symBinAddr: 0x3BB30, symSize: 0xB0 }
  - { offset: 0xECC31, size: 0x8, addend: 0x0, symName: __ZN3std3ffi6os_str8OsString17into_boxed_os_str17h1b99af656a8d917bE, symObjAddr: 0x2264C, symBinAddr: 0x27AD0, symSize: 0xA0 }
  - { offset: 0xECE72, size: 0x8, addend: 0x0, symName: __ZN3std3ffi6os_str5OsStr14into_os_string17h87f0640b05cbcd1fE, symObjAddr: 0x2276C, symBinAddr: 0x27BF0, symSize: 0x18 }
  - { offset: 0xECE8D, size: 0x8, addend: 0x0, symName: __ZN3std3ffi6os_str5OsStr18to_ascii_lowercase17hc3ee0acad70d81dbE, symObjAddr: 0x22784, symBinAddr: 0x27C08, symSize: 0x194 }
  - { offset: 0xED02B, size: 0x8, addend: 0x0, symName: __ZN3std3ffi6os_str5OsStr18to_ascii_uppercase17h5a6060e6bacc7fecE, symObjAddr: 0x22918, symBinAddr: 0x27D9C, symSize: 0x194 }
  - { offset: 0xED29B, size: 0x8, addend: 0x0, symName: '__ZN63_$LT$std..ffi..os_str..OsString$u20$as$u20$core..fmt..Write$GT$9write_str17h0badaf951c2677c8E', symObjAddr: 0x226EC, symBinAddr: 0x27B70, symSize: 0x80 }
  - { offset: 0xED446, size: 0x8, addend: 0x0, symName: '__ZN3std3ffi6os_str95_$LT$impl$u20$core..convert..TryFrom$LT$$RF$std..ffi..os_str..OsStr$GT$$u20$for$u20$$RF$str$GT$8try_from17heebe93491051f15eE', symObjAddr: 0x22AAC, symBinAddr: 0x27F30, symSize: 0x10 }
  - { offset: 0xED47F, size: 0x8, addend: 0x0, symName: '__ZN62_$LT$std..ffi..os_str..Display$u20$as$u20$core..fmt..Debug$GT$3fmt17hc734ad50686c8d67E', symObjAddr: 0x22ABC, symBinAddr: 0x27F40, symSize: 0x28 }
  - { offset: 0xED503, size: 0x8, addend: 0x0, symName: '__ZN64_$LT$std..ffi..os_str..Display$u20$as$u20$core..fmt..Display$GT$3fmt17h12cda9509329515dE', symObjAddr: 0x22AE4, symBinAddr: 0x27F68, symSize: 0xAC }
  - { offset: 0xED6FA, size: 0x8, addend: 0x0, symName: '__ZN67_$LT$std..os..fd..owned..BorrowedFd$u20$as$u20$core..fmt..Debug$GT$3fmt17ha9cd42c4bffa0ca5E', symObjAddr: 0x30E2C, symBinAddr: 0x35FA0, symSize: 0x64 }
  - { offset: 0xED722, size: 0x8, addend: 0x0, symName: '__ZN64_$LT$std..os..fd..owned..OwnedFd$u20$as$u20$core..fmt..Debug$GT$3fmt17h4767c36e0ace7564E', symObjAddr: 0x30E90, symBinAddr: 0x36004, symSize: 0x64 }
  - { offset: 0xED75E, size: 0x8, addend: 0x0, symName: __ZN3std2os2fd5owned10BorrowedFd18try_clone_to_owned17h3fd11a8be6bd77acE, symObjAddr: 0x30DC4, symBinAddr: 0x35F38, symSize: 0x68 }
  - { offset: 0xED81A, size: 0x8, addend: 0x0, symName: __ZN3std2os2fd5owned7OwnedFd9try_clone17he663b3185223a535E, symObjAddr: 0x30D5C, symBinAddr: 0x35ED0, symSize: 0x68 }
  - { offset: 0xEDA5F, size: 0x8, addend: 0x0, symName: '__ZN70_$LT$std..io..pipe..PipeReader$u20$as$u20$std..os..fd..owned..AsFd$GT$5as_fd17h16b01e1f56baa92bE', symObjAddr: 0x30EF4, symBinAddr: 0x36068, symSize: 0x14 }
  - { offset: 0xEDB12, size: 0x8, addend: 0x0, symName: '__ZN60_$LT$std..fs..File$u20$as$u20$std..os..unix..fs..FileExt$GT$7read_at17hcdc4989c4507f279E', symObjAddr: 0x2EC98, symBinAddr: 0x33E0C, symSize: 0x58 }
  - { offset: 0xEDC0E, size: 0x8, addend: 0x0, symName: '__ZN60_$LT$std..fs..File$u20$as$u20$std..os..unix..fs..FileExt$GT$16read_vectored_at17h5b00717a5a91a884E', symObjAddr: 0x2ECF0, symBinAddr: 0x33E64, symSize: 0x10 }
  - { offset: 0xEDC40, size: 0x8, addend: 0x0, symName: '__ZN60_$LT$std..fs..File$u20$as$u20$std..os..unix..fs..FileExt$GT$8write_at17h1c893a366804f072E', symObjAddr: 0x2ED00, symBinAddr: 0x33E74, symSize: 0x58 }
  - { offset: 0xEDD3E, size: 0x8, addend: 0x0, symName: '__ZN60_$LT$std..fs..File$u20$as$u20$std..os..unix..fs..FileExt$GT$17write_vectored_at17hceccd26251856df5E', symObjAddr: 0x2ED58, symBinAddr: 0x33ECC, symSize: 0x10 }
  - { offset: 0xEDD77, size: 0x8, addend: 0x0, symName: '__ZN69_$LT$std..fs..DirEntry$u20$as$u20$std..os..unix..fs..DirEntryExt2$GT$13file_name_ref17hf3028ddc684a8f42E', symObjAddr: 0x2ED68, symBinAddr: 0x33EDC, symSize: 0x18 }
  - { offset: 0xEDDE3, size: 0x8, addend: 0x0, symName: __ZN3std2os4unix3net4addr11sockaddr_un17hedf9033e13f8f058E, symObjAddr: 0x2ED80, symBinAddr: 0x33EF4, symSize: 0x124 }
  - { offset: 0xEDED9, size: 0x8, addend: 0x0, symName: __ZN3std2os4unix3net4addr10SocketAddr10is_unnamed17h81378cbb48d1e140E, symObjAddr: 0x2EEA4, symBinAddr: 0x34018, symSize: 0x44 }
  - { offset: 0xEDF2C, size: 0x8, addend: 0x0, symName: __ZN3std2os4unix3net4addr10SocketAddr11as_pathname17h80748e6217b2b7b9E, symObjAddr: 0x2EEE8, symBinAddr: 0x3405C, symSize: 0x48 }
  - { offset: 0xEDFE1, size: 0x8, addend: 0x0, symName: '__ZN73_$LT$std..os..unix..net..addr..SocketAddr$u20$as$u20$core..fmt..Debug$GT$3fmt17h9bed6367485bcb29E', symObjAddr: 0x2EF30, symBinAddr: 0x340A4, symSize: 0xAC }
  - { offset: 0xEE0B0, size: 0x8, addend: 0x0, symName: __ZN3std2os4unix3net8datagram12UnixDatagram9bind_addr17h8034af6710ede1d7E, symObjAddr: 0x2F358, symBinAddr: 0x344CC, symSize: 0xB4 }
  - { offset: 0xEE1EB, size: 0x8, addend: 0x0, symName: __ZN3std2os4unix3net8datagram12UnixDatagram7unbound17h2a32bd3e0c75167fE, symObjAddr: 0x2F40C, symBinAddr: 0x34580, symSize: 0x60 }
  - { offset: 0xEE223, size: 0x8, addend: 0x0, symName: __ZN3std2os4unix3net8datagram12UnixDatagram4pair17h02da918d343c4abeE, symObjAddr: 0x2F46C, symBinAddr: 0x345E0, symSize: 0x5C }
  - { offset: 0xEE261, size: 0x8, addend: 0x0, symName: __ZN3std2os4unix3net8datagram12UnixDatagram12connect_addr17hddb574bc1c1e849aE, symObjAddr: 0x2F4C8, symBinAddr: 0x3463C, symSize: 0x3C }
  - { offset: 0xEE33D, size: 0x8, addend: 0x0, symName: __ZN3std2os4unix3net8datagram12UnixDatagram9recv_from17hbab3e6cf232a2764E, symObjAddr: 0x2F504, symBinAddr: 0x34678, symSize: 0x118 }
  - { offset: 0xEE4BF, size: 0x8, addend: 0x0, symName: __ZN3std2os4unix3net8datagram12UnixDatagram4recv17h15895eb1e36c943eE, symObjAddr: 0x2F61C, symBinAddr: 0x34790, symSize: 0x44 }
  - { offset: 0xEE57A, size: 0x8, addend: 0x0, symName: __ZN3std2os4unix3net8datagram12UnixDatagram12send_to_addr17he908ebdbd7f3bd01E, symObjAddr: 0x2F660, symBinAddr: 0x347D4, symSize: 0x58 }
  - { offset: 0xEE661, size: 0x8, addend: 0x0, symName: __ZN3std2os4unix3net8datagram12UnixDatagram4send17h9e1c34ca66a854f6E, symObjAddr: 0x2F6B8, symBinAddr: 0x3482C, symSize: 0x58 }
  - { offset: 0xEE75F, size: 0x8, addend: 0x0, symName: __ZN3std2os4unix3net8datagram12UnixDatagram9peek_from17h2a1bc2cd2988a382E, symObjAddr: 0x2F710, symBinAddr: 0x34884, symSize: 0x118 }
  - { offset: 0xEE92E, size: 0x8, addend: 0x0, symName: '__ZN79_$LT$std..os..unix..net..datagram..UnixDatagram$u20$as$u20$core..fmt..Debug$GT$3fmt17h42259bf81e7eea5fE', symObjAddr: 0x2EFDC, symBinAddr: 0x34150, symSize: 0x37C }
  - { offset: 0xEEFF5, size: 0x8, addend: 0x0, symName: __ZN3std2os4unix3net8listener12UnixListener9bind_addr17hded9c83779b228c6E, symObjAddr: 0x2FA2C, symBinAddr: 0x34BA0, symSize: 0xC8 }
  - { offset: 0xEF13A, size: 0x8, addend: 0x0, symName: __ZN3std2os4unix3net8listener12UnixListener6accept17h7c4e4731b94e7169E, symObjAddr: 0x2FAF4, symBinAddr: 0x34C68, symSize: 0x148 }
  - { offset: 0xEF3CC, size: 0x8, addend: 0x0, symName: '__ZN79_$LT$std..os..unix..net..listener..UnixListener$u20$as$u20$core..fmt..Debug$GT$3fmt17h33a1d1ab0d93bb39E', symObjAddr: 0x2F828, symBinAddr: 0x3499C, symSize: 0x204 }
  - { offset: 0xEF6D9, size: 0x8, addend: 0x0, symName: '__ZN97_$LT$std..os..unix..net..listener..Incoming$u20$as$u20$core..iter..traits..iterator..Iterator$GT$4next17h27c6b6c708475eddE', symObjAddr: 0x2FC3C, symBinAddr: 0x34DB0, symSize: 0x40 }
  - { offset: 0xEF733, size: 0x8, addend: 0x0, symName: __ZN3std2os4unix3net6stream10UnixStream12connect_addr17h6ef16caacd4ce36aE, symObjAddr: 0x2FFF8, symBinAddr: 0x3516C, symSize: 0xB4 }
  - { offset: 0xEF849, size: 0x8, addend: 0x0, symName: __ZN3std2os4unix3net6stream10UnixStream4pair17h7f617ee8ec1f23b1E, symObjAddr: 0x300AC, symBinAddr: 0x35220, symSize: 0x5C }
  - { offset: 0xEF887, size: 0x8, addend: 0x0, symName: __ZN3std2os4unix3net6stream10UnixStream10local_addr17h5a6cb350fec1933eE, symObjAddr: 0x30108, symBinAddr: 0x3527C, symSize: 0xE4 }
  - { offset: 0xEF996, size: 0x8, addend: 0x0, symName: __ZN3std2os4unix3net6stream10UnixStream9peer_addr17h726b0ba69311ba2aE, symObjAddr: 0x301EC, symBinAddr: 0x35360, symSize: 0xE4 }
  - { offset: 0xEFAA5, size: 0x8, addend: 0x0, symName: __ZN3std2os4unix3net6stream10UnixStream9peer_cred17h41ea73293503f39dE, symObjAddr: 0x302D0, symBinAddr: 0x35444, symSize: 0xD0 }
  - { offset: 0xEFB88, size: 0x8, addend: 0x0, symName: __ZN3std2os4unix3net6stream10UnixStream16set_read_timeout17h576f81acd8a97508E, symObjAddr: 0x303A0, symBinAddr: 0x35514, symSize: 0xC0 }
  - { offset: 0xEFC50, size: 0x8, addend: 0x0, symName: __ZN3std2os4unix3net6stream10UnixStream17set_write_timeout17ha6c4a989fcd355e0E, symObjAddr: 0x30460, symBinAddr: 0x355D4, symSize: 0xC0 }
  - { offset: 0xEFD18, size: 0x8, addend: 0x0, symName: __ZN3std2os4unix3net6stream10UnixStream12read_timeout17h04240e8b69311633E, symObjAddr: 0x30520, symBinAddr: 0x35694, symSize: 0xE8 }
  - { offset: 0xEFE64, size: 0x8, addend: 0x0, symName: __ZN3std2os4unix3net6stream10UnixStream13write_timeout17h5f096398bb596457E, symObjAddr: 0x30608, symBinAddr: 0x3577C, symSize: 0xE8 }
  - { offset: 0xEFFB0, size: 0x8, addend: 0x0, symName: __ZN3std2os4unix3net6stream10UnixStream15set_nonblocking17h1041e7a3ec72f5e4E, symObjAddr: 0x306F0, symBinAddr: 0x35864, symSize: 0x54 }
  - { offset: 0xF0054, size: 0x8, addend: 0x0, symName: __ZN3std2os4unix3net6stream10UnixStream10take_error17hed295f7a49b57816E, symObjAddr: 0x30744, symBinAddr: 0x358B8, symSize: 0x74 }
  - { offset: 0xF016E, size: 0x8, addend: 0x0, symName: __ZN3std2os4unix3net6stream10UnixStream8shutdown17he94bc5dae6384df0E, symObjAddr: 0x307B8, symBinAddr: 0x3592C, symSize: 0x3C }
  - { offset: 0xF0212, size: 0x8, addend: 0x0, symName: __ZN3std2os4unix3net6stream10UnixStream4peek17h2b05b3f59feb7fb4E, symObjAddr: 0x307F4, symBinAddr: 0x35968, symSize: 0x44 }
  - { offset: 0xF0303, size: 0x8, addend: 0x0, symName: '__ZN75_$LT$std..os..unix..net..stream..UnixStream$u20$as$u20$core..fmt..Debug$GT$3fmt17hcf6d2110ed3cef6fE', symObjAddr: 0x2FC7C, symBinAddr: 0x34DF0, symSize: 0x37C }
  - { offset: 0xF09AD, size: 0x8, addend: 0x0, symName: '__ZN76_$LT$$RF$std..os..unix..net..stream..UnixStream$u20$as$u20$std..io..Read$GT$8read_buf17hc320f1314ce1a590E', symObjAddr: 0x30944, symBinAddr: 0x35AB8, symSize: 0x74 }
  - { offset: 0xF0B3A, size: 0x8, addend: 0x0, symName: '__ZN72_$LT$std..os..unix..net..stream..UnixStream$u20$as$u20$std..io..Read$GT$4read17hce5860e561fbf277E', symObjAddr: 0x30838, symBinAddr: 0x359AC, symSize: 0x44 }
  - { offset: 0xF0C0C, size: 0x8, addend: 0x0, symName: '__ZN72_$LT$std..os..unix..net..stream..UnixStream$u20$as$u20$std..io..Read$GT$8read_buf17h1f56f3234ba80b95E', symObjAddr: 0x3087C, symBinAddr: 0x359F0, symSize: 0x70 }
  - { offset: 0xF0DB0, size: 0x8, addend: 0x0, symName: '__ZN72_$LT$std..os..unix..net..stream..UnixStream$u20$as$u20$std..io..Read$GT$13read_vectored17hc2c67c9a376b351aE', symObjAddr: 0x308EC, symBinAddr: 0x35A60, symSize: 0x58 }
  - { offset: 0xF0EED, size: 0x8, addend: 0x0, symName: '__ZN76_$LT$std..process..Command$u20$as$u20$std..os..unix..process..CommandExt$GT$6groups17h509a89215032ca49E', symObjAddr: 0x309B8, symBinAddr: 0x35B2C, symSize: 0xD8 }
  - { offset: 0xF10BA, size: 0x8, addend: 0x0, symName: '__ZN76_$LT$std..process..Command$u20$as$u20$std..os..unix..process..CommandExt$GT$4exec17h7eca06882aab3de8E', symObjAddr: 0x30A90, symBinAddr: 0x35C04, symSize: 0x284 }
  - { offset: 0xF17DC, size: 0x8, addend: 0x0, symName: '__ZN87_$LT$std..process..ExitStatusError$u20$as$u20$std..os..unix..process..ExitStatusExt$GT$8from_raw17h7f0600a7944e50fcE', symObjAddr: 0x30D14, symBinAddr: 0x35E88, symSize: 0x38 }
  - { offset: 0xF1807, size: 0x8, addend: 0x0, symName: __ZN3std2os4unix7process9parent_id17ha3fcfff0936e4622E, symObjAddr: 0x30D4C, symBinAddr: 0x35EC0, symSize: 0x10 }
  - { offset: 0xF18A2, size: 0x8, addend: 0x0, symName: '__ZN81_$LT$std..io..default_write_fmt..Adapter$LT$T$GT$$u20$as$u20$core..fmt..Write$GT$9write_str17h0fd05df8aac73cd1E', symObjAddr: 0x2C384, symBinAddr: 0x314F8, symSize: 0x50 }
  - { offset: 0xF18CD, size: 0x8, addend: 0x0, symName: '__ZN81_$LT$std..io..default_write_fmt..Adapter$LT$T$GT$$u20$as$u20$core..fmt..Write$GT$9write_str17h30b6a44d34948756E', symObjAddr: 0x2C3D4, symBinAddr: 0x31548, symSize: 0xD8 }
  - { offset: 0xF1A31, size: 0x8, addend: 0x0, symName: '__ZN81_$LT$std..io..default_write_fmt..Adapter$LT$T$GT$$u20$as$u20$core..fmt..Write$GT$9write_str17h3614dc7dd814e7a1E', symObjAddr: 0x2C4AC, symBinAddr: 0x31620, symSize: 0xA0 }
  - { offset: 0xF1B7E, size: 0x8, addend: 0x0, symName: '__ZN81_$LT$std..io..default_write_fmt..Adapter$LT$T$GT$$u20$as$u20$core..fmt..Write$GT$9write_str17h76f40b0688290078E', symObjAddr: 0x2C54C, symBinAddr: 0x316C0, symSize: 0xD8 }
  - { offset: 0xF1CE2, size: 0x8, addend: 0x0, symName: '__ZN81_$LT$std..io..default_write_fmt..Adapter$LT$T$GT$$u20$as$u20$core..fmt..Write$GT$9write_str17h9bcb6dbdc9e78be8E', symObjAddr: 0x2C624, symBinAddr: 0x31798, symSize: 0x80 }
  - { offset: 0xF1E3F, size: 0x8, addend: 0x0, symName: '__ZN81_$LT$std..io..default_write_fmt..Adapter$LT$T$GT$$u20$as$u20$core..fmt..Write$GT$9write_str17hcf1dec46859ceda0E', symObjAddr: 0x2C6A4, symBinAddr: 0x31818, symSize: 0x50 }
  - { offset: 0xF1EF4, size: 0x8, addend: 0x0, symName: '__ZN3std2io5impls74_$LT$impl$u20$std..io..Write$u20$for$u20$alloc..vec..Vec$LT$u8$C$A$GT$$GT$5write17hc35c17c3fb81f0baE', symObjAddr: 0x26738, symBinAddr: 0x2B99C, symSize: 0x84 }
  - { offset: 0xF2049, size: 0x8, addend: 0x0, symName: '__ZN3std2io5impls74_$LT$impl$u20$std..io..Write$u20$for$u20$alloc..vec..Vec$LT$u8$C$A$GT$$GT$14write_vectored17hcd7513a3b09272baE', symObjAddr: 0x267BC, symBinAddr: 0x2BA20, symSize: 0x174 }
  - { offset: 0xF22B5, size: 0x8, addend: 0x0, symName: '__ZN3std2io5impls74_$LT$impl$u20$std..io..Write$u20$for$u20$alloc..vec..Vec$LT$u8$C$A$GT$$GT$17is_write_vectored17ha03d1adac00d2044E', symObjAddr: 0x26930, symBinAddr: 0x2BB94, symSize: 0x14 }
  - { offset: 0xF22D0, size: 0x8, addend: 0x0, symName: '__ZN3std2io5impls74_$LT$impl$u20$std..io..Write$u20$for$u20$alloc..vec..Vec$LT$u8$C$A$GT$$GT$9write_all17h64a33fba3b482d7eE', symObjAddr: 0x26944, symBinAddr: 0x2BBA8, symSize: 0x80 }
  - { offset: 0xF242C, size: 0x8, addend: 0x0, symName: '__ZN3std2io5impls74_$LT$impl$u20$std..io..Write$u20$for$u20$alloc..vec..Vec$LT$u8$C$A$GT$$GT$18write_all_vectored17h59794dc27a655395E', symObjAddr: 0x269C4, symBinAddr: 0x2BC28, symSize: 0x168 }
  - { offset: 0xF2459, size: 0x8, addend: 0x0, symName: '__ZN3std2io5impls74_$LT$impl$u20$std..io..Write$u20$for$u20$alloc..vec..Vec$LT$u8$C$A$GT$$GT$18write_all_vectored17h59794dc27a655395E', symObjAddr: 0x269C4, symBinAddr: 0x2BC28, symSize: 0x168 }
  - { offset: 0xF246F, size: 0x8, addend: 0x0, symName: '__ZN3std2io5impls74_$LT$impl$u20$std..io..Write$u20$for$u20$alloc..vec..Vec$LT$u8$C$A$GT$$GT$18write_all_vectored17h59794dc27a655395E', symObjAddr: 0x269C4, symBinAddr: 0x2BC28, symSize: 0x168 }
  - { offset: 0xF2485, size: 0x8, addend: 0x0, symName: '__ZN3std2io5impls74_$LT$impl$u20$std..io..Write$u20$for$u20$alloc..vec..Vec$LT$u8$C$A$GT$$GT$18write_all_vectored17h59794dc27a655395E', symObjAddr: 0x269C4, symBinAddr: 0x2BC28, symSize: 0x168 }
  - { offset: 0xF249A, size: 0x8, addend: 0x0, symName: '__ZN3std2io5impls74_$LT$impl$u20$std..io..Write$u20$for$u20$alloc..vec..Vec$LT$u8$C$A$GT$$GT$18write_all_vectored17h59794dc27a655395E', symObjAddr: 0x269C4, symBinAddr: 0x2BC28, symSize: 0x168 }
  - { offset: 0xF26CE, size: 0x8, addend: 0x0, symName: '__ZN3std2io5impls74_$LT$impl$u20$std..io..Write$u20$for$u20$alloc..vec..Vec$LT$u8$C$A$GT$$GT$5flush17he3384bf858cc4f1bE', symObjAddr: 0x26B2C, symBinAddr: 0x2BD90, symSize: 0x14 }
  - { offset: 0xF2790, size: 0x8, addend: 0x0, symName: __ZN3std2io5error5Error3new17hb1684aef14f0074aE, symObjAddr: 0x25F74, symBinAddr: 0x2B1D8, symSize: 0x80 }
  - { offset: 0xF285E, size: 0x8, addend: 0x0, symName: __ZN3std2io5error5Error3new17hc43ea9265ab99269E, symObjAddr: 0x25FF4, symBinAddr: 0x2B258, symSize: 0x138 }
  - { offset: 0xF2BBE, size: 0x8, addend: 0x0, symName: __ZN3std2io5error5Error4_new17hc78123329138c4b3E, symObjAddr: 0x2612C, symBinAddr: 0x2B390, symSize: 0x84 }
  - { offset: 0xF2DBE, size: 0x8, addend: 0x0, symName: __ZN3std2io5error14repr_bitpacked4Repr3new17he3afd267c821c5b2E, symObjAddr: 0x25E48, symBinAddr: 0x2B0AC, symSize: 0x58 }
  - { offset: 0xF2F93, size: 0x8, addend: 0x0, symName: __ZN3std2io5error14repr_bitpacked11decode_repr17h5d8a9ce8bbb54674E, symObjAddr: 0x25EA0, symBinAddr: 0x2B104, symSize: 0x64 }
  - { offset: 0xF3000, size: 0x8, addend: 0x0, symName: '__ZN58_$LT$std..io..error..Error$u20$as$u20$core..fmt..Debug$GT$3fmt17hff772459286273d3E', symObjAddr: 0x25F04, symBinAddr: 0x2B168, symSize: 0x10 }
  - { offset: 0xF3063, size: 0x8, addend: 0x0, symName: '__ZN96_$LT$std..io..error..Error$u20$as$u20$core..convert..From$LT$alloc..ffi..c_str..NulError$GT$$GT$4from17h9b6e977f4983c5cbE', symObjAddr: 0x25F14, symBinAddr: 0x2B178, symSize: 0x2C }
  - { offset: 0xF3081, size: 0x8, addend: 0x0, symName: '__ZN96_$LT$std..io..error..Error$u20$as$u20$core..convert..From$LT$alloc..ffi..c_str..NulError$GT$$GT$4from17h9b6e977f4983c5cbE', symObjAddr: 0x25F14, symBinAddr: 0x2B178, symSize: 0x2C }
  - { offset: 0xF3096, size: 0x8, addend: 0x0, symName: '__ZN96_$LT$std..io..error..Error$u20$as$u20$core..convert..From$LT$alloc..ffi..c_str..NulError$GT$$GT$4from17h9b6e977f4983c5cbE', symObjAddr: 0x25F14, symBinAddr: 0x2B178, symSize: 0x2C }
  - { offset: 0xF3137, size: 0x8, addend: 0x0, symName: '__ZN64_$LT$std..io..error..ErrorKind$u20$as$u20$core..fmt..Display$GT$3fmt17h58a72c062553ed8aE', symObjAddr: 0x25F40, symBinAddr: 0x2B1A4, symSize: 0x34 }
  - { offset: 0xF3184, size: 0x8, addend: 0x0, symName: '__ZN3std2io5error83_$LT$impl$u20$core..fmt..Debug$u20$for$u20$std..io..error..repr_bitpacked..Repr$GT$3fmt17h4427534c2144797aE', symObjAddr: 0x261B0, symBinAddr: 0x2B414, symSize: 0x294 }
  - { offset: 0xF33ED, size: 0x8, addend: 0x0, symName: '__ZN60_$LT$std..io..error..Error$u20$as$u20$core..fmt..Display$GT$3fmt17h6b4fbeff4f35da1fE', symObjAddr: 0x26444, symBinAddr: 0x2B6A8, symSize: 0x204 }
  - { offset: 0xF366B, size: 0x8, addend: 0x0, symName: '__ZN60_$LT$std..io..error..Error$u20$as$u20$core..error..Error$GT$11description17h767c08044f8c083eE', symObjAddr: 0x26648, symBinAddr: 0x2B8AC, symSize: 0x80 }
  - { offset: 0xF36FB, size: 0x8, addend: 0x0, symName: '__ZN60_$LT$std..io..error..Error$u20$as$u20$core..error..Error$GT$5cause17hb4825bb9f7eaba3cE', symObjAddr: 0x266C8, symBinAddr: 0x2B92C, symSize: 0x38 }
  - { offset: 0xF371A, size: 0x8, addend: 0x0, symName: '__ZN60_$LT$std..io..error..Error$u20$as$u20$core..error..Error$GT$5cause17hb4825bb9f7eaba3cE', symObjAddr: 0x266C8, symBinAddr: 0x2B92C, symSize: 0x38 }
  - { offset: 0xF3743, size: 0x8, addend: 0x0, symName: '__ZN60_$LT$std..io..error..Error$u20$as$u20$core..error..Error$GT$6source17h1897349aeea23ebdE', symObjAddr: 0x26700, symBinAddr: 0x2B964, symSize: 0x38 }
  - { offset: 0xF3762, size: 0x8, addend: 0x0, symName: '__ZN60_$LT$std..io..error..Error$u20$as$u20$core..error..Error$GT$6source17h1897349aeea23ebdE', symObjAddr: 0x26700, symBinAddr: 0x2B964, symSize: 0x38 }
  - { offset: 0xF3792, size: 0x8, addend: 0x0, symName: '__ZN62_$LT$std..io..error..ErrorKind$u20$as$u20$core..fmt..Debug$GT$3fmt17h64a2b482f1a7ae72E', symObjAddr: 0x3CBF0, symBinAddr: 0x41024, symSize: 0x34 }
  - { offset: 0xF3824, size: 0x8, addend: 0x0, symName: __ZN3std2io5Write9write_all17h3d2c204510644cd3E, symObjAddr: 0x2C774, symBinAddr: 0x318E8, symSize: 0xB8 }
  - { offset: 0xF3963, size: 0x8, addend: 0x0, symName: __ZN3std2io5Write18write_all_vectored17hb77a76681dbdbd13E, symObjAddr: 0x2C82C, symBinAddr: 0x319A0, symSize: 0x1CC }
  - { offset: 0xF3C62, size: 0x8, addend: 0x0, symName: __ZN3std2io5Write9write_fmt17h42db8718b4362b82E, symObjAddr: 0x2C9F8, symBinAddr: 0x31B6C, symSize: 0x128 }
  - { offset: 0xF3EC7, size: 0x8, addend: 0x0, symName: __ZN3std2io5Write9write_fmt17he72d49f3084ee601E, symObjAddr: 0x2CB20, symBinAddr: 0x31C94, symSize: 0x128 }
  - { offset: 0xF412C, size: 0x8, addend: 0x0, symName: __ZN3std2io5Write9write_fmt17hee580fb33ba5bfa5E, symObjAddr: 0x2CC48, symBinAddr: 0x31DBC, symSize: 0x128 }
  - { offset: 0xF4404, size: 0x8, addend: 0x0, symName: '__ZN58_$LT$std..io..stdio..StdinRaw$u20$as$u20$std..io..Read$GT$4read17h49bebe15af7a266bE', symObjAddr: 0x26E68, symBinAddr: 0x2C0CC, symSize: 0x78 }
  - { offset: 0xF450C, size: 0x8, addend: 0x0, symName: '__ZN58_$LT$std..io..stdio..StdinRaw$u20$as$u20$std..io..Read$GT$8read_buf17h30022c9d462d329fE', symObjAddr: 0x26EE0, symBinAddr: 0x2C144, symSize: 0x88 }
  - { offset: 0xF46CD, size: 0x8, addend: 0x0, symName: '__ZN58_$LT$std..io..stdio..StdinRaw$u20$as$u20$std..io..Read$GT$13read_vectored17h7cd8a82b8ec7b1d2E', symObjAddr: 0x26F68, symBinAddr: 0x2C1CC, symSize: 0x78 }
  - { offset: 0xF47D5, size: 0x8, addend: 0x0, symName: '__ZN58_$LT$std..io..stdio..StdinRaw$u20$as$u20$std..io..Read$GT$10read_exact17h5a1960cf631350efE', symObjAddr: 0x26FE0, symBinAddr: 0x2C244, symSize: 0xDC }
  - { offset: 0xF494A, size: 0x8, addend: 0x0, symName: '__ZN58_$LT$std..io..stdio..StdinRaw$u20$as$u20$std..io..Read$GT$14read_buf_exact17h7bea27c9f2c21e14E', symObjAddr: 0x270BC, symBinAddr: 0x2C320, symSize: 0xE4 }
  - { offset: 0xF4B62, size: 0x8, addend: 0x0, symName: '__ZN58_$LT$std..io..stdio..StdinRaw$u20$as$u20$std..io..Read$GT$11read_to_end17h5dee1dcba4671485E', symObjAddr: 0x271A0, symBinAddr: 0x2C404, symSize: 0x3C }
  - { offset: 0xF4BA1, size: 0x8, addend: 0x0, symName: '__ZN58_$LT$std..io..stdio..StdinRaw$u20$as$u20$std..io..Read$GT$14read_to_string17he2ef196ba0535248E', symObjAddr: 0x271DC, symBinAddr: 0x2C440, symSize: 0xDC }
  - { offset: 0xF4E71, size: 0x8, addend: 0x0, symName: '__ZN60_$LT$std..io..stdio..StdoutRaw$u20$as$u20$std..io..Write$GT$5write17hdcff0665270af924E', symObjAddr: 0x272B8, symBinAddr: 0x2C51C, symSize: 0x7C }
  - { offset: 0xF4F7B, size: 0x8, addend: 0x0, symName: '__ZN60_$LT$std..io..stdio..StdoutRaw$u20$as$u20$std..io..Write$GT$14write_vectored17h14382639de683c29E', symObjAddr: 0x27334, symBinAddr: 0x2C598, symSize: 0x108 }
  - { offset: 0xF5108, size: 0x8, addend: 0x0, symName: '__ZN60_$LT$std..io..stdio..StdoutRaw$u20$as$u20$std..io..Write$GT$9write_all17hd2d01080e979b5bcE', symObjAddr: 0x2743C, symBinAddr: 0x2C6A0, symSize: 0xC8 }
  - { offset: 0xF526A, size: 0x8, addend: 0x0, symName: '__ZN60_$LT$std..io..stdio..StdoutRaw$u20$as$u20$std..io..Write$GT$18write_all_vectored17hf89721e5d836a37bE', symObjAddr: 0x27504, symBinAddr: 0x2C768, symSize: 0x1D4 }
  - { offset: 0xF5503, size: 0x8, addend: 0x0, symName: '__ZN60_$LT$std..io..stdio..StdoutRaw$u20$as$u20$std..io..Write$GT$9write_fmt17hfc5308919721a491E', symObjAddr: 0x276D8, symBinAddr: 0x2C93C, symSize: 0x138 }
  - { offset: 0xF5813, size: 0x8, addend: 0x0, symName: '__ZN60_$LT$std..io..stdio..StderrRaw$u20$as$u20$std..io..Write$GT$5write17h9405098927672d95E', symObjAddr: 0x27810, symBinAddr: 0x2CA74, symSize: 0x7C }
  - { offset: 0xF5931, size: 0x8, addend: 0x0, symName: '__ZN60_$LT$std..io..stdio..StderrRaw$u20$as$u20$std..io..Write$GT$14write_vectored17he035db4d89ac28a8E', symObjAddr: 0x2788C, symBinAddr: 0x2CAF0, symSize: 0x108 }
  - { offset: 0xF5ABE, size: 0x8, addend: 0x0, symName: '__ZN60_$LT$std..io..stdio..StderrRaw$u20$as$u20$std..io..Write$GT$5flush17h2aea6ef2bf2e3d1eE', symObjAddr: 0x27994, symBinAddr: 0x2CBF8, symSize: 0x14 }
  - { offset: 0xF5AD8, size: 0x8, addend: 0x0, symName: '__ZN60_$LT$std..io..stdio..StderrRaw$u20$as$u20$std..io..Write$GT$9write_all17h92cb44918ef78057E', symObjAddr: 0x279A8, symBinAddr: 0x2CC0C, symSize: 0xC8 }
  - { offset: 0xF5C3A, size: 0x8, addend: 0x0, symName: '__ZN60_$LT$std..io..stdio..StderrRaw$u20$as$u20$std..io..Write$GT$18write_all_vectored17h9ef7b7a92eec900dE', symObjAddr: 0x27A70, symBinAddr: 0x2CCD4, symSize: 0x28 }
  - { offset: 0xF5C64, size: 0x8, addend: 0x0, symName: '__ZN60_$LT$std..io..stdio..StderrRaw$u20$as$u20$std..io..Write$GT$9write_fmt17hc72d33dd67f8418dE', symObjAddr: 0x27A98, symBinAddr: 0x2CCFC, symSize: 0x28 }
  - { offset: 0xF5CFD, size: 0x8, addend: 0x0, symName: __ZN3std2io5stdio5stdin17h0fd34bfc41a2c3e8E, symObjAddr: 0x27AC0, symBinAddr: 0x2CD24, symSize: 0x3C }
  - { offset: 0xF5D38, size: 0x8, addend: 0x0, symName: __ZN3std2io5stdio5stdin17h0fd34bfc41a2c3e8E, symObjAddr: 0x27AC0, symBinAddr: 0x2CD24, symSize: 0x3C }
  - { offset: 0xF5D4E, size: 0x8, addend: 0x0, symName: __ZN3std2io5stdio5stdin17h0fd34bfc41a2c3e8E, symObjAddr: 0x27AC0, symBinAddr: 0x2CD24, symSize: 0x3C }
  - { offset: 0xF5D63, size: 0x8, addend: 0x0, symName: __ZN3std2io5stdio5stdin17h0fd34bfc41a2c3e8E, symObjAddr: 0x27AC0, symBinAddr: 0x2CD24, symSize: 0x3C }
  - { offset: 0xF5D79, size: 0x8, addend: 0x0, symName: __ZN3std2io5stdio5stdin17h0fd34bfc41a2c3e8E, symObjAddr: 0x27AC0, symBinAddr: 0x2CD24, symSize: 0x3C }
  - { offset: 0xF5D8F, size: 0x8, addend: 0x0, symName: __ZN3std2io5stdio5stdin17h0fd34bfc41a2c3e8E, symObjAddr: 0x27AC0, symBinAddr: 0x2CD24, symSize: 0x3C }
  - { offset: 0xF5DA4, size: 0x8, addend: 0x0, symName: __ZN3std2io5stdio5stdin17h0fd34bfc41a2c3e8E, symObjAddr: 0x27AC0, symBinAddr: 0x2CD24, symSize: 0x3C }
  - { offset: 0xF5DC4, size: 0x8, addend: 0x0, symName: __ZN3std2io5stdio5Stdin4lock17h47dd4e3eabb912a2E, symObjAddr: 0x27AFC, symBinAddr: 0x2CD60, symSize: 0x68 }
  - { offset: 0xF5F28, size: 0x8, addend: 0x0, symName: __ZN3std2io5stdio5Stdin9read_line17h917e573e9dc8dc45E, symObjAddr: 0x27B64, symBinAddr: 0x2CDC8, symSize: 0x15C }
  - { offset: 0xF641B, size: 0x8, addend: 0x0, symName: __ZN3std2io5stdio5Stdin5lines17h6d816a1171c6541cE, symObjAddr: 0x27CC0, symBinAddr: 0x2CF24, symSize: 0x68 }
  - { offset: 0xF659C, size: 0x8, addend: 0x0, symName: '__ZN62_$LT$std..io..stdio..StdinLock$u20$as$u20$std..io..BufRead$GT$8fill_buf17h62ef33eaad4549aeE', symObjAddr: 0x29188, symBinAddr: 0x2E3EC, symSize: 0xD0 }
  - { offset: 0xF6795, size: 0x8, addend: 0x0, symName: '__ZN62_$LT$std..io..stdio..StdinLock$u20$as$u20$std..io..BufRead$GT$7consume17h6d2d896fde682a18E', symObjAddr: 0x29258, symBinAddr: 0x2E4BC, symSize: 0x28 }
  - { offset: 0xF6821, size: 0x8, addend: 0x0, symName: '__ZN62_$LT$std..io..stdio..StdinLock$u20$as$u20$std..io..BufRead$GT$10read_until17h1d88dfa33f1710f6E', symObjAddr: 0x29280, symBinAddr: 0x2E4E4, symSize: 0x18 }
  - { offset: 0xF6880, size: 0x8, addend: 0x0, symName: '__ZN62_$LT$std..io..stdio..StdinLock$u20$as$u20$std..io..BufRead$GT$9read_line17h1c789380c3539673E', symObjAddr: 0x29298, symBinAddr: 0x2E4FC, symSize: 0xC4 }
  - { offset: 0xF6ADD, size: 0x8, addend: 0x0, symName: '__ZN58_$LT$std..io..stdio..Stdin$u20$as$u20$core..fmt..Debug$GT$3fmt17h714bdf67e109b36bE', symObjAddr: 0x27D28, symBinAddr: 0x2CF8C, symSize: 0x38 }
  - { offset: 0xF6B29, size: 0x8, addend: 0x0, symName: '__ZN59_$LT$std..io..stdio..StdinLock$u20$as$u20$std..io..Read$GT$4read17h537c8ac3229cd884E', symObjAddr: 0x289AC, symBinAddr: 0x2DC10, symSize: 0x18 }
  - { offset: 0xF6B6B, size: 0x8, addend: 0x0, symName: '__ZN59_$LT$std..io..stdio..StdinLock$u20$as$u20$std..io..Read$GT$8read_buf17haa80fdb90964c2f6E', symObjAddr: 0x289C4, symBinAddr: 0x2DC28, symSize: 0x18 }
  - { offset: 0xF6BAD, size: 0x8, addend: 0x0, symName: '__ZN59_$LT$std..io..stdio..StdinLock$u20$as$u20$std..io..Read$GT$13read_vectored17h942434d4c2650111E', symObjAddr: 0x289DC, symBinAddr: 0x2DC40, symSize: 0x288 }
  - { offset: 0xF70B7, size: 0x8, addend: 0x0, symName: '__ZN59_$LT$std..io..stdio..StdinLock$u20$as$u20$std..io..Read$GT$11read_to_end17h6f9b0c94627b7f5bE', symObjAddr: 0x28C64, symBinAddr: 0x2DEC8, symSize: 0x18 }
  - { offset: 0xF70F9, size: 0x8, addend: 0x0, symName: '__ZN59_$LT$std..io..stdio..StdinLock$u20$as$u20$std..io..Read$GT$14read_to_string17hadc6aa0ccd9ba044E', symObjAddr: 0x28C7C, symBinAddr: 0x2DEE0, symSize: 0x1BC }
  - { offset: 0xF76C3, size: 0x8, addend: 0x0, symName: '__ZN59_$LT$std..io..stdio..StdinLock$u20$as$u20$std..io..Read$GT$10read_exact17hff7946ae4254b473E', symObjAddr: 0x28E38, symBinAddr: 0x2E09C, symSize: 0x1C4 }
  - { offset: 0xF7ADA, size: 0x8, addend: 0x0, symName: '__ZN59_$LT$std..io..stdio..StdinLock$u20$as$u20$std..io..Read$GT$14read_buf_exact17h1ab8b361cd3d964dE', symObjAddr: 0x28FFC, symBinAddr: 0x2E260, symSize: 0x18C }
  - { offset: 0xF7FD9, size: 0x8, addend: 0x0, symName: '__ZN55_$LT$std..io..stdio..Stdin$u20$as$u20$std..io..Read$GT$4read17ha451edf90b0e30b5E', symObjAddr: 0x27D60, symBinAddr: 0x2CFC4, symSize: 0xF0 }
  - { offset: 0xF8278, size: 0x8, addend: 0x0, symName: '__ZN55_$LT$std..io..stdio..Stdin$u20$as$u20$std..io..Read$GT$8read_buf17hb9d7c9e49634e74bE', symObjAddr: 0x27E50, symBinAddr: 0x2D0B4, symSize: 0xD0 }
  - { offset: 0xF8517, size: 0x8, addend: 0x0, symName: '__ZN55_$LT$std..io..stdio..Stdin$u20$as$u20$std..io..Read$GT$13read_vectored17hfc35a37356c8afdcE', symObjAddr: 0x27F20, symBinAddr: 0x2D184, symSize: 0xD8 }
  - { offset: 0xF87B2, size: 0x8, addend: 0x0, symName: '__ZN55_$LT$std..io..stdio..Stdin$u20$as$u20$std..io..Read$GT$11read_to_end17h96f302db480dbf17E', symObjAddr: 0x27FF8, symBinAddr: 0x2D25C, symSize: 0xD8 }
  - { offset: 0xF8A91, size: 0x8, addend: 0x0, symName: '__ZN55_$LT$std..io..stdio..Stdin$u20$as$u20$std..io..Read$GT$14read_to_string17h7e655b053f5d454bE', symObjAddr: 0x280D0, symBinAddr: 0x2D334, symSize: 0xE8 }
  - { offset: 0xF8D2C, size: 0x8, addend: 0x0, symName: '__ZN55_$LT$std..io..stdio..Stdin$u20$as$u20$std..io..Read$GT$10read_exact17hc16437c1dd2cc3abE', symObjAddr: 0x281B8, symBinAddr: 0x2D41C, symSize: 0xE8 }
  - { offset: 0xF8FC7, size: 0x8, addend: 0x0, symName: '__ZN55_$LT$std..io..stdio..Stdin$u20$as$u20$std..io..Read$GT$14read_buf_exact17h500a98732bd207d7E', symObjAddr: 0x282A0, symBinAddr: 0x2D504, symSize: 0xD8 }
  - { offset: 0xF9269, size: 0x8, addend: 0x0, symName: '__ZN59_$LT$$RF$std..io..stdio..Stdin$u20$as$u20$std..io..Read$GT$4read17hb6a5319438fc64c8E', symObjAddr: 0x28378, symBinAddr: 0x2D5DC, symSize: 0xF4 }
  - { offset: 0xF9508, size: 0x8, addend: 0x0, symName: '__ZN59_$LT$$RF$std..io..stdio..Stdin$u20$as$u20$std..io..Read$GT$8read_buf17h24320d1b07ffea9cE', symObjAddr: 0x2846C, symBinAddr: 0x2D6D0, symSize: 0xD4 }
  - { offset: 0xF97A7, size: 0x8, addend: 0x0, symName: '__ZN59_$LT$$RF$std..io..stdio..Stdin$u20$as$u20$std..io..Read$GT$13read_vectored17hb4e486280f6746ceE', symObjAddr: 0x28540, symBinAddr: 0x2D7A4, symSize: 0xDC }
  - { offset: 0xF9A42, size: 0x8, addend: 0x0, symName: '__ZN59_$LT$$RF$std..io..stdio..Stdin$u20$as$u20$std..io..Read$GT$11read_to_end17h6a7371a2a2058f83E', symObjAddr: 0x2861C, symBinAddr: 0x2D880, symSize: 0xDC }
  - { offset: 0xF9D21, size: 0x8, addend: 0x0, symName: '__ZN59_$LT$$RF$std..io..stdio..Stdin$u20$as$u20$std..io..Read$GT$14read_to_string17ha1edad68da8ca48dE', symObjAddr: 0x286F8, symBinAddr: 0x2D95C, symSize: 0xEC }
  - { offset: 0xF9FBC, size: 0x8, addend: 0x0, symName: '__ZN59_$LT$$RF$std..io..stdio..Stdin$u20$as$u20$std..io..Read$GT$10read_exact17hfe2d8b9709b9d497E', symObjAddr: 0x287E4, symBinAddr: 0x2DA48, symSize: 0xEC }
  - { offset: 0xFA257, size: 0x8, addend: 0x0, symName: '__ZN59_$LT$$RF$std..io..stdio..Stdin$u20$as$u20$std..io..Read$GT$14read_buf_exact17h05523c80b66df2f9E', symObjAddr: 0x288D0, symBinAddr: 0x2DB34, symSize: 0xDC }
  - { offset: 0xFA4F9, size: 0x8, addend: 0x0, symName: '__ZN62_$LT$std..io..stdio..StdinLock$u20$as$u20$core..fmt..Debug$GT$3fmt17h1717307153ea0f4bE', symObjAddr: 0x2935C, symBinAddr: 0x2E5C0, symSize: 0x38 }
  - { offset: 0xFA515, size: 0x8, addend: 0x0, symName: __ZN3std2io5stdio6stdout17hf752a6f02c5ae2b8E, symObjAddr: 0x29394, symBinAddr: 0x2E5F8, symSize: 0x3C }
  - { offset: 0xFA549, size: 0x8, addend: 0x0, symName: __ZN3std2io5stdio6stdout17hf752a6f02c5ae2b8E, symObjAddr: 0x29394, symBinAddr: 0x2E5F8, symSize: 0x3C }
  - { offset: 0xFA55F, size: 0x8, addend: 0x0, symName: __ZN3std2io5stdio6stdout17hf752a6f02c5ae2b8E, symObjAddr: 0x29394, symBinAddr: 0x2E5F8, symSize: 0x3C }
  - { offset: 0xFA574, size: 0x8, addend: 0x0, symName: __ZN3std2io5stdio6stdout17hf752a6f02c5ae2b8E, symObjAddr: 0x29394, symBinAddr: 0x2E5F8, symSize: 0x3C }
  - { offset: 0xFA58A, size: 0x8, addend: 0x0, symName: __ZN3std2io5stdio6stdout17hf752a6f02c5ae2b8E, symObjAddr: 0x29394, symBinAddr: 0x2E5F8, symSize: 0x3C }
  - { offset: 0xFA5A0, size: 0x8, addend: 0x0, symName: __ZN3std2io5stdio6stdout17hf752a6f02c5ae2b8E, symObjAddr: 0x29394, symBinAddr: 0x2E5F8, symSize: 0x3C }
  - { offset: 0xFA5B5, size: 0x8, addend: 0x0, symName: __ZN3std2io5stdio6stdout17hf752a6f02c5ae2b8E, symObjAddr: 0x29394, symBinAddr: 0x2E5F8, symSize: 0x3C }
  - { offset: 0xFA5D5, size: 0x8, addend: 0x0, symName: '__ZN59_$LT$std..io..stdio..Stdout$u20$as$u20$core..fmt..Debug$GT$3fmt17h10e94592e978941cE', symObjAddr: 0x293D0, symBinAddr: 0x2E634, symSize: 0x38 }
  - { offset: 0xFA621, size: 0x8, addend: 0x0, symName: '__ZN61_$LT$$RF$std..io..stdio..Stdout$u20$as$u20$std..io..Write$GT$5write17h5b4042004da0a003E', symObjAddr: 0x29650, symBinAddr: 0x2E8B4, symSize: 0xA8 }
  - { offset: 0xFA822, size: 0x8, addend: 0x0, symName: '__ZN61_$LT$$RF$std..io..stdio..Stdout$u20$as$u20$std..io..Write$GT$14write_vectored17h1bb2020a71c8fadcE', symObjAddr: 0x296F8, symBinAddr: 0x2E95C, symSize: 0xDC }
  - { offset: 0xFAC3A, size: 0x8, addend: 0x0, symName: '__ZN61_$LT$$RF$std..io..stdio..Stdout$u20$as$u20$std..io..Write$GT$5flush17hf39a42221faab278E', symObjAddr: 0x297D4, symBinAddr: 0x2EA38, symSize: 0xBC }
  - { offset: 0xFB068, size: 0x8, addend: 0x0, symName: '__ZN61_$LT$$RF$std..io..stdio..Stdout$u20$as$u20$std..io..Write$GT$9write_all17h67cb4991e071ba5cE', symObjAddr: 0x29890, symBinAddr: 0x2EAF4, symSize: 0xA0 }
  - { offset: 0xFB269, size: 0x8, addend: 0x0, symName: '__ZN61_$LT$$RF$std..io..stdio..Stdout$u20$as$u20$std..io..Write$GT$18write_all_vectored17h27a93f2cfcf5ee47E', symObjAddr: 0x29930, symBinAddr: 0x2EB94, symSize: 0xA0 }
  - { offset: 0xFB46A, size: 0x8, addend: 0x0, symName: '__ZN61_$LT$$RF$std..io..stdio..Stdout$u20$as$u20$std..io..Write$GT$9write_fmt17ha8b316d0d1cbedcbE', symObjAddr: 0x299D0, symBinAddr: 0x2EC34, symSize: 0x190 }
  - { offset: 0xFB891, size: 0x8, addend: 0x0, symName: '__ZN57_$LT$std..io..stdio..Stdout$u20$as$u20$std..io..Write$GT$5write17h97aa026d2a7e2cd4E', symObjAddr: 0x29408, symBinAddr: 0x2E66C, symSize: 0xA4 }
  - { offset: 0xFBAA8, size: 0x8, addend: 0x0, symName: '__ZN57_$LT$std..io..stdio..Stdout$u20$as$u20$std..io..Write$GT$14write_vectored17hd05954100333c816E', symObjAddr: 0x294AC, symBinAddr: 0x2E710, symSize: 0x24 }
  - { offset: 0xFBAC3, size: 0x8, addend: 0x0, symName: '__ZN57_$LT$std..io..stdio..Stdout$u20$as$u20$std..io..Write$GT$5flush17h44eabcb0675f100dE', symObjAddr: 0x294D0, symBinAddr: 0x2E734, symSize: 0x24 }
  - { offset: 0xFBADE, size: 0x8, addend: 0x0, symName: '__ZN57_$LT$std..io..stdio..Stdout$u20$as$u20$std..io..Write$GT$9write_all17h3139db19436064b3E', symObjAddr: 0x294F4, symBinAddr: 0x2E758, symSize: 0x9C }
  - { offset: 0xFBCF5, size: 0x8, addend: 0x0, symName: '__ZN57_$LT$std..io..stdio..Stdout$u20$as$u20$std..io..Write$GT$18write_all_vectored17he6410460c3b5c534E', symObjAddr: 0x29590, symBinAddr: 0x2E7F4, symSize: 0x9C }
  - { offset: 0xFBF0C, size: 0x8, addend: 0x0, symName: '__ZN57_$LT$std..io..stdio..Stdout$u20$as$u20$std..io..Write$GT$9write_fmt17h45656e6511f0ef6eE', symObjAddr: 0x2962C, symBinAddr: 0x2E890, symSize: 0x24 }
  - { offset: 0xFBF51, size: 0x8, addend: 0x0, symName: '__ZN61_$LT$std..io..stdio..StdoutLock$u20$as$u20$std..io..Write$GT$5write17h185e9d453523d95fE', symObjAddr: 0x29B60, symBinAddr: 0x2EDC4, symSize: 0x264 }
  - { offset: 0xFC717, size: 0x8, addend: 0x0, symName: '__ZN61_$LT$std..io..stdio..StdoutLock$u20$as$u20$std..io..Write$GT$14write_vectored17hf3cc7b4e8cca6e43E', symObjAddr: 0x29DC4, symBinAddr: 0x2F028, symSize: 0x5C }
  - { offset: 0xFC943, size: 0x8, addend: 0x0, symName: '__ZN61_$LT$std..io..stdio..StdoutLock$u20$as$u20$std..io..Write$GT$5flush17hc9ec06c090f659bbE', symObjAddr: 0x29E20, symBinAddr: 0x2F084, symSize: 0x5C }
  - { offset: 0xFCB85, size: 0x8, addend: 0x0, symName: '__ZN61_$LT$std..io..stdio..StdoutLock$u20$as$u20$std..io..Write$GT$9write_all17h208ae5b7776c1f09E', symObjAddr: 0x29E7C, symBinAddr: 0x2F0E0, symSize: 0x268 }
  - { offset: 0xFD383, size: 0x8, addend: 0x0, symName: '__ZN61_$LT$std..io..stdio..StdoutLock$u20$as$u20$std..io..Write$GT$18write_all_vectored17h92c7b044626bf0d4E', symObjAddr: 0x2A0E4, symBinAddr: 0x2F348, symSize: 0x300 }
  - { offset: 0xFD9F2, size: 0x8, addend: 0x0, symName: '__ZN63_$LT$std..io..stdio..StdoutLock$u20$as$u20$core..fmt..Debug$GT$3fmt17hcdc49112dd30d33eE', symObjAddr: 0x2A3E4, symBinAddr: 0x2F648, symSize: 0x38 }
  - { offset: 0xFDA14, size: 0x8, addend: 0x0, symName: __ZN3std2io5stdio6Stderr4lock17hc22edeb7bb87df54E, symObjAddr: 0x2A41C, symBinAddr: 0x2F680, symSize: 0xF0 }
  - { offset: 0xFDCDA, size: 0x8, addend: 0x0, symName: '__ZN59_$LT$std..io..stdio..Stderr$u20$as$u20$core..fmt..Debug$GT$3fmt17ha098cd9f77317799E', symObjAddr: 0x2A50C, symBinAddr: 0x2F770, symSize: 0x38 }
  - { offset: 0xFDCFC, size: 0x8, addend: 0x0, symName: '__ZN57_$LT$std..io..stdio..Stderr$u20$as$u20$std..io..Write$GT$5write17hc3c16ed6dbb8f1d1E', symObjAddr: 0x2A544, symBinAddr: 0x2F7A8, symSize: 0x24 }
  - { offset: 0xFDD17, size: 0x8, addend: 0x0, symName: '__ZN57_$LT$std..io..stdio..Stderr$u20$as$u20$std..io..Write$GT$14write_vectored17h4d559511e7cf9afeE', symObjAddr: 0x2A568, symBinAddr: 0x2F7CC, symSize: 0x24 }
  - { offset: 0xFDD32, size: 0x8, addend: 0x0, symName: '__ZN57_$LT$std..io..stdio..Stderr$u20$as$u20$std..io..Write$GT$5flush17h1c123efaeae2e8ddE', symObjAddr: 0x2A58C, symBinAddr: 0x2F7F0, symSize: 0x80 }
  - { offset: 0xFDFAB, size: 0x8, addend: 0x0, symName: '__ZN57_$LT$std..io..stdio..Stderr$u20$as$u20$std..io..Write$GT$9write_all17hd72fbc8fa22bd7ebE', symObjAddr: 0x2A60C, symBinAddr: 0x2F870, symSize: 0x9C }
  - { offset: 0xFE1C2, size: 0x8, addend: 0x0, symName: '__ZN57_$LT$std..io..stdio..Stderr$u20$as$u20$std..io..Write$GT$18write_all_vectored17h282adb833a05fbfbE', symObjAddr: 0x2A6A8, symBinAddr: 0x2F90C, symSize: 0x24 }
  - { offset: 0xFE1DD, size: 0x8, addend: 0x0, symName: '__ZN57_$LT$std..io..stdio..Stderr$u20$as$u20$std..io..Write$GT$9write_fmt17h4b774713021ecc31E', symObjAddr: 0x2A6CC, symBinAddr: 0x2F930, symSize: 0x24 }
  - { offset: 0xFE222, size: 0x8, addend: 0x0, symName: '__ZN61_$LT$$RF$std..io..stdio..Stderr$u20$as$u20$std..io..Write$GT$5write17h3e4e6b854277a830E', symObjAddr: 0x2A6F0, symBinAddr: 0x2F954, symSize: 0x108 }
  - { offset: 0xFE65B, size: 0x8, addend: 0x0, symName: '__ZN61_$LT$$RF$std..io..stdio..Stderr$u20$as$u20$std..io..Write$GT$14write_vectored17hbd74f7f15aaceb87E', symObjAddr: 0x2A7F8, symBinAddr: 0x2FA5C, symSize: 0x198 }
  - { offset: 0xFEB2F, size: 0x8, addend: 0x0, symName: '__ZN61_$LT$$RF$std..io..stdio..Stderr$u20$as$u20$std..io..Write$GT$5flush17h666fa7c352c9ed76E', symObjAddr: 0x2A990, symBinAddr: 0x2FBF4, symSize: 0x84 }
  - { offset: 0xFED92, size: 0x8, addend: 0x0, symName: '__ZN61_$LT$$RF$std..io..stdio..Stderr$u20$as$u20$std..io..Write$GT$9write_all17he3bcae5f0a8522b3E', symObjAddr: 0x2AA14, symBinAddr: 0x2FC78, symSize: 0xA0 }
  - { offset: 0xFEF93, size: 0x8, addend: 0x0, symName: '__ZN61_$LT$$RF$std..io..stdio..Stderr$u20$as$u20$std..io..Write$GT$18write_all_vectored17h17486332d79b8102E', symObjAddr: 0x2AAB4, symBinAddr: 0x2FD18, symSize: 0xE4 }
  - { offset: 0xFF3A3, size: 0x8, addend: 0x0, symName: '__ZN61_$LT$$RF$std..io..stdio..Stderr$u20$as$u20$std..io..Write$GT$9write_fmt17h7682d5131d84e885E', symObjAddr: 0x2AB98, symBinAddr: 0x2FDFC, symSize: 0x190 }
  - { offset: 0xFF802, size: 0x8, addend: 0x0, symName: '__ZN61_$LT$std..io..stdio..StderrLock$u20$as$u20$std..io..Write$GT$5write17he2eabda02e297329E', symObjAddr: 0x2AD28, symBinAddr: 0x2FF8C, symSize: 0xB0 }
  - { offset: 0xFFA6F, size: 0x8, addend: 0x0, symName: '__ZN61_$LT$std..io..stdio..StderrLock$u20$as$u20$std..io..Write$GT$14write_vectored17hf58d5264bfa992f6E', symObjAddr: 0x2ADD8, symBinAddr: 0x3003C, symSize: 0x13C }
  - { offset: 0xFFD57, size: 0x8, addend: 0x0, symName: '__ZN61_$LT$std..io..stdio..StderrLock$u20$as$u20$std..io..Write$GT$5flush17hdd0debea0e6a8760E', symObjAddr: 0x2AF14, symBinAddr: 0x30178, symSize: 0x28 }
  - { offset: 0xFFD6F, size: 0x8, addend: 0x0, symName: '__ZN61_$LT$std..io..stdio..StderrLock$u20$as$u20$std..io..Write$GT$5flush17hdd0debea0e6a8760E', symObjAddr: 0x2AF14, symBinAddr: 0x30178, symSize: 0x28 }
  - { offset: 0xFFDD5, size: 0x8, addend: 0x0, symName: '__ZN61_$LT$std..io..stdio..StderrLock$u20$as$u20$std..io..Write$GT$9write_all17heacbc82d408effaaE', symObjAddr: 0x2AF3C, symBinAddr: 0x301A0, symSize: 0x114 }
  - { offset: 0x100120, size: 0x8, addend: 0x0, symName: '__ZN61_$LT$std..io..stdio..StderrLock$u20$as$u20$std..io..Write$GT$18write_all_vectored17hc4bd259479d35fabE', symObjAddr: 0x2B050, symBinAddr: 0x302B4, symSize: 0x6C }
  - { offset: 0x100353, size: 0x8, addend: 0x0, symName: '__ZN63_$LT$std..io..stdio..StderrLock$u20$as$u20$core..fmt..Debug$GT$3fmt17hf620ba2c1b4c5726E', symObjAddr: 0x2B0BC, symBinAddr: 0x30320, symSize: 0x38 }
  - { offset: 0x1003AD, size: 0x8, addend: 0x0, symName: __ZN3std2io5stdio18set_output_capture17ha2d4e6b2a54c9b11E, symObjAddr: 0x2B0F4, symBinAddr: 0x30358, symSize: 0x120 }
  - { offset: 0x100670, size: 0x8, addend: 0x0, symName: __ZN3std2io5stdio22try_set_output_capture17hea56a598e5cfcaabE, symObjAddr: 0x2B214, symBinAddr: 0x30478, symSize: 0x10C }
  - { offset: 0x100931, size: 0x8, addend: 0x0, symName: __ZN3std2io5stdio31print_to_buffer_if_capture_used17h9355a15ed4e9de16E, symObjAddr: 0x2B320, symBinAddr: 0x30584, symSize: 0x224 }
  - { offset: 0x101070, size: 0x8, addend: 0x0, symName: __ZN3std2io5stdio23attempt_print_to_stderr17h43e12eef020309ceE, symObjAddr: 0x2B544, symBinAddr: 0x307A8, symSize: 0xD4 }
  - { offset: 0x1012DB, size: 0x8, addend: 0x0, symName: __ZN3std2io5stdio6_print17h068a7c8fe03701f4E, symObjAddr: 0x2B618, symBinAddr: 0x3087C, symSize: 0xE4 }
  - { offset: 0x1013ED, size: 0x8, addend: 0x0, symName: __ZN3std2io5stdio7_eprint17hafb70b3d0d2442c8E, symObjAddr: 0x2B6FC, symBinAddr: 0x30960, symSize: 0xC8 }
  - { offset: 0x10146B, size: 0x8, addend: 0x0, symName: '__ZN3std2io8buffered9bufwriter18BufWriter$LT$W$GT$9flush_buf17h2a7c96aa52a09fd1E', symObjAddr: 0x25450, symBinAddr: 0x2A8D4, symSize: 0x1F8 }
  - { offset: 0x101A2F, size: 0x8, addend: 0x0, symName: '__ZN3std2io8buffered9bufwriter18BufWriter$LT$W$GT$10write_cold17h68acc9347516825eE', symObjAddr: 0x256DC, symBinAddr: 0x8C230, symSize: 0xF8 }
  - { offset: 0x101CA1, size: 0x8, addend: 0x0, symName: '__ZN3std2io8buffered9bufwriter18BufWriter$LT$W$GT$14write_all_cold17h833836a094c4899aE', symObjAddr: 0x257D4, symBinAddr: 0x8C328, symSize: 0x128 }
  - { offset: 0x101FE5, size: 0x8, addend: 0x0, symName: '__ZN111_$LT$std..io..buffered..bufwriter..BufWriter$LT$W$GT$..flush_buf..BufGuard$u20$as$u20$core..ops..drop..Drop$GT$4drop17hb98115eca77d3116E', symObjAddr: 0x2567C, symBinAddr: 0x2AB00, symSize: 0x60 }
  - { offset: 0x102172, size: 0x8, addend: 0x0, symName: '__ZN3std2io8buffered9bufwriter18BufWriter$LT$W$GT$9flush_buf8BufGuard9remaining17h49e51517261ea921E', symObjAddr: 0x25648, symBinAddr: 0x2AACC, symSize: 0x34 }
  - { offset: 0x1022A3, size: 0x8, addend: 0x0, symName: '__ZN83_$LT$std..io..buffered..bufwriter..WriterPanicked$u20$as$u20$core..fmt..Display$GT$3fmt17h404bbc056ab3d03dE', symObjAddr: 0x258FC, symBinAddr: 0x2AB60, symSize: 0x54 }
  - { offset: 0x1022F3, size: 0x8, addend: 0x0, symName: '__ZN81_$LT$std..io..buffered..bufwriter..WriterPanicked$u20$as$u20$core..fmt..Debug$GT$3fmt17h874f05534a60d691E', symObjAddr: 0x25950, symBinAddr: 0x2ABB4, symSize: 0xA4 }
  - { offset: 0x10246A, size: 0x8, addend: 0x0, symName: __ZN3std2io8buffered9bufreader6buffer6Buffer9backshift17h11bbe3cbe5734ca3E, symObjAddr: 0x24F44, symBinAddr: 0x2A3C8, symSize: 0x50 }
  - { offset: 0x1026D2, size: 0x8, addend: 0x0, symName: '__ZN82_$LT$std..io..buffered..bufreader..BufReader$LT$R$GT$$u20$as$u20$std..io..Read$GT$4read17h23428e27727f68e6E', symObjAddr: 0x24F94, symBinAddr: 0x2A418, symSize: 0x1AC }
  - { offset: 0x102A85, size: 0x8, addend: 0x0, symName: '__ZN82_$LT$std..io..buffered..bufreader..BufReader$LT$R$GT$$u20$as$u20$std..io..Read$GT$8read_buf17h072352de8f5d10bbE', symObjAddr: 0x25140, symBinAddr: 0x2A5C4, symSize: 0x1B0 }
  - { offset: 0x103069, size: 0x8, addend: 0x0, symName: '__ZN82_$LT$std..io..buffered..bufreader..BufReader$LT$R$GT$$u20$as$u20$std..io..Read$GT$11read_to_end17h7cb22011885c3b3eE', symObjAddr: 0x252F0, symBinAddr: 0x2A774, symSize: 0x160 }
  - { offset: 0x103452, size: 0x8, addend: 0x0, symName: '__ZN93_$LT$std..io..buffered..linewritershim..LineWriterShim$LT$W$GT$$u20$as$u20$std..io..Write$GT$14write_vectored17h571006249a0155e8E', symObjAddr: 0x259F4, symBinAddr: 0x2AC58, symSize: 0x42C }
  - { offset: 0x103E94, size: 0x8, addend: 0x0, symName: '__ZN79_$LT$alloc..vec..Vec$LT$u8$GT$$u20$as$u20$std..io..copy..BufferedWriterSpec$GT$11buffer_size17h63efe86d5993a0d1E', symObjAddr: 0x25E20, symBinAddr: 0x2B084, symSize: 0x28 }
  - { offset: 0x103F45, size: 0x8, addend: 0x0, symName: __ZN3std2io4pipe10PipeReader9try_clone17h65e9fd76ef510facE, symObjAddr: 0x26B40, symBinAddr: 0x2BDA4, symSize: 0x68 }
  - { offset: 0x104041, size: 0x8, addend: 0x0, symName: '__ZN63_$LT$$RF$std..io..pipe..PipeReader$u20$as$u20$std..io..Read$GT$4read17h7d9387a4359ea58fE', symObjAddr: 0x26BA8, symBinAddr: 0x2BE0C, symSize: 0x5C }
  - { offset: 0x104150, size: 0x8, addend: 0x0, symName: '__ZN63_$LT$$RF$std..io..pipe..PipeReader$u20$as$u20$std..io..Read$GT$13read_vectored17h37d60dd28bbd2b1bE', symObjAddr: 0x26C04, symBinAddr: 0x2BE68, symSize: 0x5C }
  - { offset: 0x10425F, size: 0x8, addend: 0x0, symName: '__ZN63_$LT$$RF$std..io..pipe..PipeReader$u20$as$u20$std..io..Read$GT$11read_to_end17h5c980f36c250b149E', symObjAddr: 0x26C60, symBinAddr: 0x2BEC4, symSize: 0x14 }
  - { offset: 0x104279, size: 0x8, addend: 0x0, symName: '__ZN63_$LT$$RF$std..io..pipe..PipeReader$u20$as$u20$std..io..Read$GT$8read_buf17h5775d30ccfca8a79E', symObjAddr: 0x26C74, symBinAddr: 0x2BED8, symSize: 0x7C }
  - { offset: 0x104448, size: 0x8, addend: 0x0, symName: '__ZN59_$LT$std..io..pipe..PipeReader$u20$as$u20$std..io..Read$GT$11read_to_end17h27c379cb5f3df37cE', symObjAddr: 0x26CF0, symBinAddr: 0x2BF54, symSize: 0x10 }
  - { offset: 0x104469, size: 0x8, addend: 0x0, symName: '__ZN64_$LT$$RF$std..io..pipe..PipeWriter$u20$as$u20$std..io..Write$GT$5write17h8b342f49c6db0d11E', symObjAddr: 0x26D00, symBinAddr: 0x2BF64, symSize: 0x5C }
  - { offset: 0x10457B, size: 0x8, addend: 0x0, symName: '__ZN64_$LT$$RF$std..io..pipe..PipeWriter$u20$as$u20$std..io..Write$GT$14write_vectored17h992dfe5ca292c30dE', symObjAddr: 0x26D5C, symBinAddr: 0x2BFC0, symSize: 0x5C }
  - { offset: 0x104696, size: 0x8, addend: 0x0, symName: '__ZN60_$LT$std..io..pipe..PipeWriter$u20$as$u20$std..io..Write$GT$5write17hb1fb511001fc7dedE', symObjAddr: 0x26DB8, symBinAddr: 0x2C01C, symSize: 0x58 }
  - { offset: 0x1047AA, size: 0x8, addend: 0x0, symName: '__ZN60_$LT$std..io..pipe..PipeWriter$u20$as$u20$std..io..Write$GT$14write_vectored17h3dc2a9511eab2661E', symObjAddr: 0x26E10, symBinAddr: 0x2C074, symSize: 0x58 }
  - { offset: 0x1049D6, size: 0x8, addend: 0x0, symName: '__ZN58_$LT$std..io..util..Repeat$u20$as$u20$core..fmt..Debug$GT$3fmt17h222225bced0e07d5E', symObjAddr: 0x2B7C4, symBinAddr: 0x30A28, symSize: 0x38 }
  - { offset: 0x104A23, size: 0x8, addend: 0x0, symName: __ZN3std2io19default_read_to_end16small_probe_read17h3b7e0939afe36f18E, symObjAddr: 0x2BFCC, symBinAddr: 0x31230, symSize: 0xE8 }
  - { offset: 0x104C4F, size: 0x8, addend: 0x0, symName: __ZN3std2io19default_read_to_end16small_probe_read17hc06d8f7ba56c181fE, symObjAddr: 0x2C0B4, symBinAddr: 0x31318, symSize: 0xF0 }
  - { offset: 0x104EAA, size: 0x8, addend: 0x0, symName: __ZN3std2io19default_read_to_end16small_probe_read17hee83eb0abd46481eE, symObjAddr: 0x2C1A4, symBinAddr: 0x31408, symSize: 0xF0 }
  - { offset: 0x1050D8, size: 0x8, addend: 0x0, symName: __ZN3std2io19default_read_to_end17h8889807fc6e5f252E, symObjAddr: 0x2B7FC, symBinAddr: 0x30A60, symSize: 0x2B8 }
  - { offset: 0x10552A, size: 0x8, addend: 0x0, symName: __ZN3std2io19default_read_to_end17h8e825abefe61a19aE, symObjAddr: 0x2BAB4, symBinAddr: 0x30D18, symSize: 0x298 }
  - { offset: 0x10598B, size: 0x8, addend: 0x0, symName: __ZN3std2io19default_read_to_end17ha5011dafda776bcfE, symObjAddr: 0x2BD4C, symBinAddr: 0x30FB0, symSize: 0x280 }
  - { offset: 0x105DD3, size: 0x8, addend: 0x0, symName: __ZN3std2io10IoSliceMut10into_slice17h48b0829400acacd4E, symObjAddr: 0x2C6F4, symBinAddr: 0x31868, symSize: 0x10 }
  - { offset: 0x105DF5, size: 0x8, addend: 0x0, symName: '__ZN53_$LT$std..io..IoSlice$u20$as$u20$core..fmt..Debug$GT$3fmt17h6da1a43c972dc6dbE', symObjAddr: 0x2C704, symBinAddr: 0x31878, symSize: 0x70 }
  - { offset: 0x105EB9, size: 0x8, addend: 0x0, symName: __ZN3std2io10read_until17h56af2e34185455abE, symObjAddr: 0x2CD70, symBinAddr: 0x31EE4, symSize: 0x338 }
  - { offset: 0x1066BB, size: 0x8, addend: 0x0, symName: '__ZN3std4sync6poison4once4Once15call_once_force28_$u7b$$u7b$closure$u7d$$u7d$17h688a13d54c344bb9E', symObjAddr: 0x359BC, symBinAddr: 0x3A9B4, symSize: 0x60 }
  - { offset: 0x106779, size: 0x8, addend: 0x0, symName: '__ZN3std4sync6poison4once4Once15call_once_force28_$u7b$$u7b$closure$u7d$$u7d$17h69b651be65e3c340E', symObjAddr: 0x35A1C, symBinAddr: 0x3AA14, symSize: 0x80 }
  - { offset: 0x1068C7, size: 0x8, addend: 0x0, symName: '__ZN3std4sync6poison4once4Once15call_once_force28_$u7b$$u7b$closure$u7d$$u7d$17h736158da69bb10c5E', symObjAddr: 0x35A9C, symBinAddr: 0x3AA94, symSize: 0x7C }
  - { offset: 0x1069FE, size: 0x8, addend: 0x0, symName: '__ZN3std4sync6poison4once4Once9call_once28_$u7b$$u7b$closure$u7d$$u7d$17h2a44c8941693b739E', symObjAddr: 0x355D4, symBinAddr: 0x3A5CC, symSize: 0x260 }
  - { offset: 0x1071F9, size: 0x8, addend: 0x0, symName: '__ZN3std4sync6poison4once4Once9call_once28_$u7b$$u7b$closure$u7d$$u7d$17h2dc50f98ad836660E', symObjAddr: 0x35834, symBinAddr: 0x3A82C, symSize: 0x188 }
  - { offset: 0x10759C, size: 0x8, addend: 0x0, symName: __ZN3std4sync6poison4once4Once4wait17hae83f0870db50d1eE, symObjAddr: 0x35B18, symBinAddr: 0x3AB10, symSize: 0x30 }
  - { offset: 0x1075FB, size: 0x8, addend: 0x0, symName: __ZN3std4sync6poison4once4Once10wait_force17he9c24d61f1c94746E, symObjAddr: 0x35B48, symBinAddr: 0x3AB40, symSize: 0x30 }
  - { offset: 0x107688, size: 0x8, addend: 0x0, symName: '__ZN66_$LT$std..sync..poison..once..Once$u20$as$u20$core..fmt..Debug$GT$3fmt17h736063b40f82ee36E', symObjAddr: 0x35B78, symBinAddr: 0x3AB70, symSize: 0x38 }
  - { offset: 0x1076BF, size: 0x8, addend: 0x0, symName: '__ZN71_$LT$std..sync..poison..once..OnceState$u20$as$u20$core..fmt..Debug$GT$3fmt17ha2d440e8fa2f4bacE', symObjAddr: 0x35BB0, symBinAddr: 0x3ABA8, symSize: 0x6C }
  - { offset: 0x10793E, size: 0x8, addend: 0x0, symName: '__ZN3std4sync6poison6rwlock15RwLock$LT$T$GT$5write17h814c794e32aba832E', symObjAddr: 0x35C1C, symBinAddr: 0x3AC14, symSize: 0x228 }
  - { offset: 0x10807F, size: 0x8, addend: 0x0, symName: '__ZN3std4sync6poison6rwlock15RwLock$LT$T$GT$5write17h81750b7ede8720afE', symObjAddr: 0x35E44, symBinAddr: 0x3AE3C, symSize: 0x228 }
  - { offset: 0x108822, size: 0x8, addend: 0x0, symName: __ZN3std4sync6poison7condvar7Condvar10notify_one17hb8a7198df20c110cE, symObjAddr: 0x3554C, symBinAddr: 0x3A544, symSize: 0x28 }
  - { offset: 0x1088BF, size: 0x8, addend: 0x0, symName: __ZN3std4sync6poison7condvar7Condvar10notify_all17h8fbd94bfe2e79546E, symObjAddr: 0x35574, symBinAddr: 0x3A56C, symSize: 0x28 }
  - { offset: 0x108984, size: 0x8, addend: 0x0, symName: '__ZN72_$LT$std..sync..poison..condvar..Condvar$u20$as$u20$core..fmt..Debug$GT$3fmt17h678bc0dedcc9f4b0E', symObjAddr: 0x3559C, symBinAddr: 0x3A594, symSize: 0x38 }
  - { offset: 0x1089C3, size: 0x8, addend: 0x0, symName: '__ZN76_$LT$std..sync..poison..PoisonError$LT$T$GT$$u20$as$u20$core..fmt..Debug$GT$3fmt17h4b73094b9ddadab6E', symObjAddr: 0x3606C, symBinAddr: 0x3B064, symSize: 0x38 }
  - { offset: 0x108ADE, size: 0x8, addend: 0x0, symName: '__ZN3std4sync9once_lock17OnceLock$LT$T$GT$10initialize17h1a4c6a9602850984E', symObjAddr: 0x363DC, symBinAddr: 0x8C604, symSize: 0x5C }
  - { offset: 0x108B0B, size: 0x8, addend: 0x0, symName: '__ZN3std4sync9once_lock17OnceLock$LT$T$GT$10initialize17h1a4c6a9602850984E', symObjAddr: 0x363DC, symBinAddr: 0x8C604, symSize: 0x5C }
  - { offset: 0x108B20, size: 0x8, addend: 0x0, symName: '__ZN3std4sync9once_lock17OnceLock$LT$T$GT$10initialize17h1a4c6a9602850984E', symObjAddr: 0x363DC, symBinAddr: 0x8C604, symSize: 0x5C }
  - { offset: 0x108B35, size: 0x8, addend: 0x0, symName: '__ZN3std4sync9once_lock17OnceLock$LT$T$GT$10initialize17h1a4c6a9602850984E', symObjAddr: 0x363DC, symBinAddr: 0x8C604, symSize: 0x5C }
  - { offset: 0x108B4B, size: 0x8, addend: 0x0, symName: '__ZN3std4sync9once_lock17OnceLock$LT$T$GT$10initialize17hb7f544715888f037E', symObjAddr: 0x36438, symBinAddr: 0x8C660, symSize: 0x68 }
  - { offset: 0x108B78, size: 0x8, addend: 0x0, symName: '__ZN3std4sync9once_lock17OnceLock$LT$T$GT$10initialize17hb7f544715888f037E', symObjAddr: 0x36438, symBinAddr: 0x8C660, symSize: 0x68 }
  - { offset: 0x108B8D, size: 0x8, addend: 0x0, symName: '__ZN3std4sync9once_lock17OnceLock$LT$T$GT$10initialize17hb7f544715888f037E', symObjAddr: 0x36438, symBinAddr: 0x8C660, symSize: 0x68 }
  - { offset: 0x108BA2, size: 0x8, addend: 0x0, symName: '__ZN3std4sync9once_lock17OnceLock$LT$T$GT$10initialize17hb7f544715888f037E', symObjAddr: 0x36438, symBinAddr: 0x8C660, symSize: 0x68 }
  - { offset: 0x108BB8, size: 0x8, addend: 0x0, symName: '__ZN3std4sync9once_lock17OnceLock$LT$T$GT$10initialize17hf86e8a503c6d0ff9E', symObjAddr: 0x364A0, symBinAddr: 0x8C6C8, symSize: 0x64 }
  - { offset: 0x108BE5, size: 0x8, addend: 0x0, symName: '__ZN3std4sync9once_lock17OnceLock$LT$T$GT$10initialize17hf86e8a503c6d0ff9E', symObjAddr: 0x364A0, symBinAddr: 0x8C6C8, symSize: 0x64 }
  - { offset: 0x108BFA, size: 0x8, addend: 0x0, symName: '__ZN3std4sync9once_lock17OnceLock$LT$T$GT$10initialize17hf86e8a503c6d0ff9E', symObjAddr: 0x364A0, symBinAddr: 0x8C6C8, symSize: 0x64 }
  - { offset: 0x108C0F, size: 0x8, addend: 0x0, symName: '__ZN3std4sync9once_lock17OnceLock$LT$T$GT$10initialize17hf86e8a503c6d0ff9E', symObjAddr: 0x364A0, symBinAddr: 0x8C6C8, symSize: 0x64 }
  - { offset: 0x108E05, size: 0x8, addend: 0x0, symName: __ZN3std4sync9lazy_lock14panic_poisoned17h8c0b65004ccb6a4eE, symObjAddr: 0x363A4, symBinAddr: 0x8C5CC, symSize: 0x38 }
  - { offset: 0x108E4A, size: 0x8, addend: 0x0, symName: __ZN3std4sync4mpmc7context7Context3new17hcf782c5fda00036bE, symObjAddr: 0x3530C, symBinAddr: 0x8C468, symSize: 0x164 }
  - { offset: 0x1091DC, size: 0x8, addend: 0x0, symName: '__ZN69_$LT$std..sync..mpmc..zero..ZeroToken$u20$as$u20$core..fmt..Debug$GT$3fmt17he1b92c84e8f9434cE', symObjAddr: 0x35470, symBinAddr: 0x3A468, symSize: 0x48 }
  - { offset: 0x109231, size: 0x8, addend: 0x0, symName: '__ZN65_$LT$std..sync..mpsc..RecvError$u20$as$u20$core..fmt..Display$GT$3fmt17h69a1b0e51025aa3aE', symObjAddr: 0x354B8, symBinAddr: 0x3A4B0, symSize: 0x20 }
  - { offset: 0x109253, size: 0x8, addend: 0x0, symName: '__ZN68_$LT$std..sync..mpsc..TryRecvError$u20$as$u20$core..fmt..Display$GT$3fmt17hd8b0af48633dd9e9E', symObjAddr: 0x354D8, symBinAddr: 0x3A4D0, symSize: 0x34 }
  - { offset: 0x109275, size: 0x8, addend: 0x0, symName: '__ZN72_$LT$std..sync..mpsc..RecvTimeoutError$u20$as$u20$core..fmt..Display$GT$3fmt17h27577ce57ca77ca5E', symObjAddr: 0x3550C, symBinAddr: 0x3A504, symSize: 0x40 }
  - { offset: 0x10929E, size: 0x8, addend: 0x0, symName: '__ZN64_$LT$std..sync..barrier..Barrier$u20$as$u20$core..fmt..Debug$GT$3fmt17h798cbf39e13bfbd4E', symObjAddr: 0x360A4, symBinAddr: 0x3B09C, symSize: 0x38 }
  - { offset: 0x1092BF, size: 0x8, addend: 0x0, symName: __ZN3std4sync7barrier7Barrier4wait17h6c6a99fc1603d436E, symObjAddr: 0x360DC, symBinAddr: 0x3B0D4, symSize: 0x25C }
  - { offset: 0x10980F, size: 0x8, addend: 0x0, symName: '__ZN74_$LT$std..sync..barrier..BarrierWaitResult$u20$as$u20$core..fmt..Debug$GT$3fmt17h62e6f6c4618d1c7dE', symObjAddr: 0x36338, symBinAddr: 0x3B330, symSize: 0x6C }
  - { offset: 0x10987F, size: 0x8, addend: 0x0, symName: '__ZN64_$LT$std..backtrace..Backtrace$u20$as$u20$core..fmt..Display$GT$3fmt17hcaddded4adb8fa4cE', symObjAddr: 0x20D1C, symBinAddr: 0x261A0, symSize: 0x444 }
  - { offset: 0x10A24E, size: 0x8, addend: 0x0, symName: '__ZN62_$LT$std..backtrace..Backtrace$u20$as$u20$core..fmt..Debug$GT$3fmt17hb92bbfb5f4ab511cE', symObjAddr: 0x2022C, symBinAddr: 0x256B0, symSize: 0x1BC }
  - { offset: 0x10A4AC, size: 0x8, addend: 0x0, symName: '__ZN67_$LT$std..backtrace..BacktraceFrame$u20$as$u20$core..fmt..Debug$GT$3fmt17hdcfcb77c72677bc0E', symObjAddr: 0x203E8, symBinAddr: 0x2586C, symSize: 0x80 }
  - { offset: 0x10A529, size: 0x8, addend: 0x0, symName: '__ZN68_$LT$std..backtrace..BacktraceSymbol$u20$as$u20$core..fmt..Debug$GT$3fmt17h9cad4162959db724E', symObjAddr: 0x20468, symBinAddr: 0x258EC, symSize: 0x21C }
  - { offset: 0x10A742, size: 0x8, addend: 0x0, symName: '__ZN64_$LT$std..backtrace..BytesOrWide$u20$as$u20$core..fmt..Debug$GT$3fmt17h94d6082dfbb437e0E', symObjAddr: 0x20684, symBinAddr: 0x25B08, symSize: 0x120 }
  - { offset: 0x10AA4A, size: 0x8, addend: 0x0, symName: __ZN3std9backtrace9Backtrace7capture17h9c054b3f9c38678eE, symObjAddr: 0x207A4, symBinAddr: 0x25C28, symSize: 0x238 }
  - { offset: 0x10AFAB, size: 0x8, addend: 0x0, symName: __ZN3std9backtrace9Backtrace13force_capture17h5e7cd279d9906e1dE, symObjAddr: 0x209DC, symBinAddr: 0x25E60, symSize: 0x1C }
  - { offset: 0x10AFC6, size: 0x8, addend: 0x0, symName: __ZN3std9backtrace9Backtrace6create17h32c1ee0b44611e37E, symObjAddr: 0x209F8, symBinAddr: 0x25E7C, symSize: 0x150 }
  - { offset: 0x10B37B, size: 0x8, addend: 0x0, symName: __ZN3std9backtrace9Backtrace6frames17h9a2d0648bafe2455E, symObjAddr: 0x20C94, symBinAddr: 0x26118, symSize: 0x88 }
  - { offset: 0x10B46B, size: 0x8, addend: 0x0, symName: '__ZN3std9backtrace9Backtrace6create28_$u7b$$u7b$closure$u7d$$u7d$17h66c033f95381d7a2E', symObjAddr: 0x20B48, symBinAddr: 0x25FCC, symSize: 0x14C }
  - { offset: 0x10B66E, size: 0x8, addend: 0x0, symName: '__ZN3std9backtrace6helper12lazy_resolve28_$u7b$$u7b$closure$u7d$$u7d$28_$u7b$$u7b$closure$u7d$$u7d$17ha6f22383d9972047E', symObjAddr: 0x3C998, symBinAddr: 0x40DCC, symSize: 0x218 }
  - { offset: 0x10BB06, size: 0x8, addend: 0x0, symName: '__ZN89_$LT$std..backtrace_rs..symbolize..gimli..mmap..Mmap$u20$as$u20$core..ops..drop..Drop$GT$4drop17hd014da88931ff529E', symObjAddr: 0x4C000, symBinAddr: 0x4FABC, symSize: 0x18 }
  - { offset: 0x10BB35, size: 0x8, addend: 0x0, symName: '__ZN91_$LT$std..backtrace_rs..symbolize..gimli..mmap..Mmap$u20$as$u20$core..ops..deref..Deref$GT$5deref17h47453b8fd761fa8dE', symObjAddr: 0x4BFE8, symBinAddr: 0x4FAA4, symSize: 0x18 }
  - { offset: 0x10BC17, size: 0x8, addend: 0x0, symName: __ZN3std12backtrace_rs9symbolize5gimli7Context3new17h711eba05a532876eE, symObjAddr: 0x47424, symBinAddr: 0x4AEE0, symSize: 0x1F30 }
  - { offset: 0x10F9DB, size: 0x8, addend: 0x0, symName: __ZN3std12backtrace_rs9symbolize5gimli7Context11find_frames17h54d1c2900b7d8f73E, symObjAddr: 0x49354, symBinAddr: 0x4CE10, symSize: 0x388 }
  - { offset: 0x10FE45, size: 0x8, addend: 0x0, symName: __ZN3std12backtrace_rs9symbolize5gimli5macho6Object5parse17hd2eb7b527bf18163E, symObjAddr: 0x4C1F8, symBinAddr: 0x4FCB4, symSize: 0xB74 }
  - { offset: 0x111C12, size: 0x8, addend: 0x0, symName: __ZN3std12backtrace_rs9symbolize5gimli5macho6Object7section17h5a910d02cf62e6f5E, symObjAddr: 0x4CD6C, symBinAddr: 0x50828, symSize: 0x148 }
  - { offset: 0x11209C, size: 0x8, addend: 0x0, symName: __ZN3std12backtrace_rs9symbolize5gimli5macho11find_header17hac3ef955b306a145E, symObjAddr: 0x4C018, symBinAddr: 0x4FAD4, symSize: 0x1E0 }
  - { offset: 0x1128D4, size: 0x8, addend: 0x0, symName: __ZN3std12backtrace_rs9symbolize5gimli4mmap17hc59e251d7c2eb676E, symObjAddr: 0x496DC, symBinAddr: 0x4D198, symSize: 0x174 }
  - { offset: 0x112F96, size: 0x8, addend: 0x0, symName: __ZN3std12backtrace_rs9symbolize5gimli7resolve17hc8c12b5414f505c2E, symObjAddr: 0x49850, symBinAddr: 0x4D30C, symSize: 0x2798 }
  - { offset: 0x119031, size: 0x8, addend: 0x0, symName: __ZN3std12backtrace_rs9symbolize6Symbol4name17he6820a705ff83e48E, symObjAddr: 0x3C094, symBinAddr: 0x404C8, symSize: 0xE4 }
  - { offset: 0x119156, size: 0x8, addend: 0x0, symName: __ZN3std12backtrace_rs9symbolize6Symbol12filename_raw17h89637c6d83106442E, symObjAddr: 0x3C178, symBinAddr: 0x405AC, symSize: 0x44 }
  - { offset: 0x1191D3, size: 0x8, addend: 0x0, symName: '__ZN73_$LT$std..backtrace_rs..symbolize..Symbol$u20$as$u20$core..fmt..Debug$GT$3fmt17had87ff3ebbb18c32E', symObjAddr: 0x3C1BC, symBinAddr: 0x405F0, symSize: 0x100 }
  - { offset: 0x11924C, size: 0x8, addend: 0x0, symName: '__ZN79_$LT$std..backtrace_rs..symbolize..SymbolName$u20$as$u20$core..fmt..Display$GT$3fmt17h5613ad71f7ff5f53E', symObjAddr: 0x3C2BC, symBinAddr: 0x406F0, symSize: 0x100 }
  - { offset: 0x119337, size: 0x8, addend: 0x0, symName: '__ZN77_$LT$std..backtrace_rs..symbolize..SymbolName$u20$as$u20$core..fmt..Debug$GT$3fmt17hf26c5acd5ee33e04E', symObjAddr: 0x3C3BC, symBinAddr: 0x407F0, symSize: 0x100 }
  - { offset: 0x11945D, size: 0x8, addend: 0x0, symName: '__ZN87_$LT$std..backtrace_rs..backtrace..libunwind..Bomb$u20$as$u20$core..ops..drop..Drop$GT$4drop17ha36de8761ed3c62cE', symObjAddr: 0x47398, symBinAddr: 0x4AE54, symSize: 0x44 }
  - { offset: 0x1194D6, size: 0x8, addend: 0x0, symName: '__ZN85_$LT$std..backtrace_rs..backtrace..libunwind..Frame$u20$as$u20$core..clone..Clone$GT$5clone17h14903e8a81514023E', symObjAddr: 0x4732C, symBinAddr: 0x4ADE8, symSize: 0x6C }
  - { offset: 0x11953C, size: 0x8, addend: 0x0, symName: __ZN3std12backtrace_rs9backtrace9libunwind5trace8trace_fn17ha479e0ecc68e02bbE, symObjAddr: 0x473DC, symBinAddr: 0x4AE98, symSize: 0x48 }
  - { offset: 0x1195C3, size: 0x8, addend: 0x0, symName: '__ZN72_$LT$std..backtrace_rs..backtrace..Frame$u20$as$u20$core..fmt..Debug$GT$3fmt17hf24f27ae17adec37E', symObjAddr: 0x3BFB4, symBinAddr: 0x403E8, symSize: 0xE0 }
  - { offset: 0x1196C9, size: 0x8, addend: 0x0, symName: __ZN3std12backtrace_rs5print17BacktraceFrameFmt21print_raw_with_column17h11405857fc75a1dcE, symObjAddr: 0x3C4BC, symBinAddr: 0x408F0, symSize: 0x304 }
  - { offset: 0x1197F8, size: 0x8, addend: 0x0, symName: __ZN3std12backtrace_rs5print17BacktraceFrameFmt14print_fileline17h5373b40caa22205cE, symObjAddr: 0x3C7C0, symBinAddr: 0x40BF4, symSize: 0x198 }
  - { offset: 0x1199E3, size: 0x8, addend: 0x0, symName: __ZN3std6thread7current11set_current17h1b09f43bd5ce3dd4E, symObjAddr: 0x1EC4C, symBinAddr: 0x2430C, symSize: 0xC0 }
  - { offset: 0x119BA1, size: 0x8, addend: 0x0, symName: __ZN3std6thread7current16try_with_current17hda52e70faf25c44bE, symObjAddr: 0x1ED0C, symBinAddr: 0x243CC, symSize: 0x98 }
  - { offset: 0x119CE2, size: 0x8, addend: 0x0, symName: __ZN3std6thread7current18current_or_unnamed17h2c0a279f6137d6a0E, symObjAddr: 0x1EDA4, symBinAddr: 0x24464, symSize: 0xCC }
  - { offset: 0x119F48, size: 0x8, addend: 0x0, symName: __ZN3std6thread7current7current17haaa7970fccf03467E, symObjAddr: 0x1EE70, symBinAddr: 0x24530, symSize: 0x48 }
  - { offset: 0x11A052, size: 0x8, addend: 0x0, symName: __ZN3std6thread7current12init_current17h65c1797caa57b4acE, symObjAddr: 0x1EEB8, symBinAddr: 0x8BFF4, symSize: 0x17C }
  - { offset: 0x11A41B, size: 0x8, addend: 0x0, symName: __ZN3std6thread6Thread3new17h1d0cb85ff393dd0cE, symObjAddr: 0x1FE20, symBinAddr: 0x252A4, symSize: 0x160 }
  - { offset: 0x11A715, size: 0x8, addend: 0x0, symName: __ZN3std6thread6Thread4park17hdf1ae316d52583f4E, symObjAddr: 0x1FF80, symBinAddr: 0x25404, symSize: 0x48 }
  - { offset: 0x11A80A, size: 0x8, addend: 0x0, symName: __ZN3std6thread6Thread12park_timeout17h22b3f4a8b82d1b94E, symObjAddr: 0x1FFC8, symBinAddr: 0x2544C, symSize: 0x90 }
  - { offset: 0x11A940, size: 0x8, addend: 0x0, symName: __ZN3std6thread6Thread4name17h80929f121d1b5331E, symObjAddr: 0x20058, symBinAddr: 0x254DC, symSize: 0x54 }
  - { offset: 0x11AA4E, size: 0x8, addend: 0x0, symName: __ZN3std6thread6Thread8from_raw17h5e0680d006cf2270E, symObjAddr: 0x200AC, symBinAddr: 0x25530, symSize: 0x14 }
  - { offset: 0x11AABE, size: 0x8, addend: 0x0, symName: __ZN3std6thread6Thread5cname17h6b08116e010cba43E, symObjAddr: 0x200C0, symBinAddr: 0x25544, symSize: 0x50 }
  - { offset: 0x11AC9B, size: 0x8, addend: 0x0, symName: __ZN3std6thread8ThreadId3new17hcfe328cb3454140dE, symObjAddr: 0x1FC94, symBinAddr: 0x25150, symSize: 0x44 }
  - { offset: 0x11AE9B, size: 0x8, addend: 0x0, symName: '__ZN68_$LT$std..thread..local..AccessError$u20$as$u20$core..fmt..Debug$GT$3fmt17h05d794b51064e0a5E', symObjAddr: 0x1F680, symBinAddr: 0x24BC4, symSize: 0x38 }
  - { offset: 0x11AEBC, size: 0x8, addend: 0x0, symName: '__ZN70_$LT$std..thread..local..AccessError$u20$as$u20$core..fmt..Display$GT$3fmt17hbb1e874d5e2ee9dfE', symObjAddr: 0x1F6B8, symBinAddr: 0x24BFC, symSize: 0x20 }
  - { offset: 0x11AED7, size: 0x8, addend: 0x0, symName: __ZN3std6thread5local18panic_access_error17h34f158567139cc68E, symObjAddr: 0x1F6D8, symBinAddr: 0x8C170, symSize: 0x44 }
  - { offset: 0x11AF38, size: 0x8, addend: 0x0, symName: __ZN3std6thread6scoped9ScopeData29increment_num_running_threads17h257790a8cad540d5E, symObjAddr: 0x1EAE0, symBinAddr: 0x241E0, symSize: 0x20 }
  - { offset: 0x11AF56, size: 0x8, addend: 0x0, symName: __ZN3std6thread6scoped9ScopeData29increment_num_running_threads17h257790a8cad540d5E, symObjAddr: 0x1EAE0, symBinAddr: 0x241E0, symSize: 0x20 }
  - { offset: 0x11AF6B, size: 0x8, addend: 0x0, symName: __ZN3std6thread6scoped9ScopeData29increment_num_running_threads17h257790a8cad540d5E, symObjAddr: 0x1EAE0, symBinAddr: 0x241E0, symSize: 0x20 }
  - { offset: 0x11AF95, size: 0x8, addend: 0x0, symName: __ZN3std6thread6scoped9ScopeData8overflow17h64419651bade8f1fE, symObjAddr: 0x1EB00, symBinAddr: 0x8BFB4, symSize: 0x40 }
  - { offset: 0x11AFC5, size: 0x8, addend: 0x0, symName: __ZN3std6thread6scoped9ScopeData29decrement_num_running_threads17hd5ed3a6ad36beb19E, symObjAddr: 0x1EB40, symBinAddr: 0x24200, symSize: 0x54 }
  - { offset: 0x11B10F, size: 0x8, addend: 0x0, symName: '__ZN63_$LT$std..thread..scoped..Scope$u20$as$u20$core..fmt..Debug$GT$3fmt17h03a519ca666c5c70E', symObjAddr: 0x1EB94, symBinAddr: 0x24254, symSize: 0xB8 }
  - { offset: 0x11B21D, size: 0x8, addend: 0x0, symName: '__ZN118_$LT$std..thread..thread_name_string..ThreadNameString$u20$as$u20$core..convert..From$LT$alloc..string..String$GT$$GT$4from17hbf893aa5b700f189E', symObjAddr: 0x1FD10, symBinAddr: 0x25194, symSize: 0x110 }
  - { offset: 0x11B435, size: 0x8, addend: 0x0, symName: '__ZN76_$LT$std..thread..spawnhook..SpawnHooks$u20$as$u20$core..ops..drop..Drop$GT$4drop17h86f5bc4ec7cecb4eE', symObjAddr: 0x1F034, symBinAddr: 0x24578, symSize: 0x104 }
  - { offset: 0x11B7D6, size: 0x8, addend: 0x0, symName: __ZN3std6thread9spawnhook15run_spawn_hooks17h0f2771d694e0306eE, symObjAddr: 0x1F138, symBinAddr: 0x2467C, symSize: 0x2CC }
  - { offset: 0x11BE1E, size: 0x8, addend: 0x0, symName: __ZN3std6thread9spawnhook15ChildSpawnHooks3run17h5a71b54ac2471fbdE, symObjAddr: 0x1F404, symBinAddr: 0x24948, symSize: 0x27C }
  - { offset: 0x11C535, size: 0x8, addend: 0x0, symName: __ZN3std6thread7Builder4name17h7c040734e04be8a6E, symObjAddr: 0x1F71C, symBinAddr: 0x24C1C, symSize: 0x84 }
  - { offset: 0x11C601, size: 0x8, addend: 0x0, symName: __ZN3std6thread9yield_now17h5be0791e151ee8c9E, symObjAddr: 0x1F7A0, symBinAddr: 0x24CA0, symSize: 0x10 }
  - { offset: 0x11C641, size: 0x8, addend: 0x0, symName: __ZN3std6thread8sleep_ms17h15ab3956520b9a20E, symObjAddr: 0x1F7B0, symBinAddr: 0x24CB0, symSize: 0xDC }
  - { offset: 0x11C6CC, size: 0x8, addend: 0x0, symName: __ZN3std6thread5sleep17h49898067c9327d6cE, symObjAddr: 0x1F88C, symBinAddr: 0x24D8C, symSize: 0xB8 }
  - { offset: 0x11C733, size: 0x8, addend: 0x0, symName: __ZN3std6thread11sleep_until17hf6192374634e96f4E, symObjAddr: 0x1F944, symBinAddr: 0x24E44, symSize: 0xEC }
  - { offset: 0x11C827, size: 0x8, addend: 0x0, symName: '__ZN65_$LT$std..thread..PanicGuard$u20$as$u20$core..ops..drop..Drop$GT$4drop17h83cbf53f8a7228c1E', symObjAddr: 0x1FA30, symBinAddr: 0x8C1B4, symSize: 0x44 }
  - { offset: 0x11C85A, size: 0x8, addend: 0x0, symName: __ZN3std6thread4park17h2153775fe0e8aab9E, symObjAddr: 0x1FA74, symBinAddr: 0x24F30, symSize: 0xC8 }
  - { offset: 0x11CABA, size: 0x8, addend: 0x0, symName: __ZN3std6thread15park_timeout_ms17hf2c7fafb0f71528fE, symObjAddr: 0x1FB3C, symBinAddr: 0x24FF8, symSize: 0x38 }
  - { offset: 0x11CAEC, size: 0x8, addend: 0x0, symName: __ZN3std6thread12park_timeout17h983fca907e4ec959E, symObjAddr: 0x1FB74, symBinAddr: 0x25030, symSize: 0x120 }
  - { offset: 0x11CD99, size: 0x8, addend: 0x0, symName: __ZN3std6thread8ThreadId3new9exhausted17hde9f2e00582afe2dE, symObjAddr: 0x1FCD8, symBinAddr: 0x8C1F8, symSize: 0x38 }
  - { offset: 0x11CDD3, size: 0x8, addend: 0x0, symName: '__ZN56_$LT$std..thread..Thread$u20$as$u20$core..fmt..Debug$GT$3fmt17h8e1d2302edc548b2E', symObjAddr: 0x20110, symBinAddr: 0x25594, symSize: 0xCC }
  - { offset: 0x11CF17, size: 0x8, addend: 0x0, symName: __ZN3std6thread21available_parallelism17h1f859128ea9b0b03E, symObjAddr: 0x201DC, symBinAddr: 0x25660, symSize: 0x50 }
  - { offset: 0x11CFE2, size: 0x8, addend: 0x0, symName: '__ZN58_$LT$std..thread..ThreadId$u20$as$u20$core..fmt..Debug$GT$3fmt17h00943e76949e8e87E', symObjAddr: 0x3C958, symBinAddr: 0x40D8C, symSize: 0x40 }
  - { offset: 0x11D013, size: 0x8, addend: 0x0, symName: __ZN3std2rt15handle_rt_panic17h0671710bd521e6d8E, symObjAddr: 0x1E3B4, symBinAddr: 0x8BF70, symSize: 0x44 }
  - { offset: 0x11D045, size: 0x8, addend: 0x0, symName: __ZN3std2rt7cleanup17h29817213b45c8ecfE, symObjAddr: 0x1E3F8, symBinAddr: 0x23AF8, symSize: 0x64 }
  - { offset: 0x11D06A, size: 0x8, addend: 0x0, symName: __ZN3std2rt7cleanup17h29817213b45c8ecfE, symObjAddr: 0x1E3F8, symBinAddr: 0x23AF8, symSize: 0x64 }
  - { offset: 0x11D07F, size: 0x8, addend: 0x0, symName: __ZN3std2rt7cleanup17h29817213b45c8ecfE, symObjAddr: 0x1E3F8, symBinAddr: 0x23AF8, symSize: 0x64 }
  - { offset: 0x11D094, size: 0x8, addend: 0x0, symName: __ZN3std2rt7cleanup17h29817213b45c8ecfE, symObjAddr: 0x1E3F8, symBinAddr: 0x23AF8, symSize: 0x64 }
  - { offset: 0x11D10D, size: 0x8, addend: 0x0, symName: __ZN3std2rt19lang_start_internal17ha7d36e169a6a9a91E, symObjAddr: 0x1E45C, symBinAddr: 0x23B5C, symSize: 0x684 }
  - { offset: 0x11DD28, size: 0x8, addend: 0x0, symName: '__ZN64_$LT$std..panic..PanicHookInfo$u20$as$u20$core..fmt..Display$GT$3fmt17heb653a2ac5289e5cE', symObjAddr: 0x30F08, symBinAddr: 0x3607C, symSize: 0x164 }
  - { offset: 0x11DF61, size: 0x8, addend: 0x0, symName: __ZN3std5panic13resume_unwind17h56bea57d2d844d5aE, symObjAddr: 0x3106C, symBinAddr: 0x8C450, symSize: 0xC }
  - { offset: 0x11DF7C, size: 0x8, addend: 0x0, symName: __ZN3std5panic12always_abort17h530d69aa415e52b2E, symObjAddr: 0x31078, symBinAddr: 0x361E0, symSize: 0x20 }
  - { offset: 0x11DFF8, size: 0x8, addend: 0x0, symName: __ZN3std5panic19set_backtrace_style17h38ba621dd5c2338bE, symObjAddr: 0x31098, symBinAddr: 0x36200, symSize: 0x1C }
  - { offset: 0x11E057, size: 0x8, addend: 0x0, symName: __ZN3std5panic19get_backtrace_style17hd00aacccb3280ba5E, symObjAddr: 0x310B4, symBinAddr: 0x3621C, symSize: 0x11C }
  - { offset: 0x11E076, size: 0x8, addend: 0x0, symName: __ZN3std5panic19get_backtrace_style17hd00aacccb3280ba5E, symObjAddr: 0x310B4, symBinAddr: 0x3621C, symSize: 0x11C }
  - { offset: 0x11E08C, size: 0x8, addend: 0x0, symName: __ZN3std5panic19get_backtrace_style17hd00aacccb3280ba5E, symObjAddr: 0x310B4, symBinAddr: 0x3621C, symSize: 0x11C }
  - { offset: 0x11E543, size: 0x8, addend: 0x0, symName: __ZN3std4time7Instant3now17h7cefccc2b0459d3bE, symObjAddr: 0x36504, symBinAddr: 0x3B39C, symSize: 0x14 }
  - { offset: 0x11E56E, size: 0x8, addend: 0x0, symName: __ZN3std4time7Instant14duration_since17h63fa29d1e3658192E, symObjAddr: 0x36518, symBinAddr: 0x3B3B0, symSize: 0x4C }
  - { offset: 0x11E5DD, size: 0x8, addend: 0x0, symName: __ZN3std4time7Instant22checked_duration_since17h942500987249bf9aE, symObjAddr: 0x36564, symBinAddr: 0x3B3FC, symSize: 0x50 }
  - { offset: 0x11E61F, size: 0x8, addend: 0x0, symName: __ZN3std4time7Instant7elapsed17ha4f3e8efd54c247bE, symObjAddr: 0x365B4, symBinAddr: 0x3B44C, symSize: 0x6C }
  - { offset: 0x11E71A, size: 0x8, addend: 0x0, symName: '__ZN60_$LT$std..time..Instant$u20$as$u20$core..ops..arith..Sub$GT$3sub17hb2c66376e56dd3c1E', symObjAddr: 0x367C8, symBinAddr: 0x3B660, symSize: 0x50 }
  - { offset: 0x11E7A7, size: 0x8, addend: 0x0, symName: '__ZN88_$LT$std..time..Instant$u20$as$u20$core..ops..arith..Add$LT$core..time..Duration$GT$$GT$3add17hc38682e34bbd4aa7E', symObjAddr: 0x36620, symBinAddr: 0x3B4B8, symSize: 0x64 }
  - { offset: 0x11E7BF, size: 0x8, addend: 0x0, symName: '__ZN88_$LT$std..time..Instant$u20$as$u20$core..ops..arith..Add$LT$core..time..Duration$GT$$GT$3add17hc38682e34bbd4aa7E', symObjAddr: 0x36620, symBinAddr: 0x3B4B8, symSize: 0x64 }
  - { offset: 0x11E7D5, size: 0x8, addend: 0x0, symName: '__ZN88_$LT$std..time..Instant$u20$as$u20$core..ops..arith..Add$LT$core..time..Duration$GT$$GT$3add17hc38682e34bbd4aa7E', symObjAddr: 0x36620, symBinAddr: 0x3B4B8, symSize: 0x64 }
  - { offset: 0x11E7EB, size: 0x8, addend: 0x0, symName: '__ZN88_$LT$std..time..Instant$u20$as$u20$core..ops..arith..Add$LT$core..time..Duration$GT$$GT$3add17hc38682e34bbd4aa7E', symObjAddr: 0x36620, symBinAddr: 0x3B4B8, symSize: 0x64 }
  - { offset: 0x11E801, size: 0x8, addend: 0x0, symName: '__ZN88_$LT$std..time..Instant$u20$as$u20$core..ops..arith..Add$LT$core..time..Duration$GT$$GT$3add17hc38682e34bbd4aa7E', symObjAddr: 0x36620, symBinAddr: 0x3B4B8, symSize: 0x64 }
  - { offset: 0x11E816, size: 0x8, addend: 0x0, symName: '__ZN88_$LT$std..time..Instant$u20$as$u20$core..ops..arith..Add$LT$core..time..Duration$GT$$GT$3add17hc38682e34bbd4aa7E', symObjAddr: 0x36620, symBinAddr: 0x3B4B8, symSize: 0x64 }
  - { offset: 0x11E82C, size: 0x8, addend: 0x0, symName: '__ZN88_$LT$std..time..Instant$u20$as$u20$core..ops..arith..Add$LT$core..time..Duration$GT$$GT$3add17hc38682e34bbd4aa7E', symObjAddr: 0x36620, symBinAddr: 0x3B4B8, symSize: 0x64 }
  - { offset: 0x11E8C7, size: 0x8, addend: 0x0, symName: '__ZN94_$LT$std..time..Instant$u20$as$u20$core..ops..arith..AddAssign$LT$core..time..Duration$GT$$GT$10add_assign17h9a953385726a1788E', symObjAddr: 0x36684, symBinAddr: 0x3B51C, symSize: 0x74 }
  - { offset: 0x11E9D7, size: 0x8, addend: 0x0, symName: '__ZN88_$LT$std..time..Instant$u20$as$u20$core..ops..arith..Sub$LT$core..time..Duration$GT$$GT$3sub17h69b61f3a22542870E', symObjAddr: 0x366F8, symBinAddr: 0x3B590, symSize: 0x5C }
  - { offset: 0x11EA19, size: 0x8, addend: 0x0, symName: '__ZN88_$LT$std..time..Instant$u20$as$u20$core..ops..arith..Sub$LT$core..time..Duration$GT$$GT$3sub17h69b61f3a22542870E', symObjAddr: 0x366F8, symBinAddr: 0x3B590, symSize: 0x5C }
  - { offset: 0x11EA2E, size: 0x8, addend: 0x0, symName: '__ZN88_$LT$std..time..Instant$u20$as$u20$core..ops..arith..Sub$LT$core..time..Duration$GT$$GT$3sub17h69b61f3a22542870E', symObjAddr: 0x366F8, symBinAddr: 0x3B590, symSize: 0x5C }
  - { offset: 0x11EA44, size: 0x8, addend: 0x0, symName: '__ZN88_$LT$std..time..Instant$u20$as$u20$core..ops..arith..Sub$LT$core..time..Duration$GT$$GT$3sub17h69b61f3a22542870E', symObjAddr: 0x366F8, symBinAddr: 0x3B590, symSize: 0x5C }
  - { offset: 0x11EADF, size: 0x8, addend: 0x0, symName: '__ZN94_$LT$std..time..Instant$u20$as$u20$core..ops..arith..SubAssign$LT$core..time..Duration$GT$$GT$10sub_assign17h7012f3652895e270E', symObjAddr: 0x36754, symBinAddr: 0x3B5EC, symSize: 0x74 }
  - { offset: 0x11EBEF, size: 0x8, addend: 0x0, symName: '__ZN55_$LT$std..time..Instant$u20$as$u20$core..fmt..Debug$GT$3fmt17h0938905c58b075a0E', symObjAddr: 0x36818, symBinAddr: 0x3B6B0, symSize: 0x80 }
  - { offset: 0x11EC28, size: 0x8, addend: 0x0, symName: __ZN3std4time10SystemTime3now17h31505e2111fd3a25E, symObjAddr: 0x36898, symBinAddr: 0x3B730, symSize: 0x14 }
  - { offset: 0x11EC53, size: 0x8, addend: 0x0, symName: __ZN3std4time10SystemTime14duration_since17h6f3f45c4d40501f9E, symObjAddr: 0x368AC, symBinAddr: 0x3B744, symSize: 0x50 }
  - { offset: 0x11ECB0, size: 0x8, addend: 0x0, symName: __ZN3std4time10SystemTime7elapsed17hde585701042845e3E, symObjAddr: 0x368FC, symBinAddr: 0x3B794, symSize: 0x68 }
  - { offset: 0x11ED3C, size: 0x8, addend: 0x0, symName: __ZN3std4time10SystemTime11checked_add17hd22e0ccb70768de3E, symObjAddr: 0x36964, symBinAddr: 0x3B7FC, symSize: 0x7C }
  - { offset: 0x11EDF1, size: 0x8, addend: 0x0, symName: __ZN3std4time10SystemTime11checked_sub17h103831168cdcd88fE, symObjAddr: 0x369E0, symBinAddr: 0x3B878, symSize: 0x6C }
  - { offset: 0x11EEC9, size: 0x8, addend: 0x0, symName: '__ZN91_$LT$std..time..SystemTime$u20$as$u20$core..ops..arith..Add$LT$core..time..Duration$GT$$GT$3add17hd272513ff52d5796E', symObjAddr: 0x36A4C, symBinAddr: 0x3B8E4, symSize: 0x64 }
  - { offset: 0x11EEE1, size: 0x8, addend: 0x0, symName: '__ZN91_$LT$std..time..SystemTime$u20$as$u20$core..ops..arith..Add$LT$core..time..Duration$GT$$GT$3add17hd272513ff52d5796E', symObjAddr: 0x36A4C, symBinAddr: 0x3B8E4, symSize: 0x64 }
  - { offset: 0x11EEF7, size: 0x8, addend: 0x0, symName: '__ZN91_$LT$std..time..SystemTime$u20$as$u20$core..ops..arith..Add$LT$core..time..Duration$GT$$GT$3add17hd272513ff52d5796E', symObjAddr: 0x36A4C, symBinAddr: 0x3B8E4, symSize: 0x64 }
  - { offset: 0x11EF0D, size: 0x8, addend: 0x0, symName: '__ZN91_$LT$std..time..SystemTime$u20$as$u20$core..ops..arith..Add$LT$core..time..Duration$GT$$GT$3add17hd272513ff52d5796E', symObjAddr: 0x36A4C, symBinAddr: 0x3B8E4, symSize: 0x64 }
  - { offset: 0x11EF22, size: 0x8, addend: 0x0, symName: '__ZN91_$LT$std..time..SystemTime$u20$as$u20$core..ops..arith..Add$LT$core..time..Duration$GT$$GT$3add17hd272513ff52d5796E', symObjAddr: 0x36A4C, symBinAddr: 0x3B8E4, symSize: 0x64 }
  - { offset: 0x11EF37, size: 0x8, addend: 0x0, symName: '__ZN91_$LT$std..time..SystemTime$u20$as$u20$core..ops..arith..Add$LT$core..time..Duration$GT$$GT$3add17hd272513ff52d5796E', symObjAddr: 0x36A4C, symBinAddr: 0x3B8E4, symSize: 0x64 }
  - { offset: 0x11EF4D, size: 0x8, addend: 0x0, symName: '__ZN91_$LT$std..time..SystemTime$u20$as$u20$core..ops..arith..Add$LT$core..time..Duration$GT$$GT$3add17hd272513ff52d5796E', symObjAddr: 0x36A4C, symBinAddr: 0x3B8E4, symSize: 0x64 }
  - { offset: 0x11EFE8, size: 0x8, addend: 0x0, symName: '__ZN97_$LT$std..time..SystemTime$u20$as$u20$core..ops..arith..AddAssign$LT$core..time..Duration$GT$$GT$10add_assign17h87fb9f7550b3d977E', symObjAddr: 0x36AB0, symBinAddr: 0x3B948, symSize: 0x74 }
  - { offset: 0x11F0F7, size: 0x8, addend: 0x0, symName: '__ZN91_$LT$std..time..SystemTime$u20$as$u20$core..ops..arith..Sub$LT$core..time..Duration$GT$$GT$3sub17h990e4479bebf1e44E', symObjAddr: 0x36B24, symBinAddr: 0x3B9BC, symSize: 0x5C }
  - { offset: 0x11F138, size: 0x8, addend: 0x0, symName: '__ZN91_$LT$std..time..SystemTime$u20$as$u20$core..ops..arith..Sub$LT$core..time..Duration$GT$$GT$3sub17h990e4479bebf1e44E', symObjAddr: 0x36B24, symBinAddr: 0x3B9BC, symSize: 0x5C }
  - { offset: 0x11F14D, size: 0x8, addend: 0x0, symName: '__ZN91_$LT$std..time..SystemTime$u20$as$u20$core..ops..arith..Sub$LT$core..time..Duration$GT$$GT$3sub17h990e4479bebf1e44E', symObjAddr: 0x36B24, symBinAddr: 0x3B9BC, symSize: 0x5C }
  - { offset: 0x11F163, size: 0x8, addend: 0x0, symName: '__ZN91_$LT$std..time..SystemTime$u20$as$u20$core..ops..arith..Sub$LT$core..time..Duration$GT$$GT$3sub17h990e4479bebf1e44E', symObjAddr: 0x36B24, symBinAddr: 0x3B9BC, symSize: 0x5C }
  - { offset: 0x11F1FE, size: 0x8, addend: 0x0, symName: '__ZN97_$LT$std..time..SystemTime$u20$as$u20$core..ops..arith..SubAssign$LT$core..time..Duration$GT$$GT$10sub_assign17h6b5833efbb4f909eE', symObjAddr: 0x36B80, symBinAddr: 0x3BA18, symSize: 0x74 }
  - { offset: 0x11F30D, size: 0x8, addend: 0x0, symName: '__ZN58_$LT$std..time..SystemTime$u20$as$u20$core..fmt..Debug$GT$3fmt17he8af19a91418b6e7E', symObjAddr: 0x36BF4, symBinAddr: 0x3BA8C, symSize: 0x80 }
  - { offset: 0x11F346, size: 0x8, addend: 0x0, symName: '__ZN65_$LT$std..time..SystemTimeError$u20$as$u20$core..fmt..Display$GT$3fmt17habb15378b06adbfcE', symObjAddr: 0x36C74, symBinAddr: 0x3BB0C, symSize: 0x24 }
  - { offset: 0x11F3A8, size: 0x8, addend: 0x0, symName: __ZN3std3env11current_dir17hd8ef41437afa328cE, symObjAddr: 0x21160, symBinAddr: 0x265E4, symSize: 0x1A8 }
  - { offset: 0x11F7A5, size: 0x8, addend: 0x0, symName: __ZN3std3env4vars17h7ac3e0bfa28984a4E, symObjAddr: 0x21308, symBinAddr: 0x2678C, symSize: 0x10 }
  - { offset: 0x11F7BF, size: 0x8, addend: 0x0, symName: __ZN3std3env7vars_os17h4eb4c1e301a6c6ecE, symObjAddr: 0x21318, symBinAddr: 0x2679C, symSize: 0x31C }
  - { offset: 0x11FE90, size: 0x8, addend: 0x0, symName: '__ZN75_$LT$std..env..VarsOs$u20$as$u20$core..iter..traits..iterator..Iterator$GT$4next17hb0c234ca2f3d8d28E', symObjAddr: 0x218A8, symBinAddr: 0x26D2C, symSize: 0x48 }
  - { offset: 0x11FF17, size: 0x8, addend: 0x0, symName: '__ZN75_$LT$std..env..VarsOs$u20$as$u20$core..iter..traits..iterator..Iterator$GT$9size_hint17h4f0cddb9ee63c20eE', symObjAddr: 0x218F0, symBinAddr: 0x26D74, symSize: 0x38 }
  - { offset: 0x11FFB6, size: 0x8, addend: 0x0, symName: '__ZN73_$LT$std..env..Vars$u20$as$u20$core..iter..traits..iterator..Iterator$GT$4next17h7ee5361c6098e66dE', symObjAddr: 0x21634, symBinAddr: 0x26AB8, symSize: 0x1B8 }
  - { offset: 0x1204F2, size: 0x8, addend: 0x0, symName: '__ZN73_$LT$std..env..Vars$u20$as$u20$core..iter..traits..iterator..Iterator$GT$9size_hint17h9cb2faba4fe4cb2eE', symObjAddr: 0x217EC, symBinAddr: 0x26C70, symSize: 0x38 }
  - { offset: 0x120599, size: 0x8, addend: 0x0, symName: '__ZN51_$LT$std..env..Vars$u20$as$u20$core..fmt..Debug$GT$3fmt17hcfecaf1800b89d8aE', symObjAddr: 0x21824, symBinAddr: 0x26CA8, symSize: 0x84 }
  - { offset: 0x120656, size: 0x8, addend: 0x0, symName: '__ZN53_$LT$std..env..VarsOs$u20$as$u20$core..fmt..Debug$GT$3fmt17h986e8430b55919dcE', symObjAddr: 0x21928, symBinAddr: 0x26DAC, symSize: 0x64 }
  - { offset: 0x120671, size: 0x8, addend: 0x0, symName: __ZN3std3env4_var17hd65c0a94b19ee215E, symObjAddr: 0x2198C, symBinAddr: 0x26E10, symSize: 0x98 }
  - { offset: 0x120779, size: 0x8, addend: 0x0, symName: __ZN3std3env7_var_os17h6a9a003bd040426cE, symObjAddr: 0x21A24, symBinAddr: 0x26EA8, symSize: 0x164 }
  - { offset: 0x120A1E, size: 0x8, addend: 0x0, symName: '__ZN57_$LT$std..env..VarError$u20$as$u20$core..fmt..Display$GT$3fmt17h904554a208b235adE', symObjAddr: 0x21B88, symBinAddr: 0x2700C, symSize: 0x78 }
  - { offset: 0x120A7C, size: 0x8, addend: 0x0, symName: '__ZN79_$LT$std..env..SplitPaths$u20$as$u20$core..iter..traits..iterator..Iterator$GT$4next17ha2f20b36b1e9592eE', symObjAddr: 0x21C00, symBinAddr: 0x27084, symSize: 0xA8 }
  - { offset: 0x120BE1, size: 0x8, addend: 0x0, symName: '__ZN57_$LT$std..env..SplitPaths$u20$as$u20$core..fmt..Debug$GT$3fmt17he97a221b1fbb8bccE', symObjAddr: 0x21CA8, symBinAddr: 0x2712C, symSize: 0x38 }
  - { offset: 0x120C03, size: 0x8, addend: 0x0, symName: '__ZN63_$LT$std..env..JoinPathsError$u20$as$u20$core..fmt..Display$GT$3fmt17h66ae83d03c0a84deE', symObjAddr: 0x21CE0, symBinAddr: 0x27164, symSize: 0x5C }
  - { offset: 0x120C85, size: 0x8, addend: 0x0, symName: __ZN3std3env8home_dir17h404facb7f4f6614cE, symObjAddr: 0x21D3C, symBinAddr: 0x271C0, symSize: 0x1AC }
  - { offset: 0x121079, size: 0x8, addend: 0x0, symName: __ZN3std3env8temp_dir17h3dd9744591082eaaE, symObjAddr: 0x21EE8, symBinAddr: 0x2736C, symSize: 0x1DC }
  - { offset: 0x1214E1, size: 0x8, addend: 0x0, symName: __ZN3std3env11current_exe17h4ba3895f6ff54e2aE, symObjAddr: 0x220C4, symBinAddr: 0x27548, symSize: 0xDC }
  - { offset: 0x1216DD, size: 0x8, addend: 0x0, symName: __ZN3std3env4args17hde14f4934c86e2ddE, symObjAddr: 0x221A0, symBinAddr: 0x27624, symSize: 0x10 }
  - { offset: 0x1216F8, size: 0x8, addend: 0x0, symName: __ZN3std3env7args_os17h8c8daef733c42d6dE, symObjAddr: 0x221B0, symBinAddr: 0x27634, symSize: 0x208 }
  - { offset: 0x121C04, size: 0x8, addend: 0x0, symName: '__ZN73_$LT$std..env..Args$u20$as$u20$core..iter..traits..iterator..Iterator$GT$4next17hd466f957c1b1bbd6E', symObjAddr: 0x223B8, symBinAddr: 0x2783C, symSize: 0xE8 }
  - { offset: 0x121E8F, size: 0x8, addend: 0x0, symName: '__ZN88_$LT$std..env..Args$u20$as$u20$core..iter..traits..double_ended..DoubleEndedIterator$GT$9next_back17h2371ce07f0c92543E', symObjAddr: 0x224A0, symBinAddr: 0x27924, symSize: 0xE4 }
  - { offset: 0x1220C6, size: 0x8, addend: 0x0, symName: '__ZN51_$LT$std..env..Args$u20$as$u20$core..fmt..Debug$GT$3fmt17he0f130c2a3ed1dadE', symObjAddr: 0x22584, symBinAddr: 0x27A08, symSize: 0x64 }
  - { offset: 0x1220E8, size: 0x8, addend: 0x0, symName: '__ZN53_$LT$std..env..ArgsOs$u20$as$u20$core..fmt..Debug$GT$3fmt17hb8a22233c67e0d13E', symObjAddr: 0x225E8, symBinAddr: 0x27A6C, symSize: 0x64 }
  - { offset: 0x122173, size: 0x8, addend: 0x0, symName: __ZN3std2fs11OpenOptions5_open17hb6fb54bdbed06fc9E, symObjAddr: 0x23F78, symBinAddr: 0x293FC, symSize: 0x250 }
  - { offset: 0x12235F, size: 0x8, addend: 0x0, symName: __ZN3std2fs4File8sync_all17h3ab6c01ba4e49bb2E, symObjAddr: 0x230B0, symBinAddr: 0x28534, symSize: 0x58 }
  - { offset: 0x122447, size: 0x8, addend: 0x0, symName: __ZN3std2fs4File4lock17hefc2569f5a3b730aE, symObjAddr: 0x23108, symBinAddr: 0x2858C, symSize: 0x3C }
  - { offset: 0x1224EB, size: 0x8, addend: 0x0, symName: __ZN3std2fs4File11lock_shared17h0f9911299bdc6076E, symObjAddr: 0x23144, symBinAddr: 0x285C8, symSize: 0x3C }
  - { offset: 0x12258F, size: 0x8, addend: 0x0, symName: __ZN3std2fs4File8try_lock17he48a094d3760fd32E, symObjAddr: 0x23180, symBinAddr: 0x28604, symSize: 0x58 }
  - { offset: 0x122649, size: 0x8, addend: 0x0, symName: __ZN3std2fs4File15try_lock_shared17h3637817b0a229510E, symObjAddr: 0x231D8, symBinAddr: 0x2865C, symSize: 0x58 }
  - { offset: 0x122703, size: 0x8, addend: 0x0, symName: __ZN3std2fs4File6unlock17hb8f3b157307ea39cE, symObjAddr: 0x23230, symBinAddr: 0x286B4, symSize: 0x3C }
  - { offset: 0x1227A7, size: 0x8, addend: 0x0, symName: __ZN3std2fs4File7set_len17h5406cd9d8eb1b7b9E, symObjAddr: 0x2326C, symBinAddr: 0x286F0, symSize: 0x7C }
  - { offset: 0x1228D2, size: 0x8, addend: 0x0, symName: __ZN3std2fs4File8metadata17h426bb8c2f5483db1E, symObjAddr: 0x232E8, symBinAddr: 0x2876C, symSize: 0xAC }
  - { offset: 0x1229D8, size: 0x8, addend: 0x0, symName: __ZN3std2fs4File9try_clone17he3abd0ae26b4ac7aE, symObjAddr: 0x23394, symBinAddr: 0x28818, symSize: 0x68 }
  - { offset: 0x122AAE, size: 0x8, addend: 0x0, symName: __ZN3std2fs4File15set_permissions17h241f06a1eebf33a3E, symObjAddr: 0x233FC, symBinAddr: 0x28880, symSize: 0x64 }
  - { offset: 0x122B78, size: 0x8, addend: 0x0, symName: __ZN3std2fs4File9set_times17h308d8be1605caf34E, symObjAddr: 0x23460, symBinAddr: 0x288E4, symSize: 0xF0 }
  - { offset: 0x122D08, size: 0x8, addend: 0x0, symName: __ZN3std2fs4read5inner17h9d1d1787c0b35fcdE, symObjAddr: 0x22B90, symBinAddr: 0x28014, symSize: 0x198 }
  - { offset: 0x123136, size: 0x8, addend: 0x0, symName: __ZN3std2fs14read_to_string5inner17h246b8f92a080ea5fE, symObjAddr: 0x22D28, symBinAddr: 0x281AC, symSize: 0x1E8 }
  - { offset: 0x123717, size: 0x8, addend: 0x0, symName: '__ZN52_$LT$$RF$std..fs..File$u20$as$u20$std..io..Write$GT$5write17h61717fa82704c84aE', symObjAddr: 0x23830, symBinAddr: 0x28CB4, symSize: 0x5C }
  - { offset: 0x12380E, size: 0x8, addend: 0x0, symName: '__ZN52_$LT$$RF$std..fs..File$u20$as$u20$std..io..Write$GT$14write_vectored17h3b4c09d1aaad6bb9E', symObjAddr: 0x2388C, symBinAddr: 0x28D10, symSize: 0x5C }
  - { offset: 0x123928, size: 0x8, addend: 0x0, symName: '__ZN48_$LT$std..fs..File$u20$as$u20$std..io..Write$GT$5write17h1b7dd9ce8ed5957cE', symObjAddr: 0x23B14, symBinAddr: 0x28F98, symSize: 0x58 }
  - { offset: 0x123A36, size: 0x8, addend: 0x0, symName: '__ZN48_$LT$std..fs..File$u20$as$u20$std..io..Write$GT$14write_vectored17h2591e9c7d9cea683E', symObjAddr: 0x23B6C, symBinAddr: 0x28FF0, symSize: 0x58 }
  - { offset: 0x123B59, size: 0x8, addend: 0x0, symName: __ZN3std2fs5write5inner17h2505d16e7ab1fc09E, symObjAddr: 0x22F10, symBinAddr: 0x28394, symSize: 0x130 }
  - { offset: 0x123E90, size: 0x8, addend: 0x0, symName: '__ZN58_$LT$std..fs..TryLockError$u20$as$u20$core..fmt..Debug$GT$3fmt17hcd136cf17d571501E', symObjAddr: 0x23040, symBinAddr: 0x284C4, symSize: 0x34 }
  - { offset: 0x123EC9, size: 0x8, addend: 0x0, symName: '__ZN60_$LT$std..fs..TryLockError$u20$as$u20$core..fmt..Display$GT$3fmt17hed75d8866f9917b2E', symObjAddr: 0x23074, symBinAddr: 0x284F8, symSize: 0x3C }
  - { offset: 0x123EEB, size: 0x8, addend: 0x0, symName: '__ZN50_$LT$std..fs..File$u20$as$u20$core..fmt..Debug$GT$3fmt17h5268c0e46b187365E', symObjAddr: 0x23550, symBinAddr: 0x289D4, symSize: 0x10 }
  - { offset: 0x123F29, size: 0x8, addend: 0x0, symName: '__ZN51_$LT$$RF$std..fs..File$u20$as$u20$std..io..Seek$GT$4seek17hce51a4f1e9742944E', symObjAddr: 0x238E8, symBinAddr: 0x28D6C, symSize: 0x64 }
  - { offset: 0x123FDC, size: 0x8, addend: 0x0, symName: '__ZN51_$LT$$RF$std..fs..File$u20$as$u20$std..io..Seek$GT$15stream_position17h1131d0d95e84ecacE', symObjAddr: 0x2394C, symBinAddr: 0x28DD0, symSize: 0x58 }
  - { offset: 0x1240BB, size: 0x8, addend: 0x0, symName: '__ZN51_$LT$$RF$std..fs..File$u20$as$u20$std..io..Read$GT$11read_to_end17h13f3359d72ac0f21E', symObjAddr: 0x23560, symBinAddr: 0x289E4, symSize: 0x16C }
  - { offset: 0x1243D5, size: 0x8, addend: 0x0, symName: '__ZN51_$LT$$RF$std..fs..File$u20$as$u20$std..io..Read$GT$14read_to_string17h8648466468d50ad4E', symObjAddr: 0x236CC, symBinAddr: 0x28B50, symSize: 0x164 }
  - { offset: 0x12480D, size: 0x8, addend: 0x0, symName: '__ZN47_$LT$std..fs..File$u20$as$u20$std..io..Read$GT$4read17h109914df5a0aeb44E', symObjAddr: 0x239A4, symBinAddr: 0x28E28, symSize: 0x58 }
  - { offset: 0x124945, size: 0x8, addend: 0x0, symName: '__ZN47_$LT$std..fs..File$u20$as$u20$std..io..Read$GT$13read_vectored17h911d53b835efbfa6E', symObjAddr: 0x239FC, symBinAddr: 0x28E80, symSize: 0x58 }
  - { offset: 0x124A7D, size: 0x8, addend: 0x0, symName: '__ZN47_$LT$std..fs..File$u20$as$u20$std..io..Read$GT$8read_buf17h2ac59476625d7ce4E', symObjAddr: 0x23A54, symBinAddr: 0x28ED8, symSize: 0x78 }
  - { offset: 0x124C6E, size: 0x8, addend: 0x0, symName: '__ZN47_$LT$std..fs..File$u20$as$u20$std..io..Read$GT$11read_to_end17h6b2fac5f85fd4b3dE', symObjAddr: 0x23ACC, symBinAddr: 0x28F50, symSize: 0x24 }
  - { offset: 0x124C82, size: 0x8, addend: 0x0, symName: '__ZN47_$LT$std..fs..File$u20$as$u20$std..io..Read$GT$14read_to_string17hd260c94a81e5b670E', symObjAddr: 0x23AF0, symBinAddr: 0x28F74, symSize: 0x24 }
  - { offset: 0x124CE3, size: 0x8, addend: 0x0, symName: '__ZN47_$LT$std..fs..File$u20$as$u20$std..io..Seek$GT$4seek17ha89d43742902e7feE', symObjAddr: 0x23BC4, symBinAddr: 0x29048, symSize: 0x60 }
  - { offset: 0x124DB4, size: 0x8, addend: 0x0, symName: '__ZN47_$LT$std..fs..File$u20$as$u20$std..io..Seek$GT$15stream_position17h762e7d81d9e2fd21E', symObjAddr: 0x23C24, symBinAddr: 0x290A8, symSize: 0x54 }
  - { offset: 0x124EA3, size: 0x8, addend: 0x0, symName: '__ZN3std2fs81_$LT$impl$u20$std..io..Read$u20$for$u20$alloc..sync..Arc$LT$std..fs..File$GT$$GT$4read17h18c72b4303d2b6cbE', symObjAddr: 0x23C78, symBinAddr: 0x290FC, symSize: 0x5C }
  - { offset: 0x125026, size: 0x8, addend: 0x0, symName: '__ZN3std2fs81_$LT$impl$u20$std..io..Read$u20$for$u20$alloc..sync..Arc$LT$std..fs..File$GT$$GT$13read_vectored17h6b7589c02462acbaE', symObjAddr: 0x23CD4, symBinAddr: 0x29158, symSize: 0x5C }
  - { offset: 0x1251A9, size: 0x8, addend: 0x0, symName: '__ZN3std2fs81_$LT$impl$u20$std..io..Read$u20$for$u20$alloc..sync..Arc$LT$std..fs..File$GT$$GT$8read_buf17h9ea9689a1333da9eE', symObjAddr: 0x23D30, symBinAddr: 0x291B4, symSize: 0x7C }
  - { offset: 0x1253E5, size: 0x8, addend: 0x0, symName: '__ZN3std2fs81_$LT$impl$u20$std..io..Read$u20$for$u20$alloc..sync..Arc$LT$std..fs..File$GT$$GT$11read_to_end17h8ffe0407c3d8a12fE', symObjAddr: 0x23DAC, symBinAddr: 0x29230, symSize: 0x2C }
  - { offset: 0x125445, size: 0x8, addend: 0x0, symName: '__ZN3std2fs81_$LT$impl$u20$std..io..Read$u20$for$u20$alloc..sync..Arc$LT$std..fs..File$GT$$GT$14read_to_string17ha20579850ae27c6aE', symObjAddr: 0x23DD8, symBinAddr: 0x2925C, symSize: 0x2C }
  - { offset: 0x1254AC, size: 0x8, addend: 0x0, symName: '__ZN3std2fs82_$LT$impl$u20$std..io..Write$u20$for$u20$alloc..sync..Arc$LT$std..fs..File$GT$$GT$5write17h656e240935e5509cE', symObjAddr: 0x23E04, symBinAddr: 0x29288, symSize: 0x5C }
  - { offset: 0x125605, size: 0x8, addend: 0x0, symName: '__ZN3std2fs82_$LT$impl$u20$std..io..Write$u20$for$u20$alloc..sync..Arc$LT$std..fs..File$GT$$GT$14write_vectored17h1cb18eb256703b3aE', symObjAddr: 0x23E60, symBinAddr: 0x292E4, symSize: 0x5C }
  - { offset: 0x125765, size: 0x8, addend: 0x0, symName: '__ZN3std2fs81_$LT$impl$u20$std..io..Seek$u20$for$u20$alloc..sync..Arc$LT$std..fs..File$GT$$GT$4seek17h8fb6625b9c340fc4E', symObjAddr: 0x23EBC, symBinAddr: 0x29340, symSize: 0x64 }
  - { offset: 0x12587A, size: 0x8, addend: 0x0, symName: '__ZN3std2fs81_$LT$impl$u20$std..io..Seek$u20$for$u20$alloc..sync..Arc$LT$std..fs..File$GT$$GT$15stream_position17h698bd9d52f3d75ebE', symObjAddr: 0x23F20, symBinAddr: 0x293A4, symSize: 0x58 }
  - { offset: 0x1259AD, size: 0x8, addend: 0x0, symName: __ZN3std2fs8Metadata8modified17he36737edc0d3b34dE, symObjAddr: 0x241C8, symBinAddr: 0x2964C, symSize: 0x70 }
  - { offset: 0x125A10, size: 0x8, addend: 0x0, symName: __ZN3std2fs8Metadata8accessed17ha6447700a33c6a79E, symObjAddr: 0x24238, symBinAddr: 0x296BC, symSize: 0x70 }
  - { offset: 0x125A73, size: 0x8, addend: 0x0, symName: __ZN3std2fs8Metadata7created17h7a0b7ef5a08dfd8bE, symObjAddr: 0x242A8, symBinAddr: 0x2972C, symSize: 0x70 }
  - { offset: 0x125B5B, size: 0x8, addend: 0x0, symName: '__ZN54_$LT$std..fs..Metadata$u20$as$u20$core..fmt..Debug$GT$3fmt17had57a20dab86d36fE', symObjAddr: 0x24318, symBinAddr: 0x2979C, symSize: 0x1F0 }
  - { offset: 0x125CF7, size: 0x8, addend: 0x0, symName: '__ZN54_$LT$std..fs..FileType$u20$as$u20$core..fmt..Debug$GT$3fmt17h92542afdfd079b67E', symObjAddr: 0x24508, symBinAddr: 0x2998C, symSize: 0xC8 }
  - { offset: 0x125E2A, size: 0x8, addend: 0x0, symName: '__ZN75_$LT$std..fs..ReadDir$u20$as$u20$core..iter..traits..iterator..Iterator$GT$4next17h7f892f9b555d1233E', symObjAddr: 0x245D0, symBinAddr: 0x29A54, symSize: 0x18C }
  - { offset: 0x126104, size: 0x8, addend: 0x0, symName: __ZN3std2fs8DirEntry4path17h894c805b75ffe49cE, symObjAddr: 0x2475C, symBinAddr: 0x29BE0, symSize: 0x24 }
  - { offset: 0x1262B3, size: 0x8, addend: 0x0, symName: __ZN3std2fs8DirEntry8metadata17he892e147e82a9844E, symObjAddr: 0x24780, symBinAddr: 0x29C04, symSize: 0xA0 }
  - { offset: 0x1262E5, size: 0x8, addend: 0x0, symName: __ZN3std2fs8DirEntry9file_type17h3dc004881ff96526E, symObjAddr: 0x24820, symBinAddr: 0x29CA4, symSize: 0x88 }
  - { offset: 0x12632C, size: 0x8, addend: 0x0, symName: __ZN3std2fs8DirEntry9file_name17h189bd3c794eb918fE, symObjAddr: 0x248A8, symBinAddr: 0x29D2C, symSize: 0x80 }
  - { offset: 0x1264AD, size: 0x8, addend: 0x0, symName: '__ZN54_$LT$std..fs..DirEntry$u20$as$u20$core..fmt..Debug$GT$3fmt17hd38837ed7ccc374cE', symObjAddr: 0x24928, symBinAddr: 0x29DAC, symSize: 0xB0 }
  - { offset: 0x1267E1, size: 0x8, addend: 0x0, symName: __ZN3std2fs10DirBuilder7_create17h9fae57c7b396d838E, symObjAddr: 0x249D8, symBinAddr: 0x29E5C, symSize: 0xC8 }
  - { offset: 0x126907, size: 0x8, addend: 0x0, symName: __ZN3std2fs10DirBuilder14create_dir_all17h448978ed3925d84aE, symObjAddr: 0x24AA0, symBinAddr: 0x29F24, symSize: 0x46C }
  - { offset: 0x127135, size: 0x8, addend: 0x0, symName: '__ZN57_$LT$std..fs..Permissions$u20$as$u20$core..fmt..Debug$GT$3fmt17hc7d6d2958480b2a2E', symObjAddr: 0x3CBB0, symBinAddr: 0x40FE4, symSize: 0x40 }
  - { offset: 0x127171, size: 0x8, addend: 0x0, symName: '__ZN67_$LT$std..hash..random..RandomState$u20$as$u20$core..fmt..Debug$GT$3fmt17h6f0123efbff9026aE', symObjAddr: 0x24F0C, symBinAddr: 0x2A390, symSize: 0x38 }
  - { offset: 0x1271AE, size: 0x8, addend: 0x0, symName: __ZN3std3net11socket_addr19resolve_socket_addr17h96b00d32b938a350E, symObjAddr: 0x2D0A8, symBinAddr: 0x3221C, symSize: 0x35C }
  - { offset: 0x1277B2, size: 0x8, addend: 0x0, symName: '__ZN78_$LT$$LP$$RF$str$C$u16$RP$$u20$as$u20$std..net..socket_addr..ToSocketAddrs$GT$15to_socket_addrs17h454ea05705eef0a4E', symObjAddr: 0x2D404, symBinAddr: 0x32578, symSize: 0x1CC }
  - { offset: 0x1279B0, size: 0x8, addend: 0x0, symName: '__ZN92_$LT$$LP$alloc..string..String$C$u16$RP$$u20$as$u20$std..net..socket_addr..ToSocketAddrs$GT$15to_socket_addrs17he783b4e046188f89E', symObjAddr: 0x2D5D0, symBinAddr: 0x32744, symSize: 0x30 }
  - { offset: 0x127A71, size: 0x8, addend: 0x0, symName: '__ZN60_$LT$str$u20$as$u20$std..net..socket_addr..ToSocketAddrs$GT$15to_socket_addrs17haa583a426e8ec0c1E', symObjAddr: 0x2D600, symBinAddr: 0x32774, symSize: 0xCC }
  - { offset: 0x127B5C, size: 0x8, addend: 0x0, symName: '__ZN78_$LT$alloc..string..String$u20$as$u20$std..net..socket_addr..ToSocketAddrs$GT$15to_socket_addrs17h1180c2710a97101dE', symObjAddr: 0x2D6CC, symBinAddr: 0x32840, symSize: 0x18 }
  - { offset: 0x127C26, size: 0x8, addend: 0x0, symName: __ZN3std3net3tcp9TcpStream15connect_timeout17h8285648ba9a78c3eE, symObjAddr: 0x2D6E4, symBinAddr: 0x32858, symSize: 0x488 }
  - { offset: 0x12842C, size: 0x8, addend: 0x0, symName: __ZN3std3net3tcp9TcpStream9peer_addr17h6379beb6eebdb49aE, symObjAddr: 0x2DB6C, symBinAddr: 0x32CE0, symSize: 0x18 }
  - { offset: 0x128446, size: 0x8, addend: 0x0, symName: __ZN3std3net3tcp9TcpStream12read_timeout17h2d9939e713ddaa35E, symObjAddr: 0x2DB84, symBinAddr: 0x32CF8, symSize: 0xE8 }
  - { offset: 0x1285A1, size: 0x8, addend: 0x0, symName: __ZN3std3net3tcp9TcpStream13write_timeout17hc822e168004cd409E, symObjAddr: 0x2DC6C, symBinAddr: 0x32DE0, symSize: 0xE8 }
  - { offset: 0x1286FC, size: 0x8, addend: 0x0, symName: __ZN3std3net3tcp9TcpStream10set_linger17h7774b42021809a24E, symObjAddr: 0x2DD54, symBinAddr: 0x32EC8, symSize: 0x68 }
  - { offset: 0x1287F1, size: 0x8, addend: 0x0, symName: __ZN3std3net3tcp9TcpStream6linger17h4399b39e9a6edb73E, symObjAddr: 0x2DDBC, symBinAddr: 0x32F30, symSize: 0x88 }
  - { offset: 0x12890B, size: 0x8, addend: 0x0, symName: __ZN3std3net3tcp9TcpStream11set_nodelay17h569342f7d2b3133aE, symObjAddr: 0x2DE44, symBinAddr: 0x32FB8, symSize: 0x54 }
  - { offset: 0x1289DC, size: 0x8, addend: 0x0, symName: __ZN3std3net3tcp9TcpStream7nodelay17h50a52c7cb8e19344E, symObjAddr: 0x2DE98, symBinAddr: 0x3300C, symSize: 0x80 }
  - { offset: 0x128AFE, size: 0x8, addend: 0x0, symName: '__ZN58_$LT$std..net..tcp..TcpStream$u20$as$u20$std..io..Read$GT$8read_buf17h526dbaced29482e7E', symObjAddr: 0x2DF18, symBinAddr: 0x3308C, symSize: 0x70 }
  - { offset: 0x128CA2, size: 0x8, addend: 0x0, symName: '__ZN58_$LT$std..net..tcp..TcpStream$u20$as$u20$std..io..Read$GT$13read_vectored17h3c8b547903db4719E', symObjAddr: 0x2DF88, symBinAddr: 0x330FC, symSize: 0x58 }
  - { offset: 0x128DBC, size: 0x8, addend: 0x0, symName: '__ZN59_$LT$std..net..tcp..TcpStream$u20$as$u20$std..io..Write$GT$14write_vectored17h282327a455792207E', symObjAddr: 0x2DFE0, symBinAddr: 0x33154, symSize: 0x58 }
  - { offset: 0x128ED8, size: 0x8, addend: 0x0, symName: '__ZN62_$LT$$RF$std..net..tcp..TcpStream$u20$as$u20$std..io..Read$GT$4read17hf09092418dcfd658E', symObjAddr: 0x2E038, symBinAddr: 0x331AC, symSize: 0x48 }
  - { offset: 0x128FAA, size: 0x8, addend: 0x0, symName: '__ZN62_$LT$$RF$std..net..tcp..TcpStream$u20$as$u20$std..io..Read$GT$8read_buf17h9098bfe770ad3580E', symObjAddr: 0x2E080, symBinAddr: 0x331F4, symSize: 0x74 }
  - { offset: 0x12914E, size: 0x8, addend: 0x0, symName: '__ZN62_$LT$$RF$std..net..tcp..TcpStream$u20$as$u20$std..io..Read$GT$13read_vectored17h9d51cb76de0b9d74E', symObjAddr: 0x2E0F4, symBinAddr: 0x33268, symSize: 0x5C }
  - { offset: 0x129268, size: 0x8, addend: 0x0, symName: '__ZN63_$LT$$RF$std..net..tcp..TcpStream$u20$as$u20$std..io..Write$GT$5write17h954fa7a7e7d8f477E', symObjAddr: 0x2E150, symBinAddr: 0x332C4, symSize: 0x54 }
  - { offset: 0x129329, size: 0x8, addend: 0x0, symName: '__ZN61_$LT$std..net..tcp..TcpStream$u20$as$u20$core..fmt..Debug$GT$3fmt17h4e88036958f655d1E', symObjAddr: 0x2E1A4, symBinAddr: 0x33318, symSize: 0x10 }
  - { offset: 0x12934B, size: 0x8, addend: 0x0, symName: __ZN3std3net3tcp11TcpListener10local_addr17h9f48c96bc3daa13fE, symObjAddr: 0x2E1B4, symBinAddr: 0x33328, symSize: 0x18 }
  - { offset: 0x129366, size: 0x8, addend: 0x0, symName: __ZN3std3net3tcp11TcpListener9try_clone17h98e396409aec88b4E, symObjAddr: 0x2E1CC, symBinAddr: 0x33340, symSize: 0x68 }
  - { offset: 0x129442, size: 0x8, addend: 0x0, symName: __ZN3std3net3tcp11TcpListener6accept17h67411b3e2e47c296E, symObjAddr: 0x2E234, symBinAddr: 0x333A8, symSize: 0x18C }
  - { offset: 0x12972D, size: 0x8, addend: 0x0, symName: __ZN3std3net3tcp11TcpListener7set_ttl17h73e23434152a8dc4E, symObjAddr: 0x2E3C0, symBinAddr: 0x33534, symSize: 0x54 }
  - { offset: 0x1297E7, size: 0x8, addend: 0x0, symName: __ZN3std3net3tcp11TcpListener3ttl17hb5006a5b58446451E, symObjAddr: 0x2E414, symBinAddr: 0x33588, symSize: 0x78 }
  - { offset: 0x1298EB, size: 0x8, addend: 0x0, symName: __ZN3std3net3tcp11TcpListener11set_only_v617h797496a0b974318dE, symObjAddr: 0x2E48C, symBinAddr: 0x33600, symSize: 0x54 }
  - { offset: 0x1299A5, size: 0x8, addend: 0x0, symName: __ZN3std3net3tcp11TcpListener7only_v617h61598fde32a3e0beE, symObjAddr: 0x2E4E0, symBinAddr: 0x33654, symSize: 0x80 }
  - { offset: 0x129AB0, size: 0x8, addend: 0x0, symName: '__ZN82_$LT$std..net..tcp..Incoming$u20$as$u20$core..iter..traits..iterator..Iterator$GT$4next17hc86a887b3a4f89e2E', symObjAddr: 0x2E560, symBinAddr: 0x336D4, symSize: 0x40 }
  - { offset: 0x129AE9, size: 0x8, addend: 0x0, symName: '__ZN86_$LT$std..net..tcp..IntoIncoming$u20$as$u20$core..iter..traits..iterator..Iterator$GT$4next17hd02119c9e2328f2dE', symObjAddr: 0x2E5A0, symBinAddr: 0x33714, symSize: 0x3C }
  - { offset: 0x129B22, size: 0x8, addend: 0x0, symName: '__ZN63_$LT$std..net..tcp..TcpListener$u20$as$u20$core..fmt..Debug$GT$3fmt17h9175b38c604d7cf5E', symObjAddr: 0x2E5DC, symBinAddr: 0x33750, symSize: 0x10 }
  - { offset: 0x129B4B, size: 0x8, addend: 0x0, symName: __ZN3std3net3udp9UdpSocket9recv_from17haf32fb2996e1bed0E, symObjAddr: 0x2E5EC, symBinAddr: 0x33760, symSize: 0x24 }
  - { offset: 0x129B92, size: 0x8, addend: 0x0, symName: __ZN3std3net3udp9UdpSocket9peek_from17h361086fdf376dbfaE, symObjAddr: 0x2E610, symBinAddr: 0x33784, symSize: 0x24 }
  - { offset: 0x129BD9, size: 0x8, addend: 0x0, symName: __ZN3std3net3udp9UdpSocket9peer_addr17h7cca666d4eb1094bE, symObjAddr: 0x2E634, symBinAddr: 0x337A8, symSize: 0x144 }
  - { offset: 0x129D90, size: 0x8, addend: 0x0, symName: __ZN3std3net3udp9UdpSocket13set_broadcast17h9f1a429ceb2d0697E, symObjAddr: 0x2E778, symBinAddr: 0x338EC, symSize: 0x54 }
  - { offset: 0x129E4A, size: 0x8, addend: 0x0, symName: __ZN3std3net3udp9UdpSocket9broadcast17h2d35c12778aa027aE, symObjAddr: 0x2E7CC, symBinAddr: 0x33940, symSize: 0x80 }
  - { offset: 0x129F4E, size: 0x8, addend: 0x0, symName: __ZN3std3net3udp9UdpSocket21set_multicast_loop_v417hffa4c5dd7763d26aE, symObjAddr: 0x2E84C, symBinAddr: 0x339C0, symSize: 0x54 }
  - { offset: 0x12A008, size: 0x8, addend: 0x0, symName: __ZN3std3net3udp9UdpSocket17multicast_loop_v417hc60416d7f24eabc1E, symObjAddr: 0x2E8A0, symBinAddr: 0x33A14, symSize: 0x80 }
  - { offset: 0x12A10C, size: 0x8, addend: 0x0, symName: __ZN3std3net3udp9UdpSocket20set_multicast_ttl_v417h3f73d343c907c208E, symObjAddr: 0x2E920, symBinAddr: 0x33A94, symSize: 0x54 }
  - { offset: 0x12A1C6, size: 0x8, addend: 0x0, symName: __ZN3std3net3udp9UdpSocket16multicast_ttl_v417haaf284815f9d7d9fE, symObjAddr: 0x2E974, symBinAddr: 0x33AE8, symSize: 0x78 }
  - { offset: 0x12A2CA, size: 0x8, addend: 0x0, symName: __ZN3std3net3udp9UdpSocket21set_multicast_loop_v617h4bb2c96d9f5f1c4bE, symObjAddr: 0x2E9EC, symBinAddr: 0x33B60, symSize: 0x54 }
  - { offset: 0x12A384, size: 0x8, addend: 0x0, symName: __ZN3std3net3udp9UdpSocket17multicast_loop_v617h2233898a6bd8305dE, symObjAddr: 0x2EA40, symBinAddr: 0x33BB4, symSize: 0x80 }
  - { offset: 0x12A488, size: 0x8, addend: 0x0, symName: __ZN3std3net3udp9UdpSocket17join_multicast_v417he2cfabc1d350ce75E, symObjAddr: 0x2EAC0, symBinAddr: 0x33C34, symSize: 0x60 }
  - { offset: 0x12A542, size: 0x8, addend: 0x0, symName: __ZN3std3net3udp9UdpSocket17join_multicast_v617h5075475c59e0070bE, symObjAddr: 0x2EB20, symBinAddr: 0x33C94, symSize: 0x5C }
  - { offset: 0x12A612, size: 0x8, addend: 0x0, symName: __ZN3std3net3udp9UdpSocket18leave_multicast_v417h7196133be108d2beE, symObjAddr: 0x2EB7C, symBinAddr: 0x33CF0, symSize: 0x60 }
  - { offset: 0x12A6CC, size: 0x8, addend: 0x0, symName: __ZN3std3net3udp9UdpSocket18leave_multicast_v617h02ce6f75fb29b96fE, symObjAddr: 0x2EBDC, symBinAddr: 0x33D50, symSize: 0x5C }
  - { offset: 0x12A79C, size: 0x8, addend: 0x0, symName: __ZN3std3net3udp9UdpSocket4send17hf92c106bca325209E, symObjAddr: 0x2EC38, symBinAddr: 0x33DAC, symSize: 0x50 }
  - { offset: 0x12A85D, size: 0x8, addend: 0x0, symName: '__ZN61_$LT$std..net..udp..UdpSocket$u20$as$u20$core..fmt..Debug$GT$3fmt17h2c4158e392e45ef0E', symObjAddr: 0x2EC88, symBinAddr: 0x33DFC, symSize: 0x10 }
  - { offset: 0x12A887, size: 0x8, addend: 0x0, symName: '__ZN79_$LT$std..random..DefaultRandomSource$u20$as$u20$core..random..RandomSource$GT$10fill_bytes17h47ff643b13476d4fE', symObjAddr: 0x352A4, symBinAddr: 0x3A400, symSize: 0x68 }
  - { offset: 0x12A8D8, size: 0x8, addend: 0x0, symName: '__ZN91_$LT$std..sys_common..wstr..WStrUnits$u20$as$u20$core..iter..traits..iterator..Iterator$GT$4next17hf3d0759b1a9be720E', symObjAddr: 0x39CB0, symBinAddr: 0x3E340, symSize: 0x28 }
  - { offset: 0x12A962, size: 0x8, addend: 0x0, symName: __ZN3std10sys_common4wtf87Wtf8Buf25push_code_point_unchecked17h74a97a63b16fe664E, symObjAddr: 0x39D20, symBinAddr: 0x3E3B0, symSize: 0x134 }
  - { offset: 0x12AB0B, size: 0x8, addend: 0x0, symName: '__ZN74_$LT$std..sys_common..wtf8..Wtf8Buf$u20$as$u20$core..ops..deref..Deref$GT$5deref17hd8b28c21b8449d6bE', symObjAddr: 0x39CD8, symBinAddr: 0x3E368, symSize: 0x18 }
  - { offset: 0x12ABCF, size: 0x8, addend: 0x0, symName: '__ZN69_$LT$std..sys_common..wtf8..Wtf8Buf$u20$as$u20$core..fmt..Display$GT$3fmt17h7990ac4b6334868fE', symObjAddr: 0x39CF0, symBinAddr: 0x3E380, symSize: 0x30 }
  - { offset: 0x12AC25, size: 0x8, addend: 0x0, symName: '__ZN64_$LT$std..sys_common..wtf8..Wtf8$u20$as$u20$core..fmt..Debug$GT$3fmt17h1520df9e246771f9E', symObjAddr: 0x39E54, symBinAddr: 0x3E4E4, symSize: 0x224 }
  - { offset: 0x12AEDA, size: 0x8, addend: 0x0, symName: '__ZN64_$LT$std..sys_common..wtf8..Wtf8$u20$as$u20$core..fmt..Debug$GT$3fmt17write_str_escaped17h47d0c9c44c481ae3E', symObjAddr: 0x3A078, symBinAddr: 0x3E708, symSize: 0x3C4 }
  - { offset: 0x12B21F, size: 0x8, addend: 0x0, symName: '__ZN66_$LT$std..sys_common..wtf8..Wtf8$u20$as$u20$core..fmt..Display$GT$3fmt17hd2b94180c43a9343E', symObjAddr: 0x3A43C, symBinAddr: 0x3EACC, symSize: 0x1E4 }
  - { offset: 0x12B414, size: 0x8, addend: 0x0, symName: __ZN3std10sys_common4wtf816slice_error_fail17hb55ead8c298400a1E, symObjAddr: 0x3A620, symBinAddr: 0x8CF34, symSize: 0x8C }
  - { offset: 0x12B45F, size: 0x8, addend: 0x0, symName: __ZN3std5alloc20set_alloc_error_hook17hf8998c7dc9a51091E, symObjAddr: 0x3A6AC, symBinAddr: 0x3ECB0, symSize: 0x1C }
  - { offset: 0x12B4AA, size: 0x8, addend: 0x0, symName: __ZN3std5alloc21take_alloc_error_hook17h73659cce9a7ae615E, symObjAddr: 0x3A6C8, symBinAddr: 0x3ECCC, symSize: 0x2C }
  - { offset: 0x12B4F5, size: 0x8, addend: 0x0, symName: __ZN3std5alloc24default_alloc_error_hook17h06a47e49ca86690dE, symObjAddr: 0x3A6F4, symBinAddr: 0x3ECF8, symSize: 0x140 }
  - { offset: 0x12B752, size: 0x8, addend: 0x0, symName: __RNvCs691rhTbG0Ee_7___rustc11___rdl_alloc, symObjAddr: 0x3A834, symBinAddr: 0x3EE38, symSize: 0x6C }
  - { offset: 0x12B7D6, size: 0x8, addend: 0x0, symName: __RNvCs691rhTbG0Ee_7___rustc13___rdl_dealloc, symObjAddr: 0x3A8A0, symBinAddr: 0x3EEA4, symSize: 0x10 }
  - { offset: 0x12B80A, size: 0x8, addend: 0x0, symName: __RNvCs691rhTbG0Ee_7___rustc13___rdl_realloc, symObjAddr: 0x3A8B0, symBinAddr: 0x3EEB4, symSize: 0xB0 }
  - { offset: 0x12B8E9, size: 0x8, addend: 0x0, symName: __RNvCs691rhTbG0Ee_7___rustc18___rdl_alloc_zeroed, symObjAddr: 0x3A960, symBinAddr: 0x3EF64, symSize: 0x90 }
  - { offset: 0x12B991, size: 0x8, addend: 0x0, symName: __ZN3std5alloc8rust_oom17h6faa887ea6091013E, symObjAddr: 0x472E8, symBinAddr: 0x8DAC4, symSize: 0x2C }
  - { offset: 0x12B9E2, size: 0x8, addend: 0x0, symName: __RNvCs691rhTbG0Ee_7___rustc8___rg_oom, symObjAddr: 0x47314, symBinAddr: 0x8DAF0, symSize: 0x18 }
  - { offset: 0x12BB14, size: 0x8, addend: 0x0, symName: '__ZN9addr2line8function17Function$LT$R$GT$14parse_children17hea5def701ea3d772E', symObjAddr: 0x1D370, symBinAddr: 0x22AB4, symSize: 0xE84 }
  - { offset: 0x12D499, size: 0x8, addend: 0x0, symName: __ZN9addr2line8function10name_entry17hac49d2584977d880E, symObjAddr: 0x1D004, symBinAddr: 0x22748, symSize: 0x36C }
  - { offset: 0x12D997, size: 0x8, addend: 0x0, symName: __ZN9addr2line8function9name_attr17h3f53b3fe2c5c4449E, symObjAddr: 0x1E1F4, symBinAddr: 0x23938, symSize: 0x1C0 }
  - { offset: 0x12DBD2, size: 0x8, addend: 0x0, symName: '__ZN9addr2line4unit16ResUnit$LT$R$GT$25find_function_or_location17h1528f454beaf15deE', symObjAddr: 0x1B090, symBinAddr: 0x207D4, symSize: 0x3DC }
  - { offset: 0x12E14F, size: 0x8, addend: 0x0, symName: '__ZN9addr2line4unit16ResUnit$LT$R$GT$25find_function_or_location28_$u7b$$u7b$closure$u7d$$u7d$17h1dc9a814c5b76234E', symObjAddr: 0x1B46C, symBinAddr: 0x20BB0, symSize: 0x14D8 }
  - { offset: 0x130C8A, size: 0x8, addend: 0x0, symName: '__ZN9addr2line16Context$LT$R$GT$9find_unit17haa764c09cf16084cE', symObjAddr: 0x18F24, symBinAddr: 0x1E668, symSize: 0x168 }
  - { offset: 0x130E33, size: 0x8, addend: 0x0, symName: __ZN9addr2line4line11render_file17hf6e19318c90d67a0E, symObjAddr: 0x1908C, symBinAddr: 0x1E7D0, symSize: 0x4B8 }
  - { offset: 0x1317A7, size: 0x8, addend: 0x0, symName: __ZN9addr2line4line9LazyLines6borrow17hc6c0fa0e83bf49f1E, symObjAddr: 0x19544, symBinAddr: 0x1EC88, symSize: 0x1B4C }
  - { offset: 0x134DE3, size: 0x8, addend: 0x0, symName: '__ZN9addr2line6lookup30LoopingLookup$LT$T$C$L$C$F$GT$10new_lookup17h8dede64bc7d852ecE', symObjAddr: 0x1CBC8, symBinAddr: 0x2230C, symSize: 0x43C }
  - { offset: 0x1353AD, size: 0x8, addend: 0x0, symName: '__ZN9addr2line5frame18FrameIter$LT$R$GT$4next17h7a2ba9f3f209a5f1E', symObjAddr: 0x1C944, symBinAddr: 0x22088, symSize: 0x284 }
  - { offset: 0x135879, size: 0x8, addend: 0x0, symName: '__ZN5gimli4read4unit32AttributeValue$LT$R$C$Offset$GT$11udata_value17h525d1253d3eb135aE', symObjAddr: 0x144B0, symBinAddr: 0x19BF4, symSize: 0x90 }
  - { offset: 0x1358D4, size: 0x8, addend: 0x0, symName: __ZN5gimli4read4unit15parse_attribute17hbc849f839fdbcac8E, symObjAddr: 0x127A4, symBinAddr: 0x17EE8, symSize: 0xF74 }
  - { offset: 0x13882A, size: 0x8, addend: 0x0, symName: __ZN5gimli4read4unit15skip_attributes17h24c0cb5497049e2fE, symObjAddr: 0x13718, symBinAddr: 0x18E5C, symSize: 0x548 }
  - { offset: 0x1392D7, size: 0x8, addend: 0x0, symName: '__ZN5gimli4read4unit18Attribute$LT$R$GT$5value17hfacf9e5ce0604eb6E', symObjAddr: 0x13C60, symBinAddr: 0x193A4, symSize: 0x598 }
  - { offset: 0x1398B5, size: 0x8, addend: 0x0, symName: '__ZN5gimli4read4unit22EntriesCursor$LT$R$GT$10next_entry17h00180a0d174414b8E', symObjAddr: 0x141F8, symBinAddr: 0x1993C, symSize: 0x2B8 }
  - { offset: 0x139ED1, size: 0x8, addend: 0x0, symName: '__ZN5gimli4read4unit33DebugInfoUnitHeadersIter$LT$R$GT$4next17h112157aa5d25f372E', symObjAddr: 0x14540, symBinAddr: 0x19C84, symSize: 0x524 }
  - { offset: 0x13B15E, size: 0x8, addend: 0x0, symName: '__ZN90_$LT$gimli..read..unit..AttributeValue$LT$R$C$Offset$GT$$u20$as$u20$core..clone..Clone$GT$5clone17h316966c10a401fedE', symObjAddr: 0x18E04, symBinAddr: 0x1E548, symSize: 0x68 }
  - { offset: 0x13B3B6, size: 0x8, addend: 0x0, symName: __ZN5gimli4read6reader6Reader11read_offset17hee1899b06b5c5aa9E, symObjAddr: 0x16FB0, symBinAddr: 0x1C6F4, symSize: 0xBC }
  - { offset: 0x13B614, size: 0x8, addend: 0x0, symName: __ZN5gimli4read6reader6Reader12read_sleb12817h70e304d0c616539bE, symObjAddr: 0x1706C, symBinAddr: 0x1C7B0, symSize: 0x21C }
  - { offset: 0x13B710, size: 0x8, addend: 0x0, symName: __ZN5gimli4read6reader6Reader12read_uleb12817h51b7a8c8ac49e7e8E, symObjAddr: 0x17288, symBinAddr: 0x1C9CC, symSize: 0xB0 }
  - { offset: 0x13B7CE, size: 0x8, addend: 0x0, symName: __ZN5gimli4read6reader6Reader17read_sized_offset17h06f65b09de3985deE, symObjAddr: 0x17338, symBinAddr: 0x1CA7C, symSize: 0xEC }
  - { offset: 0x13BC11, size: 0x8, addend: 0x0, symName: __ZN5gimli4read4line13parse_file_v517h1371b7500d383ad8E, symObjAddr: 0x11604, symBinAddr: 0x16D48, symSize: 0x2B4 }
  - { offset: 0x13BD9B, size: 0x8, addend: 0x0, symName: __ZN5gimli4read4line15FileEntryFormat5parse17h8a59f8abbcf245b1E, symObjAddr: 0x118B8, symBinAddr: 0x16FFC, symSize: 0x378 }
  - { offset: 0x13C611, size: 0x8, addend: 0x0, symName: __ZN5gimli4read4line15parse_attribute17h94ecb42424eb9cf0E, symObjAddr: 0x11C30, symBinAddr: 0x17374, symSize: 0x874 }
  - { offset: 0x13DFE5, size: 0x8, addend: 0x0, symName: __ZN5gimli4read4line18parse_directory_v517h5464765e2c3b67d9E, symObjAddr: 0x124A4, symBinAddr: 0x17BE8, symSize: 0xE8 }
  - { offset: 0x13E07C, size: 0x8, addend: 0x0, symName: '__ZN5gimli4read4line27FileEntry$LT$R$C$Offset$GT$5parse17h70a77970e1518598E', symObjAddr: 0x1258C, symBinAddr: 0x17CD0, symSize: 0x218 }
  - { offset: 0x13E7E4, size: 0x8, addend: 0x0, symName: '__ZN5gimli4read5dwarf14Dwarf$LT$R$GT$11attr_string17h9fee9c73eddb3070E', symObjAddr: 0x166F0, symBinAddr: 0x1BE34, symSize: 0x1F4 }
  - { offset: 0x13F0B8, size: 0x8, addend: 0x0, symName: '__ZN5gimli4read5dwarf13Unit$LT$R$GT$3new17h854eef6a69141946E', symObjAddr: 0x14A64, symBinAddr: 0x1A1A8, symSize: 0x1C8C }
  - { offset: 0x142C82, size: 0x8, addend: 0x0, symName: '__ZN5gimli4read5index18UnitIndex$LT$R$GT$5parse17h630a68cb942ef666E', symObjAddr: 0x168E4, symBinAddr: 0x1C028, symSize: 0x6CC }
  - { offset: 0x143273, size: 0x8, addend: 0x0, symName: '__ZN5gimli4read7aranges30ArangeHeader$LT$R$C$Offset$GT$5parse17h32b43f4c9f85ba3cE', symObjAddr: 0x17424, symBinAddr: 0x1CB68, symSize: 0x2B4 }
  - { offset: 0x143BF1, size: 0x8, addend: 0x0, symName: '__ZN5gimli4read8rnglists20RngListIter$LT$R$GT$4next17h0e62acd2c79269efE', symObjAddr: 0x176D8, symBinAddr: 0x1CE1C, symSize: 0xC74 }
  - { offset: 0x146DC8, size: 0x8, addend: 0x0, symName: __ZN6object4read7archive13ArchiveMember5parse17h058b010e52ab4da5E, symObjAddr: 0x18810, symBinAddr: 0x1DF54, symSize: 0x304 }
  - { offset: 0x146DE7, size: 0x8, addend: 0x0, symName: __ZN6object4read7archive13ArchiveMember5parse17h058b010e52ab4da5E, symObjAddr: 0x18810, symBinAddr: 0x1DF54, symSize: 0x304 }
  - { offset: 0x146DFD, size: 0x8, addend: 0x0, symName: __ZN6object4read7archive13ArchiveMember5parse17h058b010e52ab4da5E, symObjAddr: 0x18810, symBinAddr: 0x1DF54, symSize: 0x304 }
  - { offset: 0x147644, size: 0x8, addend: 0x0, symName: __ZN6object4read7archive23parse_bsd_extended_name17h0052b879ba07cb81E, symObjAddr: 0x18B14, symBinAddr: 0x1E258, symSize: 0x24C }
  - { offset: 0x14857A, size: 0x8, addend: 0x0, symName: _OUTLINED_FUNCTION_0, symObjAddr: 0x4CEB4, symBinAddr: 0x50970, symSize: 0x8 }
  - { offset: 0x148592, size: 0x8, addend: 0x0, symName: _OUTLINED_FUNCTION_1, symObjAddr: 0x4CEBC, symBinAddr: 0x50978, symSize: 0xC }
  - { offset: 0x1485AA, size: 0x8, addend: 0x0, symName: _OUTLINED_FUNCTION_2, symObjAddr: 0x4CEC8, symBinAddr: 0x50984, symSize: 0xC }
  - { offset: 0x1485C2, size: 0x8, addend: 0x0, symName: _OUTLINED_FUNCTION_3, symObjAddr: 0x4CED4, symBinAddr: 0x50990, symSize: 0xC }
  - { offset: 0x1485DA, size: 0x8, addend: 0x0, symName: _OUTLINED_FUNCTION_4, symObjAddr: 0x4CEE0, symBinAddr: 0x5099C, symSize: 0xC }
  - { offset: 0x1485F2, size: 0x8, addend: 0x0, symName: _OUTLINED_FUNCTION_5, symObjAddr: 0x4CEEC, symBinAddr: 0x509A8, symSize: 0x8 }
  - { offset: 0x14860A, size: 0x8, addend: 0x0, symName: _OUTLINED_FUNCTION_6, symObjAddr: 0x4CEF4, symBinAddr: 0x509B0, symSize: 0x24 }
  - { offset: 0x148622, size: 0x8, addend: 0x0, symName: _OUTLINED_FUNCTION_7, symObjAddr: 0x4CF18, symBinAddr: 0x509D4, symSize: 0x8 }
  - { offset: 0x14863A, size: 0x8, addend: 0x0, symName: _OUTLINED_FUNCTION_8, symObjAddr: 0x4CF20, symBinAddr: 0x509DC, symSize: 0x10 }
  - { offset: 0x148652, size: 0x8, addend: 0x0, symName: _OUTLINED_FUNCTION_9, symObjAddr: 0x4CF30, symBinAddr: 0x509EC, symSize: 0x24 }
  - { offset: 0x14866A, size: 0x8, addend: 0x0, symName: _OUTLINED_FUNCTION_10, symObjAddr: 0x4CF54, symBinAddr: 0x50A10, symSize: 0x8 }
  - { offset: 0x148682, size: 0x8, addend: 0x0, symName: _OUTLINED_FUNCTION_11, symObjAddr: 0x4CF5C, symBinAddr: 0x50A18, symSize: 0x20 }
  - { offset: 0x14869A, size: 0x8, addend: 0x0, symName: _OUTLINED_FUNCTION_12, symObjAddr: 0x4CF7C, symBinAddr: 0x50A38, symSize: 0x10 }
  - { offset: 0x1486B2, size: 0x8, addend: 0x0, symName: _OUTLINED_FUNCTION_13, symObjAddr: 0x4CF8C, symBinAddr: 0x50A48, symSize: 0x10 }
  - { offset: 0x1486CA, size: 0x8, addend: 0x0, symName: _OUTLINED_FUNCTION_14, symObjAddr: 0x4CF9C, symBinAddr: 0x50A58, symSize: 0x8 }
  - { offset: 0x1486E2, size: 0x8, addend: 0x0, symName: _OUTLINED_FUNCTION_15, symObjAddr: 0x4CFA4, symBinAddr: 0x50A60, symSize: 0x8 }
  - { offset: 0x1486FA, size: 0x8, addend: 0x0, symName: _OUTLINED_FUNCTION_16, symObjAddr: 0x4CFAC, symBinAddr: 0x50A68, symSize: 0x8 }
  - { offset: 0x148712, size: 0x8, addend: 0x0, symName: _OUTLINED_FUNCTION_17, symObjAddr: 0x4CFB4, symBinAddr: 0x50A70, symSize: 0x10 }
  - { offset: 0x14872A, size: 0x8, addend: 0x0, symName: _OUTLINED_FUNCTION_18, symObjAddr: 0x4CFC4, symBinAddr: 0x50A80, symSize: 0xC }
  - { offset: 0x148742, size: 0x8, addend: 0x0, symName: _OUTLINED_FUNCTION_19, symObjAddr: 0x4CFD0, symBinAddr: 0x50A8C, symSize: 0x10 }
  - { offset: 0x14875A, size: 0x8, addend: 0x0, symName: _OUTLINED_FUNCTION_20, symObjAddr: 0x4CFE0, symBinAddr: 0x50A9C, symSize: 0x10 }
  - { offset: 0x148772, size: 0x8, addend: 0x0, symName: _OUTLINED_FUNCTION_21, symObjAddr: 0x4CFF0, symBinAddr: 0x50AAC, symSize: 0x10 }
  - { offset: 0x14878A, size: 0x8, addend: 0x0, symName: _OUTLINED_FUNCTION_22, symObjAddr: 0x4D000, symBinAddr: 0x50ABC, symSize: 0x18 }
  - { offset: 0x1487A2, size: 0x8, addend: 0x0, symName: _OUTLINED_FUNCTION_23, symObjAddr: 0x4D018, symBinAddr: 0x50AD4, symSize: 0x8 }
  - { offset: 0x1487BA, size: 0x8, addend: 0x0, symName: _OUTLINED_FUNCTION_24, symObjAddr: 0x4D020, symBinAddr: 0x50ADC, symSize: 0xC }
  - { offset: 0x1487D2, size: 0x8, addend: 0x0, symName: _OUTLINED_FUNCTION_25, symObjAddr: 0x4D02C, symBinAddr: 0x50AE8, symSize: 0xC }
  - { offset: 0x1487EA, size: 0x8, addend: 0x0, symName: _OUTLINED_FUNCTION_26, symObjAddr: 0x4D038, symBinAddr: 0x50AF4, symSize: 0xC }
  - { offset: 0x148802, size: 0x8, addend: 0x0, symName: _OUTLINED_FUNCTION_27, symObjAddr: 0x4D044, symBinAddr: 0x50B00, symSize: 0x8 }
  - { offset: 0x14881A, size: 0x8, addend: 0x0, symName: _OUTLINED_FUNCTION_28, symObjAddr: 0x4D04C, symBinAddr: 0x50B08, symSize: 0x8 }
  - { offset: 0x148832, size: 0x8, addend: 0x0, symName: _OUTLINED_FUNCTION_29, symObjAddr: 0x4D054, symBinAddr: 0x50B10, symSize: 0xC }
  - { offset: 0x14884A, size: 0x8, addend: 0x0, symName: _OUTLINED_FUNCTION_30, symObjAddr: 0x4D060, symBinAddr: 0x50B1C, symSize: 0x8 }
  - { offset: 0x148862, size: 0x8, addend: 0x0, symName: _OUTLINED_FUNCTION_31, symObjAddr: 0x4D068, symBinAddr: 0x50B24, symSize: 0xC }
  - { offset: 0x14887A, size: 0x8, addend: 0x0, symName: _OUTLINED_FUNCTION_32, symObjAddr: 0x4D074, symBinAddr: 0x50B30, symSize: 0x10 }
  - { offset: 0x148892, size: 0x8, addend: 0x0, symName: _OUTLINED_FUNCTION_33, symObjAddr: 0x4D084, symBinAddr: 0x50B40, symSize: 0x14 }
  - { offset: 0x1488AA, size: 0x8, addend: 0x0, symName: _OUTLINED_FUNCTION_34, symObjAddr: 0x4D098, symBinAddr: 0x50B54, symSize: 0x14 }
  - { offset: 0x1488C2, size: 0x8, addend: 0x0, symName: _OUTLINED_FUNCTION_35, symObjAddr: 0x4D0AC, symBinAddr: 0x50B68, symSize: 0x14 }
  - { offset: 0x1488DA, size: 0x8, addend: 0x0, symName: _OUTLINED_FUNCTION_36, symObjAddr: 0x4D0C0, symBinAddr: 0x50B7C, symSize: 0x14 }
  - { offset: 0x148910, size: 0x8, addend: 0x0, symName: '__ZN4core3ptr49drop_in_place$LT$panic_unwind..imp..Exception$GT$17hf3656581212925dbE', symObjAddr: 0x0, symBinAddr: 0x50B90, symSize: 0x78 }
  - { offset: 0x148938, size: 0x8, addend: 0x0, symName: '__ZN4core3ptr49drop_in_place$LT$panic_unwind..imp..Exception$GT$17hf3656581212925dbE', symObjAddr: 0x0, symBinAddr: 0x50B90, symSize: 0x78 }
  - { offset: 0x148A4A, size: 0x8, addend: 0x0, symName: '__ZN4core3ptr74drop_in_place$LT$alloc..boxed..Box$LT$panic_unwind..imp..Exception$GT$$GT$17hadd27be2bdfe5bdbE', symObjAddr: 0x78, symBinAddr: 0x50C08, symSize: 0x8C }
  - { offset: 0x148D42, size: 0x8, addend: 0x0, symName: __ZN12panic_unwind3imp5panic17exception_cleanup17hc3a2b4f36106a592E, symObjAddr: 0x214, symBinAddr: 0x50DA4, symSize: 0x18 }
  - { offset: 0x148D5E, size: 0x8, addend: 0x0, symName: __RNvCs691rhTbG0Ee_7___rustc20___rust_panic_cleanup, symObjAddr: 0x104, symBinAddr: 0x50C94, symSize: 0x68 }
  - { offset: 0x148E0B, size: 0x8, addend: 0x0, symName: __RNvCs691rhTbG0Ee_7___rustc18___rust_start_panic, symObjAddr: 0x16C, symBinAddr: 0x50CFC, symSize: 0xA8 }
  - { offset: 0x148ED0, size: 0x8, addend: 0x0, symName: '__ZN42_$LT$$RF$T$u20$as$u20$core..fmt..Debug$GT$3fmt17h38ad42f9fdf93550E', symObjAddr: 0x0, symBinAddr: 0x6AA18, symSize: 0x1C }
  - { offset: 0x148EF0, size: 0x8, addend: 0x0, symName: '__ZN42_$LT$$RF$T$u20$as$u20$core..fmt..Debug$GT$3fmt17h38ad42f9fdf93550E', symObjAddr: 0x0, symBinAddr: 0x6AA18, symSize: 0x1C }
  - { offset: 0x148F0B, size: 0x8, addend: 0x0, symName: '__ZN42_$LT$$RF$T$u20$as$u20$core..fmt..Debug$GT$3fmt17hc40f9f276c938eb8E', symObjAddr: 0x1C, symBinAddr: 0x6AA34, symSize: 0x68 }
  - { offset: 0x148F35, size: 0x8, addend: 0x0, symName: '__ZN42_$LT$$RF$T$u20$as$u20$core..fmt..Debug$GT$3fmt17hfe3900db8f91a455E', symObjAddr: 0x84, symBinAddr: 0x6AA9C, symSize: 0x30 }
  - { offset: 0x148FDD, size: 0x8, addend: 0x0, symName: __ZN4core3fmt5Write9write_fmt17ha91e08d6698b0a8eE, symObjAddr: 0xB4, symBinAddr: 0x6AACC, symSize: 0x1C }
  - { offset: 0x149021, size: 0x8, addend: 0x0, symName: '__ZN53_$LT$core..fmt..Error$u20$as$u20$core..fmt..Debug$GT$3fmt17he0d1fa571167f688E', symObjAddr: 0x414, symBinAddr: 0x6ADFC, symSize: 0x20 }
  - { offset: 0x14916D, size: 0x8, addend: 0x0, symName: '__ZN4core3ptr238drop_in_place$LT$alloc..boxed..convert..$LT$impl$u20$core..convert..From$LT$alloc..string..String$GT$$u20$for$u20$alloc..boxed..Box$LT$dyn$u20$core..error..Error$u2b$core..marker..Send$u2b$core..marker..Sync$GT$$GT$..from..StringError$GT$17h991de3b70084d877E', symObjAddr: 0xD0, symBinAddr: 0x6AAE8, symSize: 0x28 }
  - { offset: 0x149218, size: 0x8, addend: 0x0, symName: '__ZN4core3ptr42drop_in_place$LT$alloc..string..String$GT$17h67fb1e90c26a7f93E', symObjAddr: 0xF8, symBinAddr: 0x6AB10, symSize: 0x28 }
  - { offset: 0x1498DA, size: 0x8, addend: 0x0, symName: __ZN4core4iter6traits8iterator8Iterator7collect17h0a77e22966f29b3cE, symObjAddr: 0x120, symBinAddr: 0x6AB38, symSize: 0x270 }
  - { offset: 0x14A222, size: 0x8, addend: 0x0, symName: __ZN4core5error5Error5cause17h6135f9cdf41331c7E, symObjAddr: 0x390, symBinAddr: 0x6ADA8, symSize: 0x14 }
  - { offset: 0x14A23C, size: 0x8, addend: 0x0, symName: __ZN4core5error5Error7provide17hfa8adbe7f69ae195E, symObjAddr: 0x3A4, symBinAddr: 0x6ADBC, symSize: 0x10 }
  - { offset: 0x14A256, size: 0x8, addend: 0x0, symName: __ZN4core5error5Error7type_id17h9cecf796478fbdd2E, symObjAddr: 0x3B4, symBinAddr: 0x6ADCC, symSize: 0x30 }
  - { offset: 0x14A278, size: 0x8, addend: 0x0, symName: __ZN4core9panicking13assert_failed17hb103ed725c5cc5f4E, symObjAddr: 0x3E4, symBinAddr: 0x8DC6C, symSize: 0x30 }
  - { offset: 0x14A2A6, size: 0x8, addend: 0x0, symName: '__ZN69_$LT$core..alloc..layout..LayoutError$u20$as$u20$core..fmt..Debug$GT$3fmt17h771d575ed71ae858E', symObjAddr: 0x434, symBinAddr: 0x6AE1C, symSize: 0x20 }
  - { offset: 0x14A455, size: 0x8, addend: 0x0, symName: '__ZN5alloc3ffi5c_str40_$LT$impl$u20$core..ffi..c_str..CStr$GT$15to_string_lossy17h2d08a2f39a7f9533E', symObjAddr: 0x1BA4, symBinAddr: 0x6C308, symSize: 0x14 }
  - { offset: 0x14A487, size: 0x8, addend: 0x0, symName: '__ZN5alloc3ffi5c_str40_$LT$impl$u20$core..ffi..c_str..CStr$GT$13into_c_string17hf3852c0ea3ab8020E', symObjAddr: 0x1BB8, symBinAddr: 0x6C31C, symSize: 0x10 }
  - { offset: 0x14A99A, size: 0x8, addend: 0x0, symName: '__ZN5alloc7raw_vec19RawVec$LT$T$C$A$GT$8grow_one17h8b27cdde3d6c2dadE', symObjAddr: 0x488, symBinAddr: 0x6AE3C, symSize: 0xA0 }
  - { offset: 0x14ABB5, size: 0x8, addend: 0x0, symName: __ZN5alloc7raw_vec17capacity_overflow17hf4b77ce491681badE, symObjAddr: 0x454, symBinAddr: 0x8DC9C, symSize: 0x34 }
  - { offset: 0x14ABFF, size: 0x8, addend: 0x0, symName: '__ZN5alloc7raw_vec20RawVecInner$LT$A$GT$7reserve21do_reserve_and_handle17h63a9bab6be21a68eE', symObjAddr: 0x528, symBinAddr: 0x8DCD0, symSize: 0xB0 }
  - { offset: 0x14AD0B, size: 0x8, addend: 0x0, symName: __ZN5alloc7raw_vec12handle_error17h2860b3dedb861e5cE, symObjAddr: 0x660, symBinAddr: 0x8DD80, symSize: 0x18 }
  - { offset: 0x14ADEF, size: 0x8, addend: 0x0, symName: __ZN5alloc5alloc18handle_alloc_error8ct_error17h05b3c9f3c303c12fE, symObjAddr: 0x690, symBinAddr: 0x8DDB0, symSize: 0x38 }
  - { offset: 0x14AE22, size: 0x8, addend: 0x0, symName: __ZN5alloc5alloc18handle_alloc_error17head785610f4500cfE, symObjAddr: 0x678, symBinAddr: 0x8DD98, symSize: 0x18 }
  - { offset: 0x14AE5A, size: 0x8, addend: 0x0, symName: __RNvCs691rhTbG0Ee_7___rustc9___rdl_oom, symObjAddr: 0x6C8, symBinAddr: 0x8DDE8, symSize: 0xA4 }
  - { offset: 0x14AFBA, size: 0x8, addend: 0x0, symName: __ZN5alloc6string6String15from_utf8_lossy17hdc03c9ee000115bcE, symObjAddr: 0x3218, symBinAddr: 0x6D97C, symSize: 0x244 }
  - { offset: 0x14B53C, size: 0x8, addend: 0x0, symName: __ZN5alloc6string6String21from_utf8_lossy_owned17h1b6d683707608a8cE, symObjAddr: 0x345C, symBinAddr: 0x6DBC0, symSize: 0xB8 }
  - { offset: 0x14B743, size: 0x8, addend: 0x0, symName: __ZN5alloc6string6String10from_utf1617h09f0927b643dfd2bE, symObjAddr: 0x3514, symBinAddr: 0x6DC78, symSize: 0x284 }
  - { offset: 0x14BB79, size: 0x8, addend: 0x0, symName: __ZN5alloc6string6String12from_utf16le17hc95545f192aa04aaE, symObjAddr: 0x3798, symBinAddr: 0x6DEFC, symSize: 0x3F0 }
  - { offset: 0x14BFEB, size: 0x8, addend: 0x0, symName: __ZN5alloc6string6String18from_utf16le_lossy17hfedb4602e842a9dfE, symObjAddr: 0x3B88, symBinAddr: 0x6E2EC, symSize: 0x3C8 }
  - { offset: 0x14C9D6, size: 0x8, addend: 0x0, symName: __ZN5alloc6string6String12from_utf16be17hc607dc078bd0f368E, symObjAddr: 0x3F50, symBinAddr: 0x6E6B4, symSize: 0x3C4 }
  - { offset: 0x14CDF7, size: 0x8, addend: 0x0, symName: __ZN5alloc6string6String18from_utf16be_lossy17h0d7f19b2c95d0493E, symObjAddr: 0x4314, symBinAddr: 0x6EA78, symSize: 0x2F8 }
  - { offset: 0x14D469, size: 0x8, addend: 0x0, symName: __ZN5alloc6string6String11try_reserve17hd3da51be28cd4dc8E, symObjAddr: 0x460C, symBinAddr: 0x6ED70, symSize: 0xC4 }
  - { offset: 0x14D5E2, size: 0x8, addend: 0x0, symName: __ZN5alloc6string6String17try_reserve_exact17hebb51e2d92debe85E, symObjAddr: 0x46D0, symBinAddr: 0x6EE34, symSize: 0xAC }
  - { offset: 0x14D90F, size: 0x8, addend: 0x0, symName: '__ZN98_$LT$alloc..string..String$u20$as$u20$core..convert..From$LT$alloc..borrow..Cow$LT$str$GT$$GT$$GT$4from17h62a32acf45c757f9E', symObjAddr: 0x4B94, symBinAddr: 0x6F2F8, symSize: 0xBC }
  - { offset: 0x14DAA3, size: 0x8, addend: 0x0, symName: __ZN5alloc6string13FromUtf8Error8as_bytes17hba2aca6c5ceffa8eE, symObjAddr: 0x477C, symBinAddr: 0x6EEE0, symSize: 0x18 }
  - { offset: 0x14DB5F, size: 0x8, addend: 0x0, symName: __ZN5alloc6string13FromUtf8Error15into_utf8_lossy17h0cd5bc15df915767E, symObjAddr: 0x4794, symBinAddr: 0x6EEF8, symSize: 0x200 }
  - { offset: 0x14E1EC, size: 0x8, addend: 0x0, symName: '__ZN67_$LT$alloc..string..FromUtf8Error$u20$as$u20$core..fmt..Display$GT$3fmt17h7ba94c0daecadcfcE', symObjAddr: 0x4994, symBinAddr: 0x6F0F8, symSize: 0x14 }
  - { offset: 0x14E20E, size: 0x8, addend: 0x0, symName: '__ZN68_$LT$alloc..string..FromUtf16Error$u20$as$u20$core..fmt..Display$GT$3fmt17h3c5e6f9ea1df1b9bE', symObjAddr: 0x49A8, symBinAddr: 0x6F10C, symSize: 0x20 }
  - { offset: 0x14E230, size: 0x8, addend: 0x0, symName: '__ZN60_$LT$alloc..string..String$u20$as$u20$core..clone..Clone$GT$5clone17h163c17bc1ac73024E', symObjAddr: 0x49C8, symBinAddr: 0x6F12C, symSize: 0x98 }
  - { offset: 0x14E36E, size: 0x8, addend: 0x0, symName: '__ZN60_$LT$alloc..string..String$u20$as$u20$core..clone..Clone$GT$10clone_from17h185df4e4a190436cE', symObjAddr: 0x4A60, symBinAddr: 0x6F1C4, symSize: 0x7C }
  - { offset: 0x14E4FD, size: 0x8, addend: 0x0, symName: '__ZN73_$LT$$RF$alloc..string..String$u20$as$u20$core..str..pattern..Pattern$GT$13into_searcher17hb4b8883b5a10642dE', symObjAddr: 0x4ADC, symBinAddr: 0x6F240, symSize: 0x20 }
  - { offset: 0x14E5D6, size: 0x8, addend: 0x0, symName: '__ZN5alloc6string107_$LT$impl$u20$core..convert..From$LT$alloc..string..String$GT$$u20$for$u20$alloc..boxed..Box$LT$str$GT$$GT$4from17h4fa11c991bf4dee0E', symObjAddr: 0x4AFC, symBinAddr: 0x6F260, symSize: 0x98 }
  - { offset: 0x14E779, size: 0x8, addend: 0x0, symName: '__ZN97_$LT$alloc..string..String$u20$as$u20$core..convert..TryFrom$LT$alloc..vec..Vec$LT$u8$GT$$GT$$GT$8try_from17h75b41bb7b44e3914E', symObjAddr: 0x4C50, symBinAddr: 0x6F3B4, symSize: 0xAC }
  - { offset: 0x14E8D3, size: 0x8, addend: 0x0, symName: '__ZN58_$LT$alloc..string..String$u20$as$u20$core..fmt..Write$GT$9write_str17h348ed9977dfcc75fE', symObjAddr: 0x4CFC, symBinAddr: 0x6F460, symSize: 0x78 }
  - { offset: 0x14EA37, size: 0x8, addend: 0x0, symName: '__ZN58_$LT$alloc..string..String$u20$as$u20$core..fmt..Write$GT$10write_char17h7f0e695dc12136c9E', symObjAddr: 0x4D74, symBinAddr: 0x6F4D8, symSize: 0x130 }
  - { offset: 0x14EC09, size: 0x8, addend: 0x0, symName: '__ZN61_$LT$alloc..string..IntoChars$u20$as$u20$core..fmt..Debug$GT$3fmt17h98915ebef4658fe3E', symObjAddr: 0x4EA4, symBinAddr: 0x6F608, symSize: 0x68 }
  - { offset: 0x14ECED, size: 0x8, addend: 0x0, symName: __ZN5alloc6string5Drain6as_str17h522d50cfe07ba2afE, symObjAddr: 0x4FE8, symBinAddr: 0x6F74C, symSize: 0x1C }
  - { offset: 0x14ED8F, size: 0x8, addend: 0x0, symName: '__ZN57_$LT$alloc..string..Drain$u20$as$u20$core..fmt..Debug$GT$3fmt17h95b4c7ed33dbf6a2E', symObjAddr: 0x4F0C, symBinAddr: 0x6F670, symSize: 0x64 }
  - { offset: 0x14EE4F, size: 0x8, addend: 0x0, symName: '__ZN62_$LT$alloc..string..Drain$u20$as$u20$core..ops..drop..Drop$GT$4drop17he89d26d011e8ebe0E', symObjAddr: 0x4F70, symBinAddr: 0x6F6D4, symSize: 0x78 }
  - { offset: 0x14EFC4, size: 0x8, addend: 0x0, symName: '__ZN72_$LT$alloc..string..Drain$u20$as$u20$core..convert..AsRef$LT$str$GT$$GT$6as_ref17hc1f670af240c4caaE', symObjAddr: 0x5004, symBinAddr: 0x6F768, symSize: 0x1C }
  - { offset: 0x14F084, size: 0x8, addend: 0x0, symName: '__ZN79_$LT$alloc..string..Drain$u20$as$u20$core..iter..traits..iterator..Iterator$GT$9size_hint17h16f1a227182afd28E', symObjAddr: 0x5020, symBinAddr: 0x6F784, symSize: 0x2C }
  - { offset: 0x14F5EF, size: 0x8, addend: 0x0, symName: '__ZN5alloc3vec16Vec$LT$T$C$A$GT$11swap_remove13assert_failed17ha145b195e68946eaE', symObjAddr: 0x50C0, symBinAddr: 0x8DE98, symSize: 0x34 }
  - { offset: 0x14F629, size: 0x8, addend: 0x0, symName: '__ZN5alloc3vec16Vec$LT$T$C$A$GT$6insert13assert_failed17ha06471bf2bc83254E', symObjAddr: 0x50F4, symBinAddr: 0x8DECC, symSize: 0x34 }
  - { offset: 0x14F663, size: 0x8, addend: 0x0, symName: '__ZN5alloc3vec16Vec$LT$T$C$A$GT$6remove13assert_failed17h9d7df5cb8ecfae0bE', symObjAddr: 0x5128, symBinAddr: 0x8DF00, symSize: 0x34 }
  - { offset: 0x14F69D, size: 0x8, addend: 0x0, symName: '__ZN5alloc3vec16Vec$LT$T$C$A$GT$9split_off13assert_failed17hb8d97eca2c254a16E', symObjAddr: 0x515C, symBinAddr: 0x8DF34, symSize: 0x34 }
  - { offset: 0x14F6ED, size: 0x8, addend: 0x0, symName: '__ZN80_$LT$alloc..vec..Vec$LT$u8$GT$$u20$as$u20$core..convert..From$LT$$RF$str$GT$$GT$4from17hf8407dc9c0856a22E', symObjAddr: 0x5190, symBinAddr: 0x6F824, symSize: 0x98 }
  - { offset: 0x14F87C, size: 0x8, addend: 0x0, symName: '__ZN88_$LT$alloc..collections..btree..map..UnorderedKeyError$u20$as$u20$core..fmt..Display$GT$3fmt17ha30cd5af52b871eeE', symObjAddr: 0x1054, symBinAddr: 0x6B7C4, symSize: 0x24 }
  - { offset: 0x14F8C2, size: 0x8, addend: 0x0, symName: '__ZN93_$LT$alloc..collections..btree..mem..replace..PanicGuard$u20$as$u20$core..ops..drop..Drop$GT$4drop17heb4d6690095a7f6bE', symObjAddr: 0x1078, symBinAddr: 0x8DE8C, symSize: 0xC }
  - { offset: 0x14F8E6, size: 0x8, addend: 0x0, symName: '__ZN74_$LT$alloc..collections..TryReserveError$u20$as$u20$core..fmt..Display$GT$3fmt17hc85d22b1983f33a3E', symObjAddr: 0x1084, symBinAddr: 0x6B7E8, symSize: 0x74 }
  - { offset: 0x14F96A, size: 0x8, addend: 0x0, symName: '__ZN92_$LT$alloc..borrow..Cow$LT$str$GT$$u20$as$u20$core..ops..arith..AddAssign$LT$$RF$str$GT$$GT$10add_assign17h78907e47b7c99cbdE', symObjAddr: 0x76C, symBinAddr: 0x6AEDC, symSize: 0x20C }
  - { offset: 0x14FEF8, size: 0x8, addend: 0x0, symName: '__ZN77_$LT$alloc..borrow..Cow$LT$str$GT$$u20$as$u20$core..ops..arith..AddAssign$GT$10add_assign17hbb1c419dd9b74415E', symObjAddr: 0x978, symBinAddr: 0x6B0E8, symSize: 0x2B8 }
  - { offset: 0x1507D7, size: 0x8, addend: 0x0, symName: '__ZN5alloc3str21_$LT$impl$u20$str$GT$12to_lowercase17hfea22d8e4ef2d1ceE', symObjAddr: 0x1DFC, symBinAddr: 0x6C560, symSize: 0xBC8 }
  - { offset: 0x15165A, size: 0x8, addend: 0x0, symName: '__ZN5alloc3str21_$LT$impl$u20$str$GT$12to_uppercase17h5641341fb82a0e71E', symObjAddr: 0x29C4, symBinAddr: 0x6D128, symSize: 0x854 }
  - { offset: 0x15218D, size: 0x8, addend: 0x0, symName: '__ZN256_$LT$alloc..boxed..convert..$LT$impl$u20$core..convert..From$LT$alloc..string..String$GT$$u20$for$u20$alloc..boxed..Box$LT$dyn$u20$core..error..Error$u2b$core..marker..Send$u2b$core..marker..Sync$GT$$GT$..from..StringError$u20$as$u20$core..error..Error$GT$11description17h83b064ec173ed10fE', symObjAddr: 0xC30, symBinAddr: 0x6B3A0, symSize: 0x18 }
  - { offset: 0x152250, size: 0x8, addend: 0x0, symName: '__ZN256_$LT$alloc..boxed..convert..$LT$impl$u20$core..convert..From$LT$alloc..string..String$GT$$u20$for$u20$alloc..boxed..Box$LT$dyn$u20$core..error..Error$u2b$core..marker..Send$u2b$core..marker..Sync$GT$$GT$..from..StringError$u20$as$u20$core..fmt..Display$GT$3fmt17h6f5efaf75a87a527E', symObjAddr: 0xC48, symBinAddr: 0x6B3B8, symSize: 0x1C }
  - { offset: 0x15232A, size: 0x8, addend: 0x0, symName: '__ZN254_$LT$alloc..boxed..convert..$LT$impl$u20$core..convert..From$LT$alloc..string..String$GT$$u20$for$u20$alloc..boxed..Box$LT$dyn$u20$core..error..Error$u2b$core..marker..Send$u2b$core..marker..Sync$GT$$GT$..from..StringError$u20$as$u20$core..fmt..Debug$GT$3fmt17hba1c290343a345ddE', symObjAddr: 0xC64, symBinAddr: 0x6B3D4, symSize: 0x1C }
  - { offset: 0x152422, size: 0x8, addend: 0x0, symName: '__ZN5alloc5boxed7convert130_$LT$impl$u20$core..convert..From$LT$alloc..string..String$GT$$u20$for$u20$alloc..boxed..Box$LT$dyn$u20$core..error..Error$GT$$GT$4from17h608fc2221af92264E', symObjAddr: 0xC80, symBinAddr: 0x6B3F0, symSize: 0x84 }
  - { offset: 0x15259E, size: 0x8, addend: 0x0, symName: '__ZN5alloc5boxed7convert116_$LT$impl$u20$core..convert..From$LT$$RF$str$GT$$u20$for$u20$alloc..boxed..Box$LT$dyn$u20$core..error..Error$GT$$GT$4from17hb07b281f6df78219E', symObjAddr: 0xD04, symBinAddr: 0x6B474, symSize: 0xE0 }
  - { offset: 0x152870, size: 0x8, addend: 0x0, symName: '__ZN5alloc5boxed7convert184_$LT$impl$u20$core..convert..From$LT$alloc..borrow..Cow$LT$str$GT$$GT$$u20$for$u20$alloc..boxed..Box$LT$dyn$u20$core..error..Error$u2b$core..marker..Send$u2b$core..marker..Sync$GT$$GT$4from17ha20f58a653211dc6E', symObjAddr: 0xDE4, symBinAddr: 0x6B554, symSize: 0xF4 }
  - { offset: 0x152B42, size: 0x8, addend: 0x0, symName: '__ZN5alloc5boxed7convert138_$LT$impl$u20$core..convert..From$LT$alloc..borrow..Cow$LT$str$GT$$GT$$u20$for$u20$alloc..boxed..Box$LT$dyn$u20$core..error..Error$GT$$GT$4from17h05bab17996e60e66E', symObjAddr: 0xED8, symBinAddr: 0x6B648, symSize: 0xF4 }
  - { offset: 0x152E9E, size: 0x8, addend: 0x0, symName: '__ZN67_$LT$alloc..boxed..Box$LT$str$GT$$u20$as$u20$core..clone..Clone$GT$5clone17h0719e71bf3deacfeE', symObjAddr: 0xFCC, symBinAddr: 0x6B73C, symSize: 0x88 }
  - { offset: 0x152FC6, size: 0x8, addend: 0x0, symName: __ZN5alloc3ffi5c_str19FromVecWithNulError8as_bytes17h0d7209b157e2b759E, symObjAddr: 0x10F8, symBinAddr: 0x6B85C, symSize: 0x18 }
  - { offset: 0x1530A1, size: 0x8, addend: 0x0, symName: '__ZN72_$LT$$RF$str$u20$as$u20$alloc..ffi..c_str..CString..new..SpecNewImpl$GT$13spec_new_impl17ha2c285a2ee2bf954E', symObjAddr: 0x1110, symBinAddr: 0x6B874, symSize: 0x11C }
  - { offset: 0x1532FC, size: 0x8, addend: 0x0, symName: '__ZN89_$LT$$RF$mut$u20$$u5b$u8$u5d$$u20$as$u20$alloc..ffi..c_str..CString..new..SpecNewImpl$GT$13spec_new_impl17h25451c4a730c161cE', symObjAddr: 0x122C, symBinAddr: 0x6B990, symSize: 0x11C }
  - { offset: 0x15356E, size: 0x8, addend: 0x0, symName: __ZN5alloc3ffi5c_str7CString18from_vec_unchecked17h3a47ed2114eeb2deE, symObjAddr: 0x1348, symBinAddr: 0x6BAAC, symSize: 0x30 }
  - { offset: 0x153589, size: 0x8, addend: 0x0, symName: __ZN5alloc3ffi5c_str7CString19_from_vec_unchecked17h9f0872389dfe1216E, symObjAddr: 0x1378, symBinAddr: 0x6BADC, symSize: 0x160 }
  - { offset: 0x1538D5, size: 0x8, addend: 0x0, symName: __ZN5alloc3ffi5c_str7CString8from_raw17h1765ad244441d92aE, symObjAddr: 0x14D8, symBinAddr: 0x6BC3C, symSize: 0x28 }
  - { offset: 0x1538FE, size: 0x8, addend: 0x0, symName: __ZN5alloc3ffi5c_str7CString11into_string17h383356f898b29e5aE, symObjAddr: 0x1500, symBinAddr: 0x6BC64, symSize: 0xF8 }
  - { offset: 0x153A1A, size: 0x8, addend: 0x0, symName: __ZN5alloc3ffi5c_str7CString10into_bytes17h108af36c3463e395E, symObjAddr: 0x15F8, symBinAddr: 0x6BD5C, symSize: 0x20 }
  - { offset: 0x153A45, size: 0x8, addend: 0x0, symName: __ZN5alloc3ffi5c_str7CString19into_bytes_with_nul17hfe1163749a667433E, symObjAddr: 0x1618, symBinAddr: 0x6BD7C, symSize: 0x18 }
  - { offset: 0x153A9C, size: 0x8, addend: 0x0, symName: __ZN5alloc3ffi5c_str7CString27from_vec_with_nul_unchecked17h5c933e9d0115a5d6E, symObjAddr: 0x1630, symBinAddr: 0x6BD94, symSize: 0x98 }
  - { offset: 0x153C38, size: 0x8, addend: 0x0, symName: __ZN5alloc3ffi5c_str7CString17from_vec_with_nul17hf330e7bf8a90f2d5E, symObjAddr: 0x16C8, symBinAddr: 0x6BE2C, symSize: 0x130 }
  - { offset: 0x153E8D, size: 0x8, addend: 0x0, symName: '__ZN63_$LT$alloc..ffi..c_str..CString$u20$as$u20$core..fmt..Debug$GT$3fmt17h04b4f75fd696a82bE', symObjAddr: 0x17F8, symBinAddr: 0x6BF5C, symSize: 0x1C }
  - { offset: 0x153EEB, size: 0x8, addend: 0x0, symName: '__ZN5alloc3ffi5c_str75_$LT$impl$u20$alloc..borrow..ToOwned$u20$for$u20$core..ffi..c_str..CStr$GT$10clone_into17h9d2c15993f6eb01bE', symObjAddr: 0x1A08, symBinAddr: 0x6C16C, symSize: 0x114 }
  - { offset: 0x154219, size: 0x8, addend: 0x0, symName: '__ZN69_$LT$alloc..ffi..c_str..CString$u20$as$u20$core..default..Default$GT$7default17hb767747120594032E', symObjAddr: 0x1814, symBinAddr: 0x6BF78, symSize: 0x40 }
  - { offset: 0x15432B, size: 0x8, addend: 0x0, symName: '__ZN5alloc3ffi5c_str131_$LT$impl$u20$core..convert..From$LT$$RF$core..ffi..c_str..CStr$GT$$u20$for$u20$alloc..boxed..Box$LT$core..ffi..c_str..CStr$GT$$GT$4from17he5734f64d9204390E', symObjAddr: 0x1854, symBinAddr: 0x6BFB8, symSize: 0x88 }
  - { offset: 0x154437, size: 0x8, addend: 0x0, symName: '__ZN5alloc3ffi5c_str100_$LT$impl$u20$core..default..Default$u20$for$u20$alloc..boxed..Box$LT$core..ffi..c_str..CStr$GT$$GT$7default17h1b23cf966f7aa279E', symObjAddr: 0x18DC, symBinAddr: 0x6C040, symSize: 0x40 }
  - { offset: 0x1544DF, size: 0x8, addend: 0x0, symName: '__ZN66_$LT$alloc..ffi..c_str..NulError$u20$as$u20$core..fmt..Display$GT$3fmt17h3800a0c17c3e966cE', symObjAddr: 0x191C, symBinAddr: 0x6C080, symSize: 0x50 }
  - { offset: 0x15455B, size: 0x8, addend: 0x0, symName: '__ZN77_$LT$alloc..ffi..c_str..FromVecWithNulError$u20$as$u20$core..fmt..Display$GT$3fmt17hf7dd7b194e0c5bd6E', symObjAddr: 0x196C, symBinAddr: 0x6C0D0, symSize: 0x7C }
  - { offset: 0x1545C1, size: 0x8, addend: 0x0, symName: '__ZN73_$LT$alloc..ffi..c_str..IntoStringError$u20$as$u20$core..fmt..Display$GT$3fmt17h87161ba8b05bd848E', symObjAddr: 0x19E8, symBinAddr: 0x6C14C, symSize: 0x20 }
  - { offset: 0x1545E3, size: 0x8, addend: 0x0, symName: '__ZN100_$LT$alloc..ffi..c_str..CString$u20$as$u20$core..convert..From$LT$$RF$core..ffi..c_str..CStr$GT$$GT$4from17hb104c0867bf8af4eE', symObjAddr: 0x1B1C, symBinAddr: 0x6C280, symSize: 0x88 }
  - { offset: 0x154715, size: 0x8, addend: 0x0, symName: __ZN5alloc3fmt6format12format_inner17h39328223d040feb7E, symObjAddr: 0x1BC8, symBinAddr: 0x6C32C, symSize: 0x1C0 }
  - { offset: 0x154988, size: 0x8, addend: 0x0, symName: __ZN5alloc2rc32rc_inner_layout_for_value_layout17ha0d8c61f07c7e88eE, symObjAddr: 0x1D88, symBinAddr: 0x6C4EC, symSize: 0x74 }
  - { offset: 0x154A5D, size: 0x8, addend: 0x0, symName: __ZN5alloc4sync32arcinner_layout_for_value_layout17he7c3cdfc91f8ce88E, symObjAddr: 0x504C, symBinAddr: 0x6F7B0, symSize: 0x74 }
  - { offset: 0x154B2D, size: 0x8, addend: 0x0, symName: _OUTLINED_FUNCTION_0, symObjAddr: 0x5228, symBinAddr: 0x6F8BC, symSize: 0x24 }
  - { offset: 0x154B63, size: 0x8, addend: 0x0, symName: __ZN4core3num7dec2flt11decimal_seq10DecimalSeq4trim17h4faa7e643173e884E, symObjAddr: 0x0, symBinAddr: 0x6F8E0, symSize: 0x50 }
  - { offset: 0x154B8F, size: 0x8, addend: 0x0, symName: __ZN4core3num7dec2flt11decimal_seq10DecimalSeq4trim17h4faa7e643173e884E, symObjAddr: 0x0, symBinAddr: 0x6F8E0, symSize: 0x50 }
  - { offset: 0x154BA3, size: 0x8, addend: 0x0, symName: __ZN4core3num7dec2flt11decimal_seq10DecimalSeq5round17h51dc99ffb7c49e6cE, symObjAddr: 0x50, symBinAddr: 0x6F930, symSize: 0xBC }
  - { offset: 0x154BF2, size: 0x8, addend: 0x0, symName: __ZN4core3num7dec2flt11decimal_seq10DecimalSeq10left_shift17hab8d0023afc83a80E, symObjAddr: 0x10C, symBinAddr: 0x6F9EC, symSize: 0x210 }
  - { offset: 0x154C9E, size: 0x8, addend: 0x0, symName: __ZN4core3num7dec2flt11decimal_seq10DecimalSeq11right_shift17h0ceefc555db3eb12E, symObjAddr: 0x31C, symBinAddr: 0x6FBFC, symSize: 0x1C0 }
  - { offset: 0x154D32, size: 0x8, addend: 0x0, symName: __ZN4core3num7dec2flt11decimal_seq17parse_decimal_seq17h744978c1a1f9f133E, symObjAddr: 0x4DC, symBinAddr: 0x6FDBC, symSize: 0x3CC }
  - { offset: 0x15510F, size: 0x8, addend: 0x0, symName: '__ZN59_$LT$f32$u20$as$u20$core..num..dec2flt..float..RawFloat$GT$15pow10_fast_path17h766d506546daf4dcE', symObjAddr: 0x8A8, symBinAddr: 0x70188, symSize: 0x20 }
  - { offset: 0x15516B, size: 0x8, addend: 0x0, symName: '__ZN59_$LT$f64$u20$as$u20$core..num..dec2flt..float..RawFloat$GT$15pow10_fast_path17hcadb38d06f4c1799E', symObjAddr: 0x8C8, symBinAddr: 0x701A8, symSize: 0x20 }
  - { offset: 0x155207, size: 0x8, addend: 0x0, symName: __ZN4core3num7dec2flt6lemire13compute_float17hd54c2c6c00190625E, symObjAddr: 0x8E8, symBinAddr: 0x701C8, symSize: 0x15C }
  - { offset: 0x1552C4, size: 0x8, addend: 0x0, symName: __ZN4core3num7dec2flt6lemire13compute_float17he2fcfa35477adcfcE, symObjAddr: 0xA44, symBinAddr: 0x70324, symSize: 0x158 }
  - { offset: 0x155374, size: 0x8, addend: 0x0, symName: __ZN4core3num7dec2flt6lemire22compute_product_approx17h67b6a43966719383E, symObjAddr: 0xB9C, symBinAddr: 0x7047C, symSize: 0x6C }
  - { offset: 0x155438, size: 0x8, addend: 0x0, symName: __ZN4core3num7dec2flt5parse12parse_number17h15a6d9f8ae5ba8c9E, symObjAddr: 0xC08, symBinAddr: 0x704E8, symSize: 0x43C }
  - { offset: 0x155A2D, size: 0x8, addend: 0x0, symName: '__ZN74_$LT$core..num..dec2flt..ParseFloatError$u20$as$u20$core..fmt..Display$GT$3fmt17h44a2547bf85b9ae8E', symObjAddr: 0x1044, symBinAddr: 0x70924, symSize: 0x48 }
  - { offset: 0x155B2C, size: 0x8, addend: 0x0, symName: '__ZN4core3num7dec2flt60_$LT$impl$u20$core..str..traits..FromStr$u20$for$u20$f32$GT$8from_str17h2c41d23271c3e847E', symObjAddr: 0x14AEC, symBinAddr: 0x83A58, symSize: 0x470 }
  - { offset: 0x155B57, size: 0x8, addend: 0x0, symName: '__ZN4core3num7dec2flt60_$LT$impl$u20$core..str..traits..FromStr$u20$for$u20$f32$GT$8from_str17h2c41d23271c3e847E', symObjAddr: 0x14AEC, symBinAddr: 0x83A58, symSize: 0x470 }
  - { offset: 0x155E09, size: 0x8, addend: 0x0, symName: '__ZN4core3num7dec2flt60_$LT$impl$u20$core..str..traits..FromStr$u20$for$u20$f64$GT$8from_str17h80a73029136382dcE', symObjAddr: 0x14F5C, symBinAddr: 0x83EC8, symSize: 0x458 }
  - { offset: 0x1564C4, size: 0x8, addend: 0x0, symName: __ZN4core3num9diy_float2Fp3mul17hd205c3fc42ab2e1dE, symObjAddr: 0x108C, symBinAddr: 0x7096C, symSize: 0x24 }
  - { offset: 0x156505, size: 0x8, addend: 0x0, symName: __ZN4core3num9diy_float2Fp9normalize17hb72d1de578876237E, symObjAddr: 0x10B0, symBinAddr: 0x70990, symSize: 0x1C }
  - { offset: 0x15652F, size: 0x8, addend: 0x0, symName: __ZN4core3num9diy_float2Fp12normalize_to17ha303a23bd0b6d2c6E, symObjAddr: 0x10CC, symBinAddr: 0x709AC, symSize: 0x80 }
  - { offset: 0x156578, size: 0x8, addend: 0x0, symName: __ZN4core3num7flt2dec9estimator23estimate_scaling_factor17heb6adbf0bfe3ee0fE, symObjAddr: 0x114C, symBinAddr: 0x70A2C, symSize: 0x3C }
  - { offset: 0x1565BC, size: 0x8, addend: 0x0, symName: __ZN4core3num7flt2dec8strategy6dragon9mul_pow1017h0d7ff940f7c8d67bE, symObjAddr: 0x1188, symBinAddr: 0x70A68, symSize: 0x1E4 }
  - { offset: 0x15685C, size: 0x8, addend: 0x0, symName: __ZN4core3num7flt2dec8strategy6dragon15format_shortest17h920ff0c0b51362c4E, symObjAddr: 0x136C, symBinAddr: 0x70C4C, symSize: 0xBF8 }
  - { offset: 0x158045, size: 0x8, addend: 0x0, symName: __ZN4core3num7flt2dec8strategy6dragon12format_exact17h970cd56b981be90eE, symObjAddr: 0x1F64, symBinAddr: 0x71844, symSize: 0xAB8 }
  - { offset: 0x1595D5, size: 0x8, addend: 0x0, symName: __ZN4core3num7flt2dec8strategy5grisu12cached_power17h88eed34bb940d4ddE, symObjAddr: 0x2A1C, symBinAddr: 0x722FC, symSize: 0x74 }
  - { offset: 0x159618, size: 0x8, addend: 0x0, symName: __ZN4core3num7flt2dec8strategy5grisu19format_shortest_opt17h18b46c26f914d357E, symObjAddr: 0x2A90, symBinAddr: 0x72370, symSize: 0x5D4 }
  - { offset: 0x1597B9, size: 0x8, addend: 0x0, symName: __ZN4core3num7flt2dec8strategy5grisu15format_shortest17hdbc64f0f1acf4c07E, symObjAddr: 0x3064, symBinAddr: 0x72944, symSize: 0x7C }
  - { offset: 0x1597CD, size: 0x8, addend: 0x0, symName: __ZN4core3num7flt2dec8strategy5grisu16format_exact_opt17hb199bf16a76f53deE, symObjAddr: 0x30E0, symBinAddr: 0x729C0, symSize: 0x36C }
  - { offset: 0x159872, size: 0x8, addend: 0x0, symName: __ZN4core3num7flt2dec8strategy5grisu16format_exact_opt14possibly_round17h19edefbbbcaab3caE, symObjAddr: 0x344C, symBinAddr: 0x72D2C, symSize: 0x1E0 }
  - { offset: 0x1599DE, size: 0x8, addend: 0x0, symName: __ZN4core3num7flt2dec8strategy5grisu12format_exact17hc68455d4ffda0536E, symObjAddr: 0x362C, symBinAddr: 0x72F0C, symSize: 0x90 }
  - { offset: 0x159A1D, size: 0x8, addend: 0x0, symName: __ZN4core3num7flt2dec8round_up17h99f56aa85f1a0c57E, symObjAddr: 0x36BC, symBinAddr: 0x72F9C, symSize: 0xB4 }
  - { offset: 0x159AD6, size: 0x8, addend: 0x0, symName: __ZN4core3num7flt2dec17digits_to_dec_str17h25dad84491b1fb3dE, symObjAddr: 0x3770, symBinAddr: 0x73050, symSize: 0x14C }
  - { offset: 0x159B77, size: 0x8, addend: 0x0, symName: __ZN4core3num7flt2dec17digits_to_exp_str17h8f18c99af0ae0570E, symObjAddr: 0x38BC, symBinAddr: 0x7319C, symSize: 0x168 }
  - { offset: 0x159DDD, size: 0x8, addend: 0x0, symName: __ZN4core3num6bignum8Big32x408from_u6417ha2827bcfe5b6e00bE, symObjAddr: 0x12300, symBinAddr: 0x8126C, symSize: 0x68 }
  - { offset: 0x159DF1, size: 0x8, addend: 0x0, symName: __ZN4core3num6bignum8Big32x406digits17h8f93309635fffa26E, symObjAddr: 0x12368, symBinAddr: 0x812D4, symSize: 0x2C }
  - { offset: 0x159E3F, size: 0x8, addend: 0x0, symName: __ZN4core3num6bignum8Big32x407get_bit17h102be708110e9750E, symObjAddr: 0x12394, symBinAddr: 0x81300, symSize: 0x38 }
  - { offset: 0x159E53, size: 0x8, addend: 0x0, symName: __ZN4core3num6bignum8Big32x407is_zero17h6ae36f1a0638f061E, symObjAddr: 0x123CC, symBinAddr: 0x81338, symSize: 0x50 }
  - { offset: 0x159EE9, size: 0x8, addend: 0x0, symName: __ZN4core3num6bignum8Big32x4010bit_length17hc13f9d56073335feE, symObjAddr: 0x1241C, symBinAddr: 0x81388, symSize: 0x80 }
  - { offset: 0x15A005, size: 0x8, addend: 0x0, symName: __ZN4core3num6bignum8Big32x403add17hb7f03eb3974efc0dE, symObjAddr: 0x1249C, symBinAddr: 0x81408, symSize: 0xA0 }
  - { offset: 0x15A0B0, size: 0x8, addend: 0x0, symName: __ZN4core3num6bignum8Big32x409add_small17h0568b4d654d8e965E, symObjAddr: 0x1253C, symBinAddr: 0x814A8, symSize: 0x3EC }
  - { offset: 0x15A114, size: 0x8, addend: 0x0, symName: __ZN4core3num6bignum8Big32x403sub17h502a477e374ceeafE, symObjAddr: 0x12928, symBinAddr: 0x81894, symSize: 0x98 }
  - { offset: 0x15A1BF, size: 0x8, addend: 0x0, symName: __ZN4core3num6bignum8Big32x409mul_small17hd509cdbb11364ee9E, symObjAddr: 0x129C0, symBinAddr: 0x8192C, symSize: 0x88 }
  - { offset: 0x15A24C, size: 0x8, addend: 0x0, symName: __ZN4core3num6bignum8Big32x408mul_pow217h250afa7ed08a5e2dE, symObjAddr: 0x12A48, symBinAddr: 0x819B4, symSize: 0x448 }
  - { offset: 0x15A304, size: 0x8, addend: 0x0, symName: __ZN4core3num6bignum8Big32x408mul_pow517h34d4ca5ca27c98a9E, symObjAddr: 0x12E90, symBinAddr: 0x81DFC, symSize: 0x18C }
  - { offset: 0x15A52E, size: 0x8, addend: 0x0, symName: __ZN4core3num6bignum8Big32x4010mul_digits17h6750fc21a544b2f9E, symObjAddr: 0x1301C, symBinAddr: 0x81F88, symSize: 0x2EC }
  - { offset: 0x15A83C, size: 0x8, addend: 0x0, symName: __ZN4core3num6bignum8Big32x4013div_rem_small17hb308652137f7cc2cE, symObjAddr: 0x13308, symBinAddr: 0x82274, symSize: 0x88 }
  - { offset: 0x15A8EE, size: 0x8, addend: 0x0, symName: __ZN4core3num6bignum8Big32x407div_rem17h9b64efd0713423a5E, symObjAddr: 0x13390, symBinAddr: 0x822FC, symSize: 0x268 }
  - { offset: 0x15AD9A, size: 0x8, addend: 0x0, symName: '__ZN62_$LT$core..num..bignum..Big32x40$u20$as$u20$core..cmp..Ord$GT$3cmp17hc0f944540aa47f3fE', symObjAddr: 0x13688, symBinAddr: 0x825F4, symSize: 0x70 }
  - { offset: 0x15AF91, size: 0x8, addend: 0x0, symName: '__ZN69_$LT$core..num..bignum..Big32x40$u20$as$u20$core..cmp..PartialOrd$GT$11partial_cmp17h9ec50017c5d90f97E', symObjAddr: 0x13618, symBinAddr: 0x82584, symSize: 0x70 }
  - { offset: 0x15B196, size: 0x8, addend: 0x0, symName: '__ZN50_$LT$u32$u20$as$u20$core..num..bignum..FullOps$GT$12full_div_rem17h8a1a09459aaf4c2eE', symObjAddr: 0x122CC, symBinAddr: 0x81238, symSize: 0x34 }
  - { offset: 0x15B1BE, size: 0x8, addend: 0x0, symName: '__ZN49_$LT$u8$u20$as$u20$core..num..bignum..FullOps$GT$12full_div_rem17h1fc96d6f2c1daba3E', symObjAddr: 0x12260, symBinAddr: 0x811CC, symSize: 0x38 }
  - { offset: 0x15B1F3, size: 0x8, addend: 0x0, symName: '__ZN50_$LT$u16$u20$as$u20$core..num..bignum..FullOps$GT$12full_div_rem17hec113d04416c7f89E', symObjAddr: 0x12298, symBinAddr: 0x81204, symSize: 0x34 }
  - { offset: 0x15B230, size: 0x8, addend: 0x0, symName: '__ZN68_$LT$core..num..bignum..Big32x40$u20$as$u20$core..cmp..PartialEq$GT$2eq17hff17cdd55a31eea0E', symObjAddr: 0x135F8, symBinAddr: 0x82564, symSize: 0x20 }
  - { offset: 0x15B27F, size: 0x8, addend: 0x0, symName: '__ZN64_$LT$core..num..bignum..Big32x40$u20$as$u20$core..fmt..Debug$GT$3fmt17h8fd4f7c202466969E', symObjAddr: 0x136F8, symBinAddr: 0x82664, symSize: 0x14C }
  - { offset: 0x15B35B, size: 0x8, addend: 0x0, symName: __ZN4core3num6bignum5tests6Big8x38from_u6417hd09ff912fcc7164bE, symObjAddr: 0x13844, symBinAddr: 0x827B0, symSize: 0xB4 }
  - { offset: 0x15B375, size: 0x8, addend: 0x0, symName: __ZN4core3num6bignum5tests6Big8x36digits17hc6b08c95893cfe7dE, symObjAddr: 0x138F8, symBinAddr: 0x82864, symSize: 0x30 }
  - { offset: 0x15B3C3, size: 0x8, addend: 0x0, symName: __ZN4core3num6bignum5tests6Big8x37get_bit17hc080a63d4ebff7c4E, symObjAddr: 0x13928, symBinAddr: 0x82894, symSize: 0x40 }
  - { offset: 0x15B3E4, size: 0x8, addend: 0x0, symName: __ZN4core3num6bignum5tests6Big8x37is_zero17h4b2138591047eed5E, symObjAddr: 0x13968, symBinAddr: 0x828D4, symSize: 0x7C }
  - { offset: 0x15B45C, size: 0x8, addend: 0x0, symName: __ZN4core3num6bignum5tests6Big8x310bit_length17hd8938f58849b7316E, symObjAddr: 0x139E4, symBinAddr: 0x82950, symSize: 0xC0 }
  - { offset: 0x15B560, size: 0x8, addend: 0x0, symName: __ZN4core3num6bignum5tests6Big8x33add17hfe50b240d547e1e5E, symObjAddr: 0x13AA4, symBinAddr: 0x82A10, symSize: 0xB4 }
  - { offset: 0x15B63E, size: 0x8, addend: 0x0, symName: __ZN4core3num6bignum5tests6Big8x39add_small17h9cacacd4c546bfa9E, symObjAddr: 0x13B58, symBinAddr: 0x82AC4, symSize: 0x8C }
  - { offset: 0x15B6A2, size: 0x8, addend: 0x0, symName: __ZN4core3num6bignum5tests6Big8x33sub17h2e73c94ce504aca1E, symObjAddr: 0x13BE4, symBinAddr: 0x82B50, symSize: 0xA4 }
  - { offset: 0x15B77A, size: 0x8, addend: 0x0, symName: __ZN4core3num6bignum5tests6Big8x39mul_small17h93ac1cd6628bf789E, symObjAddr: 0x13C88, symBinAddr: 0x82BF4, symSize: 0xA8 }
  - { offset: 0x15B7F1, size: 0x8, addend: 0x0, symName: __ZN4core3num6bignum5tests6Big8x38mul_pow217h33e962262456d6a8E, symObjAddr: 0x13D30, symBinAddr: 0x82C9C, symSize: 0x278 }
  - { offset: 0x15B8A0, size: 0x8, addend: 0x0, symName: __ZN4core3num6bignum5tests6Big8x38mul_pow517h3661868ebe672020E, symObjAddr: 0x13FA8, symBinAddr: 0x82F14, symSize: 0x178 }
  - { offset: 0x15BA59, size: 0x8, addend: 0x0, symName: __ZN4core3num6bignum5tests6Big8x310mul_digits17hf9474269e4c18e55E, symObjAddr: 0x14120, symBinAddr: 0x8308C, symSize: 0x36C }
  - { offset: 0x15BD3B, size: 0x8, addend: 0x0, symName: __ZN4core3num6bignum5tests6Big8x313div_rem_small17hc52a7c16b18aaeeeE, symObjAddr: 0x1448C, symBinAddr: 0x833F8, symSize: 0xBC }
  - { offset: 0x15BE2A, size: 0x8, addend: 0x0, symName: __ZN4core3num6bignum5tests6Big8x37div_rem17h7cac49c9dcb17085E, symObjAddr: 0x14548, symBinAddr: 0x834B4, symSize: 0x2DC }
  - { offset: 0x15C334, size: 0x8, addend: 0x0, symName: '__ZN67_$LT$core..num..bignum..tests..Big8x3$u20$as$u20$core..cmp..Ord$GT$3cmp17h3845dbae1b3fca08E', symObjAddr: 0x14900, symBinAddr: 0x8386C, symSize: 0xB0 }
  - { offset: 0x15C4F2, size: 0x8, addend: 0x0, symName: '__ZN74_$LT$core..num..bignum..tests..Big8x3$u20$as$u20$core..cmp..PartialOrd$GT$11partial_cmp17h71bd57a730a235d3E', symObjAddr: 0x14850, symBinAddr: 0x837BC, symSize: 0xB0 }
  - { offset: 0x15C6B1, size: 0x8, addend: 0x0, symName: '__ZN73_$LT$core..num..bignum..tests..Big8x3$u20$as$u20$core..cmp..PartialEq$GT$2eq17hc5824105c8f16a48E', symObjAddr: 0x14824, symBinAddr: 0x83790, symSize: 0x2C }
  - { offset: 0x15C700, size: 0x8, addend: 0x0, symName: '__ZN69_$LT$core..num..bignum..tests..Big8x3$u20$as$u20$core..fmt..Debug$GT$3fmt17h160bb261c026c828E', symObjAddr: 0x149B0, symBinAddr: 0x8391C, symSize: 0x13C }
  - { offset: 0x15C8D1, size: 0x8, addend: 0x0, symName: __ZN4core3num3fmt4Part5write17h263ab6d89bc2fd2cE, symObjAddr: 0x3A24, symBinAddr: 0x73304, symSize: 0x164 }
  - { offset: 0x15C9F2, size: 0x8, addend: 0x0, symName: __ZN4core3num3fmt9Formatted3len17h1e8e9a484c04890cE, symObjAddr: 0x3B88, symBinAddr: 0x73468, symSize: 0x98 }
  - { offset: 0x15CA37, size: 0x8, addend: 0x0, symName: __ZN4core3num3fmt9Formatted5write17hb80a87a6270d26d1E, symObjAddr: 0x3C20, symBinAddr: 0x73500, symSize: 0xBC }
  - { offset: 0x15CB5B, size: 0x8, addend: 0x0, symName: '__ZN72_$LT$core..num..error..TryFromIntError$u20$as$u20$core..fmt..Display$GT$3fmt17ha181e0e6dc8f2982E', symObjAddr: 0x3CDC, symBinAddr: 0x735BC, symSize: 0x20 }
  - { offset: 0x15CBA6, size: 0x8, addend: 0x0, symName: '__ZN70_$LT$core..num..error..ParseIntError$u20$as$u20$core..fmt..Display$GT$3fmt17hb8878d35604fbfa3E', symObjAddr: 0x3CFC, symBinAddr: 0x735DC, symSize: 0x34 }
  - { offset: 0x15CBF3, size: 0x8, addend: 0x0, symName: __ZN4core3num9int_log1030panic_for_nonpositive_argument17he62920c7b4002b4fE, symObjAddr: 0x3D30, symBinAddr: 0x8DF68, symSize: 0x34 }
  - { offset: 0x15CC6B, size: 0x8, addend: 0x0, symName: __ZN4core3num8int_sqrt27panic_for_negative_argument17h42df438ad37078eeE, symObjAddr: 0x3D64, symBinAddr: 0x8DF9C, symSize: 0x34 }
  - { offset: 0x15CCA4, size: 0x8, addend: 0x0, symName: __ZN4core3num14overflow_panic3add17h4ac52cacfeefaa2bE, symObjAddr: 0x3D98, symBinAddr: 0x8DFD0, symSize: 0x34 }
  - { offset: 0x15CCD4, size: 0x8, addend: 0x0, symName: __ZN4core3num14overflow_panic3sub17hd1f1252dd4649010E, symObjAddr: 0x3DCC, symBinAddr: 0x8E004, symSize: 0x34 }
  - { offset: 0x15CD04, size: 0x8, addend: 0x0, symName: __ZN4core3num14overflow_panic3mul17h24c6050ec2609751E, symObjAddr: 0x3E00, symBinAddr: 0x8E038, symSize: 0x34 }
  - { offset: 0x15CD34, size: 0x8, addend: 0x0, symName: __ZN4core3num14overflow_panic3div17hc8616850a055166dE, symObjAddr: 0x3E34, symBinAddr: 0x8E06C, symSize: 0x34 }
  - { offset: 0x15CD64, size: 0x8, addend: 0x0, symName: __ZN4core3num14overflow_panic3rem17h3de549ca714dd259E, symObjAddr: 0x3E68, symBinAddr: 0x8E0A0, symSize: 0x34 }
  - { offset: 0x15CD94, size: 0x8, addend: 0x0, symName: __ZN4core3num14overflow_panic3neg17h9541624c79b7b9a2E, symObjAddr: 0x3E9C, symBinAddr: 0x8E0D4, symSize: 0x34 }
  - { offset: 0x15CDC4, size: 0x8, addend: 0x0, symName: __ZN4core3num14overflow_panic3shr17h1f42bfeece76317dE, symObjAddr: 0x3ED0, symBinAddr: 0x8E108, symSize: 0x34 }
  - { offset: 0x15CDF4, size: 0x8, addend: 0x0, symName: __ZN4core3num14overflow_panic3shl17h8822c084201e13bfE, symObjAddr: 0x3F04, symBinAddr: 0x8E13C, symSize: 0x34 }
  - { offset: 0x15CE3E, size: 0x8, addend: 0x0, symName: __ZN4core3num22from_ascii_radix_panic8do_panic7runtime17hec0135319a5f5319E, symObjAddr: 0x16FA0, symBinAddr: 0x8E8DC, symSize: 0x44 }
  - { offset: 0x15CE72, size: 0x8, addend: 0x0, symName: __ZN4core3num22from_ascii_radix_panic17hdce6039c94e6631fE, symObjAddr: 0x3F38, symBinAddr: 0x8E170, symSize: 0xC }
  - { offset: 0x15CF42, size: 0x8, addend: 0x0, symName: '__ZN73_$LT$core..num..nonzero..NonZero$LT$T$GT$$u20$as$u20$core..fmt..Debug$GT$3fmt17hf1baabc511f0d591E', symObjAddr: 0x153B4, symBinAddr: 0x84320, symSize: 0xE0 }
  - { offset: 0x15D084, size: 0x8, addend: 0x0, symName: '__ZN84_$LT$core..num..nonzero..NonZero$LT$u8$GT$$u20$as$u20$core..str..traits..FromStr$GT$8from_str17hdf219700ffa8a313E', symObjAddr: 0x15494, symBinAddr: 0x84400, symSize: 0x108 }
  - { offset: 0x15D162, size: 0x8, addend: 0x0, symName: '__ZN85_$LT$core..num..nonzero..NonZero$LT$u16$GT$$u20$as$u20$core..str..traits..FromStr$GT$8from_str17hef20f21b6e005b04E', symObjAddr: 0x1559C, symBinAddr: 0x84508, symSize: 0x108 }
  - { offset: 0x15D250, size: 0x8, addend: 0x0, symName: '__ZN85_$LT$core..num..nonzero..NonZero$LT$u32$GT$$u20$as$u20$core..str..traits..FromStr$GT$8from_str17hfa5f2656e615131dE', symObjAddr: 0x156A4, symBinAddr: 0x84610, symSize: 0x138 }
  - { offset: 0x15D352, size: 0x8, addend: 0x0, symName: '__ZN85_$LT$core..num..nonzero..NonZero$LT$u64$GT$$u20$as$u20$core..str..traits..FromStr$GT$8from_str17h27f05a14dc26b0c2E', symObjAddr: 0x157DC, symBinAddr: 0x84748, symSize: 0xFC }
  - { offset: 0x15D446, size: 0x8, addend: 0x0, symName: '__ZN86_$LT$core..num..nonzero..NonZero$LT$u128$GT$$u20$as$u20$core..str..traits..FromStr$GT$8from_str17hee29b121fe891f6bE', symObjAddr: 0x158D8, symBinAddr: 0x84844, symSize: 0x130 }
  - { offset: 0x15D542, size: 0x8, addend: 0x0, symName: '__ZN84_$LT$core..num..nonzero..NonZero$LT$i8$GT$$u20$as$u20$core..str..traits..FromStr$GT$8from_str17hb8e1e4ee47597d1dE', symObjAddr: 0x15A08, symBinAddr: 0x84974, symSize: 0x1D8 }
  - { offset: 0x15D6B6, size: 0x8, addend: 0x0, symName: '__ZN85_$LT$core..num..nonzero..NonZero$LT$i16$GT$$u20$as$u20$core..str..traits..FromStr$GT$8from_str17h97e4569dd8ffbc47E', symObjAddr: 0x15BE0, symBinAddr: 0x84B4C, symSize: 0x204 }
  - { offset: 0x15D82C, size: 0x8, addend: 0x0, symName: '__ZN85_$LT$core..num..nonzero..NonZero$LT$i32$GT$$u20$as$u20$core..str..traits..FromStr$GT$8from_str17hf5542904386be857E', symObjAddr: 0x15DE4, symBinAddr: 0x84D50, symSize: 0x1E8 }
  - { offset: 0x15D993, size: 0x8, addend: 0x0, symName: '__ZN85_$LT$core..num..nonzero..NonZero$LT$i64$GT$$u20$as$u20$core..str..traits..FromStr$GT$8from_str17hd1e832c88a7f88d6E', symObjAddr: 0x15FCC, symBinAddr: 0x84F38, symSize: 0x1AC }
  - { offset: 0x15DB08, size: 0x8, addend: 0x0, symName: '__ZN86_$LT$core..num..nonzero..NonZero$LT$i128$GT$$u20$as$u20$core..str..traits..FromStr$GT$8from_str17h4e055d64f656b35bE', symObjAddr: 0x16178, symBinAddr: 0x850E4, symSize: 0x22C }
  - { offset: 0x15E34C, size: 0x8, addend: 0x0, symName: '__ZN72_$LT$core..num..niche_types..Nanoseconds$u20$as$u20$core..fmt..Debug$GT$3fmt17h16ad1ce38f5e1357E', symObjAddr: 0x163A4, symBinAddr: 0x85310, symSize: 0xE0 }
  - { offset: 0x15E48E, size: 0x8, addend: 0x0, symName: '__ZN75_$LT$core..num..niche_types..NonZeroU8Inner$u20$as$u20$core..fmt..Debug$GT$3fmt17hfc20f59c00b5e2efE', symObjAddr: 0x16484, symBinAddr: 0x853F0, symSize: 0x14 }
  - { offset: 0x15E4AF, size: 0x8, addend: 0x0, symName: '__ZN76_$LT$core..num..niche_types..NonZeroU16Inner$u20$as$u20$core..fmt..Debug$GT$3fmt17hf71914aa4913ee07E', symObjAddr: 0x16498, symBinAddr: 0x85404, symSize: 0xE0 }
  - { offset: 0x15E5E1, size: 0x8, addend: 0x0, symName: '__ZN76_$LT$core..num..niche_types..NonZeroU32Inner$u20$as$u20$core..fmt..Debug$GT$3fmt17h567d3f9b6dc68e4fE', symObjAddr: 0x16578, symBinAddr: 0x854E4, symSize: 0xE0 }
  - { offset: 0x15E723, size: 0x8, addend: 0x0, symName: '__ZN76_$LT$core..num..niche_types..NonZeroU64Inner$u20$as$u20$core..fmt..Debug$GT$3fmt17h13055a5ffcd76efaE', symObjAddr: 0x16658, symBinAddr: 0x855C4, symSize: 0xE0 }
  - { offset: 0x15E865, size: 0x8, addend: 0x0, symName: '__ZN77_$LT$core..num..niche_types..NonZeroU128Inner$u20$as$u20$core..fmt..Debug$GT$3fmt17hcce8d246db4cbc7fE', symObjAddr: 0x16738, symBinAddr: 0x856A4, symSize: 0x18 }
  - { offset: 0x15E886, size: 0x8, addend: 0x0, symName: '__ZN75_$LT$core..num..niche_types..NonZeroI8Inner$u20$as$u20$core..fmt..Debug$GT$3fmt17h829f2b66c64a7c63E', symObjAddr: 0x16750, symBinAddr: 0x856BC, symSize: 0x14 }
  - { offset: 0x15E8A7, size: 0x8, addend: 0x0, symName: '__ZN76_$LT$core..num..niche_types..NonZeroI16Inner$u20$as$u20$core..fmt..Debug$GT$3fmt17hab89c488ffa0026aE', symObjAddr: 0x16764, symBinAddr: 0x856D0, symSize: 0xEC }
  - { offset: 0x15EA06, size: 0x8, addend: 0x0, symName: '__ZN76_$LT$core..num..niche_types..NonZeroI32Inner$u20$as$u20$core..fmt..Debug$GT$3fmt17h30b440ad676bc14dE', symObjAddr: 0x16850, symBinAddr: 0x857BC, symSize: 0xF0 }
  - { offset: 0x15EB75, size: 0x8, addend: 0x0, symName: '__ZN76_$LT$core..num..niche_types..NonZeroI64Inner$u20$as$u20$core..fmt..Debug$GT$3fmt17h09a1622eaf591bcaE', symObjAddr: 0x16940, symBinAddr: 0x858AC, symSize: 0xEC }
  - { offset: 0x15ECE4, size: 0x8, addend: 0x0, symName: '__ZN77_$LT$core..num..niche_types..NonZeroI128Inner$u20$as$u20$core..fmt..Debug$GT$3fmt17hbdf01364fbeb46cdE', symObjAddr: 0x16A2C, symBinAddr: 0x85998, symSize: 0x18 }
  - { offset: 0x15ED05, size: 0x8, addend: 0x0, symName: '__ZN75_$LT$core..num..niche_types..UsizeNoHighBit$u20$as$u20$core..fmt..Debug$GT$3fmt17h4c0df7984c2dfb1fE', symObjAddr: 0x16A44, symBinAddr: 0x859B0, symSize: 0xE0 }
  - { offset: 0x15EE47, size: 0x8, addend: 0x0, symName: '__ZN78_$LT$core..num..niche_types..NonZeroUsizeInner$u20$as$u20$core..fmt..Debug$GT$3fmt17h4f720bdd2212934aE', symObjAddr: 0x16B24, symBinAddr: 0x85A90, symSize: 0xE0 }
  - { offset: 0x15EF89, size: 0x8, addend: 0x0, symName: '__ZN74_$LT$core..num..niche_types..U32NotAllOnes$u20$as$u20$core..fmt..Debug$GT$3fmt17hd10d7de904ed7bcfE', symObjAddr: 0x16C04, symBinAddr: 0x85B70, symSize: 0xE0 }
  - { offset: 0x15F0CB, size: 0x8, addend: 0x0, symName: '__ZN74_$LT$core..num..niche_types..I32NotAllOnes$u20$as$u20$core..fmt..Debug$GT$3fmt17h201bc07266490c26E', symObjAddr: 0x16CE4, symBinAddr: 0x85C50, symSize: 0xF0 }
  - { offset: 0x15F23A, size: 0x8, addend: 0x0, symName: '__ZN74_$LT$core..num..niche_types..U64NotAllOnes$u20$as$u20$core..fmt..Debug$GT$3fmt17hedcb1c1c580371e9E', symObjAddr: 0x16DD4, symBinAddr: 0x85D40, symSize: 0xE0 }
  - { offset: 0x15F37C, size: 0x8, addend: 0x0, symName: '__ZN74_$LT$core..num..niche_types..I64NotAllOnes$u20$as$u20$core..fmt..Debug$GT$3fmt17h46ea9eba9edcce5fE', symObjAddr: 0x16EB4, symBinAddr: 0x85E20, symSize: 0xEC }
  - { offset: 0x160D06, size: 0x8, addend: 0x0, symName: __ZN4core5slice5index26slice_start_index_len_fail8do_panic7runtime17h4329ee6dfccba9ddE, symObjAddr: 0x1B23C, symBinAddr: 0x8EE7C, symSize: 0x50 }
  - { offset: 0x160D3A, size: 0x8, addend: 0x0, symName: __ZN4core5slice5index26slice_start_index_len_fail17h2dfa99bd7f6d73dcE, symObjAddr: 0xE780, symBinAddr: 0x8E724, symSize: 0xC }
  - { offset: 0x160D83, size: 0x8, addend: 0x0, symName: __ZN4core5slice5index24slice_end_index_len_fail8do_panic7runtime17hec1962333f8a2b78E, symObjAddr: 0x1B28C, symBinAddr: 0x8EECC, symSize: 0x50 }
  - { offset: 0x160DB7, size: 0x8, addend: 0x0, symName: __ZN4core5slice5index24slice_end_index_len_fail17h658aaf9fdfc67c91E, symObjAddr: 0xE78C, symBinAddr: 0x8E730, symSize: 0xC }
  - { offset: 0x160E00, size: 0x8, addend: 0x0, symName: __ZN4core5slice5index22slice_index_order_fail8do_panic7runtime17h7e58ff5338134f96E, symObjAddr: 0x1B2DC, symBinAddr: 0x8EF1C, symSize: 0x50 }
  - { offset: 0x160E34, size: 0x8, addend: 0x0, symName: __ZN4core5slice5index22slice_index_order_fail17h1d9efe3670e787d1E, symObjAddr: 0xE798, symBinAddr: 0x8E73C, symSize: 0xC }
  - { offset: 0x160E64, size: 0x8, addend: 0x0, symName: __ZN4core5slice5index31slice_start_index_overflow_fail17h331e79308ba92ae5E, symObjAddr: 0xE7A4, symBinAddr: 0x8E748, symSize: 0x34 }
  - { offset: 0x160E94, size: 0x8, addend: 0x0, symName: __ZN4core5slice5index29slice_end_index_overflow_fail17h688bb446e402c3fcE, symObjAddr: 0xE7D8, symBinAddr: 0x8E77C, symSize: 0x34 }
  - { offset: 0x160EC4, size: 0x8, addend: 0x0, symName: __ZN4core5slice5index10into_range17h495f0a75b3d9153aE, symObjAddr: 0xE80C, symBinAddr: 0x7D8A4, symSize: 0x68 }
  - { offset: 0x160F4E, size: 0x8, addend: 0x0, symName: __ZN4core5slice5index16into_slice_range17ha7c11072c0fe7449E, symObjAddr: 0xE874, symBinAddr: 0x7D90C, symSize: 0x70 }
  - { offset: 0x161635, size: 0x8, addend: 0x0, symName: '__ZN4core5slice29_$LT$impl$u20$$u5b$T$u5d$$GT$15copy_from_slice17len_mismatch_fail8do_panic7runtime17h3d43ce6cb00afb65E', symObjAddr: 0x1B32C, symBinAddr: 0x8EF6C, symSize: 0x54 }
  - { offset: 0x161669, size: 0x8, addend: 0x0, symName: '__ZN4core5slice29_$LT$impl$u20$$u5b$T$u5d$$GT$15copy_from_slice17len_mismatch_fail17h7de6570425a552f9E', symObjAddr: 0xE8E4, symBinAddr: 0x8E7B0, symSize: 0x18 }
  - { offset: 0x1616A1, size: 0x8, addend: 0x0, symName: '__ZN4core5slice29_$LT$impl$u20$$u5b$T$u5d$$GT$16align_to_offsets3gcd17h607dd8fc94bc09e9E', symObjAddr: 0xE8FC, symBinAddr: 0x7D97C, symSize: 0x34 }
  - { offset: 0x161AB4, size: 0x8, addend: 0x0, symName: '__ZN105_$LT$core..slice..ascii..EscapeAscii$u20$as$u20$core..iter..traits..double_ended..DoubleEndedIterator$GT$9next_back17h4906cc9b421eb9f2E', symObjAddr: 0xE340, symBinAddr: 0x7D464, symSize: 0x15C }
  - { offset: 0x161DD2, size: 0x8, addend: 0x0, symName: '__ZN70_$LT$core..slice..ascii..EscapeAscii$u20$as$u20$core..fmt..Display$GT$3fmt17h30867c6d2e5c61a9E', symObjAddr: 0xE49C, symBinAddr: 0x7D5C0, symSize: 0x278 }
  - { offset: 0x1622E1, size: 0x8, addend: 0x0, symName: '__ZN68_$LT$core..slice..ascii..EscapeAscii$u20$as$u20$core..fmt..Debug$GT$3fmt17hecda5230ac45077cE', symObjAddr: 0xE714, symBinAddr: 0x7D838, symSize: 0x6C }
  - { offset: 0x1623E7, size: 0x8, addend: 0x0, symName: __ZN4core5slice6memchr14memchr_aligned17h4d2d60a9418b630fE, symObjAddr: 0xE0C8, symBinAddr: 0x7D224, symSize: 0xE8 }
  - { offset: 0x1624CC, size: 0x8, addend: 0x0, symName: __ZN4core5slice6memchr7memrchr17hd07fc26fe6ba85a6E, symObjAddr: 0xE1B0, symBinAddr: 0x7D30C, symSize: 0x120 }
  - { offset: 0x16265D, size: 0x8, addend: 0x0, symName: __ZN4core5slice4sort6stable5drift11sqrt_approx17he16b9edd4b06f7f2E, symObjAddr: 0xE2D0, symBinAddr: 0x7D42C, symSize: 0x38 }
  - { offset: 0x1626E0, size: 0x8, addend: 0x0, symName: __ZN4core5slice4sort6shared9smallsort22panic_on_ord_violation17h0da272501835dfabE, symObjAddr: 0xE308, symBinAddr: 0x8E6EC, symSize: 0x38 }
  - { offset: 0x16271B, size: 0x8, addend: 0x0, symName: '__ZN71_$LT$core..slice..GetDisjointMutError$u20$as$u20$core..fmt..Display$GT$3fmt17hfdf8e119e43351d1E', symObjAddr: 0xE930, symBinAddr: 0x7D9B0, symSize: 0x48 }
  - { offset: 0x162BE6, size: 0x8, addend: 0x0, symName: __ZN4core10intrinsics3mir11PtrMetadata19panic_cold_explicit17h2a8caf8aae269fe5E, symObjAddr: 0x16FE4, symBinAddr: 0x8E920, symSize: 0xC }
  - { offset: 0x162DD2, size: 0x8, addend: 0x0, symName: '__ZN68_$LT$core..ptr..alignment..Alignment$u20$as$u20$core..fmt..Debug$GT$3fmt17h082802572b05fdf3E', symObjAddr: 0x3F5C, symBinAddr: 0x73628, symSize: 0x78 }
  - { offset: 0x163052, size: 0x8, addend: 0x0, symName: '__ZN42_$LT$str$u20$as$u20$core..fmt..Display$GT$3fmt17h80e103d61603b646E', symObjAddr: 0xDD8C, symBinAddr: 0x7CEE8, symSize: 0x20 }
  - { offset: 0x1636AE, size: 0x8, addend: 0x0, symName: __ZN4core3fmt9Formatter12pad_integral17hbc522ba79dcf584eE, symObjAddr: 0xB650, symBinAddr: 0x7A7AC, symSize: 0x3B4 }
  - { offset: 0x1639D4, size: 0x8, addend: 0x0, symName: __ZN4core3fmt9Formatter3pad17h092ab36ff11c1828E, symObjAddr: 0xBA80, symBinAddr: 0x7ABDC, symSize: 0x304 }
  - { offset: 0x163D4D, size: 0x8, addend: 0x0, symName: __ZN4core3fmt9Formatter19pad_formatted_parts17h0beafc6a3ec9f4e5E, symObjAddr: 0xBD84, symBinAddr: 0x7AEE0, symSize: 0x218 }
  - { offset: 0x163F74, size: 0x8, addend: 0x0, symName: __ZN4core3fmt9Formatter21write_formatted_parts17hbfbe357872b20a50E, symObjAddr: 0xBF9C, symBinAddr: 0x7B0F8, symSize: 0x23C }
  - { offset: 0x164062, size: 0x8, addend: 0x0, symName: __ZN4core3fmt9Formatter9write_str17h8a65dbcec027f2b5E, symObjAddr: 0xC1D8, symBinAddr: 0x7B334, symSize: 0x1C }
  - { offset: 0x164076, size: 0x8, addend: 0x0, symName: __ZN4core3fmt9Formatter4fill17hd4244ac1a73418c8E, symObjAddr: 0xC1F4, symBinAddr: 0x7B350, symSize: 0x18 }
  - { offset: 0x1640A1, size: 0x8, addend: 0x0, symName: __ZN4core3fmt9Formatter12debug_struct17hcffdba29e8b8b0f1E, symObjAddr: 0xC20C, symBinAddr: 0x7B368, symSize: 0x3C }
  - { offset: 0x1640E2, size: 0x8, addend: 0x0, symName: __ZN4core3fmt9Formatter26debug_struct_field1_finish17h9554fa9543b24ccbE, symObjAddr: 0xC248, symBinAddr: 0x7B3A4, symSize: 0xD0 }
  - { offset: 0x1641C1, size: 0x8, addend: 0x0, symName: __ZN4core3fmt9Formatter26debug_struct_field2_finish17hb132104dc28603b8E, symObjAddr: 0xC318, symBinAddr: 0x7B474, symSize: 0x104 }
  - { offset: 0x1642A0, size: 0x8, addend: 0x0, symName: __ZN4core3fmt9Formatter26debug_struct_field3_finish17h428bf14f4c50bfc6E, symObjAddr: 0xC41C, symBinAddr: 0x7B578, symSize: 0x12C }
  - { offset: 0x16437F, size: 0x8, addend: 0x0, symName: __ZN4core3fmt9Formatter26debug_struct_field4_finish17hb9c2dc8f4f7712feE, symObjAddr: 0xC548, symBinAddr: 0x7B6A4, symSize: 0x15C }
  - { offset: 0x16445E, size: 0x8, addend: 0x0, symName: __ZN4core3fmt9Formatter26debug_struct_field5_finish17hfe2de9b3bf47bbedE, symObjAddr: 0xC6A4, symBinAddr: 0x7B800, symSize: 0x180 }
  - { offset: 0x16453D, size: 0x8, addend: 0x0, symName: __ZN4core3fmt9Formatter26debug_struct_fields_finish17hb27aca4a2a7e5cabE, symObjAddr: 0xC824, symBinAddr: 0x7B980, symSize: 0x108 }
  - { offset: 0x164639, size: 0x8, addend: 0x0, symName: __ZN4core3fmt9Formatter11debug_tuple17h9b297e50ba44e7e6E, symObjAddr: 0xC92C, symBinAddr: 0x7BA88, symSize: 0x50 }
  - { offset: 0x164690, size: 0x8, addend: 0x0, symName: __ZN4core3fmt9Formatter25debug_tuple_field1_finish17h1349b7c5bdecded9E, symObjAddr: 0xC97C, symBinAddr: 0x7BAD8, symSize: 0x160 }
  - { offset: 0x1648AB, size: 0x8, addend: 0x0, symName: __ZN4core3fmt9Formatter25debug_tuple_field2_finish17hb168ec98774c5845E, symObjAddr: 0xCADC, symBinAddr: 0x7BC38, symSize: 0x1D8 }
  - { offset: 0x164BC9, size: 0x8, addend: 0x0, symName: __ZN4core3fmt9Formatter25debug_tuple_field3_finish17h7eeaea87091362e6E, symObjAddr: 0xCCB4, symBinAddr: 0x7BE10, symSize: 0x284 }
  - { offset: 0x165016, size: 0x8, addend: 0x0, symName: __ZN4core3fmt9Formatter25debug_tuple_field4_finish17hd74d93b40afdb5e0E, symObjAddr: 0xCF38, symBinAddr: 0x7C094, symSize: 0x324 }
  - { offset: 0x165592, size: 0x8, addend: 0x0, symName: __ZN4core3fmt9Formatter25debug_tuple_field5_finish17h6d5302a7e00fdd98E, symObjAddr: 0xD25C, symBinAddr: 0x7C3B8, symSize: 0x3C4 }
  - { offset: 0x165C3D, size: 0x8, addend: 0x0, symName: __ZN4core3fmt9Formatter25debug_tuple_fields_finish17haf36591c94585309E, symObjAddr: 0xD620, symBinAddr: 0x7C77C, symSize: 0x270 }
  - { offset: 0x165E4A, size: 0x8, addend: 0x0, symName: __ZN4core3fmt9Formatter10debug_list17h44a2df181760ad13E, symObjAddr: 0xD890, symBinAddr: 0x7C9EC, symSize: 0x48 }
  - { offset: 0x165E8C, size: 0x8, addend: 0x0, symName: __ZN4core3fmt9Formatter9debug_set17ha368c11aa196ebf8E, symObjAddr: 0xD8D8, symBinAddr: 0x7CA34, symSize: 0x48 }
  - { offset: 0x165ED5, size: 0x8, addend: 0x0, symName: __ZN4core3fmt9Formatter9debug_map17hb4c5e7e72e6bdc88E, symObjAddr: 0xD920, symBinAddr: 0x7CA7C, symSize: 0x58 }
  - { offset: 0x1660AD, size: 0x8, addend: 0x0, symName: __ZN4core3fmt8builders11DebugStruct5field17h516c59dd2898e59dE, symObjAddr: 0x837C, symBinAddr: 0x774D8, symSize: 0x1B4 }
  - { offset: 0x1662C5, size: 0x8, addend: 0x0, symName: __ZN4core3fmt8builders11DebugStruct21finish_non_exhaustive17he81a09ab2847922fE, symObjAddr: 0x8530, symBinAddr: 0x7768C, symSize: 0xC4 }
  - { offset: 0x1663E1, size: 0x8, addend: 0x0, symName: __ZN4core3fmt8builders11DebugStruct6finish17ha6fcb094703e3de7E, symObjAddr: 0x85F4, symBinAddr: 0x77750, symSize: 0x80 }
  - { offset: 0x1664EF, size: 0x8, addend: 0x0, symName: __ZN4core3fmt8builders10PadAdapter4wrap17h9db1c2c92c81eaa4E, symObjAddr: 0x8074, symBinAddr: 0x771D0, symSize: 0x30 }
  - { offset: 0x16655A, size: 0x8, addend: 0x0, symName: '__ZN68_$LT$core..fmt..builders..PadAdapter$u20$as$u20$core..fmt..Write$GT$9write_str17h5500ee9ad57cd196E', symObjAddr: 0x80A4, symBinAddr: 0x77200, symSize: 0x258 }
  - { offset: 0x166826, size: 0x8, addend: 0x0, symName: '__ZN68_$LT$core..fmt..builders..PadAdapter$u20$as$u20$core..fmt..Write$GT$10write_char17h7590efda8e58c1daE', symObjAddr: 0x82FC, symBinAddr: 0x77458, symSize: 0x80 }
  - { offset: 0x1668FC, size: 0x8, addend: 0x0, symName: __ZN4core3fmt8builders10DebugTuple5field17h18b3ad95d406b2bdE, symObjAddr: 0x8674, symBinAddr: 0x777D0, symSize: 0x148 }
  - { offset: 0x166A8B, size: 0x8, addend: 0x0, symName: __ZN4core3fmt8builders10DebugTuple21finish_non_exhaustive17h26b3bd22f523083aE, symObjAddr: 0x87BC, symBinAddr: 0x77918, symSize: 0xC0 }
  - { offset: 0x166BCC, size: 0x8, addend: 0x0, symName: __ZN4core3fmt8builders10DebugTuple6finish17he45d6e01a2fe6191E, symObjAddr: 0x887C, symBinAddr: 0x779D8, symSize: 0xB0 }
  - { offset: 0x166D86, size: 0x8, addend: 0x0, symName: __ZN4core3fmt8builders8DebugSet5entry17h885b1471dd7348a7E, symObjAddr: 0x892C, symBinAddr: 0x77A88, symSize: 0x148 }
  - { offset: 0x166F1C, size: 0x8, addend: 0x0, symName: __ZN4core3fmt8builders8DebugSet21finish_non_exhaustive17h63810a1bcce7e96eE, symObjAddr: 0x8A74, symBinAddr: 0x77BD0, symSize: 0xC4 }
  - { offset: 0x167047, size: 0x8, addend: 0x0, symName: __ZN4core3fmt8builders8DebugSet6finish17h15f6c0cfd9a2a1f1E, symObjAddr: 0x8B38, symBinAddr: 0x77C94, symSize: 0x4C }
  - { offset: 0x1670EC, size: 0x8, addend: 0x0, symName: __ZN4core3fmt8builders9DebugList21finish_non_exhaustive17h199498331eb4b87bE, symObjAddr: 0x8B84, symBinAddr: 0x77CE0, symSize: 0xC8 }
  - { offset: 0x16721F, size: 0x8, addend: 0x0, symName: __ZN4core3fmt8builders9DebugList6finish17h0f34999bcb7bc26bE, symObjAddr: 0x8C4C, symBinAddr: 0x77DA8, symSize: 0x4C }
  - { offset: 0x1672CB, size: 0x8, addend: 0x0, symName: __ZN4core3fmt8builders8DebugMap5entry17h14ed2a57dfa0e1bdE, symObjAddr: 0x8C98, symBinAddr: 0x77DF4, symSize: 0x110 }
  - { offset: 0x167448, size: 0x8, addend: 0x0, symName: __ZN4core3fmt8builders8DebugMap3key17h2773c13d6df80ebfE, symObjAddr: 0x8DA8, symBinAddr: 0x77F04, symSize: 0x1C8 }
  - { offset: 0x167616, size: 0x8, addend: 0x0, symName: __ZN4core3fmt8builders8DebugMap5value17h55af9d10a3bec871E, symObjAddr: 0x8F70, symBinAddr: 0x780CC, symSize: 0x108 }
  - { offset: 0x167761, size: 0x8, addend: 0x0, symName: __ZN4core3fmt8builders8DebugMap21finish_non_exhaustive17h712cbb610abfc5b0E, symObjAddr: 0x9078, symBinAddr: 0x781D4, symSize: 0xF8 }
  - { offset: 0x1678A2, size: 0x8, addend: 0x0, symName: __ZN4core3fmt8builders8DebugMap6finish17h95810c3de7c845b7E, symObjAddr: 0x9170, symBinAddr: 0x782CC, symSize: 0x88 }
  - { offset: 0x1679E0, size: 0x8, addend: 0x0, symName: '__ZN4core3fmt3num52_$LT$impl$u20$core..fmt..Debug$u20$for$u20$usize$GT$3fmt17hebd4d92e9a615c26E', symObjAddr: 0x198B0, symBinAddr: 0x8827C, symSize: 0xE8 }
  - { offset: 0x167B2D, size: 0x8, addend: 0x0, symName: '__ZN4core3fmt3num3imp52_$LT$impl$u20$core..fmt..Display$u20$for$u20$u32$GT$3fmt17h34a78d7dcfa5d09eE', symObjAddr: 0x19C6C, symBinAddr: 0x88638, symSize: 0x1C }
  - { offset: 0x167B55, size: 0x8, addend: 0x0, symName: '__ZN4core3fmt3num3imp52_$LT$impl$u20$core..fmt..Display$u20$for$u20$u16$GT$3fmt17h046f7bc071ea8fbeE', symObjAddr: 0x19B18, symBinAddr: 0x884E4, symSize: 0x1C }
  - { offset: 0x167B7D, size: 0x8, addend: 0x0, symName: '__ZN4core3fmt3num3imp52_$LT$impl$u20$core..fmt..Display$u20$for$u20$u64$GT$3fmt17hd35633ead04b8027E', symObjAddr: 0x19DD4, symBinAddr: 0x887A0, symSize: 0x1C }
  - { offset: 0x167BA5, size: 0x8, addend: 0x0, symName: '__ZN4core3fmt3num3imp52_$LT$impl$u20$core..fmt..Display$u20$for$u20$i16$GT$3fmt17h6509d01678c31b1bE', symObjAddr: 0x19B34, symBinAddr: 0x88500, symSize: 0x2C }
  - { offset: 0x167BFA, size: 0x8, addend: 0x0, symName: '__ZN4core3fmt3num3imp52_$LT$impl$u20$core..fmt..Display$u20$for$u20$i32$GT$3fmt17h9f9155fca10e424eE', symObjAddr: 0x19C88, symBinAddr: 0x88654, symSize: 0x28 }
  - { offset: 0x167C4F, size: 0x8, addend: 0x0, symName: '__ZN4core3fmt3num3imp52_$LT$impl$u20$core..fmt..Display$u20$for$u20$i64$GT$3fmt17hc28e474a07b579acE', symObjAddr: 0x19DF0, symBinAddr: 0x887BC, symSize: 0x28 }
  - { offset: 0x167CA4, size: 0x8, addend: 0x0, symName: '__ZN4core3fmt3num3imp51_$LT$impl$u20$core..fmt..Display$u20$for$u20$i8$GT$3fmt17h77a899558c3fccaaE', symObjAddr: 0x19A48, symBinAddr: 0x88414, symSize: 0xD0 }
  - { offset: 0x167DA8, size: 0x8, addend: 0x0, symName: '__ZN4core3fmt3num3imp51_$LT$impl$u20$core..fmt..Display$u20$for$u20$u8$GT$3fmt17hc2c5fd53c276cc1fE', symObjAddr: 0x19998, symBinAddr: 0x88364, symSize: 0xB0 }
  - { offset: 0x167E77, size: 0x8, addend: 0x0, symName: '__ZN4core3fmt3num3imp21_$LT$impl$u20$u16$GT$4_fmt17h17ba36c36fa20ba2E', symObjAddr: 0x19B60, symBinAddr: 0x8852C, symSize: 0x10C }
  - { offset: 0x167F42, size: 0x8, addend: 0x0, symName: '__ZN4core3fmt3num3imp21_$LT$impl$u20$u32$GT$4_fmt17h669e404c1d2bd170E', symObjAddr: 0x19CB0, symBinAddr: 0x8867C, symSize: 0x124 }
  - { offset: 0x16802D, size: 0x8, addend: 0x0, symName: '__ZN4core3fmt3num3imp21_$LT$impl$u20$u64$GT$4_fmt17h778a896bd4e1ec29E', symObjAddr: 0x19E18, symBinAddr: 0x887E4, symSize: 0x130 }
  - { offset: 0x168112, size: 0x8, addend: 0x0, symName: __ZN4core3fmt3num3imp7exp_u6417h2c1e1431a475bd2dE, symObjAddr: 0x19F48, symBinAddr: 0x88914, symSize: 0x488 }
  - { offset: 0x168305, size: 0x8, addend: 0x0, symName: '__ZN4core3fmt3num3imp52_$LT$impl$u20$core..fmt..LowerExp$u20$for$u20$i8$GT$3fmt17h286fa6ea5b9fe088E', symObjAddr: 0x1A3D0, symBinAddr: 0x88D9C, symSize: 0x2C }
  - { offset: 0x168327, size: 0x8, addend: 0x0, symName: '__ZN4core3fmt3num3imp52_$LT$impl$u20$core..fmt..LowerExp$u20$for$u20$u8$GT$3fmt17h7b3b4182580f7eceE', symObjAddr: 0x1A3FC, symBinAddr: 0x88DC8, symSize: 0x20 }
  - { offset: 0x168349, size: 0x8, addend: 0x0, symName: '__ZN4core3fmt3num3imp53_$LT$impl$u20$core..fmt..LowerExp$u20$for$u20$i16$GT$3fmt17h99e155b3400be98cE', symObjAddr: 0x1A41C, symBinAddr: 0x88DE8, symSize: 0x2C }
  - { offset: 0x16836B, size: 0x8, addend: 0x0, symName: '__ZN4core3fmt3num3imp53_$LT$impl$u20$core..fmt..LowerExp$u20$for$u20$u16$GT$3fmt17h43c4be98c3afef2bE', symObjAddr: 0x1A448, symBinAddr: 0x88E14, symSize: 0x20 }
  - { offset: 0x16838D, size: 0x8, addend: 0x0, symName: '__ZN4core3fmt3num3imp53_$LT$impl$u20$core..fmt..LowerExp$u20$for$u20$i32$GT$3fmt17h3fc779d7ae1be368E', symObjAddr: 0x1A468, symBinAddr: 0x88E34, symSize: 0x2C }
  - { offset: 0x1683AF, size: 0x8, addend: 0x0, symName: '__ZN4core3fmt3num3imp53_$LT$impl$u20$core..fmt..LowerExp$u20$for$u20$u32$GT$3fmt17h2ae9b8e61ebfad86E', symObjAddr: 0x1A494, symBinAddr: 0x88E60, symSize: 0x20 }
  - { offset: 0x1683D1, size: 0x8, addend: 0x0, symName: '__ZN4core3fmt3num3imp53_$LT$impl$u20$core..fmt..LowerExp$u20$for$u20$i64$GT$3fmt17hee6f3e51a71d05f3E', symObjAddr: 0x1A4B4, symBinAddr: 0x88E80, symSize: 0x2C }
  - { offset: 0x1683F3, size: 0x8, addend: 0x0, symName: '__ZN4core3fmt3num3imp53_$LT$impl$u20$core..fmt..LowerExp$u20$for$u20$u64$GT$3fmt17h69d41391677aaff5E', symObjAddr: 0x1A4E0, symBinAddr: 0x88EAC, symSize: 0x20 }
  - { offset: 0x168415, size: 0x8, addend: 0x0, symName: '__ZN4core3fmt3num3imp52_$LT$impl$u20$core..fmt..UpperExp$u20$for$u20$i8$GT$3fmt17hffff33433b5f4cf2E', symObjAddr: 0x1A500, symBinAddr: 0x88ECC, symSize: 0x2C }
  - { offset: 0x168437, size: 0x8, addend: 0x0, symName: '__ZN4core3fmt3num3imp52_$LT$impl$u20$core..fmt..UpperExp$u20$for$u20$u8$GT$3fmt17h9a33f57d890f763bE', symObjAddr: 0x1A52C, symBinAddr: 0x88EF8, symSize: 0x20 }
  - { offset: 0x168459, size: 0x8, addend: 0x0, symName: '__ZN4core3fmt3num3imp53_$LT$impl$u20$core..fmt..UpperExp$u20$for$u20$i16$GT$3fmt17hc937d4fcc95a0871E', symObjAddr: 0x1A54C, symBinAddr: 0x88F18, symSize: 0x2C }
  - { offset: 0x16847B, size: 0x8, addend: 0x0, symName: '__ZN4core3fmt3num3imp53_$LT$impl$u20$core..fmt..UpperExp$u20$for$u20$u16$GT$3fmt17h42cbef0c06ccd71bE', symObjAddr: 0x1A578, symBinAddr: 0x88F44, symSize: 0x20 }
  - { offset: 0x16849D, size: 0x8, addend: 0x0, symName: '__ZN4core3fmt3num3imp53_$LT$impl$u20$core..fmt..UpperExp$u20$for$u20$i32$GT$3fmt17h9827cc58e8588096E', symObjAddr: 0x1A598, symBinAddr: 0x88F64, symSize: 0x2C }
  - { offset: 0x1684BF, size: 0x8, addend: 0x0, symName: '__ZN4core3fmt3num3imp53_$LT$impl$u20$core..fmt..UpperExp$u20$for$u20$u32$GT$3fmt17h1d7135fa2457d5a5E', symObjAddr: 0x1A5C4, symBinAddr: 0x88F90, symSize: 0x20 }
  - { offset: 0x1684E1, size: 0x8, addend: 0x0, symName: '__ZN4core3fmt3num3imp53_$LT$impl$u20$core..fmt..UpperExp$u20$for$u20$i64$GT$3fmt17h3ca775976d328c6bE', symObjAddr: 0x1A5E4, symBinAddr: 0x88FB0, symSize: 0x2C }
  - { offset: 0x168503, size: 0x8, addend: 0x0, symName: '__ZN4core3fmt3num3imp53_$LT$impl$u20$core..fmt..UpperExp$u20$for$u20$u64$GT$3fmt17h55e80980d6f0b1c4E', symObjAddr: 0x1A610, symBinAddr: 0x88FDC, symSize: 0x20 }
  - { offset: 0x168680, size: 0x8, addend: 0x0, symName: '__ZN73_$LT$core..fmt..num..LowerHex$u20$as$u20$core..fmt..num..GenericRadix$GT$5digit17hc242ecd05b954566E', symObjAddr: 0x187DC, symBinAddr: 0x871A8, symSize: 0x7C }
  - { offset: 0x1686D3, size: 0x8, addend: 0x0, symName: '__ZN73_$LT$core..fmt..num..UpperHex$u20$as$u20$core..fmt..num..GenericRadix$GT$5digit17h996e09a04d6493aeE', symObjAddr: 0x18858, symBinAddr: 0x87224, symSize: 0x7C }
  - { offset: 0x1686FF, size: 0x8, addend: 0x0, symName: __ZN4core3fmt3num14parse_u64_into17h90a0e2cc7f64ebc2E, symObjAddr: 0xA8F8, symBinAddr: 0x79A54, symSize: 0x394 }
  - { offset: 0x1688E7, size: 0x8, addend: 0x0, symName: '__ZN4core3fmt3num53_$LT$impl$u20$core..fmt..Display$u20$for$u20$u128$GT$3fmt17h603dc7d5e4fbe573E', symObjAddr: 0xAC8C, symBinAddr: 0x79DE8, symSize: 0x1C }
  - { offset: 0x168910, size: 0x8, addend: 0x0, symName: '__ZN4core3fmt3num53_$LT$impl$u20$core..fmt..Display$u20$for$u20$i128$GT$3fmt17h857d4d087b99926eE', symObjAddr: 0xACA8, symBinAddr: 0x79E04, symSize: 0x34 }
  - { offset: 0x168941, size: 0x8, addend: 0x0, symName: __ZN4core3fmt3num8fmt_u12817hb246bc061aa4cc00E, symObjAddr: 0xACDC, symBinAddr: 0x79E38, symSize: 0x188 }
  - { offset: 0x168A38, size: 0x8, addend: 0x0, symName: '__ZN4core3fmt3num50_$LT$impl$u20$core..fmt..Debug$u20$for$u20$u32$GT$3fmt17hf65d91e056f27db7E', symObjAddr: 0x196B8, symBinAddr: 0x88084, symSize: 0xE8 }
  - { offset: 0x168C5B, size: 0x8, addend: 0x0, symName: '__ZN4core3fmt3num53_$LT$impl$u20$core..fmt..LowerHex$u20$for$u20$i16$GT$3fmt17h80eef85ec5cbef6fE', symObjAddr: 0x18B94, symBinAddr: 0x87560, symSize: 0x80 }
  - { offset: 0x168D01, size: 0x8, addend: 0x0, symName: '__ZN4core3fmt3num53_$LT$impl$u20$core..fmt..UpperHex$u20$for$u20$i16$GT$3fmt17h80bbb2d27fce5941E', symObjAddr: 0x18C14, symBinAddr: 0x875E0, symSize: 0x80 }
  - { offset: 0x168DBB, size: 0x8, addend: 0x0, symName: '__ZN4core3fmt3num53_$LT$impl$u20$core..fmt..LowerHex$u20$for$u20$i32$GT$3fmt17h06b47d01f2b2336fE', symObjAddr: 0x18D74, symBinAddr: 0x87740, symSize: 0x80 }
  - { offset: 0x168E69, size: 0x8, addend: 0x0, symName: '__ZN4core3fmt3num53_$LT$impl$u20$core..fmt..UpperHex$u20$for$u20$i32$GT$3fmt17haf1810f6de6f0e8cE', symObjAddr: 0x18DF4, symBinAddr: 0x877C0, symSize: 0x80 }
  - { offset: 0x168F2B, size: 0x8, addend: 0x0, symName: '__ZN4core3fmt3num53_$LT$impl$u20$core..fmt..LowerHex$u20$for$u20$i64$GT$3fmt17h774e87c9a9d32833E', symObjAddr: 0x18F54, symBinAddr: 0x87920, symSize: 0x80 }
  - { offset: 0x168FD9, size: 0x8, addend: 0x0, symName: '__ZN4core3fmt3num53_$LT$impl$u20$core..fmt..UpperHex$u20$for$u20$i64$GT$3fmt17h37831594caaca2fcE', symObjAddr: 0x18FD4, symBinAddr: 0x879A0, symSize: 0x80 }
  - { offset: 0x16907A, size: 0x8, addend: 0x0, symName: '__ZN71_$LT$core..fmt..num..Binary$u20$as$u20$core..fmt..num..GenericRadix$GT$5digit17h473e282611f780baE', symObjAddr: 0x18704, symBinAddr: 0x870D0, symSize: 0x6C }
  - { offset: 0x1690B9, size: 0x8, addend: 0x0, symName: '__ZN70_$LT$core..fmt..num..Octal$u20$as$u20$core..fmt..num..GenericRadix$GT$5digit17haf13adda90e223b3E', symObjAddr: 0x18770, symBinAddr: 0x8713C, symSize: 0x6C }
  - { offset: 0x1690F8, size: 0x8, addend: 0x0, symName: '__ZN4core3fmt3num50_$LT$impl$u20$core..fmt..Binary$u20$for$u20$i8$GT$3fmt17h2bfdec988996e7daE', symObjAddr: 0x188D4, symBinAddr: 0x872A0, symSize: 0x70 }
  - { offset: 0x169192, size: 0x8, addend: 0x0, symName: '__ZN4core3fmt3num49_$LT$impl$u20$core..fmt..Octal$u20$for$u20$i8$GT$3fmt17h0f787a867c9603ccE', symObjAddr: 0x18944, symBinAddr: 0x87310, symSize: 0x70 }
  - { offset: 0x16922C, size: 0x8, addend: 0x0, symName: '__ZN4core3fmt3num52_$LT$impl$u20$core..fmt..LowerHex$u20$for$u20$i8$GT$3fmt17h45fba743ccf78f3bE', symObjAddr: 0x189B4, symBinAddr: 0x87380, symSize: 0x80 }
  - { offset: 0x1692E2, size: 0x8, addend: 0x0, symName: '__ZN4core3fmt3num52_$LT$impl$u20$core..fmt..UpperHex$u20$for$u20$i8$GT$3fmt17hc65860d7e0ff5361E', symObjAddr: 0x18A34, symBinAddr: 0x87400, symSize: 0x80 }
  - { offset: 0x169398, size: 0x8, addend: 0x0, symName: '__ZN4core3fmt3num51_$LT$impl$u20$core..fmt..Binary$u20$for$u20$i16$GT$3fmt17h401f303866487a99E', symObjAddr: 0x18AB4, symBinAddr: 0x87480, symSize: 0x70 }
  - { offset: 0x16944F, size: 0x8, addend: 0x0, symName: '__ZN4core3fmt3num50_$LT$impl$u20$core..fmt..Octal$u20$for$u20$i16$GT$3fmt17h78c408b27c402d09E', symObjAddr: 0x18B24, symBinAddr: 0x874F0, symSize: 0x70 }
  - { offset: 0x169506, size: 0x8, addend: 0x0, symName: '__ZN4core3fmt3num51_$LT$impl$u20$core..fmt..Binary$u20$for$u20$i32$GT$3fmt17hd01fce4b906013d0E', symObjAddr: 0x18C94, symBinAddr: 0x87660, symSize: 0x70 }
  - { offset: 0x1695BD, size: 0x8, addend: 0x0, symName: '__ZN4core3fmt3num50_$LT$impl$u20$core..fmt..Octal$u20$for$u20$i32$GT$3fmt17h5eee13a9601cd9b8E', symObjAddr: 0x18D04, symBinAddr: 0x876D0, symSize: 0x70 }
  - { offset: 0x169674, size: 0x8, addend: 0x0, symName: '__ZN4core3fmt3num51_$LT$impl$u20$core..fmt..Binary$u20$for$u20$i64$GT$3fmt17h5f7c65e2c4baad4fE', symObjAddr: 0x18E74, symBinAddr: 0x87840, symSize: 0x70 }
  - { offset: 0x16972B, size: 0x8, addend: 0x0, symName: '__ZN4core3fmt3num50_$LT$impl$u20$core..fmt..Octal$u20$for$u20$i64$GT$3fmt17h4ebfa82a80cee312E', symObjAddr: 0x18EE4, symBinAddr: 0x878B0, symSize: 0x70 }
  - { offset: 0x1697F6, size: 0x8, addend: 0x0, symName: '__ZN4core3fmt3num52_$LT$impl$u20$core..fmt..Binary$u20$for$u20$i128$GT$3fmt17h7fed17f3f30ee39eE', symObjAddr: 0x19054, symBinAddr: 0x87A20, symSize: 0x90 }
  - { offset: 0x1698AA, size: 0x8, addend: 0x0, symName: '__ZN4core3fmt3num51_$LT$impl$u20$core..fmt..Octal$u20$for$u20$i128$GT$3fmt17ha1cd41fa8e2bd2ffE', symObjAddr: 0x190E4, symBinAddr: 0x87AB0, symSize: 0x90 }
  - { offset: 0x16995E, size: 0x8, addend: 0x0, symName: '__ZN4core3fmt3num54_$LT$impl$u20$core..fmt..LowerHex$u20$for$u20$i128$GT$3fmt17hd1dfe9ad554ce3e8E', symObjAddr: 0x19174, symBinAddr: 0x87B40, symSize: 0xA0 }
  - { offset: 0x169A11, size: 0x8, addend: 0x0, symName: '__ZN4core3fmt3num54_$LT$impl$u20$core..fmt..UpperHex$u20$for$u20$i128$GT$3fmt17h81ff2393e423678fE', symObjAddr: 0x19214, symBinAddr: 0x87BE0, symSize: 0xA0 }
  - { offset: 0x169AC4, size: 0x8, addend: 0x0, symName: '__ZN4core3fmt3num49_$LT$impl$u20$core..fmt..Debug$u20$for$u20$i8$GT$3fmt17h20ca484f5a09c273E', symObjAddr: 0x192B4, symBinAddr: 0x87C80, symSize: 0x178 }
  - { offset: 0x169CA8, size: 0x8, addend: 0x0, symName: '__ZN4core3fmt3num51_$LT$impl$u20$core..fmt..Debug$u20$for$u20$i128$GT$3fmt17he824a35496c68af8E', symObjAddr: 0x1942C, symBinAddr: 0x87DF8, symSize: 0x12C }
  - { offset: 0x169E16, size: 0x8, addend: 0x0, symName: '__ZN4core3fmt3num49_$LT$impl$u20$core..fmt..Debug$u20$for$u20$u8$GT$3fmt17h5d59df3a30f1c8ccE', symObjAddr: 0x19558, symBinAddr: 0x87F24, symSize: 0x160 }
  - { offset: 0x16A00E, size: 0x8, addend: 0x0, symName: '__ZN4core3fmt3num51_$LT$impl$u20$core..fmt..Debug$u20$for$u20$u128$GT$3fmt17h7144596ecc58dc9aE', symObjAddr: 0x197A0, symBinAddr: 0x8816C, symSize: 0x110 }
  - { offset: 0x16A14E, size: 0x8, addend: 0x0, symName: __ZN4core3fmt3num8exp_u12817h8e854075afdcf65fE, symObjAddr: 0x1A630, symBinAddr: 0x88FFC, symSize: 0x850 }
  - { offset: 0x16A375, size: 0x8, addend: 0x0, symName: '__ZN4core3fmt3num54_$LT$impl$u20$core..fmt..LowerExp$u20$for$u20$i128$GT$3fmt17h7aa988d5770d4a0bE', symObjAddr: 0x1AE80, symBinAddr: 0x8984C, symSize: 0x38 }
  - { offset: 0x16A397, size: 0x8, addend: 0x0, symName: '__ZN4core3fmt3num54_$LT$impl$u20$core..fmt..LowerExp$u20$for$u20$u128$GT$3fmt17h8e4473e49329ce1bE', symObjAddr: 0x1AEB8, symBinAddr: 0x89884, symSize: 0x20 }
  - { offset: 0x16A3B9, size: 0x8, addend: 0x0, symName: '__ZN4core3fmt3num54_$LT$impl$u20$core..fmt..UpperExp$u20$for$u20$i128$GT$3fmt17h491335c1ea408f49E', symObjAddr: 0x1AED8, symBinAddr: 0x898A4, symSize: 0x38 }
  - { offset: 0x16A3DB, size: 0x8, addend: 0x0, symName: '__ZN4core3fmt3num54_$LT$impl$u20$core..fmt..UpperExp$u20$for$u20$u128$GT$3fmt17h349fdd42c67feaf1E', symObjAddr: 0x1AF10, symBinAddr: 0x898DC, symSize: 0x20 }
  - { offset: 0x16A41A, size: 0x8, addend: 0x0, symName: __ZN4core3fmt17FormattingOptions8get_fill17h5709191e4b3bba1dE, symObjAddr: 0xB420, symBinAddr: 0x7A57C, symSize: 0x18 }
  - { offset: 0x16A507, size: 0x8, addend: 0x0, symName: '__ZN57_$LT$core..fmt..Formatter$u20$as$u20$core..fmt..Write$GT$10write_char17h3bbf0cbe7eeb389fE', symObjAddr: 0xD978, symBinAddr: 0x7CAD4, symSize: 0x1C }
  - { offset: 0x16A5A5, size: 0x8, addend: 0x0, symName: __ZN4core3fmt5Write10write_char17h4d5f4a4fe988a23cE, symObjAddr: 0xAE64, symBinAddr: 0x79FC0, symSize: 0x14C }
  - { offset: 0x16A6B8, size: 0x8, addend: 0x0, symName: __ZN4core3fmt5Write10write_char17h56f5b66fcdda87cdE, symObjAddr: 0xAFB0, symBinAddr: 0x7A10C, symSize: 0x14C }
  - { offset: 0x16A7CB, size: 0x8, addend: 0x0, symName: __ZN4core3fmt5Write10write_char17h7b96d3dc8135755dE, symObjAddr: 0xB0FC, symBinAddr: 0x7A258, symSize: 0x14C }
  - { offset: 0x16A8DE, size: 0x8, addend: 0x0, symName: __ZN4core3fmt5Write10write_char17hd01931f99c2d4606E, symObjAddr: 0xB248, symBinAddr: 0x7A3A4, symSize: 0x14C }
  - { offset: 0x16A9F1, size: 0x8, addend: 0x0, symName: __ZN4core3fmt5Write9write_fmt17h0a0727f7d384958aE, symObjAddr: 0xB394, symBinAddr: 0x7A4F0, symSize: 0x1C }
  - { offset: 0x16AA21, size: 0x8, addend: 0x0, symName: __ZN4core3fmt5Write9write_fmt17h81cc53758526005dE, symObjAddr: 0xB3B0, symBinAddr: 0x7A50C, symSize: 0x1C }
  - { offset: 0x16AA51, size: 0x8, addend: 0x0, symName: __ZN4core3fmt5Write9write_fmt17had021f7dbb296d51E, symObjAddr: 0xB3CC, symBinAddr: 0x7A528, symSize: 0x1C }
  - { offset: 0x16AA81, size: 0x8, addend: 0x0, symName: __ZN4core3fmt5Write9write_fmt17hb08a992438bbe1e6E, symObjAddr: 0xB3E8, symBinAddr: 0x7A544, symSize: 0x1C }
  - { offset: 0x16AAB1, size: 0x8, addend: 0x0, symName: __ZN4core3fmt5Write9write_fmt17hf2f5059d914c0746E, symObjAddr: 0xB404, symBinAddr: 0x7A560, symSize: 0x1C }
  - { offset: 0x16AB45, size: 0x8, addend: 0x0, symName: '__ZN43_$LT$bool$u20$as$u20$core..fmt..Display$GT$3fmt17hd4f7740754612666E', symObjAddr: 0xD9B4, symBinAddr: 0x7CB10, symSize: 0x44 }
  - { offset: 0x16ABA2, size: 0x8, addend: 0x0, symName: __ZN4core3fmt5float29float_to_decimal_common_exact17h057321d5ddd92aefE, symObjAddr: 0x91F8, symBinAddr: 0x78354, symSize: 0x304 }
  - { offset: 0x16AC69, size: 0x8, addend: 0x0, symName: __ZN4core3fmt5float29float_to_decimal_common_exact17h91af00adb5a8fe1fE, symObjAddr: 0x94FC, symBinAddr: 0x78658, symSize: 0x300 }
  - { offset: 0x16AD1A, size: 0x8, addend: 0x0, symName: __ZN4core3fmt5float32float_to_decimal_common_shortest17h2ec8a73b99e094fcE, symObjAddr: 0x97FC, symBinAddr: 0x78958, symSize: 0x248 }
  - { offset: 0x16ADFF, size: 0x8, addend: 0x0, symName: __ZN4core3fmt5float32float_to_decimal_common_shortest17h88643fc319034f9dE, symObjAddr: 0x9A44, symBinAddr: 0x78BA0, symSize: 0x244 }
  - { offset: 0x16AECE, size: 0x8, addend: 0x0, symName: __ZN4core3fmt5float33float_to_exponential_common_exact17h601e8c3e1430bc77E, symObjAddr: 0x9C88, symBinAddr: 0x78DE4, symSize: 0x340 }
  - { offset: 0x16AFD6, size: 0x8, addend: 0x0, symName: __ZN4core3fmt5float33float_to_exponential_common_exact17hd6405c05cf62e9a0E, symObjAddr: 0x9FC8, symBinAddr: 0x79124, symSize: 0x344 }
  - { offset: 0x16B0F4, size: 0x8, addend: 0x0, symName: __ZN4core3fmt5float36float_to_exponential_common_shortest17h39f627e190c7f9f8E, symObjAddr: 0xA30C, symBinAddr: 0x79468, symSize: 0x2F8 }
  - { offset: 0x16B243, size: 0x8, addend: 0x0, symName: __ZN4core3fmt5float36float_to_exponential_common_shortest17h3b886213e3debc9bE, symObjAddr: 0xA604, symBinAddr: 0x79760, symSize: 0x2F4 }
  - { offset: 0x16B382, size: 0x8, addend: 0x0, symName: '__ZN55_$LT$f32$u20$as$u20$core..fmt..float..GeneralFormat$GT$44already_rounded_value_should_use_exponential17h747f7dce329657a8E', symObjAddr: 0x18398, symBinAddr: 0x86D64, symSize: 0x4C }
  - { offset: 0x16B3C0, size: 0x8, addend: 0x0, symName: '__ZN55_$LT$f64$u20$as$u20$core..fmt..float..GeneralFormat$GT$44already_rounded_value_should_use_exponential17hf4536379292babdfE', symObjAddr: 0x183E4, symBinAddr: 0x86DB0, symSize: 0x58 }
  - { offset: 0x16B40B, size: 0x8, addend: 0x0, symName: '__ZN4core3fmt5float50_$LT$impl$u20$core..fmt..Debug$u20$for$u20$f32$GT$3fmt17h15e8fd84651a6433E', symObjAddr: 0x1843C, symBinAddr: 0x86E08, symSize: 0x8C }
  - { offset: 0x16B4A5, size: 0x8, addend: 0x0, symName: '__ZN4core3fmt5float52_$LT$impl$u20$core..fmt..Display$u20$for$u20$f32$GT$3fmt17h4c7c50aa82f742a6E', symObjAddr: 0x184C8, symBinAddr: 0x86E94, symSize: 0x40 }
  - { offset: 0x16B514, size: 0x8, addend: 0x0, symName: '__ZN4core3fmt5float53_$LT$impl$u20$core..fmt..LowerExp$u20$for$u20$f32$GT$3fmt17h215a98e839c37120E', symObjAddr: 0x18508, symBinAddr: 0x86ED4, symSize: 0x48 }
  - { offset: 0x16B56E, size: 0x8, addend: 0x0, symName: '__ZN4core3fmt5float53_$LT$impl$u20$core..fmt..UpperExp$u20$for$u20$f32$GT$3fmt17he741ac4bea9ca9b8E', symObjAddr: 0x18550, symBinAddr: 0x86F1C, symSize: 0x48 }
  - { offset: 0x16B5D5, size: 0x8, addend: 0x0, symName: '__ZN4core3fmt5float50_$LT$impl$u20$core..fmt..Debug$u20$for$u20$f64$GT$3fmt17h33072624a6cb4f49E', symObjAddr: 0x18598, symBinAddr: 0x86F64, symSize: 0x9C }
  - { offset: 0x16B66F, size: 0x8, addend: 0x0, symName: '__ZN4core3fmt5float52_$LT$impl$u20$core..fmt..Display$u20$for$u20$f64$GT$3fmt17h21a77a402faac566E', symObjAddr: 0x18634, symBinAddr: 0x87000, symSize: 0x40 }
  - { offset: 0x16B6DE, size: 0x8, addend: 0x0, symName: '__ZN4core3fmt5float53_$LT$impl$u20$core..fmt..LowerExp$u20$for$u20$f64$GT$3fmt17h6459b7fa2fac66bfE', symObjAddr: 0x18674, symBinAddr: 0x87040, symSize: 0x48 }
  - { offset: 0x16B738, size: 0x8, addend: 0x0, symName: '__ZN4core3fmt5float53_$LT$impl$u20$core..fmt..UpperExp$u20$for$u20$f64$GT$3fmt17h0cd9daeacb8c81ccE', symObjAddr: 0x186BC, symBinAddr: 0x87088, symSize: 0x48 }
  - { offset: 0x16B7A1, size: 0x8, addend: 0x0, symName: '__ZN59_$LT$core..fmt..Arguments$u20$as$u20$core..fmt..Display$GT$3fmt17hee8d351640ee3772E', symObjAddr: 0xB450, symBinAddr: 0x7A5AC, symSize: 0x18 }
  - { offset: 0x16B7BC, size: 0x8, addend: 0x0, symName: '__ZN57_$LT$core..fmt..Arguments$u20$as$u20$core..fmt..Debug$GT$3fmt17h2a34f9872fa39584E', symObjAddr: 0xB438, symBinAddr: 0x7A594, symSize: 0x18 }
  - { offset: 0x16B80B, size: 0x8, addend: 0x0, symName: __ZN4core3fmt5write17h1dbafa36e52e01c5E, symObjAddr: 0xB468, symBinAddr: 0x7A5C4, symSize: 0x1E8 }
  - { offset: 0x16BA48, size: 0x8, addend: 0x0, symName: __ZN4core3fmt9Formatter12pad_integral12write_prefix17h2cd737d1f323946cE, symObjAddr: 0xBA04, symBinAddr: 0x7AB60, symSize: 0x7C }
  - { offset: 0x16BAA5, size: 0x8, addend: 0x0, symName: '__ZN42_$LT$$RF$T$u20$as$u20$core..fmt..Debug$GT$3fmt17h537deda8f6052500E', symObjAddr: 0x1AF54, symBinAddr: 0x89920, symSize: 0x1C }
  - { offset: 0x16BAB9, size: 0x8, addend: 0x0, symName: '__ZN42_$LT$$RF$T$u20$as$u20$core..fmt..Debug$GT$3fmt17h780f3407eb303781E', symObjAddr: 0x1AF70, symBinAddr: 0x8993C, symSize: 0xE4 }
  - { offset: 0x16BBF6, size: 0x8, addend: 0x0, symName: '__ZN42_$LT$$RF$T$u20$as$u20$core..fmt..Debug$GT$3fmt17hc5cf3ba1c503cdc2E', symObjAddr: 0x1B054, symBinAddr: 0x89A20, symSize: 0xEC }
  - { offset: 0x16BD33, size: 0x8, addend: 0x0, symName: '__ZN42_$LT$$RF$T$u20$as$u20$core..fmt..Debug$GT$3fmt17hf8e8ace3b760a91bE', symObjAddr: 0x1B140, symBinAddr: 0x89B0C, symSize: 0x14 }
  - { offset: 0x16BD55, size: 0x8, addend: 0x0, symName: '__ZN55_$LT$core..fmt..Error$u20$as$u20$core..fmt..Display$GT$3fmt17ha255a1414ddf67ffE', symObjAddr: 0xD994, symBinAddr: 0x7CAF0, symSize: 0x20 }
  - { offset: 0x16BDB1, size: 0x8, addend: 0x0, symName: '__ZN40_$LT$str$u20$as$u20$core..fmt..Debug$GT$3fmt17h8c98888498bcee5eE', symObjAddr: 0xD9F8, symBinAddr: 0x7CB54, symSize: 0x394 }
  - { offset: 0x16C1EF, size: 0x8, addend: 0x0, symName: '__ZN41_$LT$char$u20$as$u20$core..fmt..Debug$GT$3fmt17h71d29bdbfd483dfdE', symObjAddr: 0xDDAC, symBinAddr: 0x7CF08, symSize: 0xAC }
  - { offset: 0x16C302, size: 0x8, addend: 0x0, symName: '__ZN43_$LT$char$u20$as$u20$core..fmt..Display$GT$3fmt17hc8ab84de47a06b68E', symObjAddr: 0xDE58, symBinAddr: 0x7CFB4, symSize: 0xEC }
  - { offset: 0x16C386, size: 0x8, addend: 0x0, symName: __ZN4core3fmt17pointer_fmt_inner17h72e6e34c438059eaE, symObjAddr: 0xDF44, symBinAddr: 0x7D0A0, symSize: 0xC0 }
  - { offset: 0x16C48C, size: 0x8, addend: 0x0, symName: '__ZN52_$LT$$BP$const$u20$T$u20$as$u20$core..fmt..Debug$GT$3fmt17h8efd87bf663b4005E', symObjAddr: 0xE004, symBinAddr: 0x7D160, symSize: 0xC4 }
  - { offset: 0x16C5A5, size: 0x8, addend: 0x0, symName: '__ZN53_$LT$core..fmt..Error$u20$as$u20$core..fmt..Debug$GT$3fmt17he0d1fa571167f688E', symObjAddr: 0x1AF30, symBinAddr: 0x898FC, symSize: 0x24 }
  - { offset: 0x16C5DC, size: 0x8, addend: 0x0, symName: '__ZN44_$LT$$RF$T$u20$as$u20$core..fmt..Display$GT$3fmt17h6108a3a258fee5f4E', symObjAddr: 0x1B154, symBinAddr: 0x89B20, symSize: 0x20 }
  - { offset: 0x16C60E, size: 0x8, addend: 0x0, symName: '__ZN44_$LT$$RF$T$u20$as$u20$core..fmt..Display$GT$3fmt17h704d5785f8158513E', symObjAddr: 0x1B174, symBinAddr: 0x89B40, symSize: 0x1C }
  - { offset: 0x16C640, size: 0x8, addend: 0x0, symName: '__ZN44_$LT$$RF$T$u20$as$u20$core..fmt..Display$GT$3fmt17hbc31ce06ce2618f5E', symObjAddr: 0x1B190, symBinAddr: 0x89B5C, symSize: 0x14 }
  - { offset: 0x16C65B, size: 0x8, addend: 0x0, symName: '__ZN44_$LT$$RF$T$u20$as$u20$core..fmt..Display$GT$3fmt17hff6b4e416286c0c3E', symObjAddr: 0x1B1A4, symBinAddr: 0x89B70, symSize: 0x14 }
  - { offset: 0x16C67D, size: 0x8, addend: 0x0, symName: '__ZN45_$LT$$RF$T$u20$as$u20$core..fmt..LowerHex$GT$3fmt17h317835c6d25985acE', symObjAddr: 0x1B1B8, symBinAddr: 0x89B84, symSize: 0x84 }
  - { offset: 0x16C9D3, size: 0x8, addend: 0x0, symName: '__ZN69_$LT$core..ffi..c_str..CStr$u20$as$u20$core..clone..CloneToUninit$GT$15clone_to_uninit17h13595c5a507b3becE', symObjAddr: 0x3FD4, symBinAddr: 0x736A0, symSize: 0x20 }
  - { offset: 0x16CDCF, size: 0x8, addend: 0x0, symName: __ZN4core6option13unwrap_failed17h292f3acdd436a6d6E, symObjAddr: 0x7A1C, symBinAddr: 0x8E23C, symSize: 0x1C }
  - { offset: 0x16CDEA, size: 0x8, addend: 0x0, symName: __ZN4core6option13expect_failed17h2829752eef520ac6E, symObjAddr: 0x7A38, symBinAddr: 0x8E258, symSize: 0x48 }
  - { offset: 0x16CFEC, size: 0x8, addend: 0x0, symName: '__ZN64_$LT$core..ops..range..RangeFull$u20$as$u20$core..fmt..Debug$GT$3fmt17hfe43afea99a7a667E', symObjAddr: 0x40AC, symBinAddr: 0x73778, symSize: 0x24 }
  - { offset: 0x16D024, size: 0x8, addend: 0x0, symName: '__ZN71_$LT$core..ops..range..Range$LT$Idx$GT$$u20$as$u20$core..fmt..Debug$GT$3fmt17hc069754337b411cbE', symObjAddr: 0x40D0, symBinAddr: 0x7379C, symSize: 0x1FC }
  - { offset: 0x16D568, size: 0x8, addend: 0x0, symName: '__ZN76_$LT$core..mem..transmutability..Assume$u20$as$u20$core..ops..arith..Sub$GT$3sub17he64d98810f32de97E', symObjAddr: 0x3F44, symBinAddr: 0x73610, symSize: 0x18 }
  - { offset: 0x16DACE, size: 0x8, addend: 0x0, symName: __ZN4core6result13unwrap_failed17hfab4c59284c125d5E, symObjAddr: 0x7FD4, symBinAddr: 0x8E690, symSize: 0x5C }
  - { offset: 0x16DB4D, size: 0x8, addend: 0x0, symName: '__ZN57_$LT$core..error..Request$u20$as$u20$core..fmt..Debug$GT$3fmt17h35d90f2e361eede4E', symObjAddr: 0x3FF4, symBinAddr: 0x736C0, symSize: 0x6C }
  - { offset: 0x16DBFC, size: 0x8, addend: 0x0, symName: '__ZN78_$LT$core..error..Source$u20$as$u20$core..iter..traits..iterator..Iterator$GT$4next17h57e13ed7c0d627c3E', symObjAddr: 0x4060, symBinAddr: 0x7372C, symSize: 0x4C }
  - { offset: 0x16DC53, size: 0x8, addend: 0x0, symName: '__ZN105_$LT$dyn$u20$core..any..Any$u2b$core..marker..Send$u2b$core..marker..Sync$u20$as$u20$core..fmt..Debug$GT$3fmt17h1d2bdcb61a7230feE', symObjAddr: 0x42CC, symBinAddr: 0x73998, symSize: 0x6C }
  - { offset: 0x16DD14, size: 0x8, addend: 0x0, symName: '__ZN54_$LT$core..any..TypeId$u20$as$u20$core..fmt..Debug$GT$3fmt17h4b37e3dbf60a274eE', symObjAddr: 0x4338, symBinAddr: 0x73A04, symSize: 0x64 }
  - { offset: 0x16DD87, size: 0x8, addend: 0x0, symName: '__ZN73_$LT$core..ascii..ascii_char..AsciiChar$u20$as$u20$core..fmt..Display$GT$3fmt17h32c4a77c1a9befd3E', symObjAddr: 0x439C, symBinAddr: 0x73A68, symSize: 0x20 }
  - { offset: 0x16DDC0, size: 0x8, addend: 0x0, symName: '__ZN71_$LT$core..ascii..ascii_char..AsciiChar$u20$as$u20$core..fmt..Debug$GT$3fmt17h08a39f477488bed0E', symObjAddr: 0x43BC, symBinAddr: 0x73A88, symSize: 0x158 }
  - { offset: 0x16DE1E, size: 0x8, addend: 0x0, symName: __ZN4core5ascii14escape_default17hfb1ea92097bfc22eE, symObjAddr: 0x4514, symBinAddr: 0x73BE0, symSize: 0x78 }
  - { offset: 0x16DEA5, size: 0x8, addend: 0x0, symName: '__ZN65_$LT$core..ascii..EscapeDefault$u20$as$u20$core..fmt..Display$GT$3fmt17hbded0d9f0f3bd214E', symObjAddr: 0x458C, symBinAddr: 0x73C58, symSize: 0x2C }
  - { offset: 0x16DF39, size: 0x8, addend: 0x0, symName: '__ZN63_$LT$core..ascii..EscapeDefault$u20$as$u20$core..fmt..Debug$GT$3fmt17h1d4763dc3c5514b2E', symObjAddr: 0x45B8, symBinAddr: 0x73C84, symSize: 0x6C }
  - { offset: 0x16E226, size: 0x8, addend: 0x0, symName: '__ZN4core3str21_$LT$impl$u20$str$GT$9from_utf817hd4e5da8814487416E', symObjAddr: 0x111A8, symBinAddr: 0x801B4, symSize: 0x10 }
  - { offset: 0x16E240, size: 0x8, addend: 0x0, symName: '__ZN4core3str21_$LT$impl$u20$str$GT$13from_utf8_mut17h26e7c5ba166a5facE', symObjAddr: 0x111B8, symBinAddr: 0x801C4, symSize: 0x10 }
  - { offset: 0x16E25B, size: 0x8, addend: 0x0, symName: '__ZN4core3str21_$LT$impl$u20$str$GT$18split_at_unchecked17hf21e375f4f9f147cE', symObjAddr: 0x111C8, symBinAddr: 0x801D4, symSize: 0x20 }
  - { offset: 0x16E28D, size: 0x8, addend: 0x0, symName: '__ZN4core3str21_$LT$impl$u20$str$GT$22split_at_mut_unchecked17h5905c8bf08e4f307E', symObjAddr: 0x111E8, symBinAddr: 0x801F4, symSize: 0x20 }
  - { offset: 0x16E2E2, size: 0x8, addend: 0x0, symName: '__ZN4core3str21_$LT$impl$u20$str$GT$12escape_debug17h6dc35f07e8939141E', symObjAddr: 0x11208, symBinAddr: 0x80214, symSize: 0x104 }
  - { offset: 0x16E42A, size: 0x8, addend: 0x0, symName: '__ZN4core3str21_$LT$impl$u20$str$GT$12substr_range17h488e84834843f136E', symObjAddr: 0x1130C, symBinAddr: 0x80318, symSize: 0x38 }
  - { offset: 0x16E5B5, size: 0x8, addend: 0x0, symName: '__ZN59_$LT$core..str..iter..Chars$u20$as$u20$core..fmt..Debug$GT$3fmt17h30847e7cd360e043E', symObjAddr: 0xF880, symBinAddr: 0x7E900, symSize: 0x610 }
  - { offset: 0x16EAF4, size: 0x8, addend: 0x0, symName: '__ZN65_$LT$core..str..iter..EncodeUtf16$u20$as$u20$core..fmt..Debug$GT$3fmt17h5b5ffb8da76ef13aE', symObjAddr: 0xFE90, symBinAddr: 0x7EF10, symSize: 0x6C }
  - { offset: 0x16EBE2, size: 0x8, addend: 0x0, symName: '__ZN67_$LT$core..str..iter..EscapeDebug$u20$as$u20$core..fmt..Display$GT$3fmt17h927dee4a0fe364d2E', symObjAddr: 0x1B380, symBinAddr: 0x89C08, symSize: 0x8C0 }
  - { offset: 0x16F5D9, size: 0x8, addend: 0x0, symName: '__ZN69_$LT$core..str..iter..EscapeDefault$u20$as$u20$core..fmt..Display$GT$3fmt17hbb8e413d1ee76e0bE', symObjAddr: 0x1BC40, symBinAddr: 0x8A4C8, symSize: 0x48C }
  - { offset: 0x16FBC6, size: 0x8, addend: 0x0, symName: '__ZN69_$LT$core..str..iter..EscapeUnicode$u20$as$u20$core..fmt..Display$GT$3fmt17hffb64d68e5cd86c2E', symObjAddr: 0x1C0CC, symBinAddr: 0x8A954, symSize: 0x338 }
  - { offset: 0x1701C5, size: 0x8, addend: 0x0, symName: __ZN4core3str5count14do_count_chars17h64f36244fdd7580eE, symObjAddr: 0xEE00, symBinAddr: 0x7DE80, symSize: 0x724 }
  - { offset: 0x17053D, size: 0x8, addend: 0x0, symName: __ZN4core3str5count23char_count_general_case17h9996c5363e5c1feeE, symObjAddr: 0xF524, symBinAddr: 0x7E5A4, symSize: 0x2B0 }
  - { offset: 0x170694, size: 0x8, addend: 0x0, symName: __ZN4core3str7pattern11StrSearcher3new17h4968c219f8dd783eE, symObjAddr: 0xFF30, symBinAddr: 0x7EF7C, symSize: 0x8BC }
  - { offset: 0x1709F1, size: 0x8, addend: 0x0, symName: __ZN4core3str6traits23str_index_overflow_fail17h598186088c853e43E, symObjAddr: 0xFEFC, symBinAddr: 0x8E7C8, symSize: 0x34 }
  - { offset: 0x170A4B, size: 0x8, addend: 0x0, symName: __ZN4core3str8converts9from_utf817h7a1a08a6fd7e346fE, symObjAddr: 0xE978, symBinAddr: 0x7D9F8, symSize: 0x244 }
  - { offset: 0x170AB3, size: 0x8, addend: 0x0, symName: __ZN4core3str8converts13from_utf8_mut17h31b7ce5185c1c124E, symObjAddr: 0xEBBC, symBinAddr: 0x7DC3C, symSize: 0x244 }
  - { offset: 0x170B35, size: 0x8, addend: 0x0, symName: '__ZN66_$LT$core..str..error..Utf8Error$u20$as$u20$core..fmt..Display$GT$3fmt17hb55323a582be21a1E', symObjAddr: 0xF7D4, symBinAddr: 0x7E854, symSize: 0x8C }
  - { offset: 0x170B9B, size: 0x8, addend: 0x0, symName: '__ZN71_$LT$core..str..error..ParseBoolError$u20$as$u20$core..fmt..Display$GT$3fmt17hf83a7f9d6789b634E', symObjAddr: 0xF860, symBinAddr: 0x7E8E0, symSize: 0x20 }
  - { offset: 0x170BD9, size: 0x8, addend: 0x0, symName: '__ZN60_$LT$core..str..lossy..Debug$u20$as$u20$core..fmt..Debug$GT$3fmt17hb959e417ce500bb6E', symObjAddr: 0x107EC, symBinAddr: 0x7F838, symSize: 0x39C }
  - { offset: 0x170F6E, size: 0x8, addend: 0x0, symName: '__ZN87_$LT$core..str..lossy..Utf8Chunks$u20$as$u20$core..iter..traits..iterator..Iterator$GT$4next17h11558f17809babb6E', symObjAddr: 0x10B88, symBinAddr: 0x7FBD4, symSize: 0x1CC }
  - { offset: 0x1711A2, size: 0x8, addend: 0x0, symName: '__ZN65_$LT$core..str..lossy..Utf8Chunks$u20$as$u20$core..fmt..Debug$GT$3fmt17hfe86f3e31b9e39ddE', symObjAddr: 0x10D54, symBinAddr: 0x7FDA0, symSize: 0xCC }
  - { offset: 0x1712B0, size: 0x8, addend: 0x0, symName: __ZN4core3str16slice_error_fail17hb1c7a3c9313d79fcE, symObjAddr: 0x10E20, symBinAddr: 0x8E7FC, symSize: 0xC }
  - { offset: 0x1712CA, size: 0x8, addend: 0x0, symName: __ZN4core3str19slice_error_fail_ct17h7958bac3cd5b8084E, symObjAddr: 0x10E2C, symBinAddr: 0x8E808, symSize: 0x34 }
  - { offset: 0x1712FA, size: 0x8, addend: 0x0, symName: __ZN4core3str19slice_error_fail_rt17h1db2183c1b8ae29bE, symObjAddr: 0x10E60, symBinAddr: 0x7FE6C, symSize: 0x348 }
  - { offset: 0x1715C4, size: 0x8, addend: 0x0, symName: '__ZN4core4char7methods22_$LT$impl$u20$char$GT$16escape_debug_ext17hb2dd7bf38f089664E', symObjAddr: 0x4EF4, symBinAddr: 0x74500, symSize: 0x268 }
  - { offset: 0x17189D, size: 0x8, addend: 0x0, symName: __ZN4core4char7methods15encode_utf8_raw8do_panic7runtime17h58b0b7f4295a76fbE, symObjAddr: 0x1705C, symBinAddr: 0x8E92C, symSize: 0x6C }
  - { offset: 0x1718DD, size: 0x8, addend: 0x0, symName: __ZN4core4char7methods16encode_utf16_raw8do_panic7runtime17h764c35d1476f5185E, symObjAddr: 0x170C8, symBinAddr: 0x8E998, symSize: 0x6C }
  - { offset: 0x171932, size: 0x8, addend: 0x0, symName: '__ZN74_$LT$core..char..convert..ParseCharError$u20$as$u20$core..fmt..Display$GT$3fmt17hb0063c72849c3421E', symObjAddr: 0x4E40, symBinAddr: 0x7444C, symSize: 0x48 }
  - { offset: 0x171993, size: 0x8, addend: 0x0, symName: '__ZN76_$LT$core..char..convert..CharTryFromError$u20$as$u20$core..fmt..Display$GT$3fmt17hc7b517cf1a1084d2E', symObjAddr: 0x4E88, symBinAddr: 0x74494, symSize: 0x20 }
  - { offset: 0x171A21, size: 0x8, addend: 0x0, symName: '__ZN75_$LT$core..char..decode..DecodeUtf16Error$u20$as$u20$core..fmt..Display$GT$3fmt17hb709dc3f502f2dbbE', symObjAddr: 0x4EA8, symBinAddr: 0x744B4, symSize: 0x4C }
  - { offset: 0x171ABE, size: 0x8, addend: 0x0, symName: '__ZN64_$LT$core..char..EscapeDefault$u20$as$u20$core..fmt..Display$GT$3fmt17h5fefdcb434bbb8bfE', symObjAddr: 0x515C, symBinAddr: 0x74768, symSize: 0x2C }
  - { offset: 0x171B55, size: 0x8, addend: 0x0, symName: '__ZN62_$LT$core..char..EscapeDebug$u20$as$u20$core..fmt..Display$GT$3fmt17ha8e0f370f5c8a356E', symObjAddr: 0x5188, symBinAddr: 0x74794, symSize: 0x50 }
  - { offset: 0x171C09, size: 0x8, addend: 0x0, symName: '__ZN86_$LT$core..char..CaseMappingIter$u20$as$u20$core..iter..traits..iterator..Iterator$GT$4next17h92d398cf75b18fc8E', symObjAddr: 0x51D8, symBinAddr: 0x747E4, symSize: 0x34 }
  - { offset: 0x171D3D, size: 0x8, addend: 0x0, symName: '__ZN86_$LT$core..char..CaseMappingIter$u20$as$u20$core..iter..traits..iterator..Iterator$GT$5count17hb31ee86a3aa8ba97E', symObjAddr: 0x520C, symBinAddr: 0x74818, symSize: 0x18 }
  - { offset: 0x171DAC, size: 0x8, addend: 0x0, symName: '__ZN86_$LT$core..char..CaseMappingIter$u20$as$u20$core..iter..traits..iterator..Iterator$GT$4last17h638bfbc0171dbd41E', symObjAddr: 0x5224, symBinAddr: 0x74830, symSize: 0x48 }
  - { offset: 0x171EF8, size: 0x8, addend: 0x0, symName: '__ZN86_$LT$core..char..CaseMappingIter$u20$as$u20$core..iter..traits..iterator..Iterator$GT$10advance_by17h209038fa4177cef5E', symObjAddr: 0x526C, symBinAddr: 0x74878, symSize: 0x2C }
  - { offset: 0x171F92, size: 0x8, addend: 0x0, symName: '__ZN86_$LT$core..char..CaseMappingIter$u20$as$u20$core..iter..traits..iterator..Iterator$GT$24__iterator_get_unchecked17hbd6e2b1973e86bf3E', symObjAddr: 0x5298, symBinAddr: 0x748A4, symSize: 0x20 }
  - { offset: 0x1720BC, size: 0x8, addend: 0x0, symName: '__ZN101_$LT$core..char..CaseMappingIter$u20$as$u20$core..iter..traits..double_ended..DoubleEndedIterator$GT$9next_back17heb6d834723feee56E', symObjAddr: 0x52B8, symBinAddr: 0x748C4, symSize: 0x34 }
  - { offset: 0x1721F1, size: 0x8, addend: 0x0, symName: '__ZN101_$LT$core..char..CaseMappingIter$u20$as$u20$core..iter..traits..double_ended..DoubleEndedIterator$GT$15advance_back_by17hc17e86a0af188acbE', symObjAddr: 0x52EC, symBinAddr: 0x748F8, symSize: 0x30 }
  - { offset: 0x1722AB, size: 0x8, addend: 0x0, symName: '__ZN67_$LT$core..char..TryFromCharError$u20$as$u20$core..fmt..Display$GT$3fmt17h41d39671dd3a7d3dE', symObjAddr: 0x531C, symBinAddr: 0x74928, symSize: 0x20 }
  - { offset: 0x17232A, size: 0x8, addend: 0x0, symName: '__ZN82_$LT$core..char..ToLowercase$u20$as$u20$core..iter..traits..iterator..Iterator$GT$4next17he6ddf9f6d6004e16E', symObjAddr: 0x17134, symBinAddr: 0x85F78, symSize: 0x34 }
  - { offset: 0x17247C, size: 0x8, addend: 0x0, symName: '__ZN82_$LT$core..char..ToLowercase$u20$as$u20$core..iter..traits..iterator..Iterator$GT$5count17h136a626d6facb167E', symObjAddr: 0x17168, symBinAddr: 0x85FAC, symSize: 0x18 }
  - { offset: 0x172509, size: 0x8, addend: 0x0, symName: '__ZN82_$LT$core..char..ToLowercase$u20$as$u20$core..iter..traits..iterator..Iterator$GT$4last17hbeb470d9e5da5b4fE', symObjAddr: 0x17180, symBinAddr: 0x85FC4, symSize: 0x48 }
  - { offset: 0x172673, size: 0x8, addend: 0x0, symName: '__ZN82_$LT$core..char..ToLowercase$u20$as$u20$core..iter..traits..iterator..Iterator$GT$10advance_by17h46c52036e4319d8cE', symObjAddr: 0x171C8, symBinAddr: 0x8600C, symSize: 0x2C }
  - { offset: 0x17272B, size: 0x8, addend: 0x0, symName: '__ZN82_$LT$core..char..ToLowercase$u20$as$u20$core..iter..traits..iterator..Iterator$GT$24__iterator_get_unchecked17hb173269896cd3a78E', symObjAddr: 0x171F4, symBinAddr: 0x86038, symSize: 0x20 }
  - { offset: 0x17282D, size: 0x8, addend: 0x0, symName: '__ZN97_$LT$core..char..ToLowercase$u20$as$u20$core..iter..traits..double_ended..DoubleEndedIterator$GT$9next_back17h58f72b0a542a1e5aE', symObjAddr: 0x17214, symBinAddr: 0x86058, symSize: 0x34 }
  - { offset: 0x172980, size: 0x8, addend: 0x0, symName: '__ZN97_$LT$core..char..ToLowercase$u20$as$u20$core..iter..traits..double_ended..DoubleEndedIterator$GT$15advance_back_by17hd3115e101d2879ebE', symObjAddr: 0x17248, symBinAddr: 0x8608C, symSize: 0x30 }
  - { offset: 0x172A51, size: 0x8, addend: 0x0, symName: '__ZN62_$LT$core..char..ToLowercase$u20$as$u20$core..fmt..Display$GT$3fmt17hac28c2dc837fadabE', symObjAddr: 0x17278, symBinAddr: 0x860BC, symSize: 0xDC }
  - { offset: 0x172CA1, size: 0x8, addend: 0x0, symName: '__ZN56_$LT$core..bstr..ByteStr$u20$as$u20$core..fmt..Debug$GT$3fmt17h804fea87821bbdd5E', symObjAddr: 0x4624, symBinAddr: 0x73CF0, symSize: 0x298 }
  - { offset: 0x172F4C, size: 0x8, addend: 0x0, symName: '__ZN58_$LT$core..bstr..ByteStr$u20$as$u20$core..fmt..Display$GT$3fmt17h39e12cfaf9c5d586E', symObjAddr: 0x48BC, symBinAddr: 0x73F88, symSize: 0x43C }
  - { offset: 0x17330C, size: 0x8, addend: 0x0, symName: __ZN4core4cell4lazy14panic_poisoned17hb2589ab3115b9366E, symObjAddr: 0x4CF8, symBinAddr: 0x8E17C, symSize: 0x38 }
  - { offset: 0x173345, size: 0x8, addend: 0x0, symName: '__ZN60_$LT$core..cell..BorrowError$u20$as$u20$core..fmt..Debug$GT$3fmt17h1c7e5080674281c4E', symObjAddr: 0x4D30, symBinAddr: 0x743C4, symSize: 0x24 }
  - { offset: 0x1733AB, size: 0x8, addend: 0x0, symName: '__ZN62_$LT$core..cell..BorrowError$u20$as$u20$core..fmt..Display$GT$3fmt17hebda910bd13b81bfE', symObjAddr: 0x4D54, symBinAddr: 0x743E8, symSize: 0x20 }
  - { offset: 0x1733E4, size: 0x8, addend: 0x0, symName: '__ZN63_$LT$core..cell..BorrowMutError$u20$as$u20$core..fmt..Debug$GT$3fmt17hecfa78be06af7f53E', symObjAddr: 0x4D74, symBinAddr: 0x74408, symSize: 0x24 }
  - { offset: 0x17344A, size: 0x8, addend: 0x0, symName: '__ZN65_$LT$core..cell..BorrowMutError$u20$as$u20$core..fmt..Display$GT$3fmt17h24e7576326d05f15E', symObjAddr: 0x4D98, symBinAddr: 0x7442C, symSize: 0x20 }
  - { offset: 0x17347D, size: 0x8, addend: 0x0, symName: __ZN4core4cell22panic_already_borrowed17ha05dfdc27881e579E, symObjAddr: 0x4DB8, symBinAddr: 0x8E1B4, symSize: 0x44 }
  - { offset: 0x1734B0, size: 0x8, addend: 0x0, symName: __ZN4core4cell30panic_already_mutably_borrowed17h8ed64df0236bfa1cE, symObjAddr: 0x4DFC, symBinAddr: 0x8E1F8, symSize: 0x44 }
  - { offset: 0x173504, size: 0x8, addend: 0x0, symName: __ZN4core7unicode12unicode_data15grapheme_extend11lookup_slow17hd992fb3b55b1f199E, symObjAddr: 0x1C750, symBinAddr: 0x8AFD8, symSize: 0x114 }
  - { offset: 0x1737C3, size: 0x8, addend: 0x0, symName: __ZN4core7unicode12unicode_data10alphabetic6lookup17hb81d0e8ea48817f4E, symObjAddr: 0x1C404, symBinAddr: 0x8AC8C, symSize: 0x110 }
  - { offset: 0x17396E, size: 0x8, addend: 0x0, symName: __ZN4core7unicode12unicode_data14case_ignorable6lookup17h5dc31bba27356f5dE, symObjAddr: 0x1C514, symBinAddr: 0x8AD9C, symSize: 0x118 }
  - { offset: 0x173B1B, size: 0x8, addend: 0x0, symName: __ZN4core7unicode12unicode_data5cased6lookup17h7220aa68980450deE, symObjAddr: 0x1C62C, symBinAddr: 0x8AEB4, symSize: 0x100 }
  - { offset: 0x173CC8, size: 0x8, addend: 0x0, symName: __ZN4core7unicode12unicode_data2cc6lookup17h5cbb721489fec6f4E, symObjAddr: 0x1C72C, symBinAddr: 0x8AFB4, symSize: 0x24 }
  - { offset: 0x173D1B, size: 0x8, addend: 0x0, symName: __ZN4core7unicode12unicode_data9lowercase6lookup17h1f1f5cbdd6eea62cE, symObjAddr: 0x1C864, symBinAddr: 0x8B0EC, symSize: 0x104 }
  - { offset: 0x173D6F, size: 0x8, addend: 0x0, symName: __ZN4core7unicode12unicode_data1n6lookup17he973ce33e2bb3877E, symObjAddr: 0x1C968, symBinAddr: 0x8B1F0, symSize: 0x118 }
  - { offset: 0x173F1C, size: 0x8, addend: 0x0, symName: __ZN4core7unicode12unicode_data9uppercase6lookup17hc4098e270497ec20E, symObjAddr: 0x1CA80, symBinAddr: 0x8B308, symSize: 0x104 }
  - { offset: 0x173F78, size: 0x8, addend: 0x0, symName: __ZN4core7unicode12unicode_data11conversions8to_lower17h8929c3b719cd8ac8E, symObjAddr: 0x1CB84, symBinAddr: 0x8B40C, symSize: 0x184 }
  - { offset: 0x1740E8, size: 0x8, addend: 0x0, symName: __ZN4core7unicode12unicode_data11conversions8to_upper17h12073937fdaec559E, symObjAddr: 0x1CD08, symBinAddr: 0x8B590, symSize: 0x1A4 }
  - { offset: 0x1742B5, size: 0x8, addend: 0x0, symName: __ZN4core7unicode9printable12is_printable17h356ee0d9491fe33aE, symObjAddr: 0x11BFC, symBinAddr: 0x80C08, symSize: 0x2B4 }
  - { offset: 0x17461D, size: 0x8, addend: 0x0, symName: '__ZN79_$LT$core..ffi..c_str..FromBytesUntilNulError$u20$as$u20$core..fmt..Display$GT$3fmt17h38fc7e00deb54894E', symObjAddr: 0x533C, symBinAddr: 0x74948, symSize: 0x24 }
  - { offset: 0x174655, size: 0x8, addend: 0x0, symName: '__ZN59_$LT$core..ffi..c_str..CStr$u20$as$u20$core..fmt..Debug$GT$3fmt17h8679fe710cb9d56dE', symObjAddr: 0x5360, symBinAddr: 0x7496C, symSize: 0x6C }
  - { offset: 0x174710, size: 0x8, addend: 0x0, symName: '__ZN78_$LT$core..ffi..c_str..FromBytesWithNulError$u20$as$u20$core..fmt..Display$GT$3fmt17h77cc4f6422a44249E', symObjAddr: 0x53CC, symBinAddr: 0x749D8, symSize: 0xC4 }
  - { offset: 0x1747AB, size: 0x8, addend: 0x0, symName: __ZN4core3ffi5c_str4CStr20from_bytes_until_nul17hea9e9b8024b5c3aaE, symObjAddr: 0x5490, symBinAddr: 0x74A9C, symSize: 0xE0 }
  - { offset: 0x174883, size: 0x8, addend: 0x0, symName: __ZN4core3ffi5c_str4CStr19from_bytes_with_nul17h7c1e0ce2e77e07c9E, symObjAddr: 0x5570, symBinAddr: 0x74B7C, symSize: 0xFC }
  - { offset: 0x174971, size: 0x8, addend: 0x0, symName: __ZN4core3ffi5c_str4CStr6to_str17hcf00d85eedcacbf0E, symObjAddr: 0x566C, symBinAddr: 0x74C78, symSize: 0x14 }
  - { offset: 0x1749B1, size: 0x8, addend: 0x0, symName: '__ZN67_$LT$core..ffi..va_list..VaListImpl$u20$as$u20$core..fmt..Debug$GT$3fmt17hf738a05ee203df55E', symObjAddr: 0x5680, symBinAddr: 0x74C8C, symSize: 0x4C }
  - { offset: 0x174A01, size: 0x8, addend: 0x0, symName: '__ZN54_$LT$core..ffi..c_void$u20$as$u20$core..fmt..Debug$GT$3fmt17h2c230ad23ea92be3E', symObjAddr: 0x56CC, symBinAddr: 0x74CD8, symSize: 0x24 }
  - { offset: 0x174A86, size: 0x8, addend: 0x0, symName: '__ZN72_$LT$core..io..borrowed_buf..BorrowedBuf$u20$as$u20$core..fmt..Debug$GT$3fmt17h72c1001608e4de27E', symObjAddr: 0x56F0, symBinAddr: 0x74CFC, symSize: 0x108 }
  - { offset: 0x174BA3, size: 0x8, addend: 0x0, symName: '__ZN86_$LT$core..net..display_buffer..DisplayBuffer$LT$_$GT$$u20$as$u20$core..fmt..Write$GT$9write_str17h9e3ce2e6d085748bE', symObjAddr: 0x57F8, symBinAddr: 0x74E04, symSize: 0x50 }
  - { offset: 0x174C5A, size: 0x8, addend: 0x0, symName: '__ZN86_$LT$core..net..display_buffer..DisplayBuffer$LT$_$GT$$u20$as$u20$core..fmt..Write$GT$9write_str17h9e408ec6ee4728d8E', symObjAddr: 0x5848, symBinAddr: 0x74E54, symSize: 0x50 }
  - { offset: 0x174D11, size: 0x8, addend: 0x0, symName: '__ZN86_$LT$core..net..display_buffer..DisplayBuffer$LT$_$GT$$u20$as$u20$core..fmt..Write$GT$9write_str17hb7d5e6d883a994b4E', symObjAddr: 0x5898, symBinAddr: 0x74EA4, symSize: 0x50 }
  - { offset: 0x174DC8, size: 0x8, addend: 0x0, symName: '__ZN86_$LT$core..net..display_buffer..DisplayBuffer$LT$_$GT$$u20$as$u20$core..fmt..Write$GT$9write_str17hc3ea8514134dffc6E', symObjAddr: 0x58E8, symBinAddr: 0x74EF4, symSize: 0x50 }
  - { offset: 0x174F30, size: 0x8, addend: 0x0, symName: '__ZN65_$LT$core..net..ip_addr..IpAddr$u20$as$u20$core..fmt..Display$GT$3fmt17h997dc728d5b4ce75E', symObjAddr: 0x5938, symBinAddr: 0x74F44, symSize: 0x24 }
  - { offset: 0x174F59, size: 0x8, addend: 0x0, symName: '__ZN63_$LT$core..net..ip_addr..IpAddr$u20$as$u20$core..fmt..Debug$GT$3fmt17h705e74433f0c6fdfE', symObjAddr: 0x595C, symBinAddr: 0x74F68, symSize: 0x24 }
  - { offset: 0x174FA0, size: 0x8, addend: 0x0, symName: '__ZN4core3net6parser46_$LT$impl$u20$core..net..ip_addr..Ipv4Addr$GT$11parse_ascii17h6a5a4f0aa5d28e1eE', symObjAddr: 0x6F74, symBinAddr: 0x76580, symSize: 0x8C }
  - { offset: 0x175021, size: 0x8, addend: 0x0, symName: '__ZN67_$LT$core..net..ip_addr..Ipv4Addr$u20$as$u20$core..fmt..Display$GT$3fmt17he6524342e2ed9660E', symObjAddr: 0x5980, symBinAddr: 0x74F8C, symSize: 0x148 }
  - { offset: 0x17512E, size: 0x8, addend: 0x0, symName: '__ZN65_$LT$core..net..ip_addr..Ipv4Addr$u20$as$u20$core..fmt..Debug$GT$3fmt17h06fe53113b25c2b2E', symObjAddr: 0x5AC8, symBinAddr: 0x750D4, symSize: 0x10 }
  - { offset: 0x175188, size: 0x8, addend: 0x0, symName: '__ZN4core3net6parser46_$LT$impl$u20$core..net..ip_addr..Ipv6Addr$GT$11parse_ascii17h1a3d95ba05ac9634E', symObjAddr: 0x708C, symBinAddr: 0x76698, symSize: 0x70 }
  - { offset: 0x175215, size: 0x8, addend: 0x0, symName: '__ZN67_$LT$core..net..ip_addr..Ipv6Addr$u20$as$u20$core..fmt..Display$GT$3fmt12fmt_subslice17h93b46dc849c8ea3aE', symObjAddr: 0x6204, symBinAddr: 0x75810, symSize: 0x104 }
  - { offset: 0x175370, size: 0x8, addend: 0x0, symName: '__ZN67_$LT$core..net..ip_addr..Ipv6Addr$u20$as$u20$core..fmt..Display$GT$3fmt17heb4e51e5ed2462baE', symObjAddr: 0x5AD8, symBinAddr: 0x750E4, symSize: 0x72C }
  - { offset: 0x17570B, size: 0x8, addend: 0x0, symName: '__ZN65_$LT$core..net..ip_addr..Ipv6Addr$u20$as$u20$core..fmt..Debug$GT$3fmt17hc155bdd9e4967b2bE', symObjAddr: 0x6308, symBinAddr: 0x75914, symSize: 0x10 }
  - { offset: 0x175742, size: 0x8, addend: 0x0, symName: '__ZN4core3net6parser44_$LT$impl$u20$core..net..ip_addr..IpAddr$GT$11parse_ascii17h6f54acffa9cad30aE', symObjAddr: 0x6E04, symBinAddr: 0x76410, symSize: 0xB8 }
  - { offset: 0x17581A, size: 0x8, addend: 0x0, symName: '__ZN77_$LT$core..net..ip_addr..Ipv4Addr$u20$as$u20$core..ops..bit..BitAndAssign$GT$13bitand_assign17hf27297654e31a0bdE', symObjAddr: 0x17354, symBinAddr: 0x86198, symSize: 0x40 }
  - { offset: 0x17585A, size: 0x8, addend: 0x0, symName: '__ZN117_$LT$core..net..ip_addr..Ipv4Addr$u20$as$u20$core..ops..bit..BitAndAssign$LT$$RF$core..net..ip_addr..Ipv4Addr$GT$$GT$13bitand_assign17h9c24d6bcd43e7141E', symObjAddr: 0x17394, symBinAddr: 0x861D8, symSize: 0x48 }
  - { offset: 0x175974, size: 0x8, addend: 0x0, symName: '__ZN76_$LT$core..net..ip_addr..Ipv4Addr$u20$as$u20$core..ops..bit..BitOrAssign$GT$12bitor_assign17hb0bb020e699018b7E', symObjAddr: 0x173DC, symBinAddr: 0x86220, symSize: 0x40 }
  - { offset: 0x1759B4, size: 0x8, addend: 0x0, symName: '__ZN116_$LT$core..net..ip_addr..Ipv4Addr$u20$as$u20$core..ops..bit..BitOrAssign$LT$$RF$core..net..ip_addr..Ipv4Addr$GT$$GT$12bitor_assign17h8e10ffc784c960caE', symObjAddr: 0x1741C, symBinAddr: 0x86260, symSize: 0x48 }
  - { offset: 0x175ACE, size: 0x8, addend: 0x0, symName: '__ZN77_$LT$core..net..ip_addr..Ipv6Addr$u20$as$u20$core..ops..bit..BitAndAssign$GT$13bitand_assign17h819373cdda569518E', symObjAddr: 0x17464, symBinAddr: 0x862A8, symSize: 0xA0 }
  - { offset: 0x175B50, size: 0x8, addend: 0x0, symName: '__ZN117_$LT$core..net..ip_addr..Ipv6Addr$u20$as$u20$core..ops..bit..BitAndAssign$LT$$RF$core..net..ip_addr..Ipv6Addr$GT$$GT$13bitand_assign17hdf48d2efb0b8caa0E', symObjAddr: 0x17504, symBinAddr: 0x86348, symSize: 0x20 }
  - { offset: 0x175BE2, size: 0x8, addend: 0x0, symName: '__ZN76_$LT$core..net..ip_addr..Ipv6Addr$u20$as$u20$core..ops..bit..BitOrAssign$GT$12bitor_assign17h93fdef9e0a49cb87E', symObjAddr: 0x17524, symBinAddr: 0x86368, symSize: 0xA0 }
  - { offset: 0x175C64, size: 0x8, addend: 0x0, symName: '__ZN116_$LT$core..net..ip_addr..Ipv6Addr$u20$as$u20$core..ops..bit..BitOrAssign$LT$$RF$core..net..ip_addr..Ipv6Addr$GT$$GT$12bitor_assign17hadf4304209833db9E', symObjAddr: 0x175C4, symBinAddr: 0x86408, symSize: 0x20 }
  - { offset: 0x175DA6, size: 0x8, addend: 0x0, symName: __ZN4core3net6parser6Parser14read_ipv4_addr17hc32d3cfd04c8e904E, symObjAddr: 0x65A0, symBinAddr: 0x75BAC, symSize: 0x3A0 }
  - { offset: 0x175F6D, size: 0x8, addend: 0x0, symName: __ZN4core3net6parser6Parser14read_ipv6_addr17h407fc0ab7b48b2bcE, symObjAddr: 0x6940, symBinAddr: 0x75F4C, symSize: 0x13C }
  - { offset: 0x1762E8, size: 0x8, addend: 0x0, symName: __ZN4core3net6parser6Parser19read_socket_addr_v617h461348153391bb1fE, symObjAddr: 0x6C40, symBinAddr: 0x7624C, symSize: 0x1C4 }
  - { offset: 0x1768C0, size: 0x8, addend: 0x0, symName: '__ZN4core3net6parser6Parser11read_number28_$u7b$$u7b$closure$u7d$$u7d$17h7f6d9ceda1532868E', symObjAddr: 0x6318, symBinAddr: 0x75924, symSize: 0x288 }
  - { offset: 0x176B4B, size: 0x8, addend: 0x0, symName: __ZN4core3net6parser6Parser14read_ipv6_addr11read_groups17h96c5dd7240b77fb0E, symObjAddr: 0x6A7C, symBinAddr: 0x76088, symSize: 0x1C4 }
  - { offset: 0x176E49, size: 0x8, addend: 0x0, symName: '__ZN4core3net6parser83_$LT$impl$u20$core..str..traits..FromStr$u20$for$u20$core..net..ip_addr..IpAddr$GT$8from_str17he75f41a86ca0a2a3E', symObjAddr: 0x6EBC, symBinAddr: 0x764C8, symSize: 0xB8 }
  - { offset: 0x176F4D, size: 0x8, addend: 0x0, symName: '__ZN4core3net6parser85_$LT$impl$u20$core..str..traits..FromStr$u20$for$u20$core..net..ip_addr..Ipv4Addr$GT$8from_str17ha570d0a6d3df66f6E', symObjAddr: 0x7000, symBinAddr: 0x7660C, symSize: 0x8C }
  - { offset: 0x176FF2, size: 0x8, addend: 0x0, symName: '__ZN4core3net6parser85_$LT$impl$u20$core..str..traits..FromStr$u20$for$u20$core..net..ip_addr..Ipv6Addr$GT$8from_str17h5c5b39143a74ce87E', symObjAddr: 0x70FC, symBinAddr: 0x76708, symSize: 0x70 }
  - { offset: 0x177097, size: 0x8, addend: 0x0, symName: '__ZN4core3net6parser93_$LT$impl$u20$core..str..traits..FromStr$u20$for$u20$core..net..socket_addr..SocketAddrV4$GT$8from_str17h1129771db4954d11E', symObjAddr: 0x7278, symBinAddr: 0x76884, symSize: 0x108 }
  - { offset: 0x1772A8, size: 0x8, addend: 0x0, symName: '__ZN4core3net6parser93_$LT$impl$u20$core..str..traits..FromStr$u20$for$u20$core..net..socket_addr..SocketAddrV6$GT$8from_str17h69eb040792732fedE', symObjAddr: 0x73EC, symBinAddr: 0x769F8, symSize: 0x6C }
  - { offset: 0x17734D, size: 0x8, addend: 0x0, symName: '__ZN4core3net6parser91_$LT$impl$u20$core..str..traits..FromStr$u20$for$u20$core..net..socket_addr..SocketAddr$GT$8from_str17h8b949b4b0575d343E', symObjAddr: 0x75E8, symBinAddr: 0x76BF4, symSize: 0x10 }
  - { offset: 0x177384, size: 0x8, addend: 0x0, symName: '__ZN72_$LT$core..net..parser..AddrParseError$u20$as$u20$core..fmt..Display$GT$3fmt17hf5bf30f5c5e99cccE', symObjAddr: 0x75F8, symBinAddr: 0x76C04, symSize: 0x38 }
  - { offset: 0x1773E8, size: 0x8, addend: 0x0, symName: '__ZN4core3net6parser54_$LT$impl$u20$core..net..socket_addr..SocketAddrV6$GT$11parse_ascii17h564e31579906e25fE', symObjAddr: 0x7380, symBinAddr: 0x7698C, symSize: 0x6C }
  - { offset: 0x17748B, size: 0x8, addend: 0x0, symName: '__ZN4core3net6parser54_$LT$impl$u20$core..net..socket_addr..SocketAddrV4$GT$11parse_ascii17h0e7fa29269772cedE', symObjAddr: 0x716C, symBinAddr: 0x76778, symSize: 0x10C }
  - { offset: 0x177698, size: 0x8, addend: 0x0, symName: '__ZN4core3net6parser52_$LT$impl$u20$core..net..socket_addr..SocketAddr$GT$11parse_ascii17hdde0d6fc492390a3E', symObjAddr: 0x7458, symBinAddr: 0x76A64, symSize: 0x190 }
  - { offset: 0x1778CC, size: 0x8, addend: 0x0, symName: '__ZN73_$LT$core..net..socket_addr..SocketAddr$u20$as$u20$core..fmt..Display$GT$3fmt17h39fc425f808b2f60E', symObjAddr: 0x7630, symBinAddr: 0x76C3C, symSize: 0x2C }
  - { offset: 0x1778F5, size: 0x8, addend: 0x0, symName: '__ZN71_$LT$core..net..socket_addr..SocketAddr$u20$as$u20$core..fmt..Debug$GT$3fmt17h8bdc6817837a3465E', symObjAddr: 0x765C, symBinAddr: 0x76C68, symSize: 0x2C }
  - { offset: 0x17792E, size: 0x8, addend: 0x0, symName: '__ZN75_$LT$core..net..socket_addr..SocketAddrV4$u20$as$u20$core..fmt..Display$GT$3fmt17ha5fb094c25997d7bE', symObjAddr: 0x7688, symBinAddr: 0x76C94, symSize: 0x144 }
  - { offset: 0x177A7D, size: 0x8, addend: 0x0, symName: '__ZN73_$LT$core..net..socket_addr..SocketAddrV4$u20$as$u20$core..fmt..Debug$GT$3fmt17hc5b4abba8649c633E', symObjAddr: 0x77CC, symBinAddr: 0x76DD8, symSize: 0x10 }
  - { offset: 0x177A9F, size: 0x8, addend: 0x0, symName: '__ZN75_$LT$core..net..socket_addr..SocketAddrV6$u20$as$u20$core..fmt..Display$GT$3fmt17he6a6437cb44fb3bfE', symObjAddr: 0x77DC, symBinAddr: 0x76DE8, symSize: 0x230 }
  - { offset: 0x177CF9, size: 0x8, addend: 0x0, symName: '__ZN73_$LT$core..net..socket_addr..SocketAddrV6$u20$as$u20$core..fmt..Debug$GT$3fmt17h6a586e7f50dc929dE', symObjAddr: 0x7A0C, symBinAddr: 0x77018, symSize: 0x10 }
  - { offset: 0x177DF9, size: 0x8, addend: 0x0, symName: __ZN4core9panicking9panic_fmt17heec96bfc27e6c546E, symObjAddr: 0x7B70, symBinAddr: 0x8E2A0, symSize: 0x20 }
  - { offset: 0x177E3E, size: 0x8, addend: 0x0, symName: __ZN4core9panicking18panic_nounwind_fmt17h15b30cc5af643334E, symObjAddr: 0x7B90, symBinAddr: 0x8E2C0, symSize: 0x3C }
  - { offset: 0x177E85, size: 0x8, addend: 0x0, symName: __ZN4core9panicking5panic17h755aa7cf85bf3433E, symObjAddr: 0x7BCC, symBinAddr: 0x8E2FC, symSize: 0x34 }
  - { offset: 0x177EB5, size: 0x8, addend: 0x0, symName: __ZN4core9panicking14panic_nounwind17hc7163b0cd384d969E, symObjAddr: 0x7C00, symBinAddr: 0x8E330, symSize: 0x3C }
  - { offset: 0x177EE5, size: 0x8, addend: 0x0, symName: __ZN4core9panicking26panic_nounwind_nobacktrace17had775474ee59e06dE, symObjAddr: 0x7C3C, symBinAddr: 0x8E36C, symSize: 0x3C }
  - { offset: 0x177F23, size: 0x8, addend: 0x0, symName: __ZN4core9panicking14panic_explicit17h46306caedbaf32f6E, symObjAddr: 0x7C78, symBinAddr: 0x8E3A8, symSize: 0x48 }
  - { offset: 0x177F6B, size: 0x8, addend: 0x0, symName: __ZN4core9panicking18panic_bounds_check17h486908b9a487d47cE, symObjAddr: 0x7CC0, symBinAddr: 0x8E3F0, symSize: 0x50 }
  - { offset: 0x177F9E, size: 0x8, addend: 0x0, symName: __ZN4core9panicking36panic_misaligned_pointer_dereference17h607f9b14008682d5E, symObjAddr: 0x7D10, symBinAddr: 0x8E440, symSize: 0x58 }
  - { offset: 0x177FD1, size: 0x8, addend: 0x0, symName: __ZN4core9panicking30panic_null_pointer_dereference17hb8280a7f5bd9bf81E, symObjAddr: 0x7D68, symBinAddr: 0x8E498, symSize: 0x38 }
  - { offset: 0x178003, size: 0x8, addend: 0x0, symName: __ZN4core9panicking19panic_cannot_unwind17he04b9d4fe77d66efE, symObjAddr: 0x7DA0, symBinAddr: 0x8E4D0, symSize: 0x18 }
  - { offset: 0x17801E, size: 0x8, addend: 0x0, symName: __ZN4core9panicking16panic_in_cleanup17he8958c706877a061E, symObjAddr: 0x7DB8, symBinAddr: 0x8E4E8, symSize: 0x18 }
  - { offset: 0x178047, size: 0x8, addend: 0x0, symName: __ZN4core9panicking15const_panic_fmt17hdcc47d918132787dE, symObjAddr: 0x7DD0, symBinAddr: 0x8E500, symSize: 0x64 }
  - { offset: 0x178066, size: 0x8, addend: 0x0, symName: __ZN4core9panicking15const_panic_fmt17hdcc47d918132787dE, symObjAddr: 0x7DD0, symBinAddr: 0x8E500, symSize: 0x64 }
  - { offset: 0x1780A7, size: 0x8, addend: 0x0, symName: __ZN4core9panicking13assert_failed17h189bafb47a5f58f9E, symObjAddr: 0x7E34, symBinAddr: 0x8E564, symSize: 0x24 }
  - { offset: 0x1780C2, size: 0x8, addend: 0x0, symName: __ZN4core9panicking13assert_failed17h32a4c75efbcc0738E, symObjAddr: 0x7E58, symBinAddr: 0x8E588, symSize: 0x24 }
  - { offset: 0x1780E9, size: 0x8, addend: 0x0, symName: '__ZN84_$LT$core..panicking..assert_matches_failed..Pattern$u20$as$u20$core..fmt..Debug$GT$3fmt17h219097828867735fE', symObjAddr: 0x7E7C, symBinAddr: 0x77118, symSize: 0x20 }
  - { offset: 0x17811D, size: 0x8, addend: 0x0, symName: __ZN4core9panicking19assert_failed_inner17hed32fec0f098204fE, symObjAddr: 0x7E9C, symBinAddr: 0x8E5AC, symSize: 0xE4 }
  - { offset: 0x17816D, size: 0x8, addend: 0x0, symName: __ZN4core9panicking11panic_const24panic_const_add_overflow17h94929c018ac82f19E, symObjAddr: 0x175E4, symBinAddr: 0x8EA04, symSize: 0x34 }
  - { offset: 0x17819D, size: 0x8, addend: 0x0, symName: __ZN4core9panicking11panic_const24panic_const_sub_overflow17hcff358fd6f601618E, symObjAddr: 0x17618, symBinAddr: 0x8EA38, symSize: 0x34 }
  - { offset: 0x1781CD, size: 0x8, addend: 0x0, symName: __ZN4core9panicking11panic_const24panic_const_mul_overflow17h6caeac3bf111b72cE, symObjAddr: 0x1764C, symBinAddr: 0x8EA6C, symSize: 0x34 }
  - { offset: 0x1781FD, size: 0x8, addend: 0x0, symName: __ZN4core9panicking11panic_const24panic_const_div_overflow17h9670b6f01bfb1d9fE, symObjAddr: 0x17680, symBinAddr: 0x8EAA0, symSize: 0x34 }
  - { offset: 0x17822D, size: 0x8, addend: 0x0, symName: __ZN4core9panicking11panic_const24panic_const_rem_overflow17h6c1f193bd6a8d8aeE, symObjAddr: 0x176B4, symBinAddr: 0x8EAD4, symSize: 0x34 }
  - { offset: 0x17825D, size: 0x8, addend: 0x0, symName: __ZN4core9panicking11panic_const24panic_const_neg_overflow17hb3a82e53648ceb51E, symObjAddr: 0x176E8, symBinAddr: 0x8EB08, symSize: 0x34 }
  - { offset: 0x17828D, size: 0x8, addend: 0x0, symName: __ZN4core9panicking11panic_const24panic_const_shr_overflow17hd9e2ccfc9b0fc2c0E, symObjAddr: 0x1771C, symBinAddr: 0x8EB3C, symSize: 0x34 }
  - { offset: 0x1782BD, size: 0x8, addend: 0x0, symName: __ZN4core9panicking11panic_const24panic_const_shl_overflow17hd4a66c1c64ff345dE, symObjAddr: 0x17750, symBinAddr: 0x8EB70, symSize: 0x34 }
  - { offset: 0x1782ED, size: 0x8, addend: 0x0, symName: __ZN4core9panicking11panic_const23panic_const_div_by_zero17h994d37c6832804cbE, symObjAddr: 0x17784, symBinAddr: 0x8EBA4, symSize: 0x34 }
  - { offset: 0x17831D, size: 0x8, addend: 0x0, symName: __ZN4core9panicking11panic_const23panic_const_rem_by_zero17h05a025f7375350b3E, symObjAddr: 0x177B8, symBinAddr: 0x8EBD8, symSize: 0x34 }
  - { offset: 0x17834D, size: 0x8, addend: 0x0, symName: __ZN4core9panicking11panic_const29panic_const_coroutine_resumed17hd62ee76658ae241fE, symObjAddr: 0x177EC, symBinAddr: 0x8EC0C, symSize: 0x34 }
  - { offset: 0x17837D, size: 0x8, addend: 0x0, symName: __ZN4core9panicking11panic_const28panic_const_async_fn_resumed17h7e56142191d9c92bE, symObjAddr: 0x17820, symBinAddr: 0x8EC40, symSize: 0x34 }
  - { offset: 0x1783AD, size: 0x8, addend: 0x0, symName: __ZN4core9panicking11panic_const32panic_const_async_gen_fn_resumed17h05a96d3244595aacE, symObjAddr: 0x17854, symBinAddr: 0x8EC74, symSize: 0x34 }
  - { offset: 0x1783DD, size: 0x8, addend: 0x0, symName: __ZN4core9panicking11panic_const23panic_const_gen_fn_none17h671f49824a71c8dfE, symObjAddr: 0x17888, symBinAddr: 0x8ECA8, symSize: 0x34 }
  - { offset: 0x17840D, size: 0x8, addend: 0x0, symName: __ZN4core9panicking11panic_const35panic_const_coroutine_resumed_panic17h45d4dd81da694ba8E, symObjAddr: 0x178BC, symBinAddr: 0x8ECDC, symSize: 0x34 }
  - { offset: 0x17843D, size: 0x8, addend: 0x0, symName: __ZN4core9panicking11panic_const34panic_const_async_fn_resumed_panic17hc33a812b62ef2bcaE, symObjAddr: 0x178F0, symBinAddr: 0x8ED10, symSize: 0x34 }
  - { offset: 0x17846D, size: 0x8, addend: 0x0, symName: __ZN4core9panicking11panic_const38panic_const_async_gen_fn_resumed_panic17h60cabcfbc5fd35abE, symObjAddr: 0x17924, symBinAddr: 0x8ED44, symSize: 0x34 }
  - { offset: 0x17849D, size: 0x8, addend: 0x0, symName: __ZN4core9panicking11panic_const29panic_const_gen_fn_none_panic17h873269afa4e5c5ceE, symObjAddr: 0x17958, symBinAddr: 0x8ED78, symSize: 0x34 }
  - { offset: 0x1784CD, size: 0x8, addend: 0x0, symName: __ZN4core9panicking11panic_const34panic_const_coroutine_resumed_drop17hbbc3a4f45efa7054E, symObjAddr: 0x1798C, symBinAddr: 0x8EDAC, symSize: 0x34 }
  - { offset: 0x1784FD, size: 0x8, addend: 0x0, symName: __ZN4core9panicking11panic_const33panic_const_async_fn_resumed_drop17h67e4e8c429326590E, symObjAddr: 0x179C0, symBinAddr: 0x8EDE0, symSize: 0x34 }
  - { offset: 0x17852D, size: 0x8, addend: 0x0, symName: __ZN4core9panicking11panic_const37panic_const_async_gen_fn_resumed_drop17ha813c1557df516b0E, symObjAddr: 0x179F4, symBinAddr: 0x8EE14, symSize: 0x34 }
  - { offset: 0x17855D, size: 0x8, addend: 0x0, symName: __ZN4core9panicking11panic_const28panic_const_gen_fn_none_drop17ha208e48a49a5120eE, symObjAddr: 0x17A28, symBinAddr: 0x8EE48, symSize: 0x34 }
  - { offset: 0x1785BC, size: 0x8, addend: 0x0, symName: '__ZN73_$LT$core..panic..panic_info..PanicInfo$u20$as$u20$core..fmt..Display$GT$3fmt17h5debd68accf8c381E', symObjAddr: 0x7A80, symBinAddr: 0x77028, symSize: 0xF0 }
  - { offset: 0x178724, size: 0x8, addend: 0x0, symName: '__ZN48_$LT$char$u20$as$u20$core..pat..RangePattern$GT$7sub_one17h6409878b664f9d7eE', symObjAddr: 0x7F80, symBinAddr: 0x77138, symSize: 0x54 }
  - { offset: 0x17879C, size: 0x8, addend: 0x0, symName: '__ZN46_$LT$i8$u20$as$u20$core..pat..RangePattern$GT$7sub_one17h039dd7ae08659c97E', symObjAddr: 0x17A5C, symBinAddr: 0x86428, symSize: 0x48 }
  - { offset: 0x178815, size: 0x8, addend: 0x0, symName: '__ZN47_$LT$i16$u20$as$u20$core..pat..RangePattern$GT$7sub_one17h2fd014916fb3c38bE', symObjAddr: 0x17AA4, symBinAddr: 0x86470, symSize: 0x48 }
  - { offset: 0x17888E, size: 0x8, addend: 0x0, symName: '__ZN47_$LT$i32$u20$as$u20$core..pat..RangePattern$GT$7sub_one17hd49d0b704f0141f7E', symObjAddr: 0x17AEC, symBinAddr: 0x864B8, symSize: 0x3C }
  - { offset: 0x1788AC, size: 0x8, addend: 0x0, symName: '__ZN47_$LT$i32$u20$as$u20$core..pat..RangePattern$GT$7sub_one17hd49d0b704f0141f7E', symObjAddr: 0x17AEC, symBinAddr: 0x864B8, symSize: 0x3C }
  - { offset: 0x1788C1, size: 0x8, addend: 0x0, symName: '__ZN47_$LT$i32$u20$as$u20$core..pat..RangePattern$GT$7sub_one17hd49d0b704f0141f7E', symObjAddr: 0x17AEC, symBinAddr: 0x864B8, symSize: 0x3C }
  - { offset: 0x178907, size: 0x8, addend: 0x0, symName: '__ZN47_$LT$i64$u20$as$u20$core..pat..RangePattern$GT$7sub_one17h6983f23cbc9e1006E', symObjAddr: 0x17B28, symBinAddr: 0x864F4, symSize: 0x3C }
  - { offset: 0x178925, size: 0x8, addend: 0x0, symName: '__ZN47_$LT$i64$u20$as$u20$core..pat..RangePattern$GT$7sub_one17h6983f23cbc9e1006E', symObjAddr: 0x17B28, symBinAddr: 0x864F4, symSize: 0x3C }
  - { offset: 0x17893A, size: 0x8, addend: 0x0, symName: '__ZN47_$LT$i64$u20$as$u20$core..pat..RangePattern$GT$7sub_one17h6983f23cbc9e1006E', symObjAddr: 0x17B28, symBinAddr: 0x864F4, symSize: 0x3C }
  - { offset: 0x178980, size: 0x8, addend: 0x0, symName: '__ZN48_$LT$i128$u20$as$u20$core..pat..RangePattern$GT$7sub_one17h54ea873a52fbc546E', symObjAddr: 0x17B64, symBinAddr: 0x86530, symSize: 0x4C }
  - { offset: 0x17899E, size: 0x8, addend: 0x0, symName: '__ZN48_$LT$i128$u20$as$u20$core..pat..RangePattern$GT$7sub_one17h54ea873a52fbc546E', symObjAddr: 0x17B64, symBinAddr: 0x86530, symSize: 0x4C }
  - { offset: 0x1789B3, size: 0x8, addend: 0x0, symName: '__ZN48_$LT$i128$u20$as$u20$core..pat..RangePattern$GT$7sub_one17h54ea873a52fbc546E', symObjAddr: 0x17B64, symBinAddr: 0x86530, symSize: 0x4C }
  - { offset: 0x1789F9, size: 0x8, addend: 0x0, symName: '__ZN46_$LT$u8$u20$as$u20$core..pat..RangePattern$GT$7sub_one17h3356d5676e2c5a09E', symObjAddr: 0x17BB0, symBinAddr: 0x8657C, symSize: 0x40 }
  - { offset: 0x178A45, size: 0x8, addend: 0x0, symName: '__ZN47_$LT$u16$u20$as$u20$core..pat..RangePattern$GT$7sub_one17hbc399f1968edc6ffE', symObjAddr: 0x17BF0, symBinAddr: 0x865BC, symSize: 0x40 }
  - { offset: 0x178A91, size: 0x8, addend: 0x0, symName: '__ZN47_$LT$u32$u20$as$u20$core..pat..RangePattern$GT$7sub_one17ha5c6a9446a9ebf7dE', symObjAddr: 0x17C30, symBinAddr: 0x865FC, symSize: 0x3C }
  - { offset: 0x178AAF, size: 0x8, addend: 0x0, symName: '__ZN47_$LT$u32$u20$as$u20$core..pat..RangePattern$GT$7sub_one17ha5c6a9446a9ebf7dE', symObjAddr: 0x17C30, symBinAddr: 0x865FC, symSize: 0x3C }
  - { offset: 0x178ADD, size: 0x8, addend: 0x0, symName: '__ZN47_$LT$u64$u20$as$u20$core..pat..RangePattern$GT$7sub_one17he489d37bb5e32528E', symObjAddr: 0x17C6C, symBinAddr: 0x86638, symSize: 0x3C }
  - { offset: 0x178AFB, size: 0x8, addend: 0x0, symName: '__ZN47_$LT$u64$u20$as$u20$core..pat..RangePattern$GT$7sub_one17he489d37bb5e32528E', symObjAddr: 0x17C6C, symBinAddr: 0x86638, symSize: 0x3C }
  - { offset: 0x178B29, size: 0x8, addend: 0x0, symName: '__ZN48_$LT$u128$u20$as$u20$core..pat..RangePattern$GT$7sub_one17h735c48933d267752E', symObjAddr: 0x17CA8, symBinAddr: 0x86674, symSize: 0x4C }
  - { offset: 0x178B47, size: 0x8, addend: 0x0, symName: '__ZN48_$LT$u128$u20$as$u20$core..pat..RangePattern$GT$7sub_one17h735c48933d267752E', symObjAddr: 0x17CA8, symBinAddr: 0x86674, symSize: 0x4C }
  - { offset: 0x178BA5, size: 0x8, addend: 0x0, symName: '__ZN67_$LT$core..sync..atomic..AtomicBool$u20$as$u20$core..fmt..Debug$GT$3fmt17h368a93f9b9fbd97fE', symObjAddr: 0x8030, symBinAddr: 0x7718C, symSize: 0x44 }
  - { offset: 0x178C72, size: 0x8, addend: 0x0, symName: '__ZN65_$LT$core..sync..atomic..AtomicI8$u20$as$u20$core..fmt..Debug$GT$3fmt17h92d2ab8ee3d108ceE', symObjAddr: 0x17CF4, symBinAddr: 0x866C0, symSize: 0x14 }
  - { offset: 0x178CD7, size: 0x8, addend: 0x0, symName: '__ZN65_$LT$core..sync..atomic..AtomicU8$u20$as$u20$core..fmt..Debug$GT$3fmt17h7912b9553a179ef6E', symObjAddr: 0x17D08, symBinAddr: 0x866D4, symSize: 0x14 }
  - { offset: 0x178D4A, size: 0x8, addend: 0x0, symName: '__ZN66_$LT$core..sync..atomic..AtomicI16$u20$as$u20$core..fmt..Debug$GT$3fmt17h6390b4adeb028c7aE', symObjAddr: 0x17D1C, symBinAddr: 0x866E8, symSize: 0xF0 }
  - { offset: 0x178EFB, size: 0x8, addend: 0x0, symName: '__ZN66_$LT$core..sync..atomic..AtomicU16$u20$as$u20$core..fmt..Debug$GT$3fmt17h75d9f994a5fd8ee2E', symObjAddr: 0x17E0C, symBinAddr: 0x867D8, symSize: 0xE0 }
  - { offset: 0x17907F, size: 0x8, addend: 0x0, symName: '__ZN66_$LT$core..sync..atomic..AtomicI32$u20$as$u20$core..fmt..Debug$GT$3fmt17h9be324e8670a338bE', symObjAddr: 0x17EEC, symBinAddr: 0x868B8, symSize: 0xF0 }
  - { offset: 0x179240, size: 0x8, addend: 0x0, symName: '__ZN66_$LT$core..sync..atomic..AtomicU32$u20$as$u20$core..fmt..Debug$GT$3fmt17h44b50549c9956f66E', symObjAddr: 0x17FDC, symBinAddr: 0x869A8, symSize: 0xE0 }
  - { offset: 0x1793D4, size: 0x8, addend: 0x0, symName: '__ZN66_$LT$core..sync..atomic..AtomicI64$u20$as$u20$core..fmt..Debug$GT$3fmt17ha5043d8b5639b509E', symObjAddr: 0x180BC, symBinAddr: 0x86A88, symSize: 0xEC }
  - { offset: 0x179595, size: 0x8, addend: 0x0, symName: '__ZN66_$LT$core..sync..atomic..AtomicU64$u20$as$u20$core..fmt..Debug$GT$3fmt17h2985bca8e49b77bcE', symObjAddr: 0x181A8, symBinAddr: 0x86B74, symSize: 0xE0 }
  - { offset: 0x179729, size: 0x8, addend: 0x0, symName: '__ZN67_$LT$core..sync..atomic..AtomicI128$u20$as$u20$core..fmt..Debug$GT$3fmt17h75a4312940ba788eE', symObjAddr: 0x18288, symBinAddr: 0x86C54, symSize: 0x18 }
  - { offset: 0x17979C, size: 0x8, addend: 0x0, symName: '__ZN67_$LT$core..sync..atomic..AtomicU128$u20$as$u20$core..fmt..Debug$GT$3fmt17h474ba2c2e19c8056E', symObjAddr: 0x182A0, symBinAddr: 0x86C6C, symSize: 0x18 }
  - { offset: 0x17980F, size: 0x8, addend: 0x0, symName: '__ZN68_$LT$core..sync..atomic..AtomicUsize$u20$as$u20$core..fmt..Debug$GT$3fmt17h203ef65320159008E', symObjAddr: 0x182B8, symBinAddr: 0x86C84, symSize: 0xE0 }
  - { offset: 0x1799B0, size: 0x8, addend: 0x0, symName: '__ZN4core3f6421_$LT$impl$u20$f64$GT$5clamp8do_panic7runtime17hcc48657989f38f68E', symObjAddr: 0x12210, symBinAddr: 0x8E88C, symSize: 0x50 }
  - { offset: 0x179A28, size: 0x8, addend: 0x0, symName: '__ZN4core3f3221_$LT$impl$u20$f32$GT$5clamp8do_panic7runtime17h6fd1ae2693357065E', symObjAddr: 0x121C0, symBinAddr: 0x8E83C, symSize: 0x50 }
  - { offset: 0x179A86, size: 0x8, addend: 0x0, symName: '__ZN57_$LT$core..time..Duration$u20$as$u20$core..fmt..Debug$GT$3fmt17hc9254563358d791cE', symObjAddr: 0x11344, symBinAddr: 0x80350, symSize: 0xF4 }
  - { offset: 0x179ABE, size: 0x8, addend: 0x0, symName: '__ZN57_$LT$core..time..Duration$u20$as$u20$core..fmt..Debug$GT$3fmt11fmt_decimal17h239da9190f2bccb2E', symObjAddr: 0x11438, symBinAddr: 0x80444, symSize: 0x56C }
  - { offset: 0x179DC1, size: 0x8, addend: 0x0, symName: '__ZN57_$LT$core..time..Duration$u20$as$u20$core..fmt..Debug$GT$3fmt11fmt_decimal28_$u7b$$u7b$closure$u7d$$u7d$17hf063b5cebe7af38aE', symObjAddr: 0x119A4, symBinAddr: 0x809B0, symSize: 0x210 }
  - { offset: 0x179F50, size: 0x8, addend: 0x0, symName: '__ZN72_$LT$core..time..TryFromFloatSecsError$u20$as$u20$core..fmt..Display$GT$3fmt17hd9eaf555ce740fcfE', symObjAddr: 0x11BB4, symBinAddr: 0x80BC0, symSize: 0x48 }
  - { offset: 0x179FC2, size: 0x8, addend: 0x0, symName: '__ZN62_$LT$core..task..wake..Context$u20$as$u20$core..fmt..Debug$GT$3fmt17h4e44e63cfc40c190E', symObjAddr: 0x11EB0, symBinAddr: 0x80EBC, symSize: 0xC4 }
  - { offset: 0x17A0BF, size: 0x8, addend: 0x0, symName: '__ZN60_$LT$core..task..wake..Waker$u20$as$u20$core..fmt..Debug$GT$3fmt17h47023a362334875fE', symObjAddr: 0x11F74, symBinAddr: 0x80F80, symSize: 0xEC }
  - { offset: 0x17A1BC, size: 0x8, addend: 0x0, symName: '__ZN65_$LT$core..task..wake..LocalWaker$u20$as$u20$core..fmt..Debug$GT$3fmt17ha8c113ce61f2927cE', symObjAddr: 0x12060, symBinAddr: 0x8106C, symSize: 0xEC }
  - { offset: 0x17A2C7, size: 0x8, addend: 0x0, symName: __ZN4core5alloc6layout6Layout19is_size_align_valid17hccc65cf2e3637c4dE, symObjAddr: 0x1214C, symBinAddr: 0x81158, symSize: 0x2C }
  - { offset: 0x17A2FE, size: 0x8, addend: 0x0, symName: '__ZN71_$LT$core..alloc..layout..LayoutError$u20$as$u20$core..fmt..Display$GT$3fmt17had3a3432b10b153aE', symObjAddr: 0x12178, symBinAddr: 0x81184, symSize: 0x24 }
  - { offset: 0x17A338, size: 0x8, addend: 0x0, symName: '__ZN62_$LT$core..alloc..AllocError$u20$as$u20$core..fmt..Display$GT$3fmt17h67319623e577da3bE', symObjAddr: 0x1219C, symBinAddr: 0x811A8, symSize: 0x24 }
  - { offset: 0x17A37C, size: 0x8, addend: 0x0, symName: '__ZN85_$LT$core..marker..variance..PhantomCovariantLifetime$u20$as$u20$core..fmt..Debug$GT$3fmt17h2e693c0133859d54E', symObjAddr: 0x16FF0, symBinAddr: 0x85F0C, symSize: 0x24 }
  - { offset: 0x17A3B4, size: 0x8, addend: 0x0, symName: '__ZN89_$LT$core..marker..variance..PhantomContravariantLifetime$u20$as$u20$core..fmt..Debug$GT$3fmt17h65bd226341db7fabE', symObjAddr: 0x17014, symBinAddr: 0x85F30, symSize: 0x24 }
  - { offset: 0x17A3EC, size: 0x8, addend: 0x0, symName: '__ZN85_$LT$core..marker..variance..PhantomInvariantLifetime$u20$as$u20$core..fmt..Debug$GT$3fmt17h7a2e4f13810345aaE', symObjAddr: 0x17038, symBinAddr: 0x85F54, symSize: 0x24 }
  - { offset: 0x17A454, size: 0x8, addend: 0x0, symName: __ZN17compiler_builtins3int19specialized_div_rem12u128_div_rem17he0b1ea48e9016fc5E, symObjAddr: 0x0, symBinAddr: 0x8B734, symSize: 0x334 }
  - { offset: 0x17A5B7, size: 0x8, addend: 0x0, symName: __ZN17compiler_builtins3int19specialized_div_rem12u128_div_rem17he0b1ea48e9016fc5E, symObjAddr: 0x0, symBinAddr: 0x8B734, symSize: 0x334 }
  - { offset: 0x17A5D5, size: 0x8, addend: 0x0, symName: __ZN17compiler_builtins3int19specialized_div_rem12u128_div_rem17he0b1ea48e9016fc5E, symObjAddr: 0x0, symBinAddr: 0x8B734, symSize: 0x334 }
  - { offset: 0x17A8F5, size: 0x8, addend: 0x0, symName: __ZN17compiler_builtins3int19specialized_div_rem11u64_div_rem17h538bf3c5d9096ef7E, symObjAddr: 0x334, symBinAddr: 0x8BA68, symSize: 0xDC }
  - { offset: 0x17A9E3, size: 0x8, addend: 0x0, symName: __ZN17compiler_builtins3int19specialized_div_rem11u32_div_rem17h69065c2251bcab18E, symObjAddr: 0x410, symBinAddr: 0x8BB44, symSize: 0xDC }
  - { offset: 0x17AAE5, size: 0x8, addend: 0x0, symName: ___udivti3, symObjAddr: 0x0, symBinAddr: 0x8BC20, symSize: 0x28 }
  - { offset: 0x17AB0B, size: 0x8, addend: 0x0, symName: ___udivti3, symObjAddr: 0x0, symBinAddr: 0x8BC20, symSize: 0x28 }
...
