---
triple:          'x86_64-apple-darwin'
binary-path:     '/Users/klaus/Library/Developer/Xcode/DerivedData/OPAQUEAAWaaSModule-fuqdibrybtakesgrgcfiezbbnsbb/Build/Intermediates.noindex/ArchiveIntermediates/OPAQUEAAWaaSModule/InstallationBuildProductsLocation/Library/Frameworks/OPAQUEAAWaaSModule.framework/OPAQUEAAWaaSModule'
relocations:
  - { offset: 0x38908, size: 0x8, addend: 0x0, symName: '__ZN108_$LT$alloc..collections..btree..map..Iter$LT$K$C$V$GT$$u20$as$u20$core..iter..traits..iterator..Iterator$GT$4next17h3eabc4acad7b0adfE', symObjAddr: 0x0, symBinAddr: 0x60B0, symSize: 0x230 }
  - { offset: 0x38E06, size: 0x8, addend: 0x0, symName: '__ZN5alloc11collections5btree4node208Handle$LT$alloc..collections..btree..node..NodeRef$LT$alloc..collections..btree..node..marker..Mut$C$K$C$V$C$alloc..collections..btree..node..marker..Leaf$GT$$C$alloc..collections..btree..node..marker..KV$GT$5split17h8ec663bd9129f932E', symObjAddr: 0x12C40, symBinAddr: 0x18920, symSize: 0x210 }
  - { offset: 0x39344, size: 0x8, addend: 0x0, symName: '__ZN5alloc11collections5btree4node208Handle$LT$alloc..collections..btree..node..NodeRef$LT$alloc..collections..btree..node..marker..Mut$C$K$C$V$C$alloc..collections..btree..node..marker..Leaf$GT$$C$alloc..collections..btree..node..marker..KV$GT$5split17hee633c3b1b2338b7E', symObjAddr: 0x12E50, symBinAddr: 0x18B30, symSize: 0x210 }
  - { offset: 0x39881, size: 0x8, addend: 0x0, symName: '__ZN5alloc11collections5btree4node212Handle$LT$alloc..collections..btree..node..NodeRef$LT$alloc..collections..btree..node..marker..Mut$C$K$C$V$C$alloc..collections..btree..node..marker..Internal$GT$$C$alloc..collections..btree..node..marker..KV$GT$5split17h2833c4e4fdb47494E', symObjAddr: 0x13060, symBinAddr: 0x18D40, symSize: 0x320 }
  - { offset: 0x39FC8, size: 0x8, addend: 0x0, symName: '__ZN5alloc11collections5btree4node212Handle$LT$alloc..collections..btree..node..NodeRef$LT$alloc..collections..btree..node..marker..Mut$C$K$C$V$C$alloc..collections..btree..node..marker..Internal$GT$$C$alloc..collections..btree..node..marker..KV$GT$5split17h2dbd442c66289272E', symObjAddr: 0x13380, symBinAddr: 0x19060, symSize: 0x320 }
  - { offset: 0x3A748, size: 0x8, addend: 0x0, symName: '__ZN5alloc11collections5btree6remove259_$LT$impl$u20$alloc..collections..btree..node..Handle$LT$alloc..collections..btree..node..NodeRef$LT$alloc..collections..btree..node..marker..Mut$C$K$C$V$C$alloc..collections..btree..node..marker..Leaf$GT$$C$alloc..collections..btree..node..marker..KV$GT$$GT$14remove_leaf_kv17h74542f9ef6797693E', symObjAddr: 0x142E0, symBinAddr: 0x19FC0, symSize: 0x910 }
  - { offset: 0x3B3EA, size: 0x8, addend: 0x0, symName: '__ZN5alloc11collections5btree6remove259_$LT$impl$u20$alloc..collections..btree..node..Handle$LT$alloc..collections..btree..node..NodeRef$LT$alloc..collections..btree..node..marker..Mut$C$K$C$V$C$alloc..collections..btree..node..marker..Leaf$GT$$C$alloc..collections..btree..node..marker..KV$GT$$GT$14remove_leaf_kv17ha77ad0884e54c085E', symObjAddr: 0x14BF0, symBinAddr: 0x1A8D0, symSize: 0x910 }
  - { offset: 0x3CDF3, size: 0x8, addend: 0x0, symName: '__ZN5alloc11collections5btree4node29BalancingContext$LT$K$C$V$GT$15bulk_steal_left17h19ac5a34474c2f83E', symObjAddr: 0x136A0, symBinAddr: 0x19380, symSize: 0x400 }
  - { offset: 0x3D365, size: 0x8, addend: 0x0, symName: '__ZN5alloc11collections5btree4node29BalancingContext$LT$K$C$V$GT$16bulk_steal_right17hcfa2b66dd3f01bf4E', symObjAddr: 0x13AA0, symBinAddr: 0x19780, symSize: 0x440 }
  - { offset: 0x3D9BE, size: 0x8, addend: 0x0, symName: '__ZN5alloc11collections5btree4node29BalancingContext$LT$K$C$V$GT$8do_merge17h0637cbdfd8efeb1dE', symObjAddr: 0x13EE0, symBinAddr: 0x19BC0, symSize: 0x400 }
  - { offset: 0x3E0F3, size: 0x8, addend: 0x0, symName: '__ZN108_$LT$alloc..collections..btree..map..Iter$LT$K$C$V$GT$$u20$as$u20$core..iter..traits..iterator..Iterator$GT$4next17h3eabc4acad7b0adfE', symObjAddr: 0x0, symBinAddr: 0x60B0, symSize: 0x230 }
  - { offset: 0x3E4DF, size: 0x8, addend: 0x0, symName: '__ZN5alloc11collections5btree3map25BTreeMap$LT$K$C$V$C$A$GT$6insert17h172bd835dafd39d0E', symObjAddr: 0x102B0, symBinAddr: 0x15F90, symSize: 0xEE0 }
  - { offset: 0x3FB4E, size: 0x8, addend: 0x0, symName: '__ZN5alloc11collections5btree3map25BTreeMap$LT$K$C$V$C$A$GT$6insert17h95742f649b9ba426E', symObjAddr: 0x11190, symBinAddr: 0x16E70, symSize: 0xEB0 }
  - { offset: 0x4135C, size: 0x8, addend: 0x0, symName: '__ZN5alloc11collections5btree3map25IntoIter$LT$K$C$V$C$A$GT$10dying_next17h43ec29f5364c0bf7E', symObjAddr: 0x12040, symBinAddr: 0x17D20, symSize: 0x400 }
  - { offset: 0x416F0, size: 0x8, addend: 0x0, symName: '__ZN5alloc11collections5btree3map25IntoIter$LT$K$C$V$C$A$GT$10dying_next17h4d811075038cb45fE', symObjAddr: 0x12440, symBinAddr: 0x18120, symSize: 0x400 }
  - { offset: 0x41A84, size: 0x8, addend: 0x0, symName: '__ZN5alloc11collections5btree3map25IntoIter$LT$K$C$V$C$A$GT$10dying_next17h56e4bc958ac76954E', symObjAddr: 0x12840, symBinAddr: 0x18520, symSize: 0x400 }
  - { offset: 0x41E1F, size: 0x8, addend: 0x0, symName: '__ZN94_$LT$alloc..collections..btree..map..BTreeMap$LT$K$C$V$C$A$GT$$u20$as$u20$core..fmt..Debug$GT$3fmt17hd808ab16047867c2E', symObjAddr: 0x1FFE0, symBinAddr: 0x25B60, symSize: 0xF0 }
  - { offset: 0x42D14, size: 0x8, addend: 0x0, symName: '__ZN5alloc7raw_vec19RawVec$LT$T$C$A$GT$8grow_one17h0084a2e7cb9d0f78E', symObjAddr: 0x159E0, symBinAddr: 0x1B640, symSize: 0xC0 }
  - { offset: 0x42E36, size: 0x8, addend: 0x0, symName: '__ZN5alloc7raw_vec19RawVec$LT$T$C$A$GT$8grow_one17h136a8d2904bbe1d3E', symObjAddr: 0x15AA0, symBinAddr: 0x1B700, symSize: 0xC0 }
  - { offset: 0x42F58, size: 0x8, addend: 0x0, symName: '__ZN5alloc7raw_vec19RawVec$LT$T$C$A$GT$8grow_one17h13e438ba00ac978bE', symObjAddr: 0x15B60, symBinAddr: 0x1B7C0, symSize: 0xC0 }
  - { offset: 0x4307A, size: 0x8, addend: 0x0, symName: '__ZN5alloc7raw_vec19RawVec$LT$T$C$A$GT$8grow_one17h21367a0a83d55e79E', symObjAddr: 0x15C20, symBinAddr: 0x1B880, symSize: 0xC0 }
  - { offset: 0x4319C, size: 0x8, addend: 0x0, symName: '__ZN5alloc7raw_vec19RawVec$LT$T$C$A$GT$8grow_one17h2705ded109dd5b83E', symObjAddr: 0x15CE0, symBinAddr: 0x1B940, symSize: 0xC0 }
  - { offset: 0x432BE, size: 0x8, addend: 0x0, symName: '__ZN5alloc7raw_vec19RawVec$LT$T$C$A$GT$8grow_one17h2f8f7af278a6261aE', symObjAddr: 0x15DA0, symBinAddr: 0x1BA00, symSize: 0xC0 }
  - { offset: 0x433E0, size: 0x8, addend: 0x0, symName: '__ZN5alloc7raw_vec19RawVec$LT$T$C$A$GT$8grow_one17h4b3279aed770b5f7E', symObjAddr: 0x15E60, symBinAddr: 0x1BAC0, symSize: 0xC0 }
  - { offset: 0x43502, size: 0x8, addend: 0x0, symName: '__ZN5alloc7raw_vec19RawVec$LT$T$C$A$GT$8grow_one17h5208477230fc757dE', symObjAddr: 0x15F20, symBinAddr: 0x1BB80, symSize: 0xC0 }
  - { offset: 0x43624, size: 0x8, addend: 0x0, symName: '__ZN5alloc7raw_vec19RawVec$LT$T$C$A$GT$8grow_one17h6383acfb4ed080cfE', symObjAddr: 0x15FE0, symBinAddr: 0x1BC40, symSize: 0xC0 }
  - { offset: 0x43746, size: 0x8, addend: 0x0, symName: '__ZN5alloc7raw_vec19RawVec$LT$T$C$A$GT$8grow_one17ha8f1a271bbb3ad8fE', symObjAddr: 0x160A0, symBinAddr: 0x1BD00, symSize: 0xC0 }
  - { offset: 0x43868, size: 0x8, addend: 0x0, symName: '__ZN5alloc7raw_vec19RawVec$LT$T$C$A$GT$8grow_one17hb3458baf0330dc41E', symObjAddr: 0x16160, symBinAddr: 0x1BDC0, symSize: 0xC0 }
  - { offset: 0x4398A, size: 0x8, addend: 0x0, symName: '__ZN5alloc7raw_vec19RawVec$LT$T$C$A$GT$8grow_one17hff2f0b2af0cf2239E', symObjAddr: 0x16220, symBinAddr: 0x1BE80, symSize: 0xC0 }
  - { offset: 0x44493, size: 0x8, addend: 0x0, symName: '__ZN5alloc7raw_vec20RawVecInner$LT$A$GT$7reserve21do_reserve_and_handle17h56373860665cbd5aE', symObjAddr: 0x162E0, symBinAddr: 0x9B030, symSize: 0xE0 }
  - { offset: 0x45BFA, size: 0x8, addend: 0x0, symName: '__ZN65_$LT$alloc..vec..Vec$LT$T$C$A$GT$$u20$as$u20$core..fmt..Debug$GT$3fmt17h361930da4fbae5f3E', symObjAddr: 0x1F5F0, symBinAddr: 0x25170, symSize: 0x80 }
  - { offset: 0x45CFE, size: 0x8, addend: 0x0, symName: '__ZN65_$LT$alloc..vec..Vec$LT$T$C$A$GT$$u20$as$u20$core..fmt..Debug$GT$3fmt17hfbb2129d69ba6e6dE', symObjAddr: 0x1F670, symBinAddr: 0x251F0, symSize: 0x80 }
  - { offset: 0x46875, size: 0x8, addend: 0x0, symName: __ZN5alloc5alloc15exchange_malloc17hb7f5823b444ede17E, symObjAddr: 0x15910, symBinAddr: 0x1B5F0, symSize: 0x50 }
  - { offset: 0x4692B, size: 0x8, addend: 0x0, symName: '__ZN5alloc4sync16Arc$LT$T$C$A$GT$9drop_slow17h0ac5441607206702E', symObjAddr: 0x15500, symBinAddr: 0x1B1E0, symSize: 0x70 }
  - { offset: 0x46ADF, size: 0x8, addend: 0x0, symName: '__ZN5alloc4sync16Arc$LT$T$C$A$GT$9drop_slow17h5f5a84ce59f9136eE', symObjAddr: 0x15570, symBinAddr: 0x1B250, symSize: 0x30 }
  - { offset: 0x46BC7, size: 0x8, addend: 0x0, symName: '__ZN5alloc4sync16Arc$LT$T$C$A$GT$9drop_slow17h91d65c4dda16f789E', symObjAddr: 0x155A0, symBinAddr: 0x1B280, symSize: 0x50 }
  - { offset: 0x46D54, size: 0x8, addend: 0x0, symName: '__ZN5alloc4sync16Arc$LT$T$C$A$GT$9drop_slow17h9cf692ccffc617d9E', symObjAddr: 0x155F0, symBinAddr: 0x1B2D0, symSize: 0x60 }
  - { offset: 0x46F2E, size: 0x8, addend: 0x0, symName: '__ZN5alloc4sync16Arc$LT$T$C$A$GT$9drop_slow17haa167ea7cf2a23e1E', symObjAddr: 0x15650, symBinAddr: 0x1B330, symSize: 0xF0 }
  - { offset: 0x47294, size: 0x8, addend: 0x0, symName: '__ZN5alloc4sync16Arc$LT$T$C$A$GT$9drop_slow17hac42725127d8711dE', symObjAddr: 0x15740, symBinAddr: 0x1B420, symSize: 0x90 }
  - { offset: 0x475B2, size: 0x8, addend: 0x0, symName: '__ZN5alloc4sync16Arc$LT$T$C$A$GT$9drop_slow17hb4524724cffccf38E', symObjAddr: 0x157D0, symBinAddr: 0x1B4B0, symSize: 0xA0 }
  - { offset: 0x47903, size: 0x8, addend: 0x0, symName: '__ZN5alloc4sync16Arc$LT$T$C$A$GT$9drop_slow17hef0002b7623af285E', symObjAddr: 0x15870, symBinAddr: 0x1B550, symSize: 0xA0 }
  - { offset: 0x4818C, size: 0x8, addend: 0x0, symName: '__ZN64_$LT$alloc..ffi..c_str..NulError$u20$as$u20$core..fmt..Debug$GT$3fmt17h94dd289651835ebcE', symObjAddr: 0x1F5A0, symBinAddr: 0x25120, symSize: 0x50 }
  - { offset: 0x48917, size: 0x8, addend: 0x0, symName: '__ZN58_$LT$alloc..string..String$u20$as$u20$core..fmt..Debug$GT$3fmt17h50410dc223d49f2bE', symObjAddr: 0x100E0, symBinAddr: 0x15DC0, symSize: 0x20 }
  - { offset: 0x489DA, size: 0x8, addend: 0x0, symName: '__ZN58_$LT$alloc..string..String$u20$as$u20$core..fmt..Write$GT$10write_char17h23f6be54a417ecdcE', symObjAddr: 0x10100, symBinAddr: 0x15DE0, symSize: 0x140 }
  - { offset: 0x48B72, size: 0x8, addend: 0x0, symName: '__ZN58_$LT$alloc..string..String$u20$as$u20$core..fmt..Write$GT$9write_str17h37797420daa7dd36E', symObjAddr: 0x10240, symBinAddr: 0x15F20, symSize: 0x70 }
  - { offset: 0x48C7A, size: 0x8, addend: 0x0, symName: '__ZN60_$LT$alloc..string..String$u20$as$u20$core..fmt..Display$GT$3fmt17h1b8e0c8822f48af9E', symObjAddr: 0x1F580, symBinAddr: 0x25100, symSize: 0x20 }
  - { offset: 0x48E1D, size: 0x8, addend: 0x0, symName: '__ZN66_$LT$alloc..borrow..Cow$LT$B$GT$$u20$as$u20$core..fmt..Display$GT$3fmt17h3f4f2aca5f3b554bE', symObjAddr: 0x1F6F0, symBinAddr: 0x25270, symSize: 0x20 }
  - { offset: 0x49D49, size: 0x8, addend: 0x0, symName: '__ZN66_$LT$core..option..Option$LT$T$GT$$u20$as$u20$core..fmt..Debug$GT$3fmt17h0a8e201140431c10E', symObjAddr: 0x1F710, symBinAddr: 0x25290, symSize: 0x50 }
  - { offset: 0x49D64, size: 0x8, addend: 0x0, symName: '__ZN66_$LT$core..option..Option$LT$T$GT$$u20$as$u20$core..fmt..Debug$GT$3fmt17h3c71a544c42e6420E', symObjAddr: 0x1F760, symBinAddr: 0x252E0, symSize: 0x50 }
  - { offset: 0x49D7F, size: 0x8, addend: 0x0, symName: '__ZN66_$LT$core..option..Option$LT$T$GT$$u20$as$u20$core..fmt..Debug$GT$3fmt17h4d6ce9ab6ce6de38E', symObjAddr: 0x1F7B0, symBinAddr: 0x25330, symSize: 0x50 }
  - { offset: 0x49D9A, size: 0x8, addend: 0x0, symName: '__ZN66_$LT$core..option..Option$LT$T$GT$$u20$as$u20$core..fmt..Debug$GT$3fmt17h65a31fb4ab8b8d07E', symObjAddr: 0x1F800, symBinAddr: 0x25380, symSize: 0x60 }
  - { offset: 0x49DB5, size: 0x8, addend: 0x0, symName: '__ZN66_$LT$core..option..Option$LT$T$GT$$u20$as$u20$core..fmt..Debug$GT$3fmt17h6848faec24a498a7E', symObjAddr: 0x1F860, symBinAddr: 0x253E0, symSize: 0x60 }
  - { offset: 0x49DD0, size: 0x8, addend: 0x0, symName: '__ZN66_$LT$core..option..Option$LT$T$GT$$u20$as$u20$core..fmt..Debug$GT$3fmt17ha334d43cec8ebad1E', symObjAddr: 0x1F8C0, symBinAddr: 0x25440, symSize: 0x50 }
  - { offset: 0x49DEB, size: 0x8, addend: 0x0, symName: '__ZN66_$LT$core..option..Option$LT$T$GT$$u20$as$u20$core..fmt..Debug$GT$3fmt17hc4c961ffff397c01E', symObjAddr: 0x1F910, symBinAddr: 0x25490, symSize: 0x50 }
  - { offset: 0x49E06, size: 0x8, addend: 0x0, symName: '__ZN66_$LT$core..option..Option$LT$T$GT$$u20$as$u20$core..fmt..Debug$GT$3fmt17hcb55334fee71c622E', symObjAddr: 0x1F960, symBinAddr: 0x254E0, symSize: 0x50 }
  - { offset: 0x49E21, size: 0x8, addend: 0x0, symName: '__ZN66_$LT$core..option..Option$LT$T$GT$$u20$as$u20$core..fmt..Debug$GT$3fmt17hd7974cf8c4a22550E', symObjAddr: 0x1F9B0, symBinAddr: 0x25530, symSize: 0x50 }
  - { offset: 0x4B589, size: 0x8, addend: 0x0, symName: '__ZN4core3ptr107drop_in_place$LT$alloc..vec..Vec$LT$$LP$std..ffi..os_str..OsString$C$std..ffi..os_str..OsString$RP$$GT$$GT$17h86416ca30e080ed7E', symObjAddr: 0x1F50, symBinAddr: 0x7FF0, symSize: 0xA0 }
  - { offset: 0x4B7D7, size: 0x8, addend: 0x0, symName: '__ZN4core3ptr107drop_in_place$LT$core..pin..Pin$LT$alloc..boxed..Box$LT$std..sys..pal..unix..sync..mutex..Mutex$GT$$GT$$GT$17h59e12ac55e71a332E', symObjAddr: 0x1FF0, symBinAddr: 0x8090, symSize: 0x30 }
  - { offset: 0x4B882, size: 0x8, addend: 0x0, symName: '__ZN4core3ptr112drop_in_place$LT$$LP$std..ffi..os_str..OsString$C$core..option..Option$LT$std..ffi..os_str..OsString$GT$$RP$$GT$17h51863c7b0ab2de98E', symObjAddr: 0x2020, symBinAddr: 0x80C0, symSize: 0x50 }
  - { offset: 0x4BA09, size: 0x8, addend: 0x0, symName: '__ZN4core3ptr118drop_in_place$LT$$LT$std..backtrace..Backtrace$u20$as$u20$core..fmt..Display$GT$..fmt..$u7b$$u7b$closure$u7d$$u7d$$GT$17h367fd8e2e6a690bfE', symObjAddr: 0x2070, symBinAddr: 0x8110, symSize: 0x30 }
  - { offset: 0x4BAF1, size: 0x8, addend: 0x0, symName: '__ZN4core3ptr119drop_in_place$LT$std..io..default_write_fmt..Adapter$LT$std..io..cursor..Cursor$LT$$RF$mut$u20$$u5b$u8$u5d$$GT$$GT$$GT$17hadea953c248c8cb6E', symObjAddr: 0x20A0, symBinAddr: 0x8140, symSize: 0x20 }
  - { offset: 0x4BB22, size: 0x8, addend: 0x0, symName: '__ZN4core3ptr123drop_in_place$LT$addr2line..Context$LT$gimli..read..endian_slice..EndianSlice$LT$gimli..endianity..LittleEndian$GT$$GT$$GT$17h3429c2c489d56749E', symObjAddr: 0x20C0, symBinAddr: 0x8160, symSize: 0x60 }
  - { offset: 0x4BBE9, size: 0x8, addend: 0x0, symName: '__ZN4core3ptr124drop_in_place$LT$alloc..collections..btree..map..BTreeMap$LT$std..ffi..os_str..OsString$C$std..ffi..os_str..OsString$GT$$GT$17hf6f2301040064ca8E', symObjAddr: 0x2120, symBinAddr: 0x81C0, symSize: 0xF0 }
  - { offset: 0x4BE6B, size: 0x8, addend: 0x0, symName: '__ZN4core3ptr124drop_in_place$LT$alloc..collections..btree..map..IntoIter$LT$std..ffi..os_str..OsString$C$std..ffi..os_str..OsString$GT$$GT$17h13504c605bf87688E', symObjAddr: 0x2210, symBinAddr: 0x82B0, symSize: 0xA0 }
  - { offset: 0x4C0C0, size: 0x8, addend: 0x0, symName: '__ZN4core3ptr128drop_in_place$LT$core..result..Result$LT$$RF$std..thread..Thread$C$$LP$$RF$std..thread..Thread$C$std..thread..Thread$RP$$GT$$GT$17ha752b3a88e0310a1E', symObjAddr: 0x22B0, symBinAddr: 0x8350, symSize: 0x20 }
  - { offset: 0x4C23F, size: 0x8, addend: 0x0, symName: '__ZN4core3ptr129drop_in_place$LT$addr2line..unit..ResUnit$LT$gimli..read..endian_slice..EndianSlice$LT$gimli..endianity..LittleEndian$GT$$GT$$GT$17h749b08d404c49e9aE', symObjAddr: 0x22D0, symBinAddr: 0x8370, symSize: 0x100 }
  - { offset: 0x4C466, size: 0x8, addend: 0x0, symName: '__ZN4core3ptr129drop_in_place$LT$addr2line..unit..SupUnit$LT$gimli..read..endian_slice..EndianSlice$LT$gimli..endianity..LittleEndian$GT$$GT$$GT$17hb4d02437300bf305E', symObjAddr: 0x23D0, symBinAddr: 0x8470, symSize: 0x50 }
  - { offset: 0x4C534, size: 0x8, addend: 0x0, symName: '__ZN4core3ptr130drop_in_place$LT$addr2line..unit..ResUnits$LT$gimli..read..endian_slice..EndianSlice$LT$gimli..endianity..LittleEndian$GT$$GT$$GT$17h05a63ceb8c16a327E', symObjAddr: 0x2420, symBinAddr: 0x84C0, symSize: 0xE0 }
  - { offset: 0x4C6EE, size: 0x8, addend: 0x0, symName: '__ZN4core3ptr130drop_in_place$LT$addr2line..unit..SupUnits$LT$gimli..read..endian_slice..EndianSlice$LT$gimli..endianity..LittleEndian$GT$$GT$$GT$17h7e6076fb6685f0fdE', symObjAddr: 0x2500, symBinAddr: 0x85A0, symSize: 0xE0 }
  - { offset: 0x4C8AC, size: 0x8, addend: 0x0, symName: '__ZN4core3ptr130drop_in_place$LT$gimli..read..dwarf..Dwarf$LT$gimli..read..endian_slice..EndianSlice$LT$gimli..endianity..LittleEndian$GT$$GT$$GT$17h8038d49510ac5938E', symObjAddr: 0x25E0, symBinAddr: 0x8680, symSize: 0x60 }
  - { offset: 0x4C953, size: 0x8, addend: 0x0, symName: '__ZN4core3ptr131drop_in_place$LT$$u5b$core..option..Option$LT$core..option..Option$LT$std..backtrace_rs..symbolize..gimli..Mapping$GT$$GT$$u5d$$GT$17h985e91b8bdab9d89E', symObjAddr: 0x2640, symBinAddr: 0x86E0, symSize: 0xE0 }
  - { offset: 0x4CA05, size: 0x8, addend: 0x0, symName: '__ZN4core3ptr131drop_in_place$LT$alloc..boxed..Box$LT$dyn$u20$core..ops..function..FnOnce$LT$$LP$$RP$$GT$$u2b$Output$u20$$u3d$$u20$$LP$$RP$$GT$$GT$17hb5e5a5030eae000aE', symObjAddr: 0x2720, symBinAddr: 0x87C0, symSize: 0x70 }
  - { offset: 0x4CB08, size: 0x8, addend: 0x0, symName: '__ZN4core3ptr135drop_in_place$LT$std..sync..poison..PoisonError$LT$std..sync..poison..mutex..MutexGuard$LT$std..sync..barrier..BarrierState$GT$$GT$$GT$17hd5713bb92799b547E', symObjAddr: 0x2790, symBinAddr: 0x8830, symSize: 0x40 }
  - { offset: 0x4CC54, size: 0x8, addend: 0x0, symName: '__ZN4core3ptr137drop_in_place$LT$gimli..read..dwarf..Unit$LT$gimli..read..endian_slice..EndianSlice$LT$gimli..endianity..LittleEndian$GT$$C$usize$GT$$GT$17hcb87c4d3d0ab076bE', symObjAddr: 0x27D0, symBinAddr: 0x8870, symSize: 0x50 }
  - { offset: 0x4CD43, size: 0x8, addend: 0x0, symName: '__ZN4core3ptr138drop_in_place$LT$addr2line..function..LazyFunction$LT$gimli..read..endian_slice..EndianSlice$LT$gimli..endianity..LittleEndian$GT$$GT$$GT$17h5e16d3af469b7edfE', symObjAddr: 0x2820, symBinAddr: 0x88C0, symSize: 0x60 }
  - { offset: 0x4CD5B, size: 0x8, addend: 0x0, symName: '__ZN4core3ptr138drop_in_place$LT$addr2line..function..LazyFunction$LT$gimli..read..endian_slice..EndianSlice$LT$gimli..endianity..LittleEndian$GT$$GT$$GT$17h5e16d3af469b7edfE', symObjAddr: 0x2820, symBinAddr: 0x88C0, symSize: 0x60 }
  - { offset: 0x4CD71, size: 0x8, addend: 0x0, symName: '__ZN4core3ptr138drop_in_place$LT$addr2line..function..LazyFunction$LT$gimli..read..endian_slice..EndianSlice$LT$gimli..endianity..LittleEndian$GT$$GT$$GT$17h5e16d3af469b7edfE', symObjAddr: 0x2820, symBinAddr: 0x88C0, symSize: 0x60 }
  - { offset: 0x4CD87, size: 0x8, addend: 0x0, symName: '__ZN4core3ptr138drop_in_place$LT$addr2line..function..LazyFunction$LT$gimli..read..endian_slice..EndianSlice$LT$gimli..endianity..LittleEndian$GT$$GT$$GT$17h5e16d3af469b7edfE', symObjAddr: 0x2820, symBinAddr: 0x88C0, symSize: 0x60 }
  - { offset: 0x4CED7, size: 0x8, addend: 0x0, symName: '__ZN4core3ptr144drop_in_place$LT$alloc..vec..Vec$LT$core..option..Option$LT$core..option..Option$LT$std..backtrace_rs..symbolize..gimli..Mapping$GT$$GT$$GT$$GT$17hd08e670224945ed1E', symObjAddr: 0x2880, symBinAddr: 0x8920, symSize: 0x80 }
  - { offset: 0x4D06A, size: 0x8, addend: 0x0, symName: '__ZN4core3ptr152drop_in_place$LT$alloc..collections..btree..map..BTreeMap$LT$std..ffi..os_str..OsString$C$core..option..Option$LT$std..ffi..os_str..OsString$GT$$GT$$GT$17he1fc49adfea82e8cE', symObjAddr: 0x2900, symBinAddr: 0x89A0, symSize: 0xF0 }
  - { offset: 0x4D314, size: 0x8, addend: 0x0, symName: '__ZN4core3ptr152drop_in_place$LT$alloc..vec..Vec$LT$addr2line..unit..ResUnit$LT$gimli..read..endian_slice..EndianSlice$LT$gimli..endianity..LittleEndian$GT$$GT$$GT$$GT$17h57a4ffe4bda98501E', symObjAddr: 0x29F0, symBinAddr: 0x8A90, symSize: 0xD0 }
  - { offset: 0x4D492, size: 0x8, addend: 0x0, symName: '__ZN4core3ptr152drop_in_place$LT$alloc..vec..Vec$LT$addr2line..unit..SupUnit$LT$gimli..read..endian_slice..EndianSlice$LT$gimli..endianity..LittleEndian$GT$$GT$$GT$$GT$17h8f8a1047b1335798E', symObjAddr: 0x2AC0, symBinAddr: 0x8B60, symSize: 0x100 }
  - { offset: 0x4D6AE, size: 0x8, addend: 0x0, symName: '__ZN4core3ptr156drop_in_place$LT$alloc..boxed..Box$LT$$u5b$core..option..Option$LT$core..option..Option$LT$std..backtrace_rs..symbolize..gimli..Mapping$GT$$GT$$u5d$$GT$$GT$17ha621c7e8709ddbc7E', symObjAddr: 0x2BC0, symBinAddr: 0x8C60, symSize: 0xF0 }
  - { offset: 0x4D7E4, size: 0x8, addend: 0x0, symName: '__ZN4core3ptr159drop_in_place$LT$alloc..sync..ArcInner$LT$gimli..read..dwarf..Dwarf$LT$gimli..read..endian_slice..EndianSlice$LT$gimli..endianity..LittleEndian$GT$$GT$$GT$$GT$17hba1aa1dbe93fb943E', symObjAddr: 0x2CB0, symBinAddr: 0x8D50, symSize: 0x60 }
  - { offset: 0x4D89B, size: 0x8, addend: 0x0, symName: '__ZN4core3ptr161drop_in_place$LT$alloc..vec..Vec$LT$addr2line..function..LazyFunction$LT$gimli..read..endian_slice..EndianSlice$LT$gimli..endianity..LittleEndian$GT$$GT$$GT$$GT$17h5edd1f8e1cd28eebE', symObjAddr: 0x2D10, symBinAddr: 0x8DB0, symSize: 0xC0 }
  - { offset: 0x4DAF3, size: 0x8, addend: 0x0, symName: '__ZN4core3ptr164drop_in_place$LT$$u5b$alloc..boxed..Box$LT$dyn$u20$core..ops..function..FnOnce$LT$$LP$$RP$$GT$$u2b$Output$u20$$u3d$$u20$$LP$$RP$$u2b$core..marker..Send$GT$$u5d$$GT$17h4f1cddd77bfc7acfE', symObjAddr: 0x2DD0, symBinAddr: 0x8E70, symSize: 0xB0 }
  - { offset: 0x4DC0C, size: 0x8, addend: 0x0, symName: '__ZN4core3ptr172drop_in_place$LT$core..result..Result$LT$addr2line..Context$LT$gimli..read..endian_slice..EndianSlice$LT$gimli..endianity..LittleEndian$GT$$GT$$C$gimli..read..Error$GT$$GT$17h4aa6a061c919d727E', symObjAddr: 0x2E80, symBinAddr: 0x8F20, symSize: 0x70 }
  - { offset: 0x4DC92, size: 0x8, addend: 0x0, symName: '__ZN4core3ptr173drop_in_place$LT$alloc..boxed..Box$LT$$u5b$addr2line..function..LazyFunction$LT$gimli..read..endian_slice..EndianSlice$LT$gimli..endianity..LittleEndian$GT$$GT$$u5d$$GT$$GT$17h2ed91f056ecb837aE', symObjAddr: 0x2EF0, symBinAddr: 0x8F90, symSize: 0xA0 }
  - { offset: 0x4DCAA, size: 0x8, addend: 0x0, symName: '__ZN4core3ptr173drop_in_place$LT$alloc..boxed..Box$LT$$u5b$addr2line..function..LazyFunction$LT$gimli..read..endian_slice..EndianSlice$LT$gimli..endianity..LittleEndian$GT$$GT$$u5d$$GT$$GT$17h2ed91f056ecb837aE', symObjAddr: 0x2EF0, symBinAddr: 0x8F90, symSize: 0xA0 }
  - { offset: 0x4DEA4, size: 0x8, addend: 0x0, symName: '__ZN4core3ptr177drop_in_place$LT$alloc..vec..Vec$LT$alloc..boxed..Box$LT$dyn$u20$core..ops..function..FnOnce$LT$$LP$$RP$$GT$$u2b$Output$u20$$u3d$$u20$$LP$$RP$$u2b$core..marker..Send$GT$$GT$$GT$17h407a84930d7c4e9bE', symObjAddr: 0x2F90, symBinAddr: 0x9030, symSize: 0x70 }
  - { offset: 0x4E084, size: 0x8, addend: 0x0, symName: '__ZN4core3ptr181drop_in_place$LT$core..option..Option$LT$gimli..read..line..IncompleteLineProgram$LT$gimli..read..endian_slice..EndianSlice$LT$gimli..endianity..LittleEndian$GT$$C$usize$GT$$GT$$GT$17h6db1d5097d3eee1eE', symObjAddr: 0x3000, symBinAddr: 0x90A0, symSize: 0xA0 }
  - { offset: 0x4E361, size: 0x8, addend: 0x0, symName: '__ZN4core3ptr181drop_in_place$LT$core..result..Result$LT$addr2line..frame..FrameIter$LT$gimli..read..endian_slice..EndianSlice$LT$gimli..endianity..LittleEndian$GT$$GT$$C$gimli..read..Error$GT$$GT$17h587437db5f6ada7fE', symObjAddr: 0x30A0, symBinAddr: 0x9140, symSize: 0x40 }
  - { offset: 0x4E4AE, size: 0x8, addend: 0x0, symName: '__ZN4core3ptr184drop_in_place$LT$core..result..Result$LT$addr2line..function..Functions$LT$gimli..read..endian_slice..EndianSlice$LT$gimli..endianity..LittleEndian$GT$$GT$$C$gimli..read..Error$GT$$GT$17h62ac5c1ed068e156E', symObjAddr: 0x30E0, symBinAddr: 0x9180, symSize: 0xE0 }
  - { offset: 0x4F0B6, size: 0x8, addend: 0x0, symName: '__ZN4core3ptr193drop_in_place$LT$alloc..vec..into_iter..IntoIter$LT$alloc..boxed..Box$LT$dyn$u20$core..ops..function..FnOnce$LT$$LP$$RP$$GT$$u2b$Output$u20$$u3d$$u20$$LP$$RP$$u2b$core..marker..Send$GT$$GT$$GT$17h686d457827153c60E', symObjAddr: 0x31C0, symBinAddr: 0x9260, symSize: 0x70 }
  - { offset: 0x4F2EC, size: 0x8, addend: 0x0, symName: '__ZN4core3ptr199drop_in_place$LT$core..result..Result$LT$core..option..Option$LT$alloc..sync..Arc$LT$std..sync..poison..mutex..Mutex$LT$alloc..vec..Vec$LT$u8$GT$$GT$$GT$$GT$$C$std..thread..local..AccessError$GT$$GT$17h7729d8b84b9ca3e2E', symObjAddr: 0x3230, symBinAddr: 0x92D0, symSize: 0x30 }
  - { offset: 0x4F38C, size: 0x8, addend: 0x0, symName: '__ZN4core3ptr231drop_in_place$LT$core..result..Result$LT$core..option..Option$LT$alloc..boxed..Box$LT$addr2line..unit..DwoUnit$LT$gimli..read..endian_slice..EndianSlice$LT$gimli..endianity..LittleEndian$GT$$GT$$GT$$GT$$C$gimli..read..Error$GT$$GT$17h38b3d8be06cf6654E', symObjAddr: 0x3260, symBinAddr: 0x9300, symSize: 0xB0 }
  - { offset: 0x4F57A, size: 0x8, addend: 0x0, symName: '__ZN4core3ptr238drop_in_place$LT$alloc..boxed..convert..$LT$impl$u20$core..convert..From$LT$alloc..string..String$GT$$u20$for$u20$alloc..boxed..Box$LT$dyn$u20$core..error..Error$u2b$core..marker..Send$u2b$core..marker..Sync$GT$$GT$..from..StringError$GT$17h66a6a242aca081d6E', symObjAddr: 0x3310, symBinAddr: 0x93B0, symSize: 0x20 }
  - { offset: 0x4F62D, size: 0x8, addend: 0x0, symName: '__ZN4core3ptr275drop_in_place$LT$gimli..read..line..LineRows$LT$gimli..read..endian_slice..EndianSlice$LT$gimli..endianity..LittleEndian$GT$$C$gimli..read..line..IncompleteLineProgram$LT$gimli..read..endian_slice..EndianSlice$LT$gimli..endianity..LittleEndian$GT$$C$usize$GT$$C$usize$GT$$GT$17hdedaf0a88f5dd8cfE', symObjAddr: 0x3330, symBinAddr: 0x93D0, symSize: 0xA0 }
  - { offset: 0x4F8C4, size: 0x8, addend: 0x0, symName: '__ZN4core3ptr280drop_in_place$LT$$LT$alloc..collections..btree..map..IntoIter$LT$K$C$V$C$A$GT$$u20$as$u20$core..ops..drop..Drop$GT$..drop..DropGuard$LT$u64$C$core..result..Result$LT$alloc..sync..Arc$LT$gimli..read..abbrev..Abbreviations$GT$$C$gimli..read..Error$GT$$C$alloc..alloc..Global$GT$$GT$17h4d5be3d2cbfebf65E', symObjAddr: 0x33D0, symBinAddr: 0x9470, symSize: 0x80 }
  - { offset: 0x4FA32, size: 0x8, addend: 0x0, symName: '__ZN4core3ptr37drop_in_place$LT$std..env..VarsOs$GT$17hc1f5348ac624daf7E', symObjAddr: 0x3450, symBinAddr: 0x94F0, symSize: 0xB0 }
  - { offset: 0x4FD1D, size: 0x8, addend: 0x0, symName: '__ZN4core3ptr39drop_in_place$LT$std..path..PathBuf$GT$17h77805eb8c65cc6e2E', symObjAddr: 0x3500, symBinAddr: 0x95A0, symSize: 0x20 }
  - { offset: 0x4FE55, size: 0x8, addend: 0x0, symName: '__ZN4core3ptr40drop_in_place$LT$std..process..Child$GT$17h952d57caf7991dfeE', symObjAddr: 0x3520, symBinAddr: 0x95C0, symSize: 0x40 }
  - { offset: 0x4FFDD, size: 0x8, addend: 0x0, symName: '__ZN4core3ptr40drop_in_place$LT$std..thread..Thread$GT$17h91a4a56355c915faE', symObjAddr: 0x3560, symBinAddr: 0x9600, symSize: 0x20 }
  - { offset: 0x5009F, size: 0x8, addend: 0x0, symName: '__ZN4core3ptr41drop_in_place$LT$std..panicking..Hook$GT$17h1efe515af5469a28E', symObjAddr: 0x3580, symBinAddr: 0x9620, symSize: 0x70 }
  - { offset: 0x501A3, size: 0x8, addend: 0x0, symName: '__ZN4core3ptr42drop_in_place$LT$alloc..string..String$GT$17h802f7d4bb04eeac0E', symObjAddr: 0x35F0, symBinAddr: 0x9690, symSize: 0x20 }
  - { offset: 0x50285, size: 0x8, addend: 0x0, symName: '__ZN4core3ptr42drop_in_place$LT$std..io..error..Error$GT$17h39d372c40b3c060fE', symObjAddr: 0x3610, symBinAddr: 0x96B0, symSize: 0xA0 }
  - { offset: 0x50503, size: 0x8, addend: 0x0, symName: '__ZN4core3ptr44drop_in_place$LT$object..read..ObjectMap$GT$17h8c69d40948c3ce55E', symObjAddr: 0x36B0, symBinAddr: 0x9750, symSize: 0x50 }
  - { offset: 0x5066D, size: 0x8, addend: 0x0, symName: '__ZN4core3ptr44drop_in_place$LT$std..backtrace..Capture$GT$17h885ca21c1d6394baE', symObjAddr: 0x3700, symBinAddr: 0x97A0, symSize: 0x60 }
  - { offset: 0x5076C, size: 0x8, addend: 0x0, symName: '__ZN4core3ptr46drop_in_place$LT$alloc..vec..Vec$LT$u8$GT$$GT$17ha33a58bc988715bbE', symObjAddr: 0x3760, symBinAddr: 0x9800, symSize: 0x20 }
  - { offset: 0x507FF, size: 0x8, addend: 0x0, symName: '__ZN4core3ptr46drop_in_place$LT$std..io..stdio..StdinLock$GT$17h4c65edec39825cfaE', symObjAddr: 0x3780, symBinAddr: 0x9820, symSize: 0x50 }
  - { offset: 0x50817, size: 0x8, addend: 0x0, symName: '__ZN4core3ptr46drop_in_place$LT$std..io..stdio..StdinLock$GT$17h4c65edec39825cfaE', symObjAddr: 0x3780, symBinAddr: 0x9820, symSize: 0x50 }
  - { offset: 0x5082D, size: 0x8, addend: 0x0, symName: '__ZN4core3ptr46drop_in_place$LT$std..io..stdio..StdinLock$GT$17h4c65edec39825cfaE', symObjAddr: 0x3780, symBinAddr: 0x9820, symSize: 0x50 }
  - { offset: 0x5092A, size: 0x8, addend: 0x0, symName: '__ZN4core3ptr47drop_in_place$LT$alloc..ffi..c_str..CString$GT$17h39f440f8519a6fd6E', symObjAddr: 0x37D0, symBinAddr: 0x9870, symSize: 0x30 }
  - { offset: 0x509B0, size: 0x8, addend: 0x0, symName: '__ZN4core3ptr47drop_in_place$LT$std..ffi..os_str..OsString$GT$17h8984a34fa1ed6eb5E', symObjAddr: 0x3800, symBinAddr: 0x98A0, symSize: 0x20 }
  - { offset: 0x50A53, size: 0x8, addend: 0x0, symName: '__ZN4core3ptr47drop_in_place$LT$std..sys..env..common..Env$GT$17hd0a8d17598d9345cE', symObjAddr: 0x3820, symBinAddr: 0x98C0, symSize: 0xB0 }
  - { offset: 0x50D27, size: 0x8, addend: 0x0, symName: '__ZN4core3ptr48drop_in_place$LT$alloc..ffi..c_str..NulError$GT$17h8fb121beeaa09d90E', symObjAddr: 0x38D0, symBinAddr: 0x9970, symSize: 0x20 }
  - { offset: 0x50DFB, size: 0x8, addend: 0x0, symName: '__ZN4core3ptr49drop_in_place$LT$std..sys..args..common..Args$GT$17h5f31260f29a7c7ddE', symObjAddr: 0x38F0, symBinAddr: 0x9990, symSize: 0xA0 }
  - { offset: 0x51022, size: 0x8, addend: 0x0, symName: '__ZN4core3ptr49drop_in_place$LT$std..sys..fd..unix..FileDesc$GT$17h4f0120055aafe252E', symObjAddr: 0x3990, symBinAddr: 0x9A30, symSize: 0x10 }
  - { offset: 0x510E2, size: 0x8, addend: 0x0, symName: '__ZN4core3ptr51drop_in_place$LT$std..backtrace..BacktraceFrame$GT$17h4d19737e319e2067E', symObjAddr: 0x39A0, symBinAddr: 0x9A40, symSize: 0xE0 }
  - { offset: 0x513BC, size: 0x8, addend: 0x0, symName: '__ZN4core3ptr52drop_in_place$LT$std..backtrace..BacktraceSymbol$GT$17h1589f5686ac8bdd1E', symObjAddr: 0x3A80, symBinAddr: 0x9B20, symSize: 0x80 }
  - { offset: 0x5163E, size: 0x8, addend: 0x0, symName: '__ZN4core3ptr55drop_in_place$LT$gimli..read..abbrev..Abbreviations$GT$17h450623247a89ace8E', symObjAddr: 0x3B00, symBinAddr: 0x9BA0, symSize: 0x130 }
  - { offset: 0x519AC, size: 0x8, addend: 0x0, symName: '__ZN4core3ptr55drop_in_place$LT$std..sys..process..env..CommandEnv$GT$17h33f8bd93c1c12aadE', symObjAddr: 0x3C30, symBinAddr: 0x9CD0, symSize: 0x10 }
  - { offset: 0x519E3, size: 0x8, addend: 0x0, symName: '__ZN4core3ptr55drop_in_place$LT$std..thread..spawnhook..SpawnHooks$GT$17h4b118cc1abf3fc22E', symObjAddr: 0x3C40, symBinAddr: 0x9CE0, symSize: 0x60 }
  - { offset: 0x51B06, size: 0x8, addend: 0x0, symName: '__ZN4core3ptr60drop_in_place$LT$gimli..read..abbrev..AbbreviationsCache$GT$17hfc11d93e7ca58d2fE', symObjAddr: 0x3CA0, symBinAddr: 0x9D40, symSize: 0xE0 }
  - { offset: 0x51C97, size: 0x8, addend: 0x0, symName: '__ZN4core3ptr64drop_in_place$LT$std..sys..pal..unix..sync..mutex..AttrGuard$GT$17h844458c204f5805bE', symObjAddr: 0x3D80, symBinAddr: 0x9E20, symSize: 0x40 }
  - { offset: 0x51CC8, size: 0x8, addend: 0x0, symName: '__ZN4core3ptr64drop_in_place$LT$std..sys..process..unix..common..ChildPipes$GT$17h494b52871e049266E', symObjAddr: 0x3DC0, symBinAddr: 0x9E60, symSize: 0x50 }
  - { offset: 0x51DE4, size: 0x8, addend: 0x0, symName: '__ZN4core3ptr64drop_in_place$LT$std..sys..process..unix..common..StdioPipes$GT$17h6132ddeba14c7844E', symObjAddr: 0x3E10, symBinAddr: 0x9EB0, symSize: 0x40 }
  - { offset: 0x51F91, size: 0x8, addend: 0x0, symName: '__ZN4core3ptr65drop_in_place$LT$std..backtrace_rs..symbolize..gimli..Context$GT$17hb1375cab4e007698E', symObjAddr: 0x3EE0, symBinAddr: 0x9EF0, symSize: 0x100 }
  - { offset: 0x52232, size: 0x8, addend: 0x0, symName: '__ZN4core3ptr66drop_in_place$LT$std..backtrace_rs..backtrace..libunwind..Bomb$GT$17h4c4d0063a1f7880aE', symObjAddr: 0x3FE0, symBinAddr: 0x9FF0, symSize: 0x50 }
  - { offset: 0x522C6, size: 0x8, addend: 0x0, symName: '__ZN4core3ptr66drop_in_place$LT$std..sys..process..unix..common..CStringArray$GT$17h67aace63572cf4a8E', symObjAddr: 0x4030, symBinAddr: 0xA040, symSize: 0xA0 }
  - { offset: 0x524BD, size: 0x8, addend: 0x0, symName: '__ZN4core3ptr70drop_in_place$LT$alloc..vec..Vec$LT$alloc..ffi..c_str..CString$GT$$GT$17h7c52f1266bb0c3a4E', symObjAddr: 0x40D0, symBinAddr: 0xA0E0, symSize: 0x80 }
  - { offset: 0x5267F, size: 0x8, addend: 0x0, symName: '__ZN4core3ptr70drop_in_place$LT$std..backtrace_rs..symbolize..gimli..stash..Stash$GT$17h5608202159eee38fE', symObjAddr: 0x41E0, symBinAddr: 0xA160, symSize: 0xE0 }
  - { offset: 0x52943, size: 0x8, addend: 0x0, symName: '__ZN4core3ptr71drop_in_place$LT$std..backtrace_rs..symbolize..gimli..macho..Object$GT$17hefeb684a5e62b53aE', symObjAddr: 0x42C0, symBinAddr: 0xA240, symSize: 0xD0 }
  - { offset: 0x52C3C, size: 0x8, addend: 0x0, symName: '__ZN4core3ptr71drop_in_place$LT$std..panicking..rust_panic_without_hook..RewrapBox$GT$17h88a6614b23d1a676E', symObjAddr: 0x4390, symBinAddr: 0xA310, symSize: 0x70 }
  - { offset: 0x52D40, size: 0x8, addend: 0x0, symName: '__ZN4core3ptr72drop_in_place$LT$core..option..Option$LT$object..read..ObjectMap$GT$$GT$17hf9ff5e393938a699E', symObjAddr: 0x4400, symBinAddr: 0xA380, symSize: 0x60 }
  - { offset: 0x52ECF, size: 0x8, addend: 0x0, symName: '__ZN4core3ptr73drop_in_place$LT$alloc..vec..Vec$LT$addr2line..line..LineSequence$GT$$GT$17h7559c01c840efda4E', symObjAddr: 0x4460, symBinAddr: 0xA3E0, symSize: 0x90 }
  - { offset: 0x53037, size: 0x8, addend: 0x0, symName: '__ZN4core3ptr73drop_in_place$LT$core..option..Option$LT$std..process..ChildStdin$GT$$GT$17h07b301321b56fa8fE', symObjAddr: 0x44F0, symBinAddr: 0xA470, symSize: 0x20 }
  - { offset: 0x530BE, size: 0x8, addend: 0x0, symName: '__ZN4core3ptr75drop_in_place$LT$core..option..Option$LT$alloc..ffi..c_str..CString$GT$$GT$17hea77ebd4b353777cE', symObjAddr: 0x4510, symBinAddr: 0xA490, symSize: 0x30 }
  - { offset: 0x5315B, size: 0x8, addend: 0x0, symName: '__ZN4core3ptr77drop_in_place$LT$alloc..boxed..Box$LT$$u5b$alloc..string..String$u5d$$GT$$GT$17hec704b811dd71e97E', symObjAddr: 0x4540, symBinAddr: 0xA4C0, symSize: 0x60 }
  - { offset: 0x53173, size: 0x8, addend: 0x0, symName: '__ZN4core3ptr77drop_in_place$LT$alloc..boxed..Box$LT$$u5b$alloc..string..String$u5d$$GT$$GT$17hec704b811dd71e97E', symObjAddr: 0x4540, symBinAddr: 0xA4C0, symSize: 0x60 }
  - { offset: 0x5328B, size: 0x8, addend: 0x0, symName: '__ZN4core3ptr77drop_in_place$LT$std..panicking..begin_panic_handler..FormatStringPayload$GT$17h40386d97a1109739E', symObjAddr: 0x45A0, symBinAddr: 0xA520, symSize: 0x30 }
  - { offset: 0x5334F, size: 0x8, addend: 0x0, symName: '__ZN4core3ptr78drop_in_place$LT$core..result..Result$LT$usize$C$std..io..error..Error$GT$$GT$17hb41e9114e41b7f50E', symObjAddr: 0x45D0, symBinAddr: 0xA550, symSize: 0x20 }
  - { offset: 0x53363, size: 0x8, addend: 0x0, symName: '__ZN4core3ptr79drop_in_place$LT$std..sync..poison..rwlock..RwLockReadGuard$LT$$LP$$RP$$GT$$GT$17h19337c0d4b3c587eE', symObjAddr: 0x45F0, symBinAddr: 0xA570, symSize: 0x50 }
  - { offset: 0x53405, size: 0x8, addend: 0x0, symName: '__ZN4core3ptr81drop_in_place$LT$core..result..Result$LT$$LP$$RP$$C$std..io..error..Error$GT$$GT$17h65a098146323680dE', symObjAddr: 0x4640, symBinAddr: 0xA5C0, symSize: 0x20 }
  - { offset: 0x53435, size: 0x8, addend: 0x0, symName: '__ZN4core3ptr82drop_in_place$LT$alloc..sync..ArcInner$LT$std..sys..fs..unix..InnerReadDir$GT$$GT$17h682a366dafcb6f54E', symObjAddr: 0x4660, symBinAddr: 0xA5E0, symSize: 0x60 }
  - { offset: 0x535EE, size: 0x8, addend: 0x0, symName: '__ZN4core3ptr84drop_in_place$LT$$LP$std..ffi..os_str..OsString$C$std..ffi..os_str..OsString$RP$$GT$17hfda1acdc925ec9d5E', symObjAddr: 0x46C0, symBinAddr: 0xA640, symSize: 0x50 }
  - { offset: 0x5375B, size: 0x8, addend: 0x0, symName: '__ZN4core3ptr87drop_in_place$LT$core..option..Option$LT$alloc..boxed..Box$LT$$u5b$u32$u5d$$GT$$GT$$GT$17hf79fd88c4a28ef1bE', symObjAddr: 0x4710, symBinAddr: 0xA690, symSize: 0x30 }
  - { offset: 0x53805, size: 0x8, addend: 0x0, symName: '__ZN4core3ptr87drop_in_place$LT$core..option..Option$LT$std..sys..process..unix..common..Stdio$GT$$GT$17hda35cd3622978f8aE', symObjAddr: 0x4740, symBinAddr: 0xA6C0, symSize: 0x20 }
  - { offset: 0x53891, size: 0x8, addend: 0x0, symName: '__ZN4core3ptr90drop_in_place$LT$std..io..buffered..bufwriter..BufWriter$LT$W$GT$..flush_buf..BufGuard$GT$17h396f458958f88acdE', symObjAddr: 0x4760, symBinAddr: 0xA6E0, symSize: 0x60 }
  - { offset: 0x53A0D, size: 0x8, addend: 0x0, symName: '__ZN4core3ptr91drop_in_place$LT$core..result..Result$LT$alloc..string..String$C$std..env..VarError$GT$$GT$17h91e91cdb047a1d2fE', symObjAddr: 0x47C0, symBinAddr: 0xA740, symSize: 0x30 }
  - { offset: 0x53AC1, size: 0x8, addend: 0x0, symName: '__ZN4core3ptr91drop_in_place$LT$core..result..Result$LT$std..path..PathBuf$C$std..io..error..Error$GT$$GT$17hab8ab66ea9997bb5E', symObjAddr: 0x47F0, symBinAddr: 0xA770, symSize: 0x30 }
  - { offset: 0x53BBC, size: 0x8, addend: 0x0, symName: '__ZN4core3ptr92drop_in_place$LT$core..result..Result$LT$addr2line..line..Lines$C$gimli..read..Error$GT$$GT$17h6c1c1201467a37c7E', symObjAddr: 0x4820, symBinAddr: 0xA7A0, symSize: 0xE0 }
  - { offset: 0x53E1F, size: 0x8, addend: 0x0, symName: '__ZN4core3ptr93drop_in_place$LT$core..option..Option$LT$std..backtrace_rs..symbolize..gimli..Mapping$GT$$GT$17h5b67031eefc25822E', symObjAddr: 0x4900, symBinAddr: 0xA880, symSize: 0x70 }
  - { offset: 0x53EB3, size: 0x8, addend: 0x0, symName: '__ZN4core3ptr94drop_in_place$LT$core..option..Option$LT$std..sys..process..unix..common..CStringArray$GT$$GT$17h25795b8a226ea413E', symObjAddr: 0x4970, symBinAddr: 0xA8F0, symSize: 0xB0 }
  - { offset: 0x540DD, size: 0x8, addend: 0x0, symName: '__ZN4core3ptr95drop_in_place$LT$std..io..buffered..linewriter..LineWriter$LT$std..io..stdio..StdoutRaw$GT$$GT$17h16d6bd311ee77114E', symObjAddr: 0x4A20, symBinAddr: 0xA9A0, symSize: 0x100 }
  - { offset: 0x57A4A, size: 0x8, addend: 0x0, symName: __ZN4core5slice4sort6shared5pivot11median3_rec17h0aa5cb93b64289f0E, symObjAddr: 0x4EB0, symBinAddr: 0xAC20, symSize: 0xC0 }
  - { offset: 0x57B5C, size: 0x8, addend: 0x0, symName: __ZN4core5slice4sort6shared5pivot11median3_rec17h1283f55797f962bcE, symObjAddr: 0x4F70, symBinAddr: 0xACE0, symSize: 0x140 }
  - { offset: 0x57DAA, size: 0x8, addend: 0x0, symName: __ZN4core5slice4sort6shared5pivot11median3_rec17h1fed67cd65a2e53fE, symObjAddr: 0x50B0, symBinAddr: 0xAE20, symSize: 0xC0 }
  - { offset: 0x57EBE, size: 0x8, addend: 0x0, symName: __ZN4core5slice4sort6shared5pivot11median3_rec17h25e7a7f1a80693deE, symObjAddr: 0x5170, symBinAddr: 0xAEE0, symSize: 0x110 }
  - { offset: 0x57FDB, size: 0x8, addend: 0x0, symName: __ZN4core5slice4sort6shared5pivot11median3_rec17h64d51ed4d672d4b4E, symObjAddr: 0x5280, symBinAddr: 0xAFF0, symSize: 0xC0 }
  - { offset: 0x580ED, size: 0x8, addend: 0x0, symName: __ZN4core5slice4sort6shared5pivot11median3_rec17h95ff05005d3a598bE, symObjAddr: 0x5340, symBinAddr: 0xB0B0, symSize: 0xB0 }
  - { offset: 0x5822D, size: 0x8, addend: 0x0, symName: __ZN4core5slice4sort6shared5pivot11median3_rec17ha06e1970990c85ffE, symObjAddr: 0x53F0, symBinAddr: 0xB160, symSize: 0xC0 }
  - { offset: 0x5833F, size: 0x8, addend: 0x0, symName: __ZN4core5slice4sort6shared5pivot11median3_rec17hc4b024c7f161b20fE, symObjAddr: 0x54B0, symBinAddr: 0xB220, symSize: 0xC0 }
  - { offset: 0x584B3, size: 0x8, addend: 0x0, symName: __ZN4core5slice4sort6shared9smallsort12sort4_stable17h88a2c901f401ec57E, symObjAddr: 0x5570, symBinAddr: 0xB2E0, symSize: 0x1F0 }
  - { offset: 0x588B6, size: 0x8, addend: 0x0, symName: __ZN4core5slice4sort6shared9smallsort12sort4_stable17hb1f92b78c2097b1aE, symObjAddr: 0x5760, symBinAddr: 0xB4D0, symSize: 0x1B0 }
  - { offset: 0x58AD6, size: 0x8, addend: 0x0, symName: __ZN4core5slice4sort6shared9smallsort12sort8_stable17h5b4ec9f0acacfd0cE, symObjAddr: 0x5910, symBinAddr: 0xB680, symSize: 0x3E0 }
  - { offset: 0x5924F, size: 0x8, addend: 0x0, symName: __ZN4core5slice4sort6shared9smallsort18small_sort_general17h6ee5db7ac7cf4bd0E, symObjAddr: 0x5CF0, symBinAddr: 0xBA60, symSize: 0x630 }
  - { offset: 0x59AC6, size: 0x8, addend: 0x0, symName: __ZN4core5slice4sort6shared9smallsort18small_sort_general17h924859a5b470aedcE, symObjAddr: 0x6320, symBinAddr: 0xC090, symSize: 0x530 }
  - { offset: 0x59FFE, size: 0x8, addend: 0x0, symName: __ZN4core5slice4sort6shared9smallsort25insertion_sort_shift_left17h85746d6d13c1b019E, symObjAddr: 0x6850, symBinAddr: 0xC5C0, symSize: 0xF0 }
  - { offset: 0x5A137, size: 0x8, addend: 0x0, symName: __ZN4core5slice4sort6shared9smallsort25insertion_sort_shift_left17hb22f951ccc42a33fE, symObjAddr: 0x6940, symBinAddr: 0xC6B0, symSize: 0xC0 }
  - { offset: 0x5A264, size: 0x8, addend: 0x0, symName: __ZN4core5slice4sort6shared9smallsort25insertion_sort_shift_left17hbf58920bb6553100E, symObjAddr: 0x6A00, symBinAddr: 0xC770, symSize: 0x120 }
  - { offset: 0x5A43D, size: 0x8, addend: 0x0, symName: __ZN4core5slice4sort6shared9smallsort25insertion_sort_shift_left17he65fd7ae41f19bc7E, symObjAddr: 0x6B20, symBinAddr: 0xC890, symSize: 0xF0 }
  - { offset: 0x5A82B, size: 0x8, addend: 0x0, symName: __ZN4core5slice4sort6stable14driftsort_main17h21f2e56425456bc7E, symObjAddr: 0x6C10, symBinAddr: 0xC980, symSize: 0x150 }
  - { offset: 0x5AAEE, size: 0x8, addend: 0x0, symName: __ZN4core5slice4sort6stable14driftsort_main17h254e54514adda1d1E, symObjAddr: 0x6D60, symBinAddr: 0xCAD0, symSize: 0x160 }
  - { offset: 0x5AE33, size: 0x8, addend: 0x0, symName: __ZN4core5slice4sort6stable14driftsort_main17h3734d0dad9959a33E, symObjAddr: 0x6EC0, symBinAddr: 0xCC30, symSize: 0x150 }
  - { offset: 0x5B0F6, size: 0x8, addend: 0x0, symName: __ZN4core5slice4sort6stable14driftsort_main17h7c967796fe03592dE, symObjAddr: 0x7010, symBinAddr: 0xCD80, symSize: 0x150 }
  - { offset: 0x5B3B9, size: 0x8, addend: 0x0, symName: __ZN4core5slice4sort6stable14driftsort_main17hee93a467d12b1fb9E, symObjAddr: 0x7160, symBinAddr: 0xCED0, symSize: 0x170 }
  - { offset: 0x5B5F4, size: 0x8, addend: 0x0, symName: __ZN4core5slice4sort6stable14driftsort_main17hf44c2912efdc8deeE, symObjAddr: 0x72D0, symBinAddr: 0xD040, symSize: 0x160 }
  - { offset: 0x5BB2C, size: 0x8, addend: 0x0, symName: __ZN4core5slice4sort6stable5drift4sort17h6ed63239f5001bbaE, symObjAddr: 0x7430, symBinAddr: 0xD1A0, symSize: 0x690 }
  - { offset: 0x5C2E2, size: 0x8, addend: 0x0, symName: __ZN4core5slice4sort6stable5drift4sort17h7fa005c941855b54E, symObjAddr: 0x7AC0, symBinAddr: 0xD830, symSize: 0x6F0 }
  - { offset: 0x5CA70, size: 0x8, addend: 0x0, symName: __ZN4core5slice4sort6stable5drift4sort17h9d97d8f2c574818aE, symObjAddr: 0x81B0, symBinAddr: 0xDF20, symSize: 0x6F0 }
  - { offset: 0x5D22C, size: 0x8, addend: 0x0, symName: __ZN4core5slice4sort6stable5drift4sort17hb50461a9835daeb7E, symObjAddr: 0x88A0, symBinAddr: 0xE610, symSize: 0x6D0 }
  - { offset: 0x5D9D2, size: 0x8, addend: 0x0, symName: __ZN4core5slice4sort6stable5drift4sort17hbefe34d70e2e12bfE, symObjAddr: 0x8F70, symBinAddr: 0xECE0, symSize: 0x690 }
  - { offset: 0x5E188, size: 0x8, addend: 0x0, symName: __ZN4core5slice4sort6stable5drift4sort17hc96e0001728c91d3E, symObjAddr: 0x9600, symBinAddr: 0xF370, symSize: 0x700 }
  - { offset: 0x5EBA0, size: 0x8, addend: 0x0, symName: __ZN4core5slice4sort6stable9quicksort9quicksort17h14c7f4fffcaf2bf0E, symObjAddr: 0x9D00, symBinAddr: 0xFA70, symSize: 0xB80 }
  - { offset: 0x6001C, size: 0x8, addend: 0x0, symName: __ZN4core5slice4sort6stable9quicksort9quicksort17h421e10d9e0050636E, symObjAddr: 0xA880, symBinAddr: 0x105F0, symSize: 0xC30 }
  - { offset: 0x60DBC, size: 0x8, addend: 0x0, symName: __ZN4core5slice4sort6stable9quicksort9quicksort17h4af59b610b9ccd48E, symObjAddr: 0xB4B0, symBinAddr: 0x11220, symSize: 0xC10 }
  - { offset: 0x61B6C, size: 0x8, addend: 0x0, symName: __ZN4core5slice4sort6stable9quicksort9quicksort17h7c2d4fb7a12acc50E, symObjAddr: 0xC0C0, symBinAddr: 0x11E30, symSize: 0xB60 }
  - { offset: 0x62432, size: 0x8, addend: 0x0, symName: __ZN4core5slice4sort6stable9quicksort9quicksort17he003700d0093d54fE, symObjAddr: 0xCC20, symBinAddr: 0x12990, symSize: 0xD50 }
  - { offset: 0x63221, size: 0x8, addend: 0x0, symName: __ZN4core5slice4sort6stable9quicksort9quicksort17heaceff6159bc8a7fE, symObjAddr: 0xD970, symBinAddr: 0x136E0, symSize: 0xB40 }
  - { offset: 0x6409C, size: 0x8, addend: 0x0, symName: __ZN4core5slice4sort8unstable7ipnsort17h8035415ade19f0c2E, symObjAddr: 0xE4B0, symBinAddr: 0x14220, symSize: 0xE0 }
  - { offset: 0x64258, size: 0x8, addend: 0x0, symName: __ZN4core5slice4sort8unstable7ipnsort17h9beeb8f236439637E, symObjAddr: 0xE590, symBinAddr: 0x14300, symSize: 0x1A0 }
  - { offset: 0x6452D, size: 0x8, addend: 0x0, symName: __ZN4core5slice4sort8unstable8heapsort8heapsort17hcfc8826cfe860368E, symObjAddr: 0xE730, symBinAddr: 0x144A0, symSize: 0x1D0 }
  - { offset: 0x64855, size: 0x8, addend: 0x0, symName: __ZN4core5slice4sort8unstable8heapsort8heapsort17hf1c4c457d1ebd340E, symObjAddr: 0xE900, symBinAddr: 0x14670, symSize: 0x120 }
  - { offset: 0x64B2D, size: 0x8, addend: 0x0, symName: __ZN4core5slice4sort8unstable9quicksort9quicksort17h670d7f49c95bd86eE, symObjAddr: 0xEA20, symBinAddr: 0x14790, symSize: 0x570 }
  - { offset: 0x653D8, size: 0x8, addend: 0x0, symName: __ZN4core5slice4sort8unstable9quicksort9quicksort17hdd86f04957da03abE, symObjAddr: 0xEF90, symBinAddr: 0x14D00, symSize: 0x77A }
  - { offset: 0x66224, size: 0x8, addend: 0x0, symName: '__ZN36_$LT$T$u20$as$u20$core..any..Any$GT$7type_id17h5728c31d2963cc00E', symObjAddr: 0x230, symBinAddr: 0x62E0, symSize: 0x20 }
  - { offset: 0x6623E, size: 0x8, addend: 0x0, symName: '__ZN36_$LT$T$u20$as$u20$core..any..Any$GT$7type_id17hb86ba133e1cd64d7E', symObjAddr: 0x250, symBinAddr: 0x6300, symSize: 0x20 }
  - { offset: 0x66258, size: 0x8, addend: 0x0, symName: '__ZN36_$LT$T$u20$as$u20$core..any..Any$GT$7type_id17hbcf310d7ccb0f7f1E', symObjAddr: 0x270, symBinAddr: 0x6320, symSize: 0x1A }
  - { offset: 0x6631B, size: 0x8, addend: 0x0, symName: '__ZN41_$LT$bool$u20$as$u20$core..fmt..Debug$GT$3fmt17h94e568752763a9d2E', symObjAddr: 0x2A0, symBinAddr: 0x6340, symSize: 0x10 }
  - { offset: 0x6633D, size: 0x8, addend: 0x0, symName: '__ZN42_$LT$$RF$T$u20$as$u20$core..fmt..Debug$GT$3fmt17h04d9dd557c0bb714E', symObjAddr: 0x2B0, symBinAddr: 0x6350, symSize: 0x50 }
  - { offset: 0x6637D, size: 0x8, addend: 0x0, symName: '__ZN42_$LT$$RF$T$u20$as$u20$core..fmt..Debug$GT$3fmt17h0a8bb5cee4926223E', symObjAddr: 0x300, symBinAddr: 0x63A0, symSize: 0x80 }
  - { offset: 0x6640F, size: 0x8, addend: 0x0, symName: '__ZN42_$LT$$RF$T$u20$as$u20$core..fmt..Debug$GT$3fmt17h1056d1e1e2e989b0E', symObjAddr: 0x380, symBinAddr: 0x6420, symSize: 0x30 }
  - { offset: 0x66457, size: 0x8, addend: 0x0, symName: '__ZN42_$LT$$RF$T$u20$as$u20$core..fmt..Debug$GT$3fmt17h1b5e87698daaeea5E', symObjAddr: 0x3B0, symBinAddr: 0x6450, symSize: 0x40 }
  - { offset: 0x66489, size: 0x8, addend: 0x0, symName: '__ZN42_$LT$$RF$T$u20$as$u20$core..fmt..Debug$GT$3fmt17h1e5e2ca0d0555231E', symObjAddr: 0x3F0, symBinAddr: 0x6490, symSize: 0x30 }
  - { offset: 0x664BB, size: 0x8, addend: 0x0, symName: '__ZN42_$LT$$RF$T$u20$as$u20$core..fmt..Debug$GT$3fmt17h1f3f09316edfdb87E', symObjAddr: 0x420, symBinAddr: 0x64C0, symSize: 0x10 }
  - { offset: 0x664E4, size: 0x8, addend: 0x0, symName: '__ZN42_$LT$$RF$T$u20$as$u20$core..fmt..Debug$GT$3fmt17h27cb0d22690e0050E', symObjAddr: 0x430, symBinAddr: 0x64D0, symSize: 0x30 }
  - { offset: 0x66627, size: 0x8, addend: 0x0, symName: '__ZN42_$LT$$RF$T$u20$as$u20$core..fmt..Debug$GT$3fmt17h2b3ba96eaffbc829E', symObjAddr: 0x460, symBinAddr: 0x6500, symSize: 0x30 }
  - { offset: 0x6666F, size: 0x8, addend: 0x0, symName: '__ZN42_$LT$$RF$T$u20$as$u20$core..fmt..Debug$GT$3fmt17h2cde6a8d80bd593fE', symObjAddr: 0x490, symBinAddr: 0x6530, symSize: 0x30 }
  - { offset: 0x666AF, size: 0x8, addend: 0x0, symName: '__ZN42_$LT$$RF$T$u20$as$u20$core..fmt..Debug$GT$3fmt17h338a6ea268433ffeE', symObjAddr: 0x4C0, symBinAddr: 0x6560, symSize: 0xA0 }
  - { offset: 0x66743, size: 0x8, addend: 0x0, symName: '__ZN42_$LT$$RF$T$u20$as$u20$core..fmt..Debug$GT$3fmt17h396522c5521b84e6E', symObjAddr: 0x560, symBinAddr: 0x6600, symSize: 0x60 }
  - { offset: 0x66775, size: 0x8, addend: 0x0, symName: '__ZN42_$LT$$RF$T$u20$as$u20$core..fmt..Debug$GT$3fmt17h39c30c030d63837bE', symObjAddr: 0x5C0, symBinAddr: 0x6660, symSize: 0x60 }
  - { offset: 0x667B5, size: 0x8, addend: 0x0, symName: '__ZN42_$LT$$RF$T$u20$as$u20$core..fmt..Debug$GT$3fmt17h420308b78508b853E', symObjAddr: 0x620, symBinAddr: 0x66C0, symSize: 0x30 }
  - { offset: 0x6682B, size: 0x8, addend: 0x0, symName: '__ZN42_$LT$$RF$T$u20$as$u20$core..fmt..Debug$GT$3fmt17h4f237936c87188b2E', symObjAddr: 0x650, symBinAddr: 0x66F0, symSize: 0x20 }
  - { offset: 0x6683F, size: 0x8, addend: 0x0, symName: '__ZN42_$LT$$RF$T$u20$as$u20$core..fmt..Debug$GT$3fmt17h6131ce3066602bedE', symObjAddr: 0x670, symBinAddr: 0x6710, symSize: 0x20 }
  - { offset: 0x6687F, size: 0x8, addend: 0x0, symName: '__ZN42_$LT$$RF$T$u20$as$u20$core..fmt..Debug$GT$3fmt17h691cfb5abd0c55d9E', symObjAddr: 0x690, symBinAddr: 0x6730, symSize: 0x20 }
  - { offset: 0x668B1, size: 0x8, addend: 0x0, symName: '__ZN42_$LT$$RF$T$u20$as$u20$core..fmt..Debug$GT$3fmt17h69d77afee3f0f2d2E', symObjAddr: 0x6B0, symBinAddr: 0x6750, symSize: 0x50 }
  - { offset: 0x66914, size: 0x8, addend: 0x0, symName: '__ZN42_$LT$$RF$T$u20$as$u20$core..fmt..Debug$GT$3fmt17h7738d2c30755ca47E', symObjAddr: 0x700, symBinAddr: 0x67A0, symSize: 0x70 }
  - { offset: 0x66946, size: 0x8, addend: 0x0, symName: '__ZN42_$LT$$RF$T$u20$as$u20$core..fmt..Debug$GT$3fmt17h838a99b5850c327fE', symObjAddr: 0x770, symBinAddr: 0x6810, symSize: 0x70 }
  - { offset: 0x66978, size: 0x8, addend: 0x0, symName: '__ZN42_$LT$$RF$T$u20$as$u20$core..fmt..Debug$GT$3fmt17h93bc98b0619c3776E', symObjAddr: 0x7E0, symBinAddr: 0x6880, symSize: 0x80 }
  - { offset: 0x66A0A, size: 0x8, addend: 0x0, symName: '__ZN42_$LT$$RF$T$u20$as$u20$core..fmt..Debug$GT$3fmt17ha81c76e80705c5b4E', symObjAddr: 0x860, symBinAddr: 0x6900, symSize: 0x80 }
  - { offset: 0x66B25, size: 0x8, addend: 0x0, symName: '__ZN42_$LT$$RF$T$u20$as$u20$core..fmt..Debug$GT$3fmt17ha8793283240fde2cE', symObjAddr: 0x8E0, symBinAddr: 0x6980, symSize: 0x60 }
  - { offset: 0x66B4F, size: 0x8, addend: 0x0, symName: '__ZN42_$LT$$RF$T$u20$as$u20$core..fmt..Debug$GT$3fmt17haa9746ecaef244a1E', symObjAddr: 0x940, symBinAddr: 0x69E0, symSize: 0x130 }
  - { offset: 0x66C1F, size: 0x8, addend: 0x0, symName: '__ZN42_$LT$$RF$T$u20$as$u20$core..fmt..Debug$GT$3fmt17haad6c1c70e9a6197E', symObjAddr: 0xA70, symBinAddr: 0x6B10, symSize: 0x30 }
  - { offset: 0x66D44, size: 0x8, addend: 0x0, symName: '__ZN42_$LT$$RF$T$u20$as$u20$core..fmt..Debug$GT$3fmt17hb8788b765cebfbdcE', symObjAddr: 0xAA0, symBinAddr: 0x6B40, symSize: 0x30 }
  - { offset: 0x66D8C, size: 0x8, addend: 0x0, symName: '__ZN42_$LT$$RF$T$u20$as$u20$core..fmt..Debug$GT$3fmt17hb91623cb8106c2edE', symObjAddr: 0xAD0, symBinAddr: 0x6B70, symSize: 0x130 }
  - { offset: 0x66DB6, size: 0x8, addend: 0x0, symName: '__ZN42_$LT$$RF$T$u20$as$u20$core..fmt..Debug$GT$3fmt17hc1b76ba9bc00eda7E', symObjAddr: 0xC00, symBinAddr: 0x6CA0, symSize: 0x10 }
  - { offset: 0x66DD1, size: 0x8, addend: 0x0, symName: '__ZN42_$LT$$RF$T$u20$as$u20$core..fmt..Debug$GT$3fmt17hca431ddd5c9de2dfE', symObjAddr: 0xC10, symBinAddr: 0x6CB0, symSize: 0x20 }
  - { offset: 0x66DEC, size: 0x8, addend: 0x0, symName: '__ZN42_$LT$$RF$T$u20$as$u20$core..fmt..Debug$GT$3fmt17hd336e1dce51f877dE', symObjAddr: 0xC30, symBinAddr: 0x6CD0, symSize: 0x20 }
  - { offset: 0x66E2C, size: 0x8, addend: 0x0, symName: '__ZN42_$LT$$RF$T$u20$as$u20$core..fmt..Debug$GT$3fmt17hd72cec0b1ddec287E', symObjAddr: 0xC50, symBinAddr: 0x6CF0, symSize: 0x60 }
  - { offset: 0x66E75, size: 0x8, addend: 0x0, symName: '__ZN42_$LT$$RF$T$u20$as$u20$core..fmt..Debug$GT$3fmt17hd96eede39463e60aE', symObjAddr: 0xCB0, symBinAddr: 0x6D50, symSize: 0x10 }
  - { offset: 0x66E90, size: 0x8, addend: 0x0, symName: '__ZN42_$LT$$RF$T$u20$as$u20$core..fmt..Debug$GT$3fmt17hdfb62f545e88d545E', symObjAddr: 0xCC0, symBinAddr: 0x6D60, symSize: 0x30 }
  - { offset: 0x66EC2, size: 0x8, addend: 0x0, symName: '__ZN42_$LT$$RF$T$u20$as$u20$core..fmt..Debug$GT$3fmt17he06c44329a8c04afE', symObjAddr: 0xCF0, symBinAddr: 0x6D90, symSize: 0xD0 }
  - { offset: 0x66EEC, size: 0x8, addend: 0x0, symName: '__ZN42_$LT$$RF$T$u20$as$u20$core..fmt..Debug$GT$3fmt17hed2d208d2b4413eeE', symObjAddr: 0xDC0, symBinAddr: 0x6E60, symSize: 0x60 }
  - { offset: 0x66F1E, size: 0x8, addend: 0x0, symName: '__ZN42_$LT$$RF$T$u20$as$u20$core..fmt..Debug$GT$3fmt17hf8ae9bef2f0a7bf7E', symObjAddr: 0xE20, symBinAddr: 0x6EC0, symSize: 0x60 }
  - { offset: 0x670E4, size: 0x8, addend: 0x0, symName: '__ZN4core3fmt3num49_$LT$impl$u20$core..fmt..Debug$u20$for$u20$u8$GT$3fmt17h87d517bdb7eb864aE', symObjAddr: 0xF40, symBinAddr: 0x6FE0, symSize: 0x30 }
  - { offset: 0x67122, size: 0x8, addend: 0x0, symName: '__ZN4core3fmt3num50_$LT$impl$u20$core..fmt..Debug$u20$for$u20$u32$GT$3fmt17h89b29a287525fd46E', symObjAddr: 0xFD0, symBinAddr: 0x7070, symSize: 0x30 }
  - { offset: 0x67160, size: 0x8, addend: 0x0, symName: '__ZN4core3fmt3num50_$LT$impl$u20$core..fmt..Debug$u20$for$u20$u64$GT$3fmt17he67ad5b38d95e5e9E', symObjAddr: 0x1000, symBinAddr: 0x70A0, symSize: 0x30 }
  - { offset: 0x6719E, size: 0x8, addend: 0x0, symName: '__ZN4core3fmt3num50_$LT$impl$u20$core..fmt..Debug$u20$for$u20$i32$GT$3fmt17h9f82d2340f920bddE', symObjAddr: 0xF70, symBinAddr: 0x7010, symSize: 0x30 }
  - { offset: 0x671CF, size: 0x8, addend: 0x0, symName: '__ZN4core3fmt3num50_$LT$impl$u20$core..fmt..Debug$u20$for$u20$i64$GT$3fmt17h4e6d60cff1d836ecE', symObjAddr: 0xFA0, symBinAddr: 0x7040, symSize: 0x30 }
  - { offset: 0x67206, size: 0x8, addend: 0x0, symName: '__ZN4core3fmt3num52_$LT$impl$u20$core..fmt..Debug$u20$for$u20$usize$GT$3fmt17h189550f1425cd12dE', symObjAddr: 0x1030, symBinAddr: 0x70D0, symSize: 0x30 }
  - { offset: 0x67253, size: 0x8, addend: 0x0, symName: '__ZN50_$LT$$LP$U$C$T$RP$$u20$as$u20$core..fmt..Debug$GT$3fmt17h81da073e6b8a7125E', symObjAddr: 0xF7B0, symBinAddr: 0x15490, symSize: 0x70 }
  - { offset: 0x6726E, size: 0x8, addend: 0x0, symName: '__ZN50_$LT$$LP$U$C$T$RP$$u20$as$u20$core..fmt..Debug$GT$3fmt17hbcedbbb541ff531aE', symObjAddr: 0xF820, symBinAddr: 0x15500, symSize: 0x70 }
  - { offset: 0x6729E, size: 0x8, addend: 0x0, symName: '__ZN45_$LT$$LP$$RP$$u20$as$u20$core..fmt..Debug$GT$3fmt17h7883e790682810baE', symObjAddr: 0xF20, symBinAddr: 0x6FC0, symSize: 0x20 }
  - { offset: 0x67759, size: 0x8, addend: 0x0, symName: '__ZN44_$LT$$RF$T$u20$as$u20$core..fmt..Display$GT$3fmt17hc402d2cafdfc5850E', symObjAddr: 0xE80, symBinAddr: 0x6F20, symSize: 0x80 }
  - { offset: 0x67815, size: 0x8, addend: 0x0, symName: '__ZN44_$LT$$RF$T$u20$as$u20$core..fmt..Display$GT$3fmt17hc7b1a386f8e5bbeeE', symObjAddr: 0xF00, symBinAddr: 0x6FA0, symSize: 0x20 }
  - { offset: 0x67853, size: 0x8, addend: 0x0, symName: __ZN4core3fmt5Write10write_char17h66c32acfaad515f2E, symObjAddr: 0x1060, symBinAddr: 0x7100, symSize: 0x110 }
  - { offset: 0x678F2, size: 0x8, addend: 0x0, symName: __ZN4core3fmt5Write10write_char17h6c9a05db9ca133f2E, symObjAddr: 0x1170, symBinAddr: 0x7210, symSize: 0x120 }
  - { offset: 0x67A60, size: 0x8, addend: 0x0, symName: __ZN4core3fmt5Write10write_char17h96f814b7dfafd9dcE, symObjAddr: 0x1290, symBinAddr: 0x7330, symSize: 0x180 }
  - { offset: 0x67C65, size: 0x8, addend: 0x0, symName: __ZN4core3fmt5Write10write_char17hef3af3cae4f4a8fdE, symObjAddr: 0x1410, symBinAddr: 0x74B0, symSize: 0x110 }
  - { offset: 0x67D04, size: 0x8, addend: 0x0, symName: __ZN4core3fmt5Write10write_char17hf1d807a5fbb55bc3E, symObjAddr: 0x1520, symBinAddr: 0x75C0, symSize: 0x160 }
  - { offset: 0x67EE5, size: 0x8, addend: 0x0, symName: __ZN4core3fmt5Write10write_char17hf490c2bf3cd8cbddE, symObjAddr: 0x1680, symBinAddr: 0x7720, symSize: 0x180 }
  - { offset: 0x68153, size: 0x8, addend: 0x0, symName: __ZN4core3fmt5Write9write_fmt17h2ee88a4bb2f7d1b4E, symObjAddr: 0x1800, symBinAddr: 0x78A0, symSize: 0x20 }
  - { offset: 0x68183, size: 0x8, addend: 0x0, symName: __ZN4core3fmt5Write9write_fmt17h36b28d93fd9e8308E, symObjAddr: 0x1820, symBinAddr: 0x78C0, symSize: 0x20 }
  - { offset: 0x681B3, size: 0x8, addend: 0x0, symName: __ZN4core3fmt5Write9write_fmt17h528def8fdd7bc0dbE, symObjAddr: 0x1840, symBinAddr: 0x78E0, symSize: 0x20 }
  - { offset: 0x681E3, size: 0x8, addend: 0x0, symName: __ZN4core3fmt5Write9write_fmt17h5b85fb356566f758E, symObjAddr: 0x1860, symBinAddr: 0x7900, symSize: 0x20 }
  - { offset: 0x68213, size: 0x8, addend: 0x0, symName: __ZN4core3fmt5Write9write_fmt17h95d389f7baa03ea7E, symObjAddr: 0x1880, symBinAddr: 0x7920, symSize: 0x20 }
  - { offset: 0x68243, size: 0x8, addend: 0x0, symName: __ZN4core3fmt5Write9write_fmt17hc64f9e71deb03a73E, symObjAddr: 0x18A0, symBinAddr: 0x7940, symSize: 0x20 }
  - { offset: 0x68273, size: 0x8, addend: 0x0, symName: __ZN4core3fmt5Write9write_fmt17hdad9701295b3f905E, symObjAddr: 0x18C0, symBinAddr: 0x7960, symSize: 0x20 }
  - { offset: 0x682D4, size: 0x8, addend: 0x0, symName: '__ZN50_$LT$$BP$mut$u20$T$u20$as$u20$core..fmt..Debug$GT$3fmt17h38e5ac32d0dddcfbE', symObjAddr: 0xF7A0, symBinAddr: 0x15480, symSize: 0x10 }
  - { offset: 0x68324, size: 0x8, addend: 0x0, symName: '__ZN52_$LT$$RF$mut$u20$T$u20$as$u20$core..fmt..Display$GT$3fmt17h438e45c1b4e803b9E', symObjAddr: 0xF890, symBinAddr: 0x15570, symSize: 0x20 }
  - { offset: 0x6837C, size: 0x8, addend: 0x0, symName: '__ZN4core3str7pattern13simd_contains28_$u7b$$u7b$closure$u7d$$u7d$17h9c72034c0ec8d1e4E', symObjAddr: 0x4B20, symBinAddr: 0x9AD80, symSize: 0x100 }
  - { offset: 0x68506, size: 0x8, addend: 0x0, symName: '__ZN55_$LT$$RF$str$u20$as$u20$core..str..pattern..Pattern$GT$15is_contained_in17hccd0b8a3d129e3e2E', symObjAddr: 0xF8B0, symBinAddr: 0x15590, symSize: 0x830 }
  - { offset: 0x68EFD, size: 0x8, addend: 0x0, symName: '__ZN4core5array69_$LT$impl$u20$core..fmt..Debug$u20$for$u20$$u5b$T$u3b$$u20$N$u5d$$GT$3fmt17hfb6eb06126b206dbE', symObjAddr: 0x4D30, symBinAddr: 0xAAA0, symSize: 0xF0 }
  - { offset: 0x6960C, size: 0x8, addend: 0x0, symName: '__ZN73_$LT$core..num..nonzero..NonZero$LT$T$GT$$u20$as$u20$core..fmt..Debug$GT$3fmt17h3f349b909747ce83E', symObjAddr: 0x1FE70, symBinAddr: 0x259F0, symSize: 0x50 }
  - { offset: 0x69D86, size: 0x8, addend: 0x0, symName: '__ZN70_$LT$core..num..error..TryFromIntError$u20$as$u20$core..fmt..Debug$GT$3fmt17h519d4109fd68ea27E', symObjAddr: 0x1FE10, symBinAddr: 0x25990, symSize: 0x40 }
  - { offset: 0x69DA7, size: 0x8, addend: 0x0, symName: '__ZN72_$LT$core..num..error..TryFromIntError$u20$as$u20$core..error..Error$GT$11description17h4abc6437f94d1e60E', symObjAddr: 0x1FE50, symBinAddr: 0x259D0, symSize: 0x20 }
  - { offset: 0x6A04F, size: 0x8, addend: 0x0, symName: __ZN4core5panic12PanicPayload6as_str17h6bc52eece876327bE, symObjAddr: 0x4EA0, symBinAddr: 0xAC10, symSize: 0x10 }
  - { offset: 0x6B811, size: 0x8, addend: 0x0, symName: __ZN4core3ops8function2Fn4call17h0d659f255df7352cE, symObjAddr: 0x18E0, symBinAddr: 0x7980, symSize: 0x30 }
  - { offset: 0x6B8B3, size: 0x8, addend: 0x0, symName: __ZN4core3ops8function2Fn4call17h2f4587101c8c748dE, symObjAddr: 0x1910, symBinAddr: 0x79B0, symSize: 0x20 }
  - { offset: 0x6B8C7, size: 0x8, addend: 0x0, symName: __ZN4core3ops8function2Fn4call17h3163eaf9119ec81fE, symObjAddr: 0x1930, symBinAddr: 0x79D0, symSize: 0x20 }
  - { offset: 0x6B8DB, size: 0x8, addend: 0x0, symName: __ZN4core3ops8function2Fn4call17h488ca9ec23301b4aE, symObjAddr: 0x1950, symBinAddr: 0x79F0, symSize: 0xA0 }
  - { offset: 0x6B9F7, size: 0x8, addend: 0x0, symName: __ZN4core3ops8function2Fn4call17h549c2aee5c788ea4E, symObjAddr: 0x19F0, symBinAddr: 0x7A90, symSize: 0x30 }
  - { offset: 0x6BA99, size: 0x8, addend: 0x0, symName: __ZN4core3ops8function2Fn4call17h9304b1d0776055b9E, symObjAddr: 0x1A20, symBinAddr: 0x7AC0, symSize: 0xA0 }
  - { offset: 0x6BBB5, size: 0x8, addend: 0x0, symName: __ZN4core3ops8function2Fn4call17h9f6fbb795f1738b8E, symObjAddr: 0x1AC0, symBinAddr: 0x7B60, symSize: 0xC0 }
  - { offset: 0x6BCBB, size: 0x8, addend: 0x0, symName: __ZN4core3ops8function2Fn4call17hcb5c54d009b39617E, symObjAddr: 0x1B80, symBinAddr: 0x7C20, symSize: 0x10 }
  - { offset: 0x6BD37, size: 0x8, addend: 0x0, symName: __ZN4core3ops8function5FnMut8call_mut17hc01058dc8f112cdbE, symObjAddr: 0x1B90, symBinAddr: 0x7C30, symSize: 0x10 }
  - { offset: 0x6BD99, size: 0x8, addend: 0x0, symName: '__ZN4core3ops8function6FnOnce40call_once$u7b$$u7b$vtable.shim$u7d$$u7d$17h0eb35409ecd33d8cE', symObjAddr: 0x1BA0, symBinAddr: 0x7C40, symSize: 0x10 }
  - { offset: 0x6BDD6, size: 0x8, addend: 0x0, symName: '__ZN4core3ops8function6FnOnce40call_once$u7b$$u7b$vtable.shim$u7d$$u7d$17h2ac45979dfb3a626E', symObjAddr: 0x1BB0, symBinAddr: 0x7C50, symSize: 0x90 }
  - { offset: 0x6BF2A, size: 0x8, addend: 0x0, symName: '__ZN4core3ops8function6FnOnce40call_once$u7b$$u7b$vtable.shim$u7d$$u7d$17h319bf84c8f827db5E', symObjAddr: 0x1C40, symBinAddr: 0x7CE0, symSize: 0x10 }
  - { offset: 0x6BF67, size: 0x8, addend: 0x0, symName: '__ZN4core3ops8function6FnOnce40call_once$u7b$$u7b$vtable.shim$u7d$$u7d$17h50a18886fb399786E', symObjAddr: 0x1C50, symBinAddr: 0x7CF0, symSize: 0x20 }
  - { offset: 0x6BFA4, size: 0x8, addend: 0x0, symName: '__ZN4core3ops8function6FnOnce40call_once$u7b$$u7b$vtable.shim$u7d$$u7d$17h58097a7c5f13dc40E', symObjAddr: 0x1C70, symBinAddr: 0x7D10, symSize: 0x20 }
  - { offset: 0x6BFE1, size: 0x8, addend: 0x0, symName: '__ZN4core3ops8function6FnOnce40call_once$u7b$$u7b$vtable.shim$u7d$$u7d$17h6e43d516fca663bfE', symObjAddr: 0x1C90, symBinAddr: 0x7D30, symSize: 0x10 }
  - { offset: 0x6C034, size: 0x8, addend: 0x0, symName: '__ZN4core3ops8function6FnOnce40call_once$u7b$$u7b$vtable.shim$u7d$$u7d$17h87dd3df3bb6e82f1E', symObjAddr: 0x1CA0, symBinAddr: 0x7D40, symSize: 0x10 }
  - { offset: 0x6C071, size: 0x8, addend: 0x0, symName: '__ZN4core3ops8function6FnOnce40call_once$u7b$$u7b$vtable.shim$u7d$$u7d$17ha9d4c834fd11bd6eE', symObjAddr: 0x1CB0, symBinAddr: 0x7D50, symSize: 0x20 }
  - { offset: 0x6C0AE, size: 0x8, addend: 0x0, symName: '__ZN4core3ops8function6FnOnce40call_once$u7b$$u7b$vtable.shim$u7d$$u7d$17hb9e0ddc6dc25dfddE', symObjAddr: 0x1CD0, symBinAddr: 0x7D70, symSize: 0x10 }
  - { offset: 0x6C101, size: 0x8, addend: 0x0, symName: '__ZN4core3ops8function6FnOnce40call_once$u7b$$u7b$vtable.shim$u7d$$u7d$17hbcd614f0bda4aa3fE', symObjAddr: 0x1CE0, symBinAddr: 0x7D80, symSize: 0x90 }
  - { offset: 0x6C1EE, size: 0x8, addend: 0x0, symName: '__ZN4core3ops8function6FnOnce40call_once$u7b$$u7b$vtable.shim$u7d$$u7d$17hc7d9962ccb3973b6E', symObjAddr: 0x1D70, symBinAddr: 0x7E10, symSize: 0x10 }
  - { offset: 0x6C22B, size: 0x8, addend: 0x0, symName: '__ZN4core3ops8function6FnOnce40call_once$u7b$$u7b$vtable.shim$u7d$$u7d$17he78ed9a062281826E', symObjAddr: 0x1D80, symBinAddr: 0x7E20, symSize: 0xA0 }
  - { offset: 0x6C384, size: 0x8, addend: 0x0, symName: '__ZN4core3ops8function6FnOnce40call_once$u7b$$u7b$vtable.shim$u7d$$u7d$17hfa48708ab04de8a5E', symObjAddr: 0x1E20, symBinAddr: 0x7EC0, symSize: 0x90 }
  - { offset: 0x6C4E3, size: 0x8, addend: 0x0, symName: '__ZN4core3ops8function6FnOnce40call_once$u7b$$u7b$vtable.shim$u7d$$u7d$17hfd62f49032dd9775E', symObjAddr: 0x1EB0, symBinAddr: 0x7F50, symSize: 0xA0 }
  - { offset: 0x708D9, size: 0x8, addend: 0x0, symName: '__ZN4core4cell4once17OnceCell$LT$T$GT$8try_init17h3013bdfc7201179dE', symObjAddr: 0x4C20, symBinAddr: 0x9AE80, symSize: 0x110 }
  - { offset: 0x70E11, size: 0x8, addend: 0x0, symName: __ZN4core5error5Error5cause17h77d5ae64fd348a62E, symObjAddr: 0x4E20, symBinAddr: 0xAB90, symSize: 0x10 }
  - { offset: 0x70E2B, size: 0x8, addend: 0x0, symName: __ZN4core5error5Error5cause17hece484285597617cE, symObjAddr: 0x4E30, symBinAddr: 0xABA0, symSize: 0x10 }
  - { offset: 0x70E45, size: 0x8, addend: 0x0, symName: __ZN4core5error5Error7provide17h133b073b56550335E, symObjAddr: 0x4E40, symBinAddr: 0xABB0, symSize: 0x10 }
  - { offset: 0x70E5F, size: 0x8, addend: 0x0, symName: __ZN4core5error5Error7provide17h82f3f9b9cab7f858E, symObjAddr: 0x4E50, symBinAddr: 0xABC0, symSize: 0x10 }
  - { offset: 0x70E79, size: 0x8, addend: 0x0, symName: __ZN4core5error5Error7type_id17h826a5f2ce57ddb6aE, symObjAddr: 0x4E60, symBinAddr: 0xABD0, symSize: 0x20 }
  - { offset: 0x70E93, size: 0x8, addend: 0x0, symName: __ZN4core5error5Error7type_id17h84e0ba2105f74917E, symObjAddr: 0x4E80, symBinAddr: 0xABF0, symSize: 0x20 }
  - { offset: 0x70F48, size: 0x8, addend: 0x0, symName: __ZN4core9panicking13assert_failed17h810d78d96711cda8E, symObjAddr: 0xF70A, symBinAddr: 0x9AF9A, symSize: 0x2F }
  - { offset: 0x70F63, size: 0x8, addend: 0x0, symName: __ZN4core9panicking13assert_failed17hbffa8c9d9827e816E, symObjAddr: 0xF739, symBinAddr: 0x9AFC9, symSize: 0x2F }
  - { offset: 0x70F7E, size: 0x8, addend: 0x0, symName: __ZN4core9panicking13assert_failed17hc41dfe5ca3e27087E, symObjAddr: 0xF768, symBinAddr: 0x9AFF8, symSize: 0x38 }
  - { offset: 0x7187A, size: 0x8, addend: 0x0, symName: '__ZN3std9panicking41begin_panic$u7b$$u7b$reify.shim$u7d$$u7d$17hcf43ac63625ba9f9E', symObjAddr: 0x28A, symBinAddr: 0x9AD6A, symSize: 0x16 }
  - { offset: 0x71927, size: 0x8, addend: 0x0, symName: __ZN3std9panicking11panic_count8increase17h9743ad30b4b817aeE, symObjAddr: 0x44A10, symBinAddr: 0x493E0, symSize: 0x50 }
  - { offset: 0x7193F, size: 0x8, addend: 0x0, symName: __ZN3std9panicking11panic_count8increase17h9743ad30b4b817aeE, symObjAddr: 0x44A10, symBinAddr: 0x493E0, symSize: 0x50 }
  - { offset: 0x71955, size: 0x8, addend: 0x0, symName: __ZN3std9panicking11panic_count8increase17h9743ad30b4b817aeE, symObjAddr: 0x44A10, symBinAddr: 0x493E0, symSize: 0x50 }
  - { offset: 0x71A15, size: 0x8, addend: 0x0, symName: __ZN3std9panicking11panic_count19finished_panic_hook17h57120091ef6f12adE, symObjAddr: 0x44A60, symBinAddr: 0x49430, symSize: 0x20 }
  - { offset: 0x71AB3, size: 0x8, addend: 0x0, symName: __ZN3std9panicking11panic_count8decrease17h599981aef472d1e6E, symObjAddr: 0x44A80, symBinAddr: 0x49450, symSize: 0x30 }
  - { offset: 0x71B94, size: 0x8, addend: 0x0, symName: __ZN3std9panicking11panic_count9get_count17h8c16e175900a1950E, symObjAddr: 0x44AB0, symBinAddr: 0x49480, symSize: 0x20 }
  - { offset: 0x71BEB, size: 0x8, addend: 0x0, symName: __ZN3std9panicking11panic_count17is_zero_slow_path17h0f08916d622ddd20E, symObjAddr: 0x44AD0, symBinAddr: 0x9C1D0, symSize: 0x16 }
  - { offset: 0x71CDE, size: 0x8, addend: 0x0, symName: __ZN3std9panicking3try7cleanup17h1552ff6df145ae11E, symObjAddr: 0x44AE6, symBinAddr: 0x9C1E6, symSize: 0x3A }
  - { offset: 0x71E1D, size: 0x8, addend: 0x0, symName: __RNvCs691rhTbG0Ee_7___rustc17___rust_drop_panic, symObjAddr: 0x43FB0, symBinAddr: 0x48980, symSize: 0xD0 }
  - { offset: 0x72086, size: 0x8, addend: 0x0, symName: __RNvCs691rhTbG0Ee_7___rustc24___rust_foreign_exception, symObjAddr: 0x44080, symBinAddr: 0x48A50, symSize: 0xD0 }
  - { offset: 0x722FD, size: 0x8, addend: 0x0, symName: __ZN3std9panicking8set_hook17h8113f3b59810f93bE, symObjAddr: 0x44150, symBinAddr: 0x48B20, symSize: 0x190 }
  - { offset: 0x725DA, size: 0x8, addend: 0x0, symName: __ZN3std9panicking9take_hook17hcd570f91c7905407E, symObjAddr: 0x442E0, symBinAddr: 0x48CB0, symSize: 0x117 }
  - { offset: 0x727B5, size: 0x8, addend: 0x0, symName: __ZN3std9panicking12default_hook17h593f440f6dc20aefE, symObjAddr: 0x443F7, symBinAddr: 0x48DC7, symSize: 0x1AB }
  - { offset: 0x72AB9, size: 0x8, addend: 0x0, symName: '__ZN3std9panicking12default_hook28_$u7b$$u7b$closure$u7d$$u7d$17h65ac2efbb2de0d43E', symObjAddr: 0x445A2, symBinAddr: 0x48F72, symSize: 0x18E }
  - { offset: 0x72C95, size: 0x8, addend: 0x0, symName: '__ZN3std9panicking12default_hook28_$u7b$$u7b$closure$u7d$$u7d$28_$u7b$$u7b$closure$u7d$$u7d$17h56cdd92c7becaf66E', symObjAddr: 0x44730, symBinAddr: 0x49100, symSize: 0x2E0 }
  - { offset: 0x73253, size: 0x8, addend: 0x0, symName: __RNvCs691rhTbG0Ee_7___rustc17rust_begin_unwind, symObjAddr: 0x44B20, symBinAddr: 0x494A0, symSize: 0x30 }
  - { offset: 0x732D8, size: 0x8, addend: 0x0, symName: '__ZN102_$LT$std..panicking..begin_panic_handler..FormatStringPayload$u20$as$u20$core..panic..PanicPayload$GT$8take_box17hb04ac2312980c3acE', symObjAddr: 0x44B50, symBinAddr: 0x494D0, symSize: 0x150 }
  - { offset: 0x73572, size: 0x8, addend: 0x0, symName: '__ZN102_$LT$std..panicking..begin_panic_handler..FormatStringPayload$u20$as$u20$core..panic..PanicPayload$GT$3get17h3130fd26eabd7fe1E', symObjAddr: 0x44CA0, symBinAddr: 0x49620, symSize: 0xD0 }
  - { offset: 0x736BA, size: 0x8, addend: 0x0, symName: '__ZN95_$LT$std..panicking..begin_panic_handler..FormatStringPayload$u20$as$u20$core..fmt..Display$GT$3fmt17hab6969b933166aeeE', symObjAddr: 0x44D70, symBinAddr: 0x496F0, symSize: 0x70 }
  - { offset: 0x737C1, size: 0x8, addend: 0x0, symName: '__ZN99_$LT$std..panicking..begin_panic_handler..StaticStrPayload$u20$as$u20$core..panic..PanicPayload$GT$8take_box17h54ee7bfeccf858a4E', symObjAddr: 0x44DE0, symBinAddr: 0x49760, symSize: 0x50 }
  - { offset: 0x7383D, size: 0x8, addend: 0x0, symName: '__ZN99_$LT$std..panicking..begin_panic_handler..StaticStrPayload$u20$as$u20$core..panic..PanicPayload$GT$3get17hfb31db331e3d042aE', symObjAddr: 0x44E30, symBinAddr: 0x497B0, symSize: 0x10 }
  - { offset: 0x73858, size: 0x8, addend: 0x0, symName: '__ZN99_$LT$std..panicking..begin_panic_handler..StaticStrPayload$u20$as$u20$core..panic..PanicPayload$GT$6as_str17hd9f783db512caf0fE', symObjAddr: 0x44E40, symBinAddr: 0x497C0, symSize: 0x10 }
  - { offset: 0x7387A, size: 0x8, addend: 0x0, symName: '__ZN92_$LT$std..panicking..begin_panic_handler..StaticStrPayload$u20$as$u20$core..fmt..Display$GT$3fmt17hfdc30bea85e3054aE', symObjAddr: 0x44E50, symBinAddr: 0x497D0, symSize: 0x20 }
  - { offset: 0x73896, size: 0x8, addend: 0x0, symName: '__ZN3std9panicking19begin_panic_handler28_$u7b$$u7b$closure$u7d$$u7d$17hfcef67067abcc044E', symObjAddr: 0x44E70, symBinAddr: 0x497F0, symSize: 0xCF }
  - { offset: 0x739FE, size: 0x8, addend: 0x0, symName: __ZN3std9panicking11begin_panic17h88c10c74c3b811aaE, symObjAddr: 0x44F3F, symBinAddr: 0x9C22F, symSize: 0x21 }
  - { offset: 0x73A25, size: 0x8, addend: 0x0, symName: '__ZN91_$LT$std..panicking..begin_panic..Payload$LT$A$GT$$u20$as$u20$core..panic..PanicPayload$GT$8take_box17hd93d0cbb9b1f5e61E', symObjAddr: 0x44F60, symBinAddr: 0x498C0, symSize: 0x60 }
  - { offset: 0x73ACE, size: 0x8, addend: 0x0, symName: '__ZN91_$LT$std..panicking..begin_panic..Payload$LT$A$GT$$u20$as$u20$core..panic..PanicPayload$GT$3get17h16e549cdd4a6baeaE', symObjAddr: 0x44FC0, symBinAddr: 0x49920, symSize: 0x20 }
  - { offset: 0x73AF0, size: 0x8, addend: 0x0, symName: '__ZN84_$LT$std..panicking..begin_panic..Payload$LT$A$GT$$u20$as$u20$core..fmt..Display$GT$3fmt17ha8801833234b6c79E', symObjAddr: 0x44FE0, symBinAddr: 0x49940, symSize: 0x20 }
  - { offset: 0x73B23, size: 0x8, addend: 0x0, symName: '__ZN3std9panicking11begin_panic28_$u7b$$u7b$closure$u7d$$u7d$17h0778a10498e55fceE', symObjAddr: 0x45000, symBinAddr: 0x49960, symSize: 0x40 }
  - { offset: 0x73B4D, size: 0x8, addend: 0x0, symName: __ZN3std9panicking14payload_as_str17h826bd1a1c2b317deE, symObjAddr: 0x45040, symBinAddr: 0x499A0, symSize: 0x83 }
  - { offset: 0x73CC9, size: 0x8, addend: 0x0, symName: __ZN3std9panicking20rust_panic_with_hook17h758f6cbcfe1a65b6E, symObjAddr: 0x450C3, symBinAddr: 0x49A23, symSize: 0x43D }
  - { offset: 0x7457E, size: 0x8, addend: 0x0, symName: __ZN3std9panicking23rust_panic_without_hook17h1ca0d211e2f2d08eE, symObjAddr: 0x45500, symBinAddr: 0x9C250, symSize: 0xB0 }
  - { offset: 0x7478F, size: 0x8, addend: 0x0, symName: '__ZN96_$LT$std..panicking..rust_panic_without_hook..RewrapBox$u20$as$u20$core..panic..PanicPayload$GT$8take_box17h4d055b1f996fb4d1E', symObjAddr: 0x455B0, symBinAddr: 0x49E60, symSize: 0x20 }
  - { offset: 0x747C1, size: 0x8, addend: 0x0, symName: '__ZN96_$LT$std..panicking..rust_panic_without_hook..RewrapBox$u20$as$u20$core..panic..PanicPayload$GT$3get17hee9b9d43d6ceec26E', symObjAddr: 0x455D0, symBinAddr: 0x49E80, symSize: 0x10 }
  - { offset: 0x747E3, size: 0x8, addend: 0x0, symName: '__ZN89_$LT$std..panicking..rust_panic_without_hook..RewrapBox$u20$as$u20$core..fmt..Display$GT$3fmt17h8087deb38870223aE', symObjAddr: 0x455E0, symBinAddr: 0x49E90, symSize: 0x20 }
  - { offset: 0x74800, size: 0x8, addend: 0x0, symName: __RNvCs691rhTbG0Ee_7___rustc10rust_panic, symObjAddr: 0x45600, symBinAddr: 0x9C300, symSize: 0x70 }
  - { offset: 0x7486D, size: 0x8, addend: 0x0, symName: '__ZN78_$LT$std..sys..process..unix..unix..ExitStatus$u20$as$u20$core..fmt..Debug$GT$3fmt17head729b9cb39ccb7E', symObjAddr: 0x4FAF0, symBinAddr: 0x541D0, symSize: 0x50 }
  - { offset: 0x74937, size: 0x8, addend: 0x0, symName: __ZN3std3sys7process4unix4unix7Process4wait17he3cc16306fade8a2E, symObjAddr: 0x4FA60, symBinAddr: 0x54140, symSize: 0x90 }
  - { offset: 0x74AF1, size: 0x8, addend: 0x0, symName: '__ZN166_$LT$std..sys..process..unix..unix..$LT$impl$u20$std..sys..process..unix..common..Command$GT$..posix_spawn..PosixSpawnFileActions$u20$as$u20$core..ops..drop..Drop$GT$4drop17h01744540103aa969E', symObjAddr: 0x4FA40, symBinAddr: 0x54120, symSize: 0x10 }
  - { offset: 0x74B1A, size: 0x8, addend: 0x0, symName: '__ZN159_$LT$std..sys..process..unix..unix..$LT$impl$u20$std..sys..process..unix..common..Command$GT$..posix_spawn..PosixSpawnattr$u20$as$u20$core..ops..drop..Drop$GT$4drop17hf56acb07d3846988E', symObjAddr: 0x4FA50, symBinAddr: 0x54130, symSize: 0x10 }
  - { offset: 0x74B90, size: 0x8, addend: 0x0, symName: '__ZN146_$LT$std..sys..process..unix..unix..$LT$impl$u20$std..sys..process..unix..common..Command$GT$..do_exec..Reset$u20$as$u20$core..ops..drop..Drop$GT$4drop17hef1d44c0bac13f3fE', symObjAddr: 0x4FA20, symBinAddr: 0x54100, symSize: 0x20 }
  - { offset: 0x74BD2, size: 0x8, addend: 0x0, symName: '__ZN80_$LT$std..sys..process..unix..unix..ExitStatus$u20$as$u20$core..fmt..Display$GT$3fmt17h01504e59b4dd1dd4E', symObjAddr: 0x4FB40, symBinAddr: 0x54220, symSize: 0x250 }
  - { offset: 0x74D7E, size: 0x8, addend: 0x0, symName: '__ZN83_$LT$std..sys..process..unix..unix..ExitStatusError$u20$as$u20$core..fmt..Debug$GT$3fmt17h18d68f824f2be48cE', symObjAddr: 0x4FD90, symBinAddr: 0x54470, symSize: 0x50 }
  - { offset: 0x74DFF, size: 0x8, addend: 0x0, symName: __ZN3std3sys7process4unix6common7Command3new17hbd990355a0d796f1E, symObjAddr: 0x4C5D0, symBinAddr: 0x50CB0, symSize: 0x300 }
  - { offset: 0x753F7, size: 0x8, addend: 0x0, symName: __ZN3std3sys7process4unix6common7Command9set_arg_017h9a1839a07b38a692E, symObjAddr: 0x4C8D0, symBinAddr: 0x50FB0, symSize: 0x110 }
  - { offset: 0x757AC, size: 0x8, addend: 0x0, symName: __ZN3std3sys7process4unix6common7Command3arg17h10c8da08c402f917E, symObjAddr: 0x4C9E0, symBinAddr: 0x510C0, symSize: 0x140 }
  - { offset: 0x75B41, size: 0x8, addend: 0x0, symName: __ZN3std3sys7process4unix6common7Command3cwd17h50ea33a6a3886beaE, symObjAddr: 0x4CB20, symBinAddr: 0x51200, symSize: 0xD0 }
  - { offset: 0x75DA8, size: 0x8, addend: 0x0, symName: __ZN3std3sys7process4unix6common7Command8pre_exec17hbf052b70e8228b4dE, symObjAddr: 0x4CBF0, symBinAddr: 0x512D0, symSize: 0x70 }
  - { offset: 0x75E5A, size: 0x8, addend: 0x0, symName: __ZN3std3sys7process4unix6common7Command5stdin17he14a516c3cd36e5dE, symObjAddr: 0x4CC60, symBinAddr: 0x51340, symSize: 0x40 }
  - { offset: 0x75EE8, size: 0x8, addend: 0x0, symName: __ZN3std3sys7process4unix6common7Command6stdout17hc4b60e46f9af56a9E, symObjAddr: 0x4CCA0, symBinAddr: 0x51380, symSize: 0x40 }
  - { offset: 0x75F76, size: 0x8, addend: 0x0, symName: __ZN3std3sys7process4unix6common7Command6stderr17hb2d76c8ef6bc5947E, symObjAddr: 0x4CCE0, symBinAddr: 0x513C0, symSize: 0x40 }
  - { offset: 0x76004, size: 0x8, addend: 0x0, symName: __ZN3std3sys7process4unix6common7Command11capture_env17h2e24573c82c57735E, symObjAddr: 0x4CD20, symBinAddr: 0x51400, symSize: 0x1060 }
  - { offset: 0x77EE4, size: 0x8, addend: 0x0, symName: __ZN3std3sys7process4unix6common7Command8setup_io17h23b08e8fcd5eb197E, symObjAddr: 0x4DD80, symBinAddr: 0x52460, symSize: 0x2C0 }
  - { offset: 0x783A2, size: 0x8, addend: 0x0, symName: '__ZN3std3sys7process4unix4unix58_$LT$impl$u20$std..sys..process..unix..common..Command$GT$5spawn17hcc6eeb2689256463E', symObjAddr: 0x4EB30, symBinAddr: 0x53210, symSize: 0xB80 }
  - { offset: 0x796B9, size: 0x8, addend: 0x0, symName: '__ZN3std3sys7process4unix4unix58_$LT$impl$u20$std..sys..process..unix..common..Command$GT$7do_exec17hcc9f0caecfc23f8dE', symObjAddr: 0x4F6B0, symBinAddr: 0x53D90, symSize: 0x370 }
  - { offset: 0x7A1B7, size: 0x8, addend: 0x0, symName: '__ZN103_$LT$std..sys..process..unix..common..CommandArgs$u20$as$u20$core..iter..traits..iterator..Iterator$GT$4next17h10c7438ae26409efE', symObjAddr: 0x4EA30, symBinAddr: 0x53110, symSize: 0x30 }
  - { offset: 0x7A1CF, size: 0x8, addend: 0x0, symName: '__ZN103_$LT$std..sys..process..unix..common..CommandArgs$u20$as$u20$core..iter..traits..iterator..Iterator$GT$4next17h10c7438ae26409efE', symObjAddr: 0x4EA30, symBinAddr: 0x53110, symSize: 0x30 }
  - { offset: 0x7A251, size: 0x8, addend: 0x0, symName: '__ZN103_$LT$std..sys..process..unix..common..CommandArgs$u20$as$u20$core..iter..traits..iterator..Iterator$GT$9size_hint17hd3841b5dce8a56f2E', symObjAddr: 0x4EA60, symBinAddr: 0x53140, symSize: 0x30 }
  - { offset: 0x7A2D5, size: 0x8, addend: 0x0, symName: '__ZN114_$LT$std..sys..process..unix..common..CommandArgs$u20$as$u20$core..iter..traits..exact_size..ExactSizeIterator$GT$3len17h1d1d64a7bf5d7cf7E', symObjAddr: 0x4EA90, symBinAddr: 0x53170, symSize: 0x20 }
  - { offset: 0x7A400, size: 0x8, addend: 0x0, symName: __ZN3std3sys7process4unix6common5Stdio14to_child_stdio17hbc4608c433525568E, symObjAddr: 0x4E040, symBinAddr: 0x52720, symSize: 0x150 }
  - { offset: 0x7A553, size: 0x8, addend: 0x0, symName: '__ZN77_$LT$std..sys..process..unix..common..Command$u20$as$u20$core..fmt..Debug$GT$3fmt17he7e3caa17ee5c9f4E', symObjAddr: 0x4E190, symBinAddr: 0x52870, symSize: 0x850 }
  - { offset: 0x7ACCC, size: 0x8, addend: 0x0, symName: '__ZN78_$LT$std..sys..process..unix..common..ExitCode$u20$as$u20$core..fmt..Debug$GT$3fmt17h5fb8d0a19f7c90e7E', symObjAddr: 0x4E9E0, symBinAddr: 0x530C0, symSize: 0x50 }
  - { offset: 0x7ACEE, size: 0x8, addend: 0x0, symName: '__ZN81_$LT$std..sys..process..unix..common..CommandArgs$u20$as$u20$core..fmt..Debug$GT$3fmt17hc1142b5db4c984f4E', symObjAddr: 0x4EAB0, symBinAddr: 0x53190, symSize: 0x80 }
  - { offset: 0x7ADB4, size: 0x8, addend: 0x0, symName: __ZN3std3sys7process3env10CommandEnv3set17h53ac77e0f6217065E, symObjAddr: 0x42760, symBinAddr: 0x47450, symSize: 0x1A0 }
  - { offset: 0x7B32F, size: 0x8, addend: 0x0, symName: __ZN3std3sys7process3env10CommandEnv6remove17h5566c79fcd5aa02fE, symObjAddr: 0x42900, symBinAddr: 0x475F0, symSize: 0x610 }
  - { offset: 0x7BF4C, size: 0x8, addend: 0x0, symName: '__ZN94_$LT$std..sys..process..env..CommandEnvs$u20$as$u20$core..iter..traits..iterator..Iterator$GT$4next17h9a770694c58ebc7eE', symObjAddr: 0x42F10, symBinAddr: 0x47C00, symSize: 0x50 }
  - { offset: 0x7BFD5, size: 0x8, addend: 0x0, symName: '__ZN71_$LT$std..sys..process..env..CommandEnv$u20$as$u20$core..fmt..Debug$GT$3fmt17hb9e635f71b592fb4E', symObjAddr: 0x426E0, symBinAddr: 0x473D0, symSize: 0x80 }
  - { offset: 0x7C01E, size: 0x8, addend: 0x0, symName: '__ZN65_$LT$std..sys..fd..unix..FileDesc$u20$as$u20$core..fmt..Debug$GT$3fmt17h20e99aa5e69219aaE', symObjAddr: 0x48E80, symBinAddr: 0x4D560, symSize: 0x40 }
  - { offset: 0x7C0EA, size: 0x8, addend: 0x0, symName: __ZN3std3sys2fd4unix8FileDesc4read17h3ee60ce0e0292200E, symObjAddr: 0x48730, symBinAddr: 0x4CE10, symSize: 0x50 }
  - { offset: 0x7C1D5, size: 0x8, addend: 0x0, symName: __ZN3std3sys2fd4unix8FileDesc13read_vectored17hd2c0933020b42500E, symObjAddr: 0x48780, symBinAddr: 0x4CE60, symSize: 0x50 }
  - { offset: 0x7C2C0, size: 0x8, addend: 0x0, symName: __ZN3std3sys2fd4unix8FileDesc11read_to_end17h0c51e6d0846ff8fcE, symObjAddr: 0x487D0, symBinAddr: 0x4CEB0, symSize: 0x290 }
  - { offset: 0x7C78B, size: 0x8, addend: 0x0, symName: __ZN3std3sys2fd4unix8FileDesc7read_at17h627e2d6b0ad92aceE, symObjAddr: 0x48A60, symBinAddr: 0x4D140, symSize: 0x50 }
  - { offset: 0x7C876, size: 0x8, addend: 0x0, symName: __ZN3std3sys2fd4unix8FileDesc8read_buf17hbc06976882f0581aE, symObjAddr: 0x48AB0, symBinAddr: 0x4D190, symSize: 0x70 }
  - { offset: 0x7CA40, size: 0x8, addend: 0x0, symName: __ZN3std3sys2fd4unix8FileDesc16read_vectored_at17h5963754376c20652E, symObjAddr: 0x48B20, symBinAddr: 0x4D200, symSize: 0xE0 }
  - { offset: 0x7CC24, size: 0x8, addend: 0x0, symName: __ZN3std3sys2fd4unix8FileDesc5write17hdf0c1d7bda17f8aaE, symObjAddr: 0x48C00, symBinAddr: 0x4D2E0, symSize: 0x50 }
  - { offset: 0x7CD12, size: 0x8, addend: 0x0, symName: __ZN3std3sys2fd4unix8FileDesc14write_vectored17hef6c936bf7fa5fe8E, symObjAddr: 0x48C50, symBinAddr: 0x4D330, symSize: 0x50 }
  - { offset: 0x7CE00, size: 0x8, addend: 0x0, symName: __ZN3std3sys2fd4unix8FileDesc8write_at17h7a16b048115a46ebE, symObjAddr: 0x48CA0, symBinAddr: 0x4D380, symSize: 0x50 }
  - { offset: 0x7CEEE, size: 0x8, addend: 0x0, symName: __ZN3std3sys2fd4unix8FileDesc17write_vectored_at17h024c4586e5f0c1b8E, symObjAddr: 0x48CF0, symBinAddr: 0x4D3D0, symSize: 0xE0 }
  - { offset: 0x7D0D3, size: 0x8, addend: 0x0, symName: __ZN3std3sys2fd4unix8FileDesc11set_cloexec17hbfff6e4a421821a7E, symObjAddr: 0x48DD0, symBinAddr: 0x4D4B0, symSize: 0x40 }
  - { offset: 0x7D19C, size: 0x8, addend: 0x0, symName: __ZN3std3sys2fd4unix8FileDesc15set_nonblocking17hb8bccc7ccc8b3374E, symObjAddr: 0x48E10, symBinAddr: 0x4D4F0, symSize: 0x60 }
  - { offset: 0x7D40C, size: 0x8, addend: 0x0, symName: '__ZN73_$LT$std..sys..fd..unix..FileDesc$u20$as$u20$std..os..fd..owned..AsFd$GT$5as_fd17hf348c119e601cc8aE', symObjAddr: 0x48E70, symBinAddr: 0x4D550, symSize: 0x10 }
  - { offset: 0x7D74B, size: 0x8, addend: 0x0, symName: '__ZN69_$LT$std..sys..os_str..bytes..Slice$u20$as$u20$core..fmt..Display$GT$3fmt17hd5c46ee16b8285beE', symObjAddr: 0x4BF90, symBinAddr: 0x50670, symSize: 0xC0 }
  - { offset: 0x7D791, size: 0x8, addend: 0x0, symName: '__ZN67_$LT$std..sys..os_str..bytes..Buf$u20$as$u20$core..fmt..Display$GT$3fmt17h31448c74b1bd506eE', symObjAddr: 0x4BEC0, symBinAddr: 0x505A0, symSize: 0xD0 }
  - { offset: 0x7D868, size: 0x8, addend: 0x0, symName: __ZN3std3sys6os_str5bytes5Slice21check_public_boundary9slow_path17ha8ae3915c40f5609E, symObjAddr: 0x4C050, symBinAddr: 0x50730, symSize: 0x160 }
  - { offset: 0x7DA1A, size: 0x8, addend: 0x0, symName: '__ZN72_$LT$std..sys..fs..unix..FilePermissions$u20$as$u20$core..fmt..Debug$GT$3fmt17hf47d50e784ade89aE', symObjAddr: 0x48F20, symBinAddr: 0x4D600, symSize: 0x60 }
  - { offset: 0x7DAD6, size: 0x8, addend: 0x0, symName: __ZN3std3sys2fs4unix15remove_dir_impl24remove_dir_all_recursive17h75169a70ff111cf5E, symObjAddr: 0x4A640, symBinAddr: 0x4ED20, symSize: 0x3A0 }
  - { offset: 0x7E52D, size: 0x8, addend: 0x0, symName: __ZN3std3sys2fs4unix4File6open_c17h812436b5516e9a7dE, symObjAddr: 0x494B0, symBinAddr: 0x4DB90, symSize: 0x130 }
  - { offset: 0x7E653, size: 0x8, addend: 0x0, symName: __ZN3std3sys2fs4unix4File4read17h6ca3cd4cb0b28719E, symObjAddr: 0x495E0, symBinAddr: 0x4DCC0, symSize: 0x50 }
  - { offset: 0x7E755, size: 0x8, addend: 0x0, symName: __ZN3std3sys2fs4unix4File13read_vectored17hfb386036534a8b9cE, symObjAddr: 0x49630, symBinAddr: 0x4DD10, symSize: 0x50 }
  - { offset: 0x7E857, size: 0x8, addend: 0x0, symName: __ZN3std3sys2fs4unix4File8read_buf17h1a8d02d84e5b1885E, symObjAddr: 0x49680, symBinAddr: 0x4DD60, symSize: 0x70 }
  - { offset: 0x7EBF7, size: 0x8, addend: 0x0, symName: __ZN3std3sys2fs4unix8DirEntry8metadata17hfd3c74541213e187E, symObjAddr: 0x491E0, symBinAddr: 0x4D8C0, symSize: 0x170 }
  - { offset: 0x7F20A, size: 0x8, addend: 0x0, symName: '__ZN3std3sys2fs4unix10DirBuilder5mkdir28_$u7b$$u7b$closure$u7d$$u7d$17h061cfc77d12590d4E', symObjAddr: 0x496F0, symBinAddr: 0x4DDD0, symSize: 0x30 }
  - { offset: 0x7F39A, size: 0x8, addend: 0x0, symName: '__ZN78_$LT$std..sys..fs..unix..copy..FreeOnDrop$u20$as$u20$core..ops..drop..Drop$GT$4drop17h857e0234eb75a6d3E', symObjAddr: 0x4A180, symBinAddr: 0x4E860, symSize: 0x10 }
  - { offset: 0x7F3AF, size: 0x8, addend: 0x0, symName: '__ZN3std3sys2fs4unix4copy28_$u7b$$u7b$closure$u7d$$u7d$17h2df58c804343a193E', symObjAddr: 0x4A190, symBinAddr: 0x4E870, symSize: 0x50 }
  - { offset: 0x7F4BB, size: 0x8, addend: 0x0, symName: '__ZN65_$LT$std..sys..fs..unix..FileType$u20$as$u20$core..fmt..Debug$GT$3fmt17h3775a6a03750599bE', symObjAddr: 0x48EC0, symBinAddr: 0x4D5A0, symSize: 0x60 }
  - { offset: 0x7F4DD, size: 0x8, addend: 0x0, symName: '__ZN64_$LT$std..sys..fs..unix..ReadDir$u20$as$u20$core..fmt..Debug$GT$3fmt17h355dfddb65bd2e5dE', symObjAddr: 0x48F80, symBinAddr: 0x4D660, symSize: 0x30 }
  - { offset: 0x7F699, size: 0x8, addend: 0x0, symName: '__ZN86_$LT$std..sys..fs..unix..ReadDir$u20$as$u20$core..iter..traits..iterator..Iterator$GT$4next17ha2b4ff614020ca7eE', symObjAddr: 0x48FB0, symBinAddr: 0x4D690, symSize: 0x160 }
  - { offset: 0x7F91A, size: 0x8, addend: 0x0, symName: '__ZN65_$LT$std..sys..fs..unix..Dir$u20$as$u20$core..ops..drop..Drop$GT$4drop17hdede54a03440b562E', symObjAddr: 0x49110, symBinAddr: 0x4D7F0, symSize: 0xD0 }
  - { offset: 0x7FA1F, size: 0x8, addend: 0x0, symName: '__ZN68_$LT$std..sys..fs..unix..OpenOptions$u20$as$u20$core..fmt..Debug$GT$3fmt17h2d1a40c938ec9a89E', symObjAddr: 0x49350, symBinAddr: 0x4DA30, symSize: 0x160 }
  - { offset: 0x7FA41, size: 0x8, addend: 0x0, symName: '__ZN67_$LT$std..sys..fs..unix..DirBuilder$u20$as$u20$core..fmt..Debug$GT$3fmt17h3ed6f341604c6530E', symObjAddr: 0x49720, symBinAddr: 0x4DE00, symSize: 0x60 }
  - { offset: 0x7FA63, size: 0x8, addend: 0x0, symName: '__ZN72_$LT$std..sys..fs..unix..File$u20$as$u20$std..os..fd..raw..FromRawFd$GT$11from_raw_fd17h541516f3df028eaaE', symObjAddr: 0x49780, symBinAddr: 0x4DE60, symSize: 0x30 }
  - { offset: 0x7FB06, size: 0x8, addend: 0x0, symName: '__ZN61_$LT$std..sys..fs..unix..File$u20$as$u20$core..fmt..Debug$GT$3fmt17h04f9c02b5d524e88E', symObjAddr: 0x497B0, symBinAddr: 0x4DE90, symSize: 0x270 }
  - { offset: 0x7FFE0, size: 0x8, addend: 0x0, symName: '__ZN61_$LT$std..sys..fs..unix..Mode$u20$as$u20$core..fmt..Debug$GT$3fmt17h54c4427bb02b3b95E', symObjAddr: 0x49A20, symBinAddr: 0x4E100, symSize: 0x2C0 }
  - { offset: 0x8002A, size: 0x8, addend: 0x0, symName: __ZN3std3sys2fs4unix8readlink17he1ce0fc341326f29E, symObjAddr: 0x49CE0, symBinAddr: 0x4E3C0, symSize: 0x1C0 }
  - { offset: 0x80453, size: 0x8, addend: 0x0, symName: __ZN3std3sys2fs4unix12canonicalize17hb382d82057cd3086E, symObjAddr: 0x49EA0, symBinAddr: 0x4E580, symSize: 0xD0 }
  - { offset: 0x8066C, size: 0x8, addend: 0x0, symName: '__ZN77_$LT$std..sys..fs..unix..cfm..CachedFileMetadata$u20$as$u20$std..io..Read$GT$4read17h0450e07aff211570E', symObjAddr: 0x49F70, symBinAddr: 0x4E650, symSize: 0x50 }
  - { offset: 0x807BA, size: 0x8, addend: 0x0, symName: '__ZN77_$LT$std..sys..fs..unix..cfm..CachedFileMetadata$u20$as$u20$std..io..Read$GT$13read_vectored17hfb5f199474d84033E', symObjAddr: 0x49FC0, symBinAddr: 0x4E6A0, symSize: 0x50 }
  - { offset: 0x80908, size: 0x8, addend: 0x0, symName: '__ZN77_$LT$std..sys..fs..unix..cfm..CachedFileMetadata$u20$as$u20$std..io..Read$GT$8read_buf17h354a97e4f0329b30E', symObjAddr: 0x4A010, symBinAddr: 0x4E6F0, symSize: 0x70 }
  - { offset: 0x80B15, size: 0x8, addend: 0x0, symName: '__ZN77_$LT$std..sys..fs..unix..cfm..CachedFileMetadata$u20$as$u20$std..io..Read$GT$11read_to_end17h674aefaed0a1a9beE', symObjAddr: 0x4A080, symBinAddr: 0x4E760, symSize: 0x30 }
  - { offset: 0x80B47, size: 0x8, addend: 0x0, symName: '__ZN77_$LT$std..sys..fs..unix..cfm..CachedFileMetadata$u20$as$u20$std..io..Read$GT$14read_to_string17hcb0d33c6ce5f40beE', symObjAddr: 0x4A0B0, symBinAddr: 0x4E790, symSize: 0x30 }
  - { offset: 0x80B80, size: 0x8, addend: 0x0, symName: '__ZN78_$LT$std..sys..fs..unix..cfm..CachedFileMetadata$u20$as$u20$std..io..Write$GT$5write17h2a89901fc0bc4aeeE', symObjAddr: 0x4A0E0, symBinAddr: 0x4E7C0, symSize: 0x50 }
  - { offset: 0x80CA4, size: 0x8, addend: 0x0, symName: '__ZN78_$LT$std..sys..fs..unix..cfm..CachedFileMetadata$u20$as$u20$std..io..Write$GT$14write_vectored17he034a4ce1cf1484aE', symObjAddr: 0x4A130, symBinAddr: 0x4E810, symSize: 0x50 }
  - { offset: 0x80DDE, size: 0x8, addend: 0x0, symName: '__ZN3std3sys2fs4unix5chown28_$u7b$$u7b$closure$u7d$$u7d$17h7333895b284eefc4E', symObjAddr: 0x4A2A0, symBinAddr: 0x4E980, symSize: 0x40 }
  - { offset: 0x80E73, size: 0x8, addend: 0x0, symName: __ZN3std3sys2fs4unix5chown17hf88f950509f4b48aE, symObjAddr: 0x4A1E0, symBinAddr: 0x4E8C0, symSize: 0xC0 }
  - { offset: 0x80FA0, size: 0x8, addend: 0x0, symName: __ZN3std3sys2fs4unix6fchown17h60fbfec765076245E, symObjAddr: 0x4A2E0, symBinAddr: 0x4E9C0, symSize: 0x30 }
  - { offset: 0x8104F, size: 0x8, addend: 0x0, symName: '__ZN3std3sys2fs4unix6lchown28_$u7b$$u7b$closure$u7d$$u7d$17hc4722df095437ce4E', symObjAddr: 0x4A3D0, symBinAddr: 0x4EAB0, symSize: 0x40 }
  - { offset: 0x810E4, size: 0x8, addend: 0x0, symName: __ZN3std3sys2fs4unix6lchown17h5b34136a9e0ef698E, symObjAddr: 0x4A310, symBinAddr: 0x4E9F0, symSize: 0xC0 }
  - { offset: 0x81225, size: 0x8, addend: 0x0, symName: '__ZN3std3sys2fs4unix6chroot28_$u7b$$u7b$closure$u7d$$u7d$17haf8ffa9ea209c619E', symObjAddr: 0x4A4C0, symBinAddr: 0x4EBA0, symSize: 0x30 }
  - { offset: 0x812BA, size: 0x8, addend: 0x0, symName: __ZN3std3sys2fs4unix6chroot17h7e7444e59d53f33eE, symObjAddr: 0x4A410, symBinAddr: 0x4EAF0, symSize: 0xB0 }
  - { offset: 0x813FB, size: 0x8, addend: 0x0, symName: '__ZN3std3sys2fs4unix6mkfifo28_$u7b$$u7b$closure$u7d$$u7d$17hd701de31f0712419E', symObjAddr: 0x4A5D0, symBinAddr: 0x4ECB0, symSize: 0x70 }
  - { offset: 0x814D3, size: 0x8, addend: 0x0, symName: __ZN3std3sys2fs4unix6mkfifo17hba26c8dbbabd381fE, symObjAddr: 0x4A4F0, symBinAddr: 0x4EBD0, symSize: 0xE0 }
  - { offset: 0x8164E, size: 0x8, addend: 0x0, symName: __ZN3std3sys2fs8read_dir17h9ea4db68afbb2a05E, symObjAddr: 0x41120, symBinAddr: 0x45E10, symSize: 0x210 }
  - { offset: 0x8195D, size: 0x8, addend: 0x0, symName: __ZN3std3sys2fs11remove_file17hc9d9c5ba59657603E, symObjAddr: 0x41330, symBinAddr: 0x46020, symSize: 0xB0 }
  - { offset: 0x81AC4, size: 0x8, addend: 0x0, symName: '__ZN3std3sys2fs6rename28_$u7b$$u7b$closure$u7d$$u7d$28_$u7b$$u7b$closure$u7d$$u7d$17he27e56801b7894e6E', symObjAddr: 0x415C0, symBinAddr: 0x462B0, symSize: 0x30 }
  - { offset: 0x81B67, size: 0x8, addend: 0x0, symName: '__ZN3std3sys2fs6rename28_$u7b$$u7b$closure$u7d$$u7d$17h398d8e7d89a24dc0E', symObjAddr: 0x41500, symBinAddr: 0x461F0, symSize: 0xC0 }
  - { offset: 0x81CA3, size: 0x8, addend: 0x0, symName: __ZN3std3sys2fs6rename17h5945ec55aaa413c8E, symObjAddr: 0x413E0, symBinAddr: 0x460D0, symSize: 0x120 }
  - { offset: 0x81E55, size: 0x8, addend: 0x0, symName: __ZN3std3sys2fs10remove_dir17hde6fda5338e0a848E, symObjAddr: 0x415F0, symBinAddr: 0x462E0, symSize: 0xB0 }
  - { offset: 0x81F96, size: 0x8, addend: 0x0, symName: __ZN3std3sys2fs14remove_dir_all17h6beef4ad713dcb56E, symObjAddr: 0x416A0, symBinAddr: 0x46390, symSize: 0x130 }
  - { offset: 0x82142, size: 0x8, addend: 0x0, symName: __ZN3std3sys2fs9read_link17h70dc0595ac40c244E, symObjAddr: 0x417D0, symBinAddr: 0x464C0, symSize: 0xA0 }
  - { offset: 0x8220B, size: 0x8, addend: 0x0, symName: '__ZN3std3sys2fs7symlink28_$u7b$$u7b$closure$u7d$$u7d$28_$u7b$$u7b$closure$u7d$$u7d$17h6fdd1d22a40f483eE', symObjAddr: 0x41A50, symBinAddr: 0x46740, symSize: 0x30 }
  - { offset: 0x822AE, size: 0x8, addend: 0x0, symName: '__ZN3std3sys2fs7symlink28_$u7b$$u7b$closure$u7d$$u7d$17h8f9608c6f6509e8eE', symObjAddr: 0x41990, symBinAddr: 0x46680, symSize: 0xC0 }
  - { offset: 0x823EA, size: 0x8, addend: 0x0, symName: __ZN3std3sys2fs7symlink17h3e0eba5f6f21e1cfE, symObjAddr: 0x41870, symBinAddr: 0x46560, symSize: 0x120 }
  - { offset: 0x825C2, size: 0x8, addend: 0x0, symName: '__ZN3std3sys2fs9hard_link28_$u7b$$u7b$closure$u7d$$u7d$28_$u7b$$u7b$closure$u7d$$u7d$17he8fbfc53ec6309d4E', symObjAddr: 0x41C80, symBinAddr: 0x46970, symSize: 0x40 }
  - { offset: 0x82675, size: 0x8, addend: 0x0, symName: '__ZN3std3sys2fs9hard_link28_$u7b$$u7b$closure$u7d$$u7d$17hd6238e8abc75902fE', symObjAddr: 0x41BB0, symBinAddr: 0x468A0, symSize: 0xD0 }
  - { offset: 0x827B1, size: 0x8, addend: 0x0, symName: __ZN3std3sys2fs9hard_link17h494d989d1ca0aaa0E, symObjAddr: 0x41A80, symBinAddr: 0x46770, symSize: 0x130 }
  - { offset: 0x82963, size: 0x8, addend: 0x0, symName: __ZN3std3sys2fs8metadata17h7d53017535976707E, symObjAddr: 0x41CC0, symBinAddr: 0x469B0, symSize: 0x100 }
  - { offset: 0x82AF1, size: 0x8, addend: 0x0, symName: __ZN3std3sys2fs16symlink_metadata17h9c4ca305eb397a68E, symObjAddr: 0x41DC0, symBinAddr: 0x46AB0, symSize: 0x100 }
  - { offset: 0x82C92, size: 0x8, addend: 0x0, symName: '__ZN3std3sys2fs15set_permissions28_$u7b$$u7b$closure$u7d$$u7d$17h04be19b2d13c21f3E', symObjAddr: 0x41FA0, symBinAddr: 0x46C90, symSize: 0x60 }
  - { offset: 0x82D9F, size: 0x8, addend: 0x0, symName: __ZN3std3sys2fs15set_permissions17h0c57c0af96d32141E, symObjAddr: 0x41EC0, symBinAddr: 0x46BB0, symSize: 0xE0 }
  - { offset: 0x82F3A, size: 0x8, addend: 0x0, symName: __ZN3std3sys2fs12canonicalize17he54bbb0f9c76e15aE, symObjAddr: 0x42000, symBinAddr: 0x46CF0, symSize: 0xA0 }
  - { offset: 0x82FDD, size: 0x8, addend: 0x0, symName: __ZN3std3sys2fs4copy17h61a2da0686798e28E, symObjAddr: 0x420A0, symBinAddr: 0x46D90, symSize: 0x410 }
  - { offset: 0x839D8, size: 0x8, addend: 0x0, symName: __ZN3std3sys2fs6exists17h0dd05db4826f97e9E, symObjAddr: 0x424B0, symBinAddr: 0x471A0, symSize: 0x230 }
  - { offset: 0x83E4C, size: 0x8, addend: 0x0, symName: '__ZN94_$LT$std..sys..pal..unix..os..SplitPaths$u20$as$u20$core..iter..traits..iterator..Iterator$GT$4next17hbd59be235335308fE', symObjAddr: 0x46700, symBinAddr: 0x4AEF0, symSize: 0xA0 }
  - { offset: 0x83FB6, size: 0x8, addend: 0x0, symName: '__ZN78_$LT$std..sys..pal..unix..os..JoinPathsError$u20$as$u20$core..fmt..Display$GT$3fmt17hfc3234415e4643c2E', symObjAddr: 0x467A0, symBinAddr: 0x4AF90, symSize: 0x70 }
  - { offset: 0x840B8, size: 0x8, addend: 0x0, symName: '__ZN3std3sys3pal4unix2os5chdir28_$u7b$$u7b$closure$u7d$$u7d$17haab0468d5cb8b11eE', symObjAddr: 0x46640, symBinAddr: 0x4AE30, symSize: 0x30 }
  - { offset: 0x840CD, size: 0x8, addend: 0x0, symName: __ZN3std3sys3pal4unix2os5chdir17h5278c2108b196c64E, symObjAddr: 0x46570, symBinAddr: 0x4AD60, symSize: 0xD0 }
  - { offset: 0x841D5, size: 0x8, addend: 0x0, symName: __ZN3std3sys3pal4unix2os11split_paths13bytes_to_path17h039a62c1e951cb33E, symObjAddr: 0x46670, symBinAddr: 0x4AE60, symSize: 0x90 }
  - { offset: 0x84384, size: 0x8, addend: 0x0, symName: __ZN3std3sys3pal4unix2os4exit17h4856b86eadd8fe2cE, symObjAddr: 0x46810, symBinAddr: 0x4B000, symSize: 0x10 }
  - { offset: 0x84425, size: 0x8, addend: 0x0, symName: '__ZN81_$LT$std..sys..pal..unix..sync..mutex..Mutex$u20$as$u20$core..ops..drop..Drop$GT$4drop17h2c6f67bc0277e6b4E', symObjAddr: 0x46EB0, symBinAddr: 0x4B5A0, symSize: 0x10 }
  - { offset: 0x84474, size: 0x8, addend: 0x0, symName: __ZN3std3sys3pal4unix4sync5mutex5Mutex4init17h8092abb1c746e39bE, symObjAddr: 0x46C10, symBinAddr: 0x4B400, symSize: 0x160 }
  - { offset: 0x844F9, size: 0x8, addend: 0x0, symName: __ZN3std3sys3pal4unix4sync5mutex5Mutex4lock17he207da35f1cacfcdE, symObjAddr: 0x46D70, symBinAddr: 0x4B560, symSize: 0x20 }
  - { offset: 0x8450D, size: 0x8, addend: 0x0, symName: __ZN3std3sys3pal4unix4sync5mutex5Mutex8try_lock17h6c58920115080f52E, symObjAddr: 0x46E90, symBinAddr: 0x4B580, symSize: 0x10 }
  - { offset: 0x84521, size: 0x8, addend: 0x0, symName: __ZN3std3sys3pal4unix4sync5mutex5Mutex6unlock17hb59b0e421db84c52E, symObjAddr: 0x46EA0, symBinAddr: 0x4B590, symSize: 0x10 }
  - { offset: 0x84549, size: 0x8, addend: 0x0, symName: '__ZN85_$LT$std..sys..pal..unix..sync..mutex..AttrGuard$u20$as$u20$core..ops..drop..Drop$GT$4drop17h5185c3df31a05b16E', symObjAddr: 0x46EC0, symBinAddr: 0x4B5B0, symSize: 0x50 }
  - { offset: 0x8456A, size: 0x8, addend: 0x0, symName: __ZN3std3sys3pal4unix4sync5mutex5Mutex4lock4fail17h0add7174ccd18d3fE, symObjAddr: 0x46D90, symBinAddr: 0x9C3C0, symSize: 0x100 }
  - { offset: 0x84909, size: 0x8, addend: 0x0, symName: __ZN3std3sys3pal4unix6thread6Thread3new17hcfde7062edc4c832E, symObjAddr: 0x46F10, symBinAddr: 0x4B600, symSize: 0x260 }
  - { offset: 0x84BC7, size: 0x8, addend: 0x0, symName: __ZN3std3sys3pal4unix6thread6Thread8set_name17h43e4aa4941c451caE, symObjAddr: 0x471F0, symBinAddr: 0x4B8E0, symSize: 0x80 }
  - { offset: 0x84CC3, size: 0x8, addend: 0x0, symName: __ZN3std3sys3pal4unix6thread6Thread4join17h7e6b485480602f0cE, symObjAddr: 0x47270, symBinAddr: 0x4B960, symSize: 0x90 }
  - { offset: 0x84D3E, size: 0x8, addend: 0x0, symName: __ZN3std3sys3pal4unix6thread6Thread3new12thread_start17h0d6dec6f5ad9033cE, symObjAddr: 0x47170, symBinAddr: 0x4B860, symSize: 0x80 }
  - { offset: 0x84EE6, size: 0x8, addend: 0x0, symName: '__ZN77_$LT$std..sys..pal..unix..thread..Thread$u20$as$u20$core..ops..drop..Drop$GT$4drop17h573e81e52ffba417E', symObjAddr: 0x47300, symBinAddr: 0x4B9F0, symSize: 0x10 }
  - { offset: 0x84F75, size: 0x8, addend: 0x0, symName: __ZN3std3sys3pal4unix4time8Timespec3now17h1a8af78d1c90cb90E, symObjAddr: 0x47390, symBinAddr: 0x4BA80, symSize: 0x100 }
  - { offset: 0x8503D, size: 0x8, addend: 0x0, symName: __ZN3std3sys3pal4unix4time8Timespec12sub_timespec17hbfaa3606072c20c8E, symObjAddr: 0x47490, symBinAddr: 0x4BB80, symSize: 0xD0 }
  - { offset: 0x8516A, size: 0x8, addend: 0x0, symName: '__ZN71_$LT$std..sys..pal..unix..time..Instant$u20$as$u20$core..fmt..Debug$GT$3fmt17h21bb52fb6ed5f173E', symObjAddr: 0x47560, symBinAddr: 0x4BC50, symSize: 0x80 }
  - { offset: 0x85192, size: 0x8, addend: 0x0, symName: '__ZN74_$LT$std..sys..pal..unix..time..SystemTime$u20$as$u20$core..fmt..Debug$GT$3fmt17he2d42a151301af87E', symObjAddr: 0x47310, symBinAddr: 0x4BA00, symSize: 0x80 }
  - { offset: 0x8538B, size: 0x8, addend: 0x0, symName: __ZN3std3sys3pal4unix4pipe8AnonPipe5write17h4a841085f32a72e7E, symObjAddr: 0x46930, symBinAddr: 0x4B120, symSize: 0x50 }
  - { offset: 0x85469, size: 0x8, addend: 0x0, symName: __ZN3std3sys3pal4unix4pipe9anon_pipe17h87ca2d896a658683E, symObjAddr: 0x46820, symBinAddr: 0x4B010, symSize: 0x110 }
  - { offset: 0x857C4, size: 0x8, addend: 0x0, symName: __ZN3std3sys3pal4unix4pipe5read217hcdc3c9f5c6bebfabE, symObjAddr: 0x46980, symBinAddr: 0x4B170, symSize: 0x290 }
  - { offset: 0x85E6E, size: 0x8, addend: 0x0, symName: '__ZN3std3sys3pal4unix4weak18DlsymWeak$LT$F$GT$10initialize17h3f55e5fb36892cd8E', symObjAddr: 0x46520, symBinAddr: 0x9C370, symSize: 0x50 }
  - { offset: 0x85F0C, size: 0x8, addend: 0x0, symName: __ZN3std3sys3pal4unix17decode_error_kind17h9f7d5f68054bedbaE, symObjAddr: 0x475E0, symBinAddr: 0x4BCD0, symSize: 0x250 }
  - { offset: 0x85F26, size: 0x8, addend: 0x0, symName: __ZN3std3sys3pal4unix14abort_internal17hf42c36342a7e11d0E, symObjAddr: 0x47830, symBinAddr: 0x9C4C0, symSize: 0x10 }
  - { offset: 0x860CC, size: 0x8, addend: 0x0, symName: __ZN3std3sys3pal6common14small_c_string24run_with_cstr_allocating17h0040ba2932f8a549E, symObjAddr: 0x3FFD0, symBinAddr: 0x9B910, symSize: 0xC0 }
  - { offset: 0x862BE, size: 0x8, addend: 0x0, symName: __ZN3std3sys3pal6common14small_c_string24run_with_cstr_allocating17h1dddb82ece534588E, symObjAddr: 0x40090, symBinAddr: 0x9B9D0, symSize: 0x90 }
  - { offset: 0x8643E, size: 0x8, addend: 0x0, symName: __ZN3std3sys3pal6common14small_c_string24run_with_cstr_allocating17h2bd886895538daa5E, symObjAddr: 0x40120, symBinAddr: 0x9BA60, symSize: 0xA0 }
  - { offset: 0x865BE, size: 0x8, addend: 0x0, symName: __ZN3std3sys3pal6common14small_c_string24run_with_cstr_allocating17h7519a6c875931173E, symObjAddr: 0x401C0, symBinAddr: 0x9BB00, symSize: 0xB0 }
  - { offset: 0x867B0, size: 0x8, addend: 0x0, symName: __ZN3std3sys3pal6common14small_c_string24run_with_cstr_allocating17h98e19f6fc875799bE, symObjAddr: 0x40270, symBinAddr: 0x9BBB0, symSize: 0xC0 }
  - { offset: 0x869A2, size: 0x8, addend: 0x0, symName: __ZN3std3sys3pal6common14small_c_string24run_with_cstr_allocating17hcac909b9d1faf55fE, symObjAddr: 0x40330, symBinAddr: 0x9BC70, symSize: 0xC0 }
  - { offset: 0x86B94, size: 0x8, addend: 0x0, symName: __ZN3std3sys3pal6common14small_c_string24run_with_cstr_allocating17hdd349809f57945bfE, symObjAddr: 0x403F0, symBinAddr: 0x9BD30, symSize: 0xC0 }
  - { offset: 0x86D86, size: 0x8, addend: 0x0, symName: __ZN3std3sys3pal6common14small_c_string24run_with_cstr_allocating17hf7c791b587905d67E, symObjAddr: 0x404B0, symBinAddr: 0x9BDF0, symSize: 0xC0 }
  - { offset: 0x871FD, size: 0x8, addend: 0x0, symName: '__ZN64_$LT$std..sys..stdio..unix..Stdout$u20$as$u20$std..io..Write$GT$5write17h7981dedfe727f313E', symObjAddr: 0x4FEF0, symBinAddr: 0x545D0, symSize: 0x50 }
  - { offset: 0x872D4, size: 0x8, addend: 0x0, symName: '__ZN64_$LT$std..sys..stdio..unix..Stdout$u20$as$u20$std..io..Write$GT$14write_vectored17h1f7c1310ea56a6beE', symObjAddr: 0x4FF40, symBinAddr: 0x54620, symSize: 0x50 }
  - { offset: 0x873CC, size: 0x8, addend: 0x0, symName: '__ZN64_$LT$std..sys..stdio..unix..Stderr$u20$as$u20$std..io..Write$GT$5write17h161e84d0e1755223E', symObjAddr: 0x4FF90, symBinAddr: 0x54670, symSize: 0x50 }
  - { offset: 0x874A3, size: 0x8, addend: 0x0, symName: '__ZN64_$LT$std..sys..stdio..unix..Stderr$u20$as$u20$std..io..Write$GT$14write_vectored17hda47a0821c0d4e65E', symObjAddr: 0x4FFE0, symBinAddr: 0x546C0, symSize: 0x50 }
  - { offset: 0x8757A, size: 0x8, addend: 0x0, symName: '__ZN64_$LT$std..sys..stdio..unix..Stderr$u20$as$u20$std..io..Write$GT$17is_write_vectored17hfa8e106da2104bbdE', symObjAddr: 0x50030, symBinAddr: 0x54710, symSize: 0x10 }
  - { offset: 0x87594, size: 0x8, addend: 0x0, symName: '__ZN64_$LT$std..sys..stdio..unix..Stderr$u20$as$u20$std..io..Write$GT$5flush17h49f2a9c31ee22babE', symObjAddr: 0x50040, symBinAddr: 0x54720, symSize: 0x10 }
  - { offset: 0x875DC, size: 0x8, addend: 0x0, symName: '__ZN62_$LT$std..sys..stdio..unix..Stdin$u20$as$u20$std..io..Read$GT$4read17h3bbdf442238c4b1eE', symObjAddr: 0x4FDE0, symBinAddr: 0x544C0, symSize: 0x50 }
  - { offset: 0x876B1, size: 0x8, addend: 0x0, symName: '__ZN62_$LT$std..sys..stdio..unix..Stdin$u20$as$u20$std..io..Read$GT$8read_buf17h9c2bc225b039df21E', symObjAddr: 0x4FE30, symBinAddr: 0x54510, symSize: 0x70 }
  - { offset: 0x8785D, size: 0x8, addend: 0x0, symName: '__ZN62_$LT$std..sys..stdio..unix..Stdin$u20$as$u20$std..io..Read$GT$13read_vectored17h7237eda3e28e2cfdE', symObjAddr: 0x4FEA0, symBinAddr: 0x54580, symSize: 0x50 }
  - { offset: 0x8794E, size: 0x8, addend: 0x0, symName: '__ZN3std3sys9backtrace10_print_fmt28_$u7b$$u7b$closure$u7d$$u7d$17hfd6e08efb149281bE', symObjAddr: 0x409F0, symBinAddr: 0x456E0, symSize: 0x20 }
  - { offset: 0x87978, size: 0x8, addend: 0x0, symName: '__ZN3std3sys9backtrace10_print_fmt28_$u7b$$u7b$closure$u7d$$u7d$17h56dc31c72309c254E', symObjAddr: 0x40A10, symBinAddr: 0x45700, symSize: 0x130 }
  - { offset: 0x87A84, size: 0x8, addend: 0x0, symName: '__ZN3std3sys9backtrace10_print_fmt28_$u7b$$u7b$closure$u7d$$u7d$28_$u7b$$u7b$closure$u7d$$u7d$17h8759e835088f8499E', symObjAddr: 0x40B40, symBinAddr: 0x45830, symSize: 0x2A0 }
  - { offset: 0x87C9F, size: 0x8, addend: 0x0, symName: __ZN3std3sys9backtrace4lock17h81ee7c86a607e081E, symObjAddr: 0x40690, symBinAddr: 0x45380, symSize: 0x80 }
  - { offset: 0x87DE2, size: 0x8, addend: 0x0, symName: __ZN3std3sys9backtrace13BacktraceLock5print17h7cdaf056ec167c13E, symObjAddr: 0x40710, symBinAddr: 0x45400, symSize: 0x60 }
  - { offset: 0x87E33, size: 0x8, addend: 0x0, symName: '__ZN98_$LT$std..sys..backtrace..BacktraceLock..print..DisplayBacktrace$u20$as$u20$core..fmt..Display$GT$3fmt17hb5382be56d7f30bfE', symObjAddr: 0x40770, symBinAddr: 0x45460, symSize: 0x280 }
  - { offset: 0x883C8, size: 0x8, addend: 0x0, symName: __ZN3std3sys9backtrace26__rust_end_short_backtrace17h0de29e32f0b3d5c7E, symObjAddr: 0x40DE0, symBinAddr: 0x45AD0, symSize: 0x10 }
  - { offset: 0x883E2, size: 0x8, addend: 0x0, symName: __ZN3std3sys9backtrace26__rust_end_short_backtrace17h440e08e5b088a3c8E, symObjAddr: 0x40DF0, symBinAddr: 0x45AE0, symSize: 0x10 }
  - { offset: 0x883FC, size: 0x8, addend: 0x0, symName: __ZN3std3sys9backtrace15output_filename17hed97e50127eba52eE, symObjAddr: 0x40E00, symBinAddr: 0x45AF0, symSize: 0x120 }
  - { offset: 0x885BD, size: 0x8, addend: 0x0, symName: '__ZN3std3sys11personality3gcc14find_eh_action28_$u7b$$u7b$closure$u7d$$u7d$17hd1cb3dfec73ff6f1E', symObjAddr: 0x47840, symBinAddr: 0x4BF20, symSize: 0x10 }
  - { offset: 0x885D1, size: 0x8, addend: 0x0, symName: '__ZN3std3sys11personality3gcc14find_eh_action28_$u7b$$u7b$closure$u7d$$u7d$17h9004091520e8c381E', symObjAddr: 0x47850, symBinAddr: 0x4BF30, symSize: 0x10 }
  - { offset: 0x88601, size: 0x8, addend: 0x0, symName: _rust_eh_personality, symObjAddr: 0x47860, symBinAddr: 0x4BF40, symSize: 0x710 }
  - { offset: 0x89323, size: 0x8, addend: 0x0, symName: '__ZN3std3sys4sync8once_box16OnceBox$LT$T$GT$10initialize17h04dd8d314b854a87E', symObjAddr: 0x42FE0, symBinAddr: 0x9BEB0, symSize: 0xF0 }
  - { offset: 0x894C6, size: 0x8, addend: 0x0, symName: '__ZN3std3sys4sync8once_box16OnceBox$LT$T$GT$10initialize17h6bc863ff08727a14E', symObjAddr: 0x430D0, symBinAddr: 0x9BFA0, symSize: 0x130 }
  - { offset: 0x8979C, size: 0x8, addend: 0x0, symName: '__ZN79_$LT$std..sys..sync..mutex..pthread..Mutex$u20$as$u20$core..ops..drop..Drop$GT$4drop17h81e89a981d4f13ebE', symObjAddr: 0x50230, symBinAddr: 0x54910, symSize: 0x50 }
  - { offset: 0x89985, size: 0x8, addend: 0x0, symName: __ZN3std3sys4sync6rwlock5queue6RwLock14lock_contended17h298566ba4a972c33E, symObjAddr: 0x50940, symBinAddr: 0x9C910, symSize: 0x220 }
  - { offset: 0x89F4D, size: 0x8, addend: 0x0, symName: __ZN3std3sys4sync6rwlock5queue6RwLock21read_unlock_contended17ha48de41457d52d71E, symObjAddr: 0x50B60, symBinAddr: 0x9CB30, symSize: 0x50 }
  - { offset: 0x8A0CD, size: 0x8, addend: 0x0, symName: __ZN3std3sys4sync6rwlock5queue6RwLock16unlock_contended17h650da600c7ec726bE, symObjAddr: 0x50BB0, symBinAddr: 0x9CB80, symSize: 0x40 }
  - { offset: 0x8A1B2, size: 0x8, addend: 0x0, symName: __ZN3std3sys4sync6rwlock5queue6RwLock14downgrade_slow17h6c07d49f8d447607E, symObjAddr: 0x50BF0, symBinAddr: 0x9CBC0, symSize: 0xF0 }
  - { offset: 0x8A58F, size: 0x8, addend: 0x0, symName: __ZN3std3sys4sync6rwlock5queue6RwLock12unlock_queue17h795421edf70bd642E, symObjAddr: 0x50CE0, symBinAddr: 0x54BE0, symSize: 0x180 }
  - { offset: 0x8ACA0, size: 0x8, addend: 0x0, symName: __ZN3std3sys4sync6rwlock5queue10write_lock17h79405d7d2a5cadc4E, symObjAddr: 0x508A0, symBinAddr: 0x54B90, symSize: 0x20 }
  - { offset: 0x8ACB4, size: 0x8, addend: 0x0, symName: __ZN3std3sys4sync6rwlock5queue9read_lock17h532ed187671afd3fE, symObjAddr: 0x508C0, symBinAddr: 0x54BB0, symSize: 0x30 }
  - { offset: 0x8ACCE, size: 0x8, addend: 0x0, symName: '__ZN83_$LT$std..sys..sync..rwlock..queue..PanicGuard$u20$as$u20$core..ops..drop..Drop$GT$4drop17h4322f53c21b22999E', symObjAddr: 0x508F0, symBinAddr: 0x9C8C0, symSize: 0x50 }
  - { offset: 0x8AD65, size: 0x8, addend: 0x0, symName: '__ZN88_$LT$std..sys..sync..thread_parking..darwin..Parker$u20$as$u20$core..ops..drop..Drop$GT$4drop17h72a36710f5e57b61E', symObjAddr: 0x50E80, symBinAddr: 0x54D80, symSize: 0x10 }
  - { offset: 0x8ADB4, size: 0x8, addend: 0x0, symName: __ZN3std3sys4sync14thread_parking6darwin6Parker6unpark17hb5ee2cc3e1bbf321E, symObjAddr: 0x50E60, symBinAddr: 0x54D60, symSize: 0x20 }
  - { offset: 0x8AE7F, size: 0x8, addend: 0x0, symName: __ZN3std3sys4sync4once5queue4Once4wait17he91b0a84add568a1E, symObjAddr: 0x50280, symBinAddr: 0x9C4D0, symSize: 0x1E0 }
  - { offset: 0x8B3D0, size: 0x8, addend: 0x0, symName: __ZN3std3sys4sync4once5queue4Once4call17h5c7a21fc31377267E, symObjAddr: 0x50460, symBinAddr: 0x9C6B0, symSize: 0x210 }
  - { offset: 0x8B6D9, size: 0x8, addend: 0x0, symName: '__ZN82_$LT$std..sys..sync..once..queue..WaiterQueue$u20$as$u20$core..ops..drop..Drop$GT$4drop17h884e628547fcf5f7E', symObjAddr: 0x507D0, symBinAddr: 0x54AC0, symSize: 0xD0 }
  - { offset: 0x8B889, size: 0x8, addend: 0x0, symName: __ZN3std3sys4sync4once5queue4wait17h946dc94c93d16e92E, symObjAddr: 0x50670, symBinAddr: 0x54960, symSize: 0x160 }
  - { offset: 0x8BDEC, size: 0x8, addend: 0x0, symName: __ZN3std3sys4sync7condvar7pthread7Condvar12wait_timeout17h5fd5fba5b2d0c887E, symObjAddr: 0x50050, symBinAddr: 0x54730, symSize: 0x1E0 }
  - { offset: 0x8C2CE, size: 0x8, addend: 0x0, symName: __ZN3std3sys12thread_local6native5eager7destroy17he2fc0e4fb4d34d7cE, symObjAddr: 0x50E90, symBinAddr: 0x54D90, symSize: 0x20 }
  - { offset: 0x8C3F8, size: 0x8, addend: 0x0, symName: __ZN3std3sys12thread_local6native5eager7destroy17he7f9c0f4acebe42eE, symObjAddr: 0x50EB0, symBinAddr: 0x54DB0, symSize: 0x60 }
  - { offset: 0x8C5BA, size: 0x8, addend: 0x0, symName: __ZN3std3sys12thread_local5guard5apple6enable9run_dtors17hbbd12dbefa770258E, symObjAddr: 0x51020, symBinAddr: 0x54F20, symSize: 0x120 }
  - { offset: 0x8CAF3, size: 0x8, addend: 0x0, symName: '__ZN103_$LT$std..sys..thread_local..abort_on_dtor_unwind..DtorUnwindGuard$u20$as$u20$core..ops..drop..Drop$GT$4drop17h51f5ae201aeb9c78E', symObjAddr: 0x43200, symBinAddr: 0x9C0D0, symSize: 0x50 }
  - { offset: 0x8CB4F, size: 0x8, addend: 0x0, symName: __ZN3std3sys12thread_local11destructors4list8register17hc99ce59386b09d7dE, symObjAddr: 0x50F10, symBinAddr: 0x54E10, symSize: 0x110 }
  - { offset: 0x8CE7B, size: 0x8, addend: 0x0, symName: __ZN3std3sys3env4unix13env_read_lock17h8101cde26683e631E, symObjAddr: 0x47F70, symBinAddr: 0x4C650, symSize: 0x280 }
  - { offset: 0x8D5AD, size: 0x8, addend: 0x0, symName: '__ZN3std3sys3env4unix6getenv28_$u7b$$u7b$closure$u7d$$u7d$17ha3ee49a21f90109fE', symObjAddr: 0x481F0, symBinAddr: 0x4C8D0, symSize: 0x140 }
  - { offset: 0x8D7F8, size: 0x8, addend: 0x0, symName: __ZN3std3sys3env4unix6setenv17hd876a414f2b6d5f0E, symObjAddr: 0x48330, symBinAddr: 0x4CA10, symSize: 0xA0 }
  - { offset: 0x8D891, size: 0x8, addend: 0x0, symName: '__ZN3std3sys3env4unix6setenv28_$u7b$$u7b$closure$u7d$$u7d$28_$u7b$$u7b$closure$u7d$$u7d$17h281003ee0674c26bE', symObjAddr: 0x484F0, symBinAddr: 0x4CBD0, symSize: 0xA0 }
  - { offset: 0x8D93A, size: 0x8, addend: 0x0, symName: '__ZN3std3sys3env4unix6setenv28_$u7b$$u7b$closure$u7d$$u7d$17h3bff71498b207064E', symObjAddr: 0x483D0, symBinAddr: 0x4CAB0, symSize: 0x120 }
  - { offset: 0x8DA67, size: 0x8, addend: 0x0, symName: '__ZN3std3sys3env4unix8unsetenv28_$u7b$$u7b$closure$u7d$$u7d$17h31cb6642f9e1f7e1E', symObjAddr: 0x486A0, symBinAddr: 0x4CD80, symSize: 0x90 }
  - { offset: 0x8DB10, size: 0x8, addend: 0x0, symName: __ZN3std3sys3env4unix8unsetenv17hbe110458fa9e6c56E, symObjAddr: 0x48590, symBinAddr: 0x4CC70, symSize: 0x110 }
  - { offset: 0x8DC71, size: 0x8, addend: 0x0, symName: '__ZN85_$LT$std..sys..env..common..Env$u20$as$u20$core..iter..traits..iterator..Iterator$GT$4next17he6027c149d4f1022E', symObjAddr: 0x41080, symBinAddr: 0x45D70, symSize: 0x60 }
  - { offset: 0x8DCEA, size: 0x8, addend: 0x0, symName: '__ZN85_$LT$std..sys..env..common..Env$u20$as$u20$core..iter..traits..iterator..Iterator$GT$9size_hint17hb0e04e379d4e11daE', symObjAddr: 0x410E0, symBinAddr: 0x45DD0, symSize: 0x40 }
  - { offset: 0x8DD73, size: 0x8, addend: 0x0, symName: '__ZN71_$LT$std..sys..env..common..EnvStrDebug$u20$as$u20$core..fmt..Debug$GT$3fmt17h13201ab629312586E', symObjAddr: 0x40F20, symBinAddr: 0x45C10, symSize: 0xE0 }
  - { offset: 0x8E01A, size: 0x8, addend: 0x0, symName: '__ZN63_$LT$std..sys..env..common..Env$u20$as$u20$core..fmt..Debug$GT$3fmt17h90f016146ca5c2a8E', symObjAddr: 0x41000, symBinAddr: 0x45CF0, symSize: 0x80 }
  - { offset: 0x8E0F5, size: 0x8, addend: 0x0, symName: '__ZN65_$LT$std..sys..args..common..Args$u20$as$u20$core..fmt..Debug$GT$3fmt17h4ca3274a6a543922E', symObjAddr: 0x40610, symBinAddr: 0x45300, symSize: 0x80 }
  - { offset: 0x8E1A4, size: 0x8, addend: 0x0, symName: __ZN3std3sys4path4unix8absolute17h25c3c58a6e8692b2E, symObjAddr: 0x4C1B0, symBinAddr: 0x50890, symSize: 0x420 }
  - { offset: 0x8EC6C, size: 0x8, addend: 0x0, symName: '__ZN104_$LT$std..sys..net..connection..socket..LookupHost$u20$as$u20$core..iter..traits..iterator..Iterator$GT$4next17hd412754e70319fdbE', symObjAddr: 0x4A9E0, symBinAddr: 0x4F0C0, symSize: 0xF0 }
  - { offset: 0x8ED63, size: 0x8, addend: 0x0, symName: '__ZN87_$LT$std..sys..net..connection..socket..LookupHost$u20$as$u20$core..ops..drop..Drop$GT$4drop17h137c97f25f82d271E', symObjAddr: 0x4AAD0, symBinAddr: 0x4F1B0, symSize: 0x10 }
  - { offset: 0x8ED8C, size: 0x8, addend: 0x0, symName: '__ZN117_$LT$std..sys..net..connection..socket..LookupHost$u20$as$u20$core..convert..TryFrom$LT$$LP$$RF$str$C$u16$RP$$GT$$GT$8try_from17h78aa5582fb1783faE', symObjAddr: 0x4AC90, symBinAddr: 0x4F370, symSize: 0xB0 }
  - { offset: 0x8EE1A, size: 0x8, addend: 0x0, symName: '__ZN117_$LT$std..sys..net..connection..socket..LookupHost$u20$as$u20$core..convert..TryFrom$LT$$LP$$RF$str$C$u16$RP$$GT$$GT$8try_from28_$u7b$$u7b$closure$u7d$$u7d$17h67c7fe9506a0bf3aE', symObjAddr: 0x4AD40, symBinAddr: 0x4F420, symSize: 0x1C0 }
  - { offset: 0x8F375, size: 0x8, addend: 0x0, symName: __ZN3std3sys3net10connection6socket9TcpStream7connect17h7eaaf566a8cd9dd5E, symObjAddr: 0x4AF00, symBinAddr: 0x4F5E0, symSize: 0x130 }
  - { offset: 0x8F594, size: 0x8, addend: 0x0, symName: __ZN3std3sys3net10connection6socket9TcpStream9peer_addr17h5fa765de3ac1b109E, symObjAddr: 0x4B030, symBinAddr: 0x4F710, symSize: 0x170 }
  - { offset: 0x8F8D7, size: 0x8, addend: 0x0, symName: __ZN3std3sys3net10connection6socket4unix6Socket7new_raw17h85bd813d9dc22643E, symObjAddr: 0x4BB40, symBinAddr: 0x50220, symSize: 0xB0 }
  - { offset: 0x8FA1F, size: 0x8, addend: 0x0, symName: __ZN3std3sys3net10connection6socket4unix6Socket8new_pair17h8fc511781297aa6dE, symObjAddr: 0x4BBF0, symBinAddr: 0x502D0, symSize: 0x120 }
  - { offset: 0x8FD46, size: 0x8, addend: 0x0, symName: __ZN3std3sys3net10connection6socket4unix6Socket20recv_from_with_flags17h3b9bdd5eff6326a7E, symObjAddr: 0x4BD10, symBinAddr: 0x503F0, symSize: 0x140 }
  - { offset: 0x8FE88, size: 0x8, addend: 0x0, symName: __ZN3std3sys3net10connection6socket4unix6Socket10take_error17ha4f3bd7c4b16700dE, symObjAddr: 0x4BE50, symBinAddr: 0x50530, symSize: 0x70 }
  - { offset: 0x900C6, size: 0x8, addend: 0x0, symName: __ZN3std3sys3net10connection6socket11TcpListener4bind17he34d92b0a98dbe6cE, symObjAddr: 0x4B390, symBinAddr: 0x4FA70, symSize: 0x150 }
  - { offset: 0x90330, size: 0x8, addend: 0x0, symName: __ZN3std3sys3net10connection6socket11TcpListener11socket_addr17h6f1d75e47b3353d8E, symObjAddr: 0x4B4E0, symBinAddr: 0x4FBC0, symSize: 0x170 }
  - { offset: 0x905F1, size: 0x8, addend: 0x0, symName: __ZN3std3sys3net10connection6socket9UdpSocket4bind17hc00c603ec4cf9843E, symObjAddr: 0x4B790, symBinAddr: 0x4FE70, symSize: 0x110 }
  - { offset: 0x90840, size: 0x8, addend: 0x0, symName: __ZN3std3sys3net10connection6socket9UdpSocket7send_to17h69127354c1696ac6E, symObjAddr: 0x4B8A0, symBinAddr: 0x4FF80, symSize: 0xA0 }
  - { offset: 0x9085F, size: 0x8, addend: 0x0, symName: __ZN3std3sys3net10connection6socket9UdpSocket7send_to17h69127354c1696ac6E, symObjAddr: 0x4B8A0, symBinAddr: 0x4FF80, symSize: 0xA0 }
  - { offset: 0x90A10, size: 0x8, addend: 0x0, symName: __ZN3std3sys3net10connection6socket9UdpSocket7connect17h6d173f3cb66bfbf6E, symObjAddr: 0x4B940, symBinAddr: 0x50020, symSize: 0xC0 }
  - { offset: 0x90C83, size: 0x8, addend: 0x0, symName: '__ZN103_$LT$std..sys..net..connection..socket..LookupHost$u20$as$u20$core..convert..TryFrom$LT$$RF$str$GT$$GT$8try_from17h6845a831fc1093e1E', symObjAddr: 0x4AAE0, symBinAddr: 0x4F1C0, symSize: 0x1B0 }
  - { offset: 0x90F35, size: 0x8, addend: 0x0, symName: '__ZN81_$LT$std..sys..net..connection..socket..TcpStream$u20$as$u20$core..fmt..Debug$GT$3fmt17hf0cd37f74768c910E', symObjAddr: 0x4B1A0, symBinAddr: 0x4F880, symSize: 0x1F0 }
  - { offset: 0x914E5, size: 0x8, addend: 0x0, symName: '__ZN83_$LT$std..sys..net..connection..socket..TcpListener$u20$as$u20$core..fmt..Debug$GT$3fmt17h9671f42961fe51a7E', symObjAddr: 0x4B650, symBinAddr: 0x4FD30, symSize: 0x140 }
  - { offset: 0x917B2, size: 0x8, addend: 0x0, symName: '__ZN81_$LT$std..sys..net..connection..socket..UdpSocket$u20$as$u20$core..fmt..Debug$GT$3fmt17h74a151b24e07cc78E', symObjAddr: 0x4BA00, symBinAddr: 0x500E0, symSize: 0x140 }
  - { offset: 0x91A96, size: 0x8, addend: 0x0, symName: __ZN3std3sys6random19hashmap_random_keys17h39e8cac3f76565a6E, symObjAddr: 0x42F60, symBinAddr: 0x47C50, symSize: 0x80 }
  - { offset: 0x91BAD, size: 0x8, addend: 0x0, symName: __ZN3std3sys5alloc16realloc_fallback17hf50d8abc0b9e1f3aE, symObjAddr: 0x40570, symBinAddr: 0x45260, symSize: 0xA0 }
  - { offset: 0x91C8F, size: 0x8, addend: 0x0, symName: '__ZN61_$LT$std..process..ChildStdin$u20$as$u20$core..fmt..Debug$GT$3fmt17h01dd58d2cc31ac24E', symObjAddr: 0x3D5A0, symBinAddr: 0x42AF0, symSize: 0x30 }
  - { offset: 0x91CB8, size: 0x8, addend: 0x0, symName: '__ZN62_$LT$std..process..ChildStderr$u20$as$u20$core..fmt..Debug$GT$3fmt17h452f27922bdcb4d7E', symObjAddr: 0x3D6C0, symBinAddr: 0x42C10, symSize: 0x30 }
  - { offset: 0x91CE1, size: 0x8, addend: 0x0, symName: '__ZN62_$LT$std..process..ChildStdout$u20$as$u20$core..fmt..Debug$GT$3fmt17h4c17c13d8318e8c0E', symObjAddr: 0x3D5D0, symBinAddr: 0x42B20, symSize: 0x30 }
  - { offset: 0x91D1F, size: 0x8, addend: 0x0, symName: '__ZN112_$LT$std..process..Child$u20$as$u20$std..sys_common..IntoInner$LT$std..sys..process..unix..unix..Process$GT$$GT$10into_inner17h69b6a3c20e44b051E', symObjAddr: 0x3D4B0, symBinAddr: 0x42A00, symSize: 0x50 }
  - { offset: 0x91EF4, size: 0x8, addend: 0x0, symName: '__ZN56_$LT$std..process..Child$u20$as$u20$core..fmt..Debug$GT$3fmt17h47c830b754d8bec4E', symObjAddr: 0x3D500, symBinAddr: 0x42A50, symSize: 0xA0 }
  - { offset: 0x91F16, size: 0x8, addend: 0x0, symName: '__ZN59_$LT$std..process..ChildStderr$u20$as$u20$std..io..Read$GT$4read17h3c361d1b6b7b4025E', symObjAddr: 0x3D600, symBinAddr: 0x42B50, symSize: 0x50 }
  - { offset: 0x92009, size: 0x8, addend: 0x0, symName: '__ZN59_$LT$std..process..ChildStderr$u20$as$u20$std..io..Read$GT$8read_buf17ha16ff37c41edb687E', symObjAddr: 0x3D650, symBinAddr: 0x42BA0, symSize: 0x70 }
  - { offset: 0x921E0, size: 0x8, addend: 0x0, symName: __ZN3std7process7Command9env_clear17h98941fc7f2f762f9E, symObjAddr: 0x3D6F0, symBinAddr: 0x42C40, symSize: 0x130 }
  - { offset: 0x92505, size: 0x8, addend: 0x0, symName: __ZN3std7process7Command5spawn17hc87d1ad8d4a59402E, symObjAddr: 0x3D820, symBinAddr: 0x42D70, symSize: 0x60 }
  - { offset: 0x92537, size: 0x8, addend: 0x0, symName: __ZN3std7process7Command6output17ha0e916ae5adbaa22E, symObjAddr: 0x3D880, symBinAddr: 0x42DD0, symSize: 0x360 }
  - { offset: 0x92B36, size: 0x8, addend: 0x0, symName: __ZN3std7process7Command6status17h2811afc74f9679b1E, symObjAddr: 0x3DBE0, symBinAddr: 0x43130, symSize: 0x100 }
  - { offset: 0x92E4C, size: 0x8, addend: 0x0, symName: __ZN3std7process7Command11get_program17ha12477a6b46fe1d4E, symObjAddr: 0x3DCE0, symBinAddr: 0x43230, symSize: 0x20 }
  - { offset: 0x92E95, size: 0x8, addend: 0x0, symName: __ZN3std7process7Command8get_args17h688908632e9f3962E, symObjAddr: 0x3DD00, symBinAddr: 0x43250, symSize: 0x30 }
  - { offset: 0x92F21, size: 0x8, addend: 0x0, symName: __ZN3std7process7Command15get_current_dir17haa953e8d69df0c4aE, symObjAddr: 0x3DD30, symBinAddr: 0x43280, symSize: 0x20 }
  - { offset: 0x92F7F, size: 0x8, addend: 0x0, symName: __ZN3std7process5Child4kill17h223721b8e2e433fbE, symObjAddr: 0x3E180, symBinAddr: 0x436D0, symSize: 0x40 }
  - { offset: 0x93029, size: 0x8, addend: 0x0, symName: __ZN3std7process5Child4wait17h6783ba1ac7164aacE, symObjAddr: 0x3E1C0, symBinAddr: 0x43710, symSize: 0xB0 }
  - { offset: 0x93209, size: 0x8, addend: 0x0, symName: __ZN3std7process5Child8try_wait17ha220234b507d9e08E, symObjAddr: 0x3E270, symBinAddr: 0x437C0, symSize: 0xB0 }
  - { offset: 0x932D2, size: 0x8, addend: 0x0, symName: __ZN3std7process5Child16wait_with_output17h0c916d83237d9437E, symObjAddr: 0x3E320, symBinAddr: 0x43870, symSize: 0x320 }
  - { offset: 0x93995, size: 0x8, addend: 0x0, symName: '__ZN58_$LT$std..process..Command$u20$as$u20$core..fmt..Debug$GT$3fmt17ha0bd788490c6fcefE', symObjAddr: 0x3DD50, symBinAddr: 0x432A0, symSize: 0x10 }
  - { offset: 0x939B7, size: 0x8, addend: 0x0, symName: '__ZN84_$LT$std..process..CommandArgs$u20$as$u20$core..iter..traits..iterator..Iterator$GT$4next17h2e1355d0bdacce8dE', symObjAddr: 0x3DD60, symBinAddr: 0x432B0, symSize: 0x30 }
  - { offset: 0x939D6, size: 0x8, addend: 0x0, symName: '__ZN84_$LT$std..process..CommandArgs$u20$as$u20$core..iter..traits..iterator..Iterator$GT$4next17h2e1355d0bdacce8dE', symObjAddr: 0x3DD60, symBinAddr: 0x432B0, symSize: 0x30 }
  - { offset: 0x939EC, size: 0x8, addend: 0x0, symName: '__ZN84_$LT$std..process..CommandArgs$u20$as$u20$core..iter..traits..iterator..Iterator$GT$4next17h2e1355d0bdacce8dE', symObjAddr: 0x3DD60, symBinAddr: 0x432B0, symSize: 0x30 }
  - { offset: 0x93A6F, size: 0x8, addend: 0x0, symName: '__ZN84_$LT$std..process..CommandArgs$u20$as$u20$core..iter..traits..iterator..Iterator$GT$9size_hint17hc32f4575dd16e037E', symObjAddr: 0x3DD90, symBinAddr: 0x432E0, symSize: 0x30 }
  - { offset: 0x93B03, size: 0x8, addend: 0x0, symName: '__ZN95_$LT$std..process..CommandArgs$u20$as$u20$core..iter..traits..exact_size..ExactSizeIterator$GT$3len17h1015fd601c5c263aE', symObjAddr: 0x3DDC0, symBinAddr: 0x43310, symSize: 0x20 }
  - { offset: 0x93B97, size: 0x8, addend: 0x0, symName: '__ZN84_$LT$std..process..CommandEnvs$u20$as$u20$core..iter..traits..iterator..Iterator$GT$4next17hf3ae301a6dd1ac09E', symObjAddr: 0x3DDE0, symBinAddr: 0x43330, symSize: 0x50 }
  - { offset: 0x93C2A, size: 0x8, addend: 0x0, symName: '__ZN62_$LT$std..process..CommandEnvs$u20$as$u20$core..fmt..Debug$GT$3fmt17h817e483b19e4089eE', symObjAddr: 0x3DE30, symBinAddr: 0x43380, symSize: 0x50 }
  - { offset: 0x93C63, size: 0x8, addend: 0x0, symName: __ZN3std7process6Output7exit_ok17hee80a7769619b3a6E, symObjAddr: 0x3DE80, symBinAddr: 0x433D0, symSize: 0xA0 }
  - { offset: 0x93E1D, size: 0x8, addend: 0x0, symName: '__ZN57_$LT$std..process..Output$u20$as$u20$core..fmt..Debug$GT$3fmt17hb58b86ebcdcca418E', symObjAddr: 0x3DF20, symBinAddr: 0x43470, symSize: 0x100 }
  - { offset: 0x93F57, size: 0x8, addend: 0x0, symName: '__ZN56_$LT$std..process..Stdio$u20$as$u20$core..fmt..Debug$GT$3fmt17h805debc99bf61364E', symObjAddr: 0x3E020, symBinAddr: 0x43570, symSize: 0x30 }
  - { offset: 0x93F79, size: 0x8, addend: 0x0, symName: '__ZN63_$LT$std..process..ExitStatus$u20$as$u20$core..fmt..Display$GT$3fmt17h66d5a75b892c5b39E', symObjAddr: 0x3E050, symBinAddr: 0x435A0, symSize: 0x10 }
  - { offset: 0x93FA9, size: 0x8, addend: 0x0, symName: __ZN3std7process15ExitStatusError4code17h5a061a509de91de0E, symObjAddr: 0x3E060, symBinAddr: 0x435B0, symSize: 0x50 }
  - { offset: 0x9409D, size: 0x8, addend: 0x0, symName: __ZN3std7process15ExitStatusError12code_nonzero17hb71f42b7d0be7407E, symObjAddr: 0x3E0B0, symBinAddr: 0x43600, symSize: 0x50 }
  - { offset: 0x941A0, size: 0x8, addend: 0x0, symName: '__ZN68_$LT$std..process..ExitStatusError$u20$as$u20$core..fmt..Display$GT$3fmt17h9611f141e8a94a6dE', symObjAddr: 0x3E100, symBinAddr: 0x43650, symSize: 0x70 }
  - { offset: 0x94214, size: 0x8, addend: 0x0, symName: __ZN3std7process8ExitCode12exit_process17h36ba367cb82537afE, symObjAddr: 0x3E170, symBinAddr: 0x436C0, symSize: 0x10 }
  - { offset: 0x94273, size: 0x8, addend: 0x0, symName: __ZN3std7process4exit17hbd057abed6974c0cE, symObjAddr: 0x3E640, symBinAddr: 0x43B90, symSize: 0x20 }
  - { offset: 0x9428E, size: 0x8, addend: 0x0, symName: __ZN3std7process5abort17h273a5572211fb8ecE, symObjAddr: 0x3E660, symBinAddr: 0x9B650, symSize: 0x10 }
  - { offset: 0x942A9, size: 0x8, addend: 0x0, symName: __ZN3std7process2id17ha5aa7e2fc5d8fe57E, symObjAddr: 0x3E670, symBinAddr: 0x43BB0, symSize: 0x10 }
  - { offset: 0x942E1, size: 0x8, addend: 0x0, symName: '__ZN61_$LT$std..process..ExitStatus$u20$as$u20$core..fmt..Debug$GT$3fmt17h60eb1ab3b5497728E', symObjAddr: 0x464E0, symBinAddr: 0x4AD20, symSize: 0x40 }
  - { offset: 0x94520, size: 0x8, addend: 0x0, symName: __ZN3std3ffi6os_str8OsString17into_boxed_os_str17hf9ad8000ca90fd6cE, symObjAddr: 0x2B280, symBinAddr: 0x30B00, symSize: 0x90 }
  - { offset: 0x94751, size: 0x8, addend: 0x0, symName: __ZN3std3ffi6os_str5OsStr14into_os_string17h7eeca2de9a683effE, symObjAddr: 0x2B380, symBinAddr: 0x30C00, symSize: 0x20 }
  - { offset: 0x9476C, size: 0x8, addend: 0x0, symName: __ZN3std3ffi6os_str5OsStr18to_ascii_lowercase17h1472d6761112d12eE, symObjAddr: 0x2B3A0, symBinAddr: 0x30C20, symSize: 0x1D0 }
  - { offset: 0x9494F, size: 0x8, addend: 0x0, symName: __ZN3std3ffi6os_str5OsStr18to_ascii_uppercase17h86ad7c5614ff0a9cE, symObjAddr: 0x2B570, symBinAddr: 0x30DF0, symSize: 0x1D0 }
  - { offset: 0x94C04, size: 0x8, addend: 0x0, symName: '__ZN63_$LT$std..ffi..os_str..OsString$u20$as$u20$core..fmt..Write$GT$9write_str17h07c4d0fc322bc2abE', symObjAddr: 0x2B310, symBinAddr: 0x30B90, symSize: 0x70 }
  - { offset: 0x94D4C, size: 0x8, addend: 0x0, symName: '__ZN3std3ffi6os_str95_$LT$impl$u20$core..convert..TryFrom$LT$$RF$std..ffi..os_str..OsStr$GT$$u20$for$u20$$RF$str$GT$8try_from17h12a84d2c4a5561d9E', symObjAddr: 0x2B740, symBinAddr: 0x30FC0, symSize: 0x20 }
  - { offset: 0x94D85, size: 0x8, addend: 0x0, symName: '__ZN62_$LT$std..ffi..os_str..Display$u20$as$u20$core..fmt..Debug$GT$3fmt17h64dfcf19b6a662edE', symObjAddr: 0x2B760, symBinAddr: 0x30FE0, symSize: 0x30 }
  - { offset: 0x94E09, size: 0x8, addend: 0x0, symName: '__ZN64_$LT$std..ffi..os_str..Display$u20$as$u20$core..fmt..Display$GT$3fmt17hd9a1bcbb06fabb9dE', symObjAddr: 0x2B790, symBinAddr: 0x31010, symSize: 0xD0 }
  - { offset: 0x95000, size: 0x8, addend: 0x0, symName: '__ZN67_$LT$std..os..fd..owned..BorrowedFd$u20$as$u20$core..fmt..Debug$GT$3fmt17h8a4d1110e0d0b2acE', symObjAddr: 0x39B10, symBinAddr: 0x3F070, symSize: 0x60 }
  - { offset: 0x95028, size: 0x8, addend: 0x0, symName: '__ZN64_$LT$std..os..fd..owned..OwnedFd$u20$as$u20$core..fmt..Debug$GT$3fmt17hf7f5c995ef140e2bE', symObjAddr: 0x39B70, symBinAddr: 0x3F0D0, symSize: 0x60 }
  - { offset: 0x95064, size: 0x8, addend: 0x0, symName: __ZN3std2os2fd5owned10BorrowedFd18try_clone_to_owned17h425087ce0862c05aE, symObjAddr: 0x39AC0, symBinAddr: 0x3F020, symSize: 0x50 }
  - { offset: 0x95136, size: 0x8, addend: 0x0, symName: __ZN3std2os2fd5owned7OwnedFd9try_clone17h281dbd136538be05E, symObjAddr: 0x39A70, symBinAddr: 0x3EFD0, symSize: 0x50 }
  - { offset: 0x95391, size: 0x8, addend: 0x0, symName: '__ZN70_$LT$std..io..pipe..PipeReader$u20$as$u20$std..os..fd..owned..AsFd$GT$5as_fd17hd08ecf2b4a167874E', symObjAddr: 0x39BD0, symBinAddr: 0x3F130, symSize: 0x10 }
  - { offset: 0x95444, size: 0x8, addend: 0x0, symName: '__ZN60_$LT$std..fs..File$u20$as$u20$std..os..unix..fs..FileExt$GT$7read_at17hdf52d1c9d9629915E', symObjAddr: 0x37AE0, symBinAddr: 0x3D040, symSize: 0x50 }
  - { offset: 0x95538, size: 0x8, addend: 0x0, symName: '__ZN60_$LT$std..fs..File$u20$as$u20$std..os..unix..fs..FileExt$GT$16read_vectored_at17ha122e4b78ec433c4E', symObjAddr: 0x37B30, symBinAddr: 0x3D090, symSize: 0x10 }
  - { offset: 0x9556A, size: 0x8, addend: 0x0, symName: '__ZN60_$LT$std..fs..File$u20$as$u20$std..os..unix..fs..FileExt$GT$8write_at17he2be1e0f3198efbaE', symObjAddr: 0x37B40, symBinAddr: 0x3D0A0, symSize: 0x50 }
  - { offset: 0x95660, size: 0x8, addend: 0x0, symName: '__ZN60_$LT$std..fs..File$u20$as$u20$std..os..unix..fs..FileExt$GT$17write_vectored_at17h15b39d6cd5a8f94cE', symObjAddr: 0x37B90, symBinAddr: 0x3D0F0, symSize: 0x10 }
  - { offset: 0x95699, size: 0x8, addend: 0x0, symName: '__ZN69_$LT$std..fs..DirEntry$u20$as$u20$std..os..unix..fs..DirEntryExt2$GT$13file_name_ref17h0d20ecb86bf76e2cE', symObjAddr: 0x37BA0, symBinAddr: 0x3D100, symSize: 0x10 }
  - { offset: 0x95705, size: 0x8, addend: 0x0, symName: __ZN3std2os4unix3net4addr11sockaddr_un17h54401120f7e1024eE, symObjAddr: 0x37BB0, symBinAddr: 0x3D110, symSize: 0xF0 }
  - { offset: 0x957FB, size: 0x8, addend: 0x0, symName: __ZN3std2os4unix3net4addr10SocketAddr10is_unnamed17h348b86748ab7d4aaE, symObjAddr: 0x37CA0, symBinAddr: 0x3D200, symSize: 0x40 }
  - { offset: 0x9584E, size: 0x8, addend: 0x0, symName: __ZN3std2os4unix3net4addr10SocketAddr11as_pathname17h140731efc4feb4d0E, symObjAddr: 0x37CE0, symBinAddr: 0x3D240, symSize: 0x40 }
  - { offset: 0x95903, size: 0x8, addend: 0x0, symName: '__ZN73_$LT$std..os..unix..net..addr..SocketAddr$u20$as$u20$core..fmt..Debug$GT$3fmt17hc4fad9fa19abd016E', symObjAddr: 0x37D20, symBinAddr: 0x3D280, symSize: 0xC0 }
  - { offset: 0x959D2, size: 0x8, addend: 0x0, symName: __ZN3std2os4unix3net8datagram12UnixDatagram9bind_addr17h8fa5fb92dd844627E, symObjAddr: 0x38170, symBinAddr: 0x3D6D0, symSize: 0xA0 }
  - { offset: 0x95B23, size: 0x8, addend: 0x0, symName: __ZN3std2os4unix3net8datagram12UnixDatagram7unbound17h5b9277903564c6adE, symObjAddr: 0x38210, symBinAddr: 0x3D770, symSize: 0x50 }
  - { offset: 0x95B5B, size: 0x8, addend: 0x0, symName: __ZN3std2os4unix3net8datagram12UnixDatagram4pair17h9e25d308359c94daE, symObjAddr: 0x38260, symBinAddr: 0x3D7C0, symSize: 0x50 }
  - { offset: 0x95B99, size: 0x8, addend: 0x0, symName: __ZN3std2os4unix3net8datagram12UnixDatagram12connect_addr17h7ab0a3f084e3101bE, symObjAddr: 0x382B0, symBinAddr: 0x3D810, symSize: 0x30 }
  - { offset: 0x95C83, size: 0x8, addend: 0x0, symName: __ZN3std2os4unix3net8datagram12UnixDatagram9recv_from17h1405e76af7e36a91E, symObjAddr: 0x382E0, symBinAddr: 0x3D840, symSize: 0x130 }
  - { offset: 0x95E1B, size: 0x8, addend: 0x0, symName: __ZN3std2os4unix3net8datagram12UnixDatagram4recv17hb40d9bcfefdcb653E, symObjAddr: 0x38410, symBinAddr: 0x3D970, symSize: 0x30 }
  - { offset: 0x95ED4, size: 0x8, addend: 0x0, symName: __ZN3std2os4unix3net8datagram12UnixDatagram12send_to_addr17h7b00fbbb61addf46E, symObjAddr: 0x38440, symBinAddr: 0x3D9A0, symSize: 0x50 }
  - { offset: 0x95FB3, size: 0x8, addend: 0x0, symName: __ZN3std2os4unix3net8datagram12UnixDatagram4send17h7f50c78050ac50eeE, symObjAddr: 0x38490, symBinAddr: 0x3D9F0, symSize: 0x50 }
  - { offset: 0x960A9, size: 0x8, addend: 0x0, symName: __ZN3std2os4unix3net8datagram12UnixDatagram9peek_from17hb5a41a55a9169cb3E, symObjAddr: 0x384E0, symBinAddr: 0x3DA40, symSize: 0x140 }
  - { offset: 0x96296, size: 0x8, addend: 0x0, symName: '__ZN79_$LT$std..os..unix..net..datagram..UnixDatagram$u20$as$u20$core..fmt..Debug$GT$3fmt17hb3863ffdb833f808E', symObjAddr: 0x37DE0, symBinAddr: 0x3D340, symSize: 0x390 }
  - { offset: 0x969CC, size: 0x8, addend: 0x0, symName: __ZN3std2os4unix3net8listener12UnixListener9bind_addr17h8cb02ee35bfc492aE, symObjAddr: 0x38830, symBinAddr: 0x3DD90, symSize: 0xB0 }
  - { offset: 0x96B3F, size: 0x8, addend: 0x0, symName: __ZN3std2os4unix3net8listener12UnixListener6accept17h778f080ae69f089fE, symObjAddr: 0x388E0, symBinAddr: 0x3DE40, symSize: 0x170 }
  - { offset: 0x96E2A, size: 0x8, addend: 0x0, symName: '__ZN79_$LT$std..os..unix..net..listener..UnixListener$u20$as$u20$core..fmt..Debug$GT$3fmt17h7662cf05ffcf9473E', symObjAddr: 0x38620, symBinAddr: 0x3DB80, symSize: 0x210 }
  - { offset: 0x97192, size: 0x8, addend: 0x0, symName: '__ZN97_$LT$std..os..unix..net..listener..Incoming$u20$as$u20$core..iter..traits..iterator..Iterator$GT$4next17h3fca498e142cc072E', symObjAddr: 0x38A50, symBinAddr: 0x3DFB0, symSize: 0x40 }
  - { offset: 0x971EC, size: 0x8, addend: 0x0, symName: __ZN3std2os4unix3net6stream10UnixStream12connect_addr17ha16544d253cf6f03E, symObjAddr: 0x38E20, symBinAddr: 0x3E380, symSize: 0xA0 }
  - { offset: 0x97318, size: 0x8, addend: 0x0, symName: __ZN3std2os4unix3net6stream10UnixStream4pair17hf6570a4bbd6d5ce8E, symObjAddr: 0x38EC0, symBinAddr: 0x3E420, symSize: 0x50 }
  - { offset: 0x97356, size: 0x8, addend: 0x0, symName: __ZN3std2os4unix3net6stream10UnixStream10local_addr17hfc5de442fa8e8007E, symObjAddr: 0x38F10, symBinAddr: 0x3E470, symSize: 0xC0 }
  - { offset: 0x9747B, size: 0x8, addend: 0x0, symName: __ZN3std2os4unix3net6stream10UnixStream9peer_addr17h17a676627b7576d7E, symObjAddr: 0x38FD0, symBinAddr: 0x3E530, symSize: 0xC0 }
  - { offset: 0x975A0, size: 0x8, addend: 0x0, symName: __ZN3std2os4unix3net6stream10UnixStream9peer_cred17h4c1c2724d630c497E, symObjAddr: 0x39090, symBinAddr: 0x3E5F0, symSize: 0xB0 }
  - { offset: 0x97621, size: 0x8, addend: 0x0, symName: __ZN3std2os4unix3net6stream10UnixStream16set_read_timeout17h76be9d23939af3f5E, symObjAddr: 0x39140, symBinAddr: 0x3E6A0, symSize: 0xB0 }
  - { offset: 0x976E7, size: 0x8, addend: 0x0, symName: __ZN3std2os4unix3net6stream10UnixStream17set_write_timeout17hc84ff61ca59560bdE, symObjAddr: 0x391F0, symBinAddr: 0x3E750, symSize: 0xB0 }
  - { offset: 0x977AD, size: 0x8, addend: 0x0, symName: __ZN3std2os4unix3net6stream10UnixStream12read_timeout17hb571308b1cc2823dE, symObjAddr: 0x392A0, symBinAddr: 0x3E800, symSize: 0xD0 }
  - { offset: 0x9790F, size: 0x8, addend: 0x0, symName: __ZN3std2os4unix3net6stream10UnixStream13write_timeout17h1d8044bb7d9635dfE, symObjAddr: 0x39370, symBinAddr: 0x3E8D0, symSize: 0xD0 }
  - { offset: 0x97A71, size: 0x8, addend: 0x0, symName: __ZN3std2os4unix3net6stream10UnixStream15set_nonblocking17h7304c9b0f003b435E, symObjAddr: 0x39440, symBinAddr: 0x3E9A0, symSize: 0x40 }
  - { offset: 0x97B2B, size: 0x8, addend: 0x0, symName: __ZN3std2os4unix3net6stream10UnixStream10take_error17h4e8c726508e6a4ffE, symObjAddr: 0x39480, symBinAddr: 0x3E9E0, symSize: 0x80 }
  - { offset: 0x97C53, size: 0x8, addend: 0x0, symName: __ZN3std2os4unix3net6stream10UnixStream8shutdown17hbcc49f16bf1df49aE, symObjAddr: 0x39500, symBinAddr: 0x3EA60, symSize: 0x30 }
  - { offset: 0x97CFD, size: 0x8, addend: 0x0, symName: __ZN3std2os4unix3net6stream10UnixStream4peek17hac902d438786ab42E, symObjAddr: 0x39530, symBinAddr: 0x3EA90, symSize: 0x40 }
  - { offset: 0x97DEC, size: 0x8, addend: 0x0, symName: '__ZN75_$LT$std..os..unix..net..stream..UnixStream$u20$as$u20$core..fmt..Debug$GT$3fmt17hf9c7ee819e2b31eeE', symObjAddr: 0x38A90, symBinAddr: 0x3DFF0, symSize: 0x390 }
  - { offset: 0x98505, size: 0x8, addend: 0x0, symName: '__ZN76_$LT$$RF$std..os..unix..net..stream..UnixStream$u20$as$u20$std..io..Read$GT$8read_buf17h061ef9c5c57abb2eE', symObjAddr: 0x39650, symBinAddr: 0x3EBB0, symSize: 0x60 }
  - { offset: 0x986A0, size: 0x8, addend: 0x0, symName: '__ZN72_$LT$std..os..unix..net..stream..UnixStream$u20$as$u20$std..io..Read$GT$4read17hfc0788dd0dacb2f2E', symObjAddr: 0x39570, symBinAddr: 0x3EAD0, symSize: 0x30 }
  - { offset: 0x98768, size: 0x8, addend: 0x0, symName: '__ZN72_$LT$std..os..unix..net..stream..UnixStream$u20$as$u20$std..io..Read$GT$8read_buf17hbf3eeeb49d58eb1aE', symObjAddr: 0x395A0, symBinAddr: 0x3EB00, symSize: 0x60 }
  - { offset: 0x98912, size: 0x8, addend: 0x0, symName: '__ZN72_$LT$std..os..unix..net..stream..UnixStream$u20$as$u20$std..io..Read$GT$13read_vectored17h7c61fecfc3629eeaE', symObjAddr: 0x39600, symBinAddr: 0x3EB60, symSize: 0x50 }
  - { offset: 0x98A47, size: 0x8, addend: 0x0, symName: '__ZN76_$LT$std..process..Command$u20$as$u20$std..os..unix..process..CommandExt$GT$6groups17h88421c7e1d8ec39dE', symObjAddr: 0x396B0, symBinAddr: 0x3EC10, symSize: 0xE0 }
  - { offset: 0x98C24, size: 0x8, addend: 0x0, symName: '__ZN76_$LT$std..process..Command$u20$as$u20$std..os..unix..process..CommandExt$GT$4exec17hbe3b1c6d89b1426cE', symObjAddr: 0x39790, symBinAddr: 0x3ECF0, symSize: 0x290 }
  - { offset: 0x992B4, size: 0x8, addend: 0x0, symName: '__ZN87_$LT$std..process..ExitStatusError$u20$as$u20$std..os..unix..process..ExitStatusExt$GT$8from_raw17h495ff3fc782b6d79E', symObjAddr: 0x39A20, symBinAddr: 0x3EF80, symSize: 0x40 }
  - { offset: 0x992D3, size: 0x8, addend: 0x0, symName: '__ZN87_$LT$std..process..ExitStatusError$u20$as$u20$std..os..unix..process..ExitStatusExt$GT$8from_raw17h495ff3fc782b6d79E', symObjAddr: 0x39A20, symBinAddr: 0x3EF80, symSize: 0x40 }
  - { offset: 0x992E9, size: 0x8, addend: 0x0, symName: '__ZN87_$LT$std..process..ExitStatusError$u20$as$u20$std..os..unix..process..ExitStatusExt$GT$8from_raw17h495ff3fc782b6d79E', symObjAddr: 0x39A20, symBinAddr: 0x3EF80, symSize: 0x40 }
  - { offset: 0x992FF, size: 0x8, addend: 0x0, symName: '__ZN87_$LT$std..process..ExitStatusError$u20$as$u20$std..os..unix..process..ExitStatusExt$GT$8from_raw17h495ff3fc782b6d79E', symObjAddr: 0x39A20, symBinAddr: 0x3EF80, symSize: 0x40 }
  - { offset: 0x99315, size: 0x8, addend: 0x0, symName: '__ZN87_$LT$std..process..ExitStatusError$u20$as$u20$std..os..unix..process..ExitStatusExt$GT$8from_raw17h495ff3fc782b6d79E', symObjAddr: 0x39A20, symBinAddr: 0x3EF80, symSize: 0x40 }
  - { offset: 0x9933A, size: 0x8, addend: 0x0, symName: __ZN3std2os4unix7process9parent_id17h6986cdf670806ca2E, symObjAddr: 0x39A60, symBinAddr: 0x3EFC0, symSize: 0x10 }
  - { offset: 0x994CA, size: 0x8, addend: 0x0, symName: __ZN3std4path4Path11is_absolute17h99aaa93f19306f35E, symObjAddr: 0x3BD80, symBinAddr: 0x412D0, symSize: 0x20 }
  - { offset: 0x99566, size: 0x8, addend: 0x0, symName: __ZN3std4path4Path6parent17he6c80839d2ca803eE, symObjAddr: 0x3BDA0, symBinAddr: 0x412F0, symSize: 0x70 }
  - { offset: 0x9957E, size: 0x8, addend: 0x0, symName: __ZN3std4path4Path6parent17he6c80839d2ca803eE, symObjAddr: 0x3BDA0, symBinAddr: 0x412F0, symSize: 0x70 }
  - { offset: 0x99594, size: 0x8, addend: 0x0, symName: __ZN3std4path4Path6parent17he6c80839d2ca803eE, symObjAddr: 0x3BDA0, symBinAddr: 0x412F0, symSize: 0x70 }
  - { offset: 0x995EC, size: 0x8, addend: 0x0, symName: __ZN3std4path4Path9file_name17h2a0e1e68b962fc01E, symObjAddr: 0x3BE10, symBinAddr: 0x41360, symSize: 0x60 }
  - { offset: 0x99604, size: 0x8, addend: 0x0, symName: __ZN3std4path4Path9file_name17h2a0e1e68b962fc01E, symObjAddr: 0x3BE10, symBinAddr: 0x41360, symSize: 0x60 }
  - { offset: 0x9961A, size: 0x8, addend: 0x0, symName: __ZN3std4path4Path9file_name17h2a0e1e68b962fc01E, symObjAddr: 0x3BE10, symBinAddr: 0x41360, symSize: 0x60 }
  - { offset: 0x9965B, size: 0x8, addend: 0x0, symName: __ZN3std4path4Path13_strip_prefix17h38a173d1b64372a5E, symObjAddr: 0x3BE70, symBinAddr: 0x413C0, symSize: 0x3C0 }
  - { offset: 0x99776, size: 0x8, addend: 0x0, symName: __ZN3std4path4Path12_starts_with17h8ed7d7ffe8d35f9fE, symObjAddr: 0x3C230, symBinAddr: 0x41780, symSize: 0x280 }
  - { offset: 0x9987A, size: 0x8, addend: 0x0, symName: __ZN3std4path4Path10_ends_with17hcbfc4c2e02a8b002E, symObjAddr: 0x3C4B0, symBinAddr: 0x41A00, symSize: 0x280 }
  - { offset: 0x999E6, size: 0x8, addend: 0x0, symName: __ZN3std4path4Path9file_stem17hac4d2c06392d24ddE, symObjAddr: 0x3C730, symBinAddr: 0x41C80, symSize: 0xC0 }
  - { offset: 0x999FE, size: 0x8, addend: 0x0, symName: __ZN3std4path4Path9file_stem17hac4d2c06392d24ddE, symObjAddr: 0x3C730, symBinAddr: 0x41C80, symSize: 0xC0 }
  - { offset: 0x99A14, size: 0x8, addend: 0x0, symName: __ZN3std4path4Path9file_stem17hac4d2c06392d24ddE, symObjAddr: 0x3C730, symBinAddr: 0x41C80, symSize: 0xC0 }
  - { offset: 0x99A2A, size: 0x8, addend: 0x0, symName: __ZN3std4path4Path9file_stem17hac4d2c06392d24ddE, symObjAddr: 0x3C730, symBinAddr: 0x41C80, symSize: 0xC0 }
  - { offset: 0x99C5F, size: 0x8, addend: 0x0, symName: __ZN3std4path4Path11file_prefix17h0f603c6d38da6d50E, symObjAddr: 0x3C7F0, symBinAddr: 0x41D40, symSize: 0x110 }
  - { offset: 0x99E6E, size: 0x8, addend: 0x0, symName: __ZN3std4path4Path9extension17h2de6844782cc3702E, symObjAddr: 0x3C900, symBinAddr: 0x41E50, symSize: 0xC0 }
  - { offset: 0x99E86, size: 0x8, addend: 0x0, symName: __ZN3std4path4Path9extension17h2de6844782cc3702E, symObjAddr: 0x3C900, symBinAddr: 0x41E50, symSize: 0xC0 }
  - { offset: 0x99E9C, size: 0x8, addend: 0x0, symName: __ZN3std4path4Path9extension17h2de6844782cc3702E, symObjAddr: 0x3C900, symBinAddr: 0x41E50, symSize: 0xC0 }
  - { offset: 0x99EB2, size: 0x8, addend: 0x0, symName: __ZN3std4path4Path9extension17h2de6844782cc3702E, symObjAddr: 0x3C900, symBinAddr: 0x41E50, symSize: 0xC0 }
  - { offset: 0x9A165, size: 0x8, addend: 0x0, symName: __ZN3std4path4Path5_join17hc8054db0c6b4e581E, symObjAddr: 0x3C9C0, symBinAddr: 0x41F10, symSize: 0x1A0 }
  - { offset: 0x9A75F, size: 0x8, addend: 0x0, symName: __ZN3std4path4Path15_with_file_name17hd9e224db494a2998E, symObjAddr: 0x3CB60, symBinAddr: 0x420B0, symSize: 0xF0 }
  - { offset: 0x9A9EF, size: 0x8, addend: 0x0, symName: __ZN3std4path4Path15_with_extension17h647b5f05d071b0c0E, symObjAddr: 0x3CC50, symBinAddr: 0x421A0, symSize: 0x200 }
  - { offset: 0x9AFEA, size: 0x8, addend: 0x0, symName: __ZN3std4path4Path10components17h1d8fff3c0e271e7dE, symObjAddr: 0x3CE50, symBinAddr: 0x423A0, symSize: 0x30 }
  - { offset: 0x9B02C, size: 0x8, addend: 0x0, symName: __ZN3std4path4Path7is_file17h89da54ea774de545E, symObjAddr: 0x3CE80, symBinAddr: 0x423D0, symSize: 0x1E0 }
  - { offset: 0x9B4A6, size: 0x8, addend: 0x0, symName: __ZN3std4path4Path6is_dir17hb6cd6b224c32b269E, symObjAddr: 0x3D060, symBinAddr: 0x425B0, symSize: 0x1E0 }
  - { offset: 0x9B920, size: 0x8, addend: 0x0, symName: __ZN3std4path4Path10is_symlink17habfefa78fe3f7cc3E, symObjAddr: 0x3D240, symBinAddr: 0x42790, symSize: 0x1E0 }
  - { offset: 0x9BF8B, size: 0x8, addend: 0x0, symName: '__ZN58_$LT$std..path..Components$u20$as$u20$core..fmt..Debug$GT$3fmt17hddaa1d29e1f8b6f1E', symObjAddr: 0x39E40, symBinAddr: 0x3F390, symSize: 0x60 }
  - { offset: 0x9BFB2, size: 0x8, addend: 0x0, symName: '__ZN112_$LT$$LT$std..path..Components$u20$as$u20$core..fmt..Debug$GT$..fmt..DebugHelper$u20$as$u20$core..fmt..Debug$GT$3fmt17h4786ea43217f2befE', symObjAddr: 0x39EA0, symBinAddr: 0x3F3F0, symSize: 0x130 }
  - { offset: 0x9C09A, size: 0x8, addend: 0x0, symName: __ZN3std4path10Components15len_before_body17h82b005d4158505b2E, symObjAddr: 0x39FD0, symBinAddr: 0x3F520, symSize: 0x170 }
  - { offset: 0x9C0B2, size: 0x8, addend: 0x0, symName: __ZN3std4path10Components15len_before_body17h82b005d4158505b2E, symObjAddr: 0x39FD0, symBinAddr: 0x3F520, symSize: 0x170 }
  - { offset: 0x9C0C8, size: 0x8, addend: 0x0, symName: __ZN3std4path10Components15len_before_body17h82b005d4158505b2E, symObjAddr: 0x39FD0, symBinAddr: 0x3F520, symSize: 0x170 }
  - { offset: 0x9C2DF, size: 0x8, addend: 0x0, symName: __ZN3std4path10Components7as_path17h99c4009045599cedE, symObjAddr: 0x3A140, symBinAddr: 0x3F690, symSize: 0x3D0 }
  - { offset: 0x9C600, size: 0x8, addend: 0x0, symName: __ZN3std4path10Components25parse_next_component_back17he9aaa11771c51ff8E, symObjAddr: 0x3A510, symBinAddr: 0x3FA60, symSize: 0xF0 }
  - { offset: 0x9C850, size: 0x8, addend: 0x0, symName: '__ZN52_$LT$std..path..Iter$u20$as$u20$core..fmt..Debug$GT$3fmt17h56e019289112f485E', symObjAddr: 0x3A600, symBinAddr: 0x3FB50, symSize: 0x60 }
  - { offset: 0x9C88E, size: 0x8, addend: 0x0, symName: '__ZN106_$LT$$LT$std..path..Iter$u20$as$u20$core..fmt..Debug$GT$..fmt..DebugHelper$u20$as$u20$core..fmt..Debug$GT$3fmt17h40c55af52aab7cb6E', symObjAddr: 0x3A660, symBinAddr: 0x3FBB0, symSize: 0x150 }
  - { offset: 0x9C981, size: 0x8, addend: 0x0, symName: '__ZN80_$LT$std..path..Components$u20$as$u20$core..iter..traits..iterator..Iterator$GT$4next17h48b01d519af7780dE', symObjAddr: 0x3A7B0, symBinAddr: 0x3FD00, symSize: 0x400 }
  - { offset: 0x9CDA8, size: 0x8, addend: 0x0, symName: '__ZN95_$LT$std..path..Components$u20$as$u20$core..iter..traits..double_ended..DoubleEndedIterator$GT$9next_back17ha5c2ddc781ce2c52E', symObjAddr: 0x3ABB0, symBinAddr: 0x40100, symSize: 0x430 }
  - { offset: 0x9CFC0, size: 0x8, addend: 0x0, symName: __ZN3std4path18compare_components17ha2d52076abba8a8aE, symObjAddr: 0x3AFE0, symBinAddr: 0x40530, symSize: 0x3A0 }
  - { offset: 0x9D42C, size: 0x8, addend: 0x0, symName: __ZN3std4path7PathBuf5_push17h488e1f0f4709c92aE, symObjAddr: 0x3B380, symBinAddr: 0x408D0, symSize: 0xE0 }
  - { offset: 0x9D7E2, size: 0x8, addend: 0x0, symName: __ZN3std4path7PathBuf3pop17h28c78f5bba1dfe19E, symObjAddr: 0x3B460, symBinAddr: 0x409B0, symSize: 0xC0 }
  - { offset: 0x9DA39, size: 0x8, addend: 0x0, symName: __ZN3std4path7PathBuf14_set_file_name17hfd735eff81f278bfE, symObjAddr: 0x3B520, symBinAddr: 0x40A70, symSize: 0x130 }
  - { offset: 0x9DF98, size: 0x8, addend: 0x0, symName: __ZN3std4path7PathBuf14_set_extension17h651aa51215f2c523E, symObjAddr: 0x3B650, symBinAddr: 0x40BA0, symSize: 0x350 }
  - { offset: 0x9E82A, size: 0x8, addend: 0x0, symName: __ZN3std4path7PathBuf14_add_extension17hb308692d59ccbf9fE, symObjAddr: 0x3B9A0, symBinAddr: 0x40EF0, symSize: 0x2B0 }
  - { offset: 0x9EF20, size: 0x8, addend: 0x0, symName: '__ZN3std4path117_$LT$impl$u20$core..convert..From$LT$$RF$std..path..Path$GT$$u20$for$u20$alloc..boxed..Box$LT$std..path..Path$GT$$GT$4from17h7fd9f29bcaceb99eE', symObjAddr: 0x3BC50, symBinAddr: 0x411A0, symSize: 0x80 }
  - { offset: 0x9F09E, size: 0x8, addend: 0x0, symName: '__ZN3std4path125_$LT$impl$u20$core..convert..From$LT$$RF$mut$u20$std..path..Path$GT$$u20$for$u20$alloc..boxed..Box$LT$std..path..Path$GT$$GT$4from17h00d62d61ef27d596E', symObjAddr: 0x3BCD0, symBinAddr: 0x41220, symSize: 0x80 }
  - { offset: 0x9F232, size: 0x8, addend: 0x0, symName: '__ZN52_$LT$std..path..Path$u20$as$u20$core..fmt..Debug$GT$3fmt17h4866d0e6986be8f6E', symObjAddr: 0x3D420, symBinAddr: 0x42970, symSize: 0x30 }
  - { offset: 0x9F291, size: 0x8, addend: 0x0, symName: '__ZN55_$LT$std..path..PathBuf$u20$as$u20$core..fmt..Debug$GT$3fmt17h75414e6e3aff3f52E', symObjAddr: 0x3BD50, symBinAddr: 0x412A0, symSize: 0x30 }
  - { offset: 0x9F448, size: 0x8, addend: 0x0, symName: '__ZN55_$LT$std..path..Display$u20$as$u20$core..fmt..Debug$GT$3fmt17h6c6d118db311fb0cE', symObjAddr: 0x3D450, symBinAddr: 0x429A0, symSize: 0x30 }
  - { offset: 0x9F4DC, size: 0x8, addend: 0x0, symName: '__ZN57_$LT$std..path..Display$u20$as$u20$core..fmt..Display$GT$3fmt17h3d87109a02ba4267E', symObjAddr: 0x3D480, symBinAddr: 0x429D0, symSize: 0x10 }
  - { offset: 0x9F505, size: 0x8, addend: 0x0, symName: '__ZN66_$LT$std..path..StripPrefixError$u20$as$u20$core..fmt..Display$GT$3fmt17h6c6be68e6a8cb897E', symObjAddr: 0x3D490, symBinAddr: 0x429E0, symSize: 0x20 }
  - { offset: 0x9F550, size: 0x8, addend: 0x0, symName: '__ZN61_$LT$std..path..Component$u20$as$u20$core..cmp..PartialEq$GT$2eq17h58879c165217170bE', symObjAddr: 0x46330, symBinAddr: 0x4AB70, symSize: 0xE0 }
  - { offset: 0x9F612, size: 0x8, addend: 0x0, symName: '__ZN57_$LT$std..path..Component$u20$as$u20$core..fmt..Debug$GT$3fmt17h3199184fe61ebc4dE', symObjAddr: 0x46410, symBinAddr: 0x4AC50, symSize: 0xD0 }
  - { offset: 0x9F6D4, size: 0x8, addend: 0x0, symName: '__ZN81_$LT$std..io..default_write_fmt..Adapter$LT$T$GT$$u20$as$u20$core..fmt..Write$GT$9write_str17h11c3e2e1a5e5460bE', symObjAddr: 0x35160, symBinAddr: 0x3A6C0, symSize: 0x70 }
  - { offset: 0x9F7CE, size: 0x8, addend: 0x0, symName: '__ZN81_$LT$std..io..default_write_fmt..Adapter$LT$T$GT$$u20$as$u20$core..fmt..Write$GT$9write_str17h16fdc310a4f7e7fbE', symObjAddr: 0x351D0, symBinAddr: 0x3A730, symSize: 0xD0 }
  - { offset: 0x9F95F, size: 0x8, addend: 0x0, symName: '__ZN81_$LT$std..io..default_write_fmt..Adapter$LT$T$GT$$u20$as$u20$core..fmt..Write$GT$9write_str17h17787be0d648a60eE', symObjAddr: 0x352A0, symBinAddr: 0x3A800, symSize: 0xA0 }
  - { offset: 0x9FACC, size: 0x8, addend: 0x0, symName: '__ZN81_$LT$std..io..default_write_fmt..Adapter$LT$T$GT$$u20$as$u20$core..fmt..Write$GT$9write_str17h3f40dbb63b6fb463E', symObjAddr: 0x35340, symBinAddr: 0x3A8A0, symSize: 0x50 }
  - { offset: 0x9FAF7, size: 0x8, addend: 0x0, symName: '__ZN81_$LT$std..io..default_write_fmt..Adapter$LT$T$GT$$u20$as$u20$core..fmt..Write$GT$9write_str17hbe7d522684e43901E', symObjAddr: 0x35390, symBinAddr: 0x3A8F0, symSize: 0x50 }
  - { offset: 0x9FB22, size: 0x8, addend: 0x0, symName: '__ZN81_$LT$std..io..default_write_fmt..Adapter$LT$T$GT$$u20$as$u20$core..fmt..Write$GT$9write_str17hf05235fafca57a1bE', symObjAddr: 0x353E0, symBinAddr: 0x3A940, symSize: 0xD0 }
  - { offset: 0x9FCCF, size: 0x8, addend: 0x0, symName: '__ZN3std2io5impls74_$LT$impl$u20$std..io..Write$u20$for$u20$alloc..vec..Vec$LT$u8$C$A$GT$$GT$5write17h0dc663341b8111bdE', symObjAddr: 0x2F550, symBinAddr: 0x34BA0, symSize: 0x70 }
  - { offset: 0x9FDC1, size: 0x8, addend: 0x0, symName: '__ZN3std2io5impls74_$LT$impl$u20$std..io..Write$u20$for$u20$alloc..vec..Vec$LT$u8$C$A$GT$$GT$14write_vectored17ha92b9344db63c2ebE', symObjAddr: 0x2F5C0, symBinAddr: 0x34C10, symSize: 0x180 }
  - { offset: 0x9FFEF, size: 0x8, addend: 0x0, symName: '__ZN3std2io5impls74_$LT$impl$u20$std..io..Write$u20$for$u20$alloc..vec..Vec$LT$u8$C$A$GT$$GT$17is_write_vectored17h9b54d03ca8991dffE', symObjAddr: 0x2F740, symBinAddr: 0x34D90, symSize: 0x10 }
  - { offset: 0xA000A, size: 0x8, addend: 0x0, symName: '__ZN3std2io5impls74_$LT$impl$u20$std..io..Write$u20$for$u20$alloc..vec..Vec$LT$u8$C$A$GT$$GT$9write_all17h5083d0b61804310dE', symObjAddr: 0x2F750, symBinAddr: 0x34DA0, symSize: 0x70 }
  - { offset: 0xA0103, size: 0x8, addend: 0x0, symName: '__ZN3std2io5impls74_$LT$impl$u20$std..io..Write$u20$for$u20$alloc..vec..Vec$LT$u8$C$A$GT$$GT$18write_all_vectored17h6671723f2feade51E', symObjAddr: 0x2F7C0, symBinAddr: 0x34E10, symSize: 0x170 }
  - { offset: 0xA0130, size: 0x8, addend: 0x0, symName: '__ZN3std2io5impls74_$LT$impl$u20$std..io..Write$u20$for$u20$alloc..vec..Vec$LT$u8$C$A$GT$$GT$18write_all_vectored17h6671723f2feade51E', symObjAddr: 0x2F7C0, symBinAddr: 0x34E10, symSize: 0x170 }
  - { offset: 0xA0146, size: 0x8, addend: 0x0, symName: '__ZN3std2io5impls74_$LT$impl$u20$std..io..Write$u20$for$u20$alloc..vec..Vec$LT$u8$C$A$GT$$GT$18write_all_vectored17h6671723f2feade51E', symObjAddr: 0x2F7C0, symBinAddr: 0x34E10, symSize: 0x170 }
  - { offset: 0xA015C, size: 0x8, addend: 0x0, symName: '__ZN3std2io5impls74_$LT$impl$u20$std..io..Write$u20$for$u20$alloc..vec..Vec$LT$u8$C$A$GT$$GT$18write_all_vectored17h6671723f2feade51E', symObjAddr: 0x2F7C0, symBinAddr: 0x34E10, symSize: 0x170 }
  - { offset: 0xA0171, size: 0x8, addend: 0x0, symName: '__ZN3std2io5impls74_$LT$impl$u20$std..io..Write$u20$for$u20$alloc..vec..Vec$LT$u8$C$A$GT$$GT$18write_all_vectored17h6671723f2feade51E', symObjAddr: 0x2F7C0, symBinAddr: 0x34E10, symSize: 0x170 }
  - { offset: 0xA0186, size: 0x8, addend: 0x0, symName: '__ZN3std2io5impls74_$LT$impl$u20$std..io..Write$u20$for$u20$alloc..vec..Vec$LT$u8$C$A$GT$$GT$18write_all_vectored17h6671723f2feade51E', symObjAddr: 0x2F7C0, symBinAddr: 0x34E10, symSize: 0x170 }
  - { offset: 0xA0367, size: 0x8, addend: 0x0, symName: '__ZN3std2io5impls74_$LT$impl$u20$std..io..Write$u20$for$u20$alloc..vec..Vec$LT$u8$C$A$GT$$GT$5flush17hf9acf9f939598ddaE', symObjAddr: 0x2F930, symBinAddr: 0x34F80, symSize: 0x10 }
  - { offset: 0xA04A0, size: 0x8, addend: 0x0, symName: __ZN3std2io5error5Error3new17h429426ff9a6a2928E, symObjAddr: 0x2EC90, symBinAddr: 0x342E0, symSize: 0x80 }
  - { offset: 0xA056E, size: 0x8, addend: 0x0, symName: __ZN3std2io5error5Error3new17h5c2a617755c4d74bE, symObjAddr: 0x2ED10, symBinAddr: 0x34360, symSize: 0x140 }
  - { offset: 0xA090B, size: 0x8, addend: 0x0, symName: __ZN3std2io5error5Error4_new17h3a99803183fffb58E, symObjAddr: 0x2EE50, symBinAddr: 0x344A0, symSize: 0x80 }
  - { offset: 0xA0C5C, size: 0x8, addend: 0x0, symName: __ZN3std2io5error14repr_bitpacked4Repr3new17hc99ac587084d5327E, symObjAddr: 0x2EB60, symBinAddr: 0x341B0, symSize: 0x60 }
  - { offset: 0xA0E3E, size: 0x8, addend: 0x0, symName: __ZN3std2io5error14repr_bitpacked11decode_repr17h4abd36705d4d243dE, symObjAddr: 0x2EBC0, symBinAddr: 0x34210, symSize: 0x60 }
  - { offset: 0xA0EAB, size: 0x8, addend: 0x0, symName: '__ZN58_$LT$std..io..error..Error$u20$as$u20$core..fmt..Debug$GT$3fmt17hf813830833c41080E', symObjAddr: 0x2EC20, symBinAddr: 0x34270, symSize: 0x10 }
  - { offset: 0xA0F0E, size: 0x8, addend: 0x0, symName: '__ZN96_$LT$std..io..error..Error$u20$as$u20$core..convert..From$LT$alloc..ffi..c_str..NulError$GT$$GT$4from17h8f6cf1b6cd0b8d08E', symObjAddr: 0x2EC30, symBinAddr: 0x34280, symSize: 0x30 }
  - { offset: 0xA0F2C, size: 0x8, addend: 0x0, symName: '__ZN96_$LT$std..io..error..Error$u20$as$u20$core..convert..From$LT$alloc..ffi..c_str..NulError$GT$$GT$4from17h8f6cf1b6cd0b8d08E', symObjAddr: 0x2EC30, symBinAddr: 0x34280, symSize: 0x30 }
  - { offset: 0xA0F41, size: 0x8, addend: 0x0, symName: '__ZN96_$LT$std..io..error..Error$u20$as$u20$core..convert..From$LT$alloc..ffi..c_str..NulError$GT$$GT$4from17h8f6cf1b6cd0b8d08E', symObjAddr: 0x2EC30, symBinAddr: 0x34280, symSize: 0x30 }
  - { offset: 0xA0FE2, size: 0x8, addend: 0x0, symName: '__ZN64_$LT$std..io..error..ErrorKind$u20$as$u20$core..fmt..Display$GT$3fmt17h0ab10bdeaaff0d16E', symObjAddr: 0x2EC60, symBinAddr: 0x342B0, symSize: 0x30 }
  - { offset: 0xA102F, size: 0x8, addend: 0x0, symName: '__ZN3std2io5error83_$LT$impl$u20$core..fmt..Debug$u20$for$u20$std..io..error..repr_bitpacked..Repr$GT$3fmt17had3640391a7112d9E', symObjAddr: 0x2EED0, symBinAddr: 0x34520, symSize: 0x300 }
  - { offset: 0xA1298, size: 0x8, addend: 0x0, symName: '__ZN60_$LT$std..io..error..Error$u20$as$u20$core..fmt..Display$GT$3fmt17hb38dc77202175dc0E', symObjAddr: 0x2F1D0, symBinAddr: 0x34820, symSize: 0x280 }
  - { offset: 0xA1516, size: 0x8, addend: 0x0, symName: '__ZN60_$LT$std..io..error..Error$u20$as$u20$core..error..Error$GT$11description17h7fab126c81551061E', symObjAddr: 0x2F450, symBinAddr: 0x34AA0, symSize: 0xA0 }
  - { offset: 0xA15B6, size: 0x8, addend: 0x0, symName: '__ZN60_$LT$std..io..error..Error$u20$as$u20$core..error..Error$GT$5cause17h9bcf46a9b75c4690E', symObjAddr: 0x2F4F0, symBinAddr: 0x34B40, symSize: 0x30 }
  - { offset: 0xA15D5, size: 0x8, addend: 0x0, symName: '__ZN60_$LT$std..io..error..Error$u20$as$u20$core..error..Error$GT$5cause17h9bcf46a9b75c4690E', symObjAddr: 0x2F4F0, symBinAddr: 0x34B40, symSize: 0x30 }
  - { offset: 0xA15FE, size: 0x8, addend: 0x0, symName: '__ZN60_$LT$std..io..error..Error$u20$as$u20$core..error..Error$GT$6source17h23262980ea077eb6E', symObjAddr: 0x2F520, symBinAddr: 0x34B70, symSize: 0x30 }
  - { offset: 0xA161D, size: 0x8, addend: 0x0, symName: '__ZN60_$LT$std..io..error..Error$u20$as$u20$core..error..Error$GT$6source17h23262980ea077eb6E', symObjAddr: 0x2F520, symBinAddr: 0x34B70, symSize: 0x30 }
  - { offset: 0xA164D, size: 0x8, addend: 0x0, symName: '__ZN62_$LT$std..io..error..ErrorKind$u20$as$u20$core..fmt..Debug$GT$3fmt17h1c3abb22c540e58eE', symObjAddr: 0x46300, symBinAddr: 0x4AB40, symSize: 0x30 }
  - { offset: 0xA16DF, size: 0x8, addend: 0x0, symName: __ZN3std2io5Write9write_all17h4ab9f87d699d32baE, symObjAddr: 0x35540, symBinAddr: 0x3AAA0, symSize: 0xA0 }
  - { offset: 0xA184B, size: 0x8, addend: 0x0, symName: __ZN3std2io5Write18write_all_vectored17h551dfa7968341880E, symObjAddr: 0x355E0, symBinAddr: 0x3AB40, symSize: 0x1D0 }
  - { offset: 0xA1B59, size: 0x8, addend: 0x0, symName: __ZN3std2io5Write9write_fmt17h02d5b70cebd37b82E, symObjAddr: 0x357B0, symBinAddr: 0x3AD10, symSize: 0x130 }
  - { offset: 0xA1E55, size: 0x8, addend: 0x0, symName: __ZN3std2io5Write9write_fmt17h5b1e971a3bdfb689E, symObjAddr: 0x358E0, symBinAddr: 0x3AE40, symSize: 0x130 }
  - { offset: 0xA2151, size: 0x8, addend: 0x0, symName: __ZN3std2io5Write9write_fmt17hd9886bd7d001d365E, symObjAddr: 0x35A10, symBinAddr: 0x3AF70, symSize: 0x130 }
  - { offset: 0xA2519, size: 0x8, addend: 0x0, symName: '__ZN58_$LT$std..io..stdio..StdinRaw$u20$as$u20$std..io..Read$GT$4read17ha4acff890ce2c3baE', symObjAddr: 0x2FC00, symBinAddr: 0x35250, symSize: 0x80 }
  - { offset: 0xA2619, size: 0x8, addend: 0x0, symName: '__ZN58_$LT$std..io..stdio..StdinRaw$u20$as$u20$std..io..Read$GT$8read_buf17he8e9b6fa70733899E', symObjAddr: 0x2FC80, symBinAddr: 0x352D0, symSize: 0x90 }
  - { offset: 0xA27F8, size: 0x8, addend: 0x0, symName: '__ZN58_$LT$std..io..stdio..StdinRaw$u20$as$u20$std..io..Read$GT$13read_vectored17ha36e8fdfc90eb049E', symObjAddr: 0x2FD10, symBinAddr: 0x35360, symSize: 0x80 }
  - { offset: 0xA28F8, size: 0x8, addend: 0x0, symName: '__ZN58_$LT$std..io..stdio..StdinRaw$u20$as$u20$std..io..Read$GT$10read_exact17h9beb4cff9fb042bcE', symObjAddr: 0x2FD90, symBinAddr: 0x353E0, symSize: 0xF0 }
  - { offset: 0xA2A9A, size: 0x8, addend: 0x0, symName: '__ZN58_$LT$std..io..stdio..StdinRaw$u20$as$u20$std..io..Read$GT$14read_buf_exact17hf66cbae4bc11df44E', symObjAddr: 0x2FE80, symBinAddr: 0x354D0, symSize: 0xF0 }
  - { offset: 0xA2CF5, size: 0x8, addend: 0x0, symName: '__ZN58_$LT$std..io..stdio..StdinRaw$u20$as$u20$std..io..Read$GT$11read_to_end17hf26ff1c8ea20f4abE', symObjAddr: 0x2FF70, symBinAddr: 0x355C0, symSize: 0x40 }
  - { offset: 0xA2D34, size: 0x8, addend: 0x0, symName: '__ZN58_$LT$std..io..stdio..StdinRaw$u20$as$u20$std..io..Read$GT$14read_to_string17h7882f50a65dd8639E', symObjAddr: 0x2FFB0, symBinAddr: 0x35600, symSize: 0xE0 }
  - { offset: 0xA2FC8, size: 0x8, addend: 0x0, symName: '__ZN60_$LT$std..io..stdio..StdoutRaw$u20$as$u20$std..io..Write$GT$5write17h9d1f07b23761ed18E', symObjAddr: 0x30090, symBinAddr: 0x356E0, symSize: 0x80 }
  - { offset: 0xA30CA, size: 0x8, addend: 0x0, symName: '__ZN60_$LT$std..io..stdio..StdoutRaw$u20$as$u20$std..io..Write$GT$14write_vectored17h3bf154c4d751d58aE', symObjAddr: 0x30110, symBinAddr: 0x35760, symSize: 0x110 }
  - { offset: 0xA327A, size: 0x8, addend: 0x0, symName: '__ZN60_$LT$std..io..stdio..StdoutRaw$u20$as$u20$std..io..Write$GT$9write_all17hd48fe31adef29fb6E', symObjAddr: 0x30220, symBinAddr: 0x35870, symSize: 0xE0 }
  - { offset: 0xA3409, size: 0x8, addend: 0x0, symName: '__ZN60_$LT$std..io..stdio..StdoutRaw$u20$as$u20$std..io..Write$GT$18write_all_vectored17h3d8f4ca21cacd105E', symObjAddr: 0x30300, symBinAddr: 0x35950, symSize: 0x1F0 }
  - { offset: 0xA36B1, size: 0x8, addend: 0x0, symName: '__ZN60_$LT$std..io..stdio..StdoutRaw$u20$as$u20$std..io..Write$GT$9write_fmt17hd894e01342a376f7E', symObjAddr: 0x304F0, symBinAddr: 0x35B40, symSize: 0x150 }
  - { offset: 0xA3A58, size: 0x8, addend: 0x0, symName: '__ZN60_$LT$std..io..stdio..StderrRaw$u20$as$u20$std..io..Write$GT$5write17h2462e44fa4478903E', symObjAddr: 0x30640, symBinAddr: 0x35C90, symSize: 0x80 }
  - { offset: 0xA3B6E, size: 0x8, addend: 0x0, symName: '__ZN60_$LT$std..io..stdio..StderrRaw$u20$as$u20$std..io..Write$GT$14write_vectored17h63db0383594a76efE', symObjAddr: 0x306C0, symBinAddr: 0x35D10, symSize: 0x110 }
  - { offset: 0xA3D1E, size: 0x8, addend: 0x0, symName: '__ZN60_$LT$std..io..stdio..StderrRaw$u20$as$u20$std..io..Write$GT$5flush17h5e10f7bbfc0617b6E', symObjAddr: 0x307D0, symBinAddr: 0x35E20, symSize: 0x10 }
  - { offset: 0xA3D38, size: 0x8, addend: 0x0, symName: '__ZN60_$LT$std..io..stdio..StderrRaw$u20$as$u20$std..io..Write$GT$9write_all17h497415490c237111E', symObjAddr: 0x307E0, symBinAddr: 0x35E30, symSize: 0xE0 }
  - { offset: 0xA3EC7, size: 0x8, addend: 0x0, symName: '__ZN60_$LT$std..io..stdio..StderrRaw$u20$as$u20$std..io..Write$GT$18write_all_vectored17h839bd0ee01844bcfE', symObjAddr: 0x308C0, symBinAddr: 0x35F10, symSize: 0x30 }
  - { offset: 0xA3EF1, size: 0x8, addend: 0x0, symName: '__ZN60_$LT$std..io..stdio..StderrRaw$u20$as$u20$std..io..Write$GT$9write_fmt17hb4c6f831e2b28388E', symObjAddr: 0x308F0, symBinAddr: 0x35F40, symSize: 0x30 }
  - { offset: 0xA3F8A, size: 0x8, addend: 0x0, symName: __ZN3std2io5stdio5stdin17h16cfa0f48aa091c2E, symObjAddr: 0x30920, symBinAddr: 0x35F70, symSize: 0x30 }
  - { offset: 0xA3FC5, size: 0x8, addend: 0x0, symName: __ZN3std2io5stdio5stdin17h16cfa0f48aa091c2E, symObjAddr: 0x30920, symBinAddr: 0x35F70, symSize: 0x30 }
  - { offset: 0xA3FDB, size: 0x8, addend: 0x0, symName: __ZN3std2io5stdio5stdin17h16cfa0f48aa091c2E, symObjAddr: 0x30920, symBinAddr: 0x35F70, symSize: 0x30 }
  - { offset: 0xA3FF0, size: 0x8, addend: 0x0, symName: __ZN3std2io5stdio5stdin17h16cfa0f48aa091c2E, symObjAddr: 0x30920, symBinAddr: 0x35F70, symSize: 0x30 }
  - { offset: 0xA4006, size: 0x8, addend: 0x0, symName: __ZN3std2io5stdio5stdin17h16cfa0f48aa091c2E, symObjAddr: 0x30920, symBinAddr: 0x35F70, symSize: 0x30 }
  - { offset: 0xA401C, size: 0x8, addend: 0x0, symName: __ZN3std2io5stdio5stdin17h16cfa0f48aa091c2E, symObjAddr: 0x30920, symBinAddr: 0x35F70, symSize: 0x30 }
  - { offset: 0xA4031, size: 0x8, addend: 0x0, symName: __ZN3std2io5stdio5stdin17h16cfa0f48aa091c2E, symObjAddr: 0x30920, symBinAddr: 0x35F70, symSize: 0x30 }
  - { offset: 0xA4051, size: 0x8, addend: 0x0, symName: __ZN3std2io5stdio5Stdin4lock17h89e0858e2ead626eE, symObjAddr: 0x30950, symBinAddr: 0x35FA0, symSize: 0x60 }
  - { offset: 0xA41B5, size: 0x8, addend: 0x0, symName: __ZN3std2io5stdio5Stdin9read_line17h266fb5b7eba213b7E, symObjAddr: 0x309B0, symBinAddr: 0x36000, symSize: 0x170 }
  - { offset: 0xA466C, size: 0x8, addend: 0x0, symName: __ZN3std2io5stdio5Stdin5lines17h1ff850885c452ac2E, symObjAddr: 0x30B20, symBinAddr: 0x36170, symSize: 0x60 }
  - { offset: 0xA47ED, size: 0x8, addend: 0x0, symName: '__ZN62_$LT$std..io..stdio..StdinLock$u20$as$u20$std..io..BufRead$GT$8fill_buf17hf0e5a2f60d401f69E', symObjAddr: 0x32080, symBinAddr: 0x376D0, symSize: 0xD0 }
  - { offset: 0xA4A39, size: 0x8, addend: 0x0, symName: '__ZN62_$LT$std..io..stdio..StdinLock$u20$as$u20$std..io..BufRead$GT$7consume17hf9870b22ffe6c7beE', symObjAddr: 0x32150, symBinAddr: 0x377A0, symSize: 0x20 }
  - { offset: 0xA4AC5, size: 0x8, addend: 0x0, symName: '__ZN62_$LT$std..io..stdio..StdinLock$u20$as$u20$std..io..BufRead$GT$10read_until17h776fd321ed7b0e52E', symObjAddr: 0x32170, symBinAddr: 0x377C0, symSize: 0x20 }
  - { offset: 0xA4B24, size: 0x8, addend: 0x0, symName: '__ZN62_$LT$std..io..stdio..StdinLock$u20$as$u20$std..io..BufRead$GT$9read_line17hf84ad917ebd31bf1E', symObjAddr: 0x32190, symBinAddr: 0x377E0, symSize: 0xC0 }
  - { offset: 0xA4D4D, size: 0x8, addend: 0x0, symName: '__ZN58_$LT$std..io..stdio..Stdin$u20$as$u20$core..fmt..Debug$GT$3fmt17h30fedcbc29e6480bE', symObjAddr: 0x30B80, symBinAddr: 0x361D0, symSize: 0x30 }
  - { offset: 0xA4D99, size: 0x8, addend: 0x0, symName: '__ZN59_$LT$std..io..stdio..StdinLock$u20$as$u20$std..io..Read$GT$4read17h99d9ee951127f3e0E', symObjAddr: 0x317D0, symBinAddr: 0x36E20, symSize: 0x20 }
  - { offset: 0xA4DDB, size: 0x8, addend: 0x0, symName: '__ZN59_$LT$std..io..stdio..StdinLock$u20$as$u20$std..io..Read$GT$8read_buf17h3fc7552b6b402c96E', symObjAddr: 0x317F0, symBinAddr: 0x36E40, symSize: 0x20 }
  - { offset: 0xA4E1D, size: 0x8, addend: 0x0, symName: '__ZN59_$LT$std..io..stdio..StdinLock$u20$as$u20$std..io..Read$GT$13read_vectored17h039d1f2010d7e741E', symObjAddr: 0x31810, symBinAddr: 0x36E60, symSize: 0x2C0 }
  - { offset: 0xA53A3, size: 0x8, addend: 0x0, symName: '__ZN59_$LT$std..io..stdio..StdinLock$u20$as$u20$std..io..Read$GT$11read_to_end17h9f3326e8adaf43d1E', symObjAddr: 0x31AD0, symBinAddr: 0x37120, symSize: 0x20 }
  - { offset: 0xA53E5, size: 0x8, addend: 0x0, symName: '__ZN59_$LT$std..io..stdio..StdinLock$u20$as$u20$std..io..Read$GT$14read_to_string17h24111d30323c6674E', symObjAddr: 0x31AF0, symBinAddr: 0x37140, symSize: 0x1C0 }
  - { offset: 0xA5954, size: 0x8, addend: 0x0, symName: '__ZN59_$LT$std..io..stdio..StdinLock$u20$as$u20$std..io..Read$GT$10read_exact17h3faf1fa8c37f5aa5E', symObjAddr: 0x31CB0, symBinAddr: 0x37300, symSize: 0x200 }
  - { offset: 0xA5D72, size: 0x8, addend: 0x0, symName: '__ZN59_$LT$std..io..stdio..StdinLock$u20$as$u20$std..io..Read$GT$14read_buf_exact17h0388af11149b2d75E', symObjAddr: 0x31EB0, symBinAddr: 0x37500, symSize: 0x1D0 }
  - { offset: 0xA625C, size: 0x8, addend: 0x0, symName: '__ZN55_$LT$std..io..stdio..Stdin$u20$as$u20$std..io..Read$GT$4read17h14743f1dec6305beE', symObjAddr: 0x30BB0, symBinAddr: 0x36200, symSize: 0xF0 }
  - { offset: 0xA64FB, size: 0x8, addend: 0x0, symName: '__ZN55_$LT$std..io..stdio..Stdin$u20$as$u20$std..io..Read$GT$8read_buf17h1eb106f5b47cafd0E', symObjAddr: 0x30CA0, symBinAddr: 0x362F0, symSize: 0xE0 }
  - { offset: 0xA679A, size: 0x8, addend: 0x0, symName: '__ZN55_$LT$std..io..stdio..Stdin$u20$as$u20$std..io..Read$GT$13read_vectored17h4ab12fd901c1a138E', symObjAddr: 0x30D80, symBinAddr: 0x363D0, symSize: 0xD0 }
  - { offset: 0xA6A35, size: 0x8, addend: 0x0, symName: '__ZN55_$LT$std..io..stdio..Stdin$u20$as$u20$std..io..Read$GT$11read_to_end17h05b361120741743aE', symObjAddr: 0x30E50, symBinAddr: 0x364A0, symSize: 0xD0 }
  - { offset: 0xA6D14, size: 0x8, addend: 0x0, symName: '__ZN55_$LT$std..io..stdio..Stdin$u20$as$u20$std..io..Read$GT$14read_to_string17h231426e95efe9808E', symObjAddr: 0x30F20, symBinAddr: 0x36570, symSize: 0xE0 }
  - { offset: 0xA6FAF, size: 0x8, addend: 0x0, symName: '__ZN55_$LT$std..io..stdio..Stdin$u20$as$u20$std..io..Read$GT$10read_exact17h942795a10b0718ddE', symObjAddr: 0x31000, symBinAddr: 0x36650, symSize: 0xE0 }
  - { offset: 0xA724A, size: 0x8, addend: 0x0, symName: '__ZN55_$LT$std..io..stdio..Stdin$u20$as$u20$std..io..Read$GT$14read_buf_exact17h396e5d4db1d1b494E', symObjAddr: 0x310E0, symBinAddr: 0x36730, symSize: 0xE0 }
  - { offset: 0xA74EC, size: 0x8, addend: 0x0, symName: '__ZN59_$LT$$RF$std..io..stdio..Stdin$u20$as$u20$std..io..Read$GT$4read17haf5225b484abe90eE', symObjAddr: 0x311C0, symBinAddr: 0x36810, symSize: 0xF0 }
  - { offset: 0xA778B, size: 0x8, addend: 0x0, symName: '__ZN59_$LT$$RF$std..io..stdio..Stdin$u20$as$u20$std..io..Read$GT$8read_buf17haedca58b49946e94E', symObjAddr: 0x312B0, symBinAddr: 0x36900, symSize: 0xE0 }
  - { offset: 0xA7A2A, size: 0x8, addend: 0x0, symName: '__ZN59_$LT$$RF$std..io..stdio..Stdin$u20$as$u20$std..io..Read$GT$13read_vectored17h47f0c2c5dc0e7ca9E', symObjAddr: 0x31390, symBinAddr: 0x369E0, symSize: 0xD0 }
  - { offset: 0xA7CC5, size: 0x8, addend: 0x0, symName: '__ZN59_$LT$$RF$std..io..stdio..Stdin$u20$as$u20$std..io..Read$GT$11read_to_end17hfe147110211ed8b8E', symObjAddr: 0x31460, symBinAddr: 0x36AB0, symSize: 0xD0 }
  - { offset: 0xA7FA4, size: 0x8, addend: 0x0, symName: '__ZN59_$LT$$RF$std..io..stdio..Stdin$u20$as$u20$std..io..Read$GT$14read_to_string17hf786e273fdd14d83E', symObjAddr: 0x31530, symBinAddr: 0x36B80, symSize: 0xE0 }
  - { offset: 0xA823F, size: 0x8, addend: 0x0, symName: '__ZN59_$LT$$RF$std..io..stdio..Stdin$u20$as$u20$std..io..Read$GT$10read_exact17hc7bb2d83f2006475E', symObjAddr: 0x31610, symBinAddr: 0x36C60, symSize: 0xE0 }
  - { offset: 0xA84DA, size: 0x8, addend: 0x0, symName: '__ZN59_$LT$$RF$std..io..stdio..Stdin$u20$as$u20$std..io..Read$GT$14read_buf_exact17hdedc00d38eb5959cE', symObjAddr: 0x316F0, symBinAddr: 0x36D40, symSize: 0xE0 }
  - { offset: 0xA877C, size: 0x8, addend: 0x0, symName: '__ZN62_$LT$std..io..stdio..StdinLock$u20$as$u20$core..fmt..Debug$GT$3fmt17h87f53e13d73c38bdE', symObjAddr: 0x32250, symBinAddr: 0x378A0, symSize: 0x30 }
  - { offset: 0xA8798, size: 0x8, addend: 0x0, symName: __ZN3std2io5stdio6stdout17h36e717153b97be33E, symObjAddr: 0x32280, symBinAddr: 0x378D0, symSize: 0x30 }
  - { offset: 0xA87CC, size: 0x8, addend: 0x0, symName: __ZN3std2io5stdio6stdout17h36e717153b97be33E, symObjAddr: 0x32280, symBinAddr: 0x378D0, symSize: 0x30 }
  - { offset: 0xA87E2, size: 0x8, addend: 0x0, symName: __ZN3std2io5stdio6stdout17h36e717153b97be33E, symObjAddr: 0x32280, symBinAddr: 0x378D0, symSize: 0x30 }
  - { offset: 0xA87F7, size: 0x8, addend: 0x0, symName: __ZN3std2io5stdio6stdout17h36e717153b97be33E, symObjAddr: 0x32280, symBinAddr: 0x378D0, symSize: 0x30 }
  - { offset: 0xA880D, size: 0x8, addend: 0x0, symName: __ZN3std2io5stdio6stdout17h36e717153b97be33E, symObjAddr: 0x32280, symBinAddr: 0x378D0, symSize: 0x30 }
  - { offset: 0xA8823, size: 0x8, addend: 0x0, symName: __ZN3std2io5stdio6stdout17h36e717153b97be33E, symObjAddr: 0x32280, symBinAddr: 0x378D0, symSize: 0x30 }
  - { offset: 0xA8838, size: 0x8, addend: 0x0, symName: __ZN3std2io5stdio6stdout17h36e717153b97be33E, symObjAddr: 0x32280, symBinAddr: 0x378D0, symSize: 0x30 }
  - { offset: 0xA8858, size: 0x8, addend: 0x0, symName: '__ZN59_$LT$std..io..stdio..Stdout$u20$as$u20$core..fmt..Debug$GT$3fmt17h113cadd7a5131fa3E', symObjAddr: 0x322B0, symBinAddr: 0x37900, symSize: 0x30 }
  - { offset: 0xA88A4, size: 0x8, addend: 0x0, symName: '__ZN61_$LT$$RF$std..io..stdio..Stdout$u20$as$u20$std..io..Write$GT$5write17h793c7922f4d667b2E', symObjAddr: 0x324C0, symBinAddr: 0x37B10, symSize: 0x80 }
  - { offset: 0xA8AA5, size: 0x8, addend: 0x0, symName: '__ZN61_$LT$$RF$std..io..stdio..Stdout$u20$as$u20$std..io..Write$GT$14write_vectored17h20e1fa3534d15a82E', symObjAddr: 0x32540, symBinAddr: 0x37B90, symSize: 0xB0 }
  - { offset: 0xA8E7B, size: 0x8, addend: 0x0, symName: '__ZN61_$LT$$RF$std..io..stdio..Stdout$u20$as$u20$std..io..Write$GT$5flush17hfcfec95b6d3c053aE', symObjAddr: 0x325F0, symBinAddr: 0x37C40, symSize: 0x90 }
  - { offset: 0xA924F, size: 0x8, addend: 0x0, symName: '__ZN61_$LT$$RF$std..io..stdio..Stdout$u20$as$u20$std..io..Write$GT$9write_all17hcb54552ac84825c4E', symObjAddr: 0x32680, symBinAddr: 0x37CD0, symSize: 0x80 }
  - { offset: 0xA9450, size: 0x8, addend: 0x0, symName: '__ZN61_$LT$$RF$std..io..stdio..Stdout$u20$as$u20$std..io..Write$GT$18write_all_vectored17h4dfe44d8e96fb48eE', symObjAddr: 0x32700, symBinAddr: 0x37D50, symSize: 0x80 }
  - { offset: 0xA9651, size: 0x8, addend: 0x0, symName: '__ZN61_$LT$$RF$std..io..stdio..Stdout$u20$as$u20$std..io..Write$GT$9write_fmt17h323f6a75d8d80bb9E', symObjAddr: 0x32780, symBinAddr: 0x37DD0, symSize: 0x180 }
  - { offset: 0xA9B0F, size: 0x8, addend: 0x0, symName: '__ZN57_$LT$std..io..stdio..Stdout$u20$as$u20$std..io..Write$GT$5write17h479505cd6225555dE', symObjAddr: 0x322E0, symBinAddr: 0x37930, symSize: 0x80 }
  - { offset: 0xA9D26, size: 0x8, addend: 0x0, symName: '__ZN57_$LT$std..io..stdio..Stdout$u20$as$u20$std..io..Write$GT$14write_vectored17h34c9d543c96e158cE', symObjAddr: 0x32360, symBinAddr: 0x379B0, symSize: 0x20 }
  - { offset: 0xA9D41, size: 0x8, addend: 0x0, symName: '__ZN57_$LT$std..io..stdio..Stdout$u20$as$u20$std..io..Write$GT$5flush17haa8cf7f24a9c93a1E', symObjAddr: 0x32380, symBinAddr: 0x379D0, symSize: 0x20 }
  - { offset: 0xA9D5C, size: 0x8, addend: 0x0, symName: '__ZN57_$LT$std..io..stdio..Stdout$u20$as$u20$std..io..Write$GT$9write_all17h770fed0070327c91E', symObjAddr: 0x323A0, symBinAddr: 0x379F0, symSize: 0x80 }
  - { offset: 0xA9F73, size: 0x8, addend: 0x0, symName: '__ZN57_$LT$std..io..stdio..Stdout$u20$as$u20$std..io..Write$GT$18write_all_vectored17h800670487e6ac32eE', symObjAddr: 0x32420, symBinAddr: 0x37A70, symSize: 0x80 }
  - { offset: 0xAA18A, size: 0x8, addend: 0x0, symName: '__ZN57_$LT$std..io..stdio..Stdout$u20$as$u20$std..io..Write$GT$9write_fmt17h52a53394d64174bbE', symObjAddr: 0x324A0, symBinAddr: 0x37AF0, symSize: 0x20 }
  - { offset: 0xAA1CF, size: 0x8, addend: 0x0, symName: '__ZN61_$LT$std..io..stdio..StdoutLock$u20$as$u20$std..io..Write$GT$5write17h3141ac3ec635e34dE', symObjAddr: 0x32900, symBinAddr: 0x37F50, symSize: 0x250 }
  - { offset: 0xAA886, size: 0x8, addend: 0x0, symName: '__ZN61_$LT$std..io..stdio..StdoutLock$u20$as$u20$std..io..Write$GT$14write_vectored17h841d53a7df38944eE', symObjAddr: 0x32B50, symBinAddr: 0x381A0, symSize: 0x50 }
  - { offset: 0xAAA70, size: 0x8, addend: 0x0, symName: '__ZN61_$LT$std..io..stdio..StdoutLock$u20$as$u20$std..io..Write$GT$5flush17h5e74fd3267753507E', symObjAddr: 0x32BA0, symBinAddr: 0x381F0, symSize: 0x50 }
  - { offset: 0xAAC70, size: 0x8, addend: 0x0, symName: '__ZN61_$LT$std..io..stdio..StdoutLock$u20$as$u20$std..io..Write$GT$9write_all17h4ca3740de558d28cE', symObjAddr: 0x32BF0, symBinAddr: 0x38240, symSize: 0x280 }
  - { offset: 0xAB3B6, size: 0x8, addend: 0x0, symName: '__ZN61_$LT$std..io..stdio..StdoutLock$u20$as$u20$std..io..Write$GT$18write_all_vectored17h6d4dfbe755f3054aE', symObjAddr: 0x32E70, symBinAddr: 0x384C0, symSize: 0x360 }
  - { offset: 0xAB9DE, size: 0x8, addend: 0x0, symName: '__ZN63_$LT$std..io..stdio..StdoutLock$u20$as$u20$core..fmt..Debug$GT$3fmt17h5435a315a6d33ee3E', symObjAddr: 0x331D0, symBinAddr: 0x38820, symSize: 0x30 }
  - { offset: 0xABA00, size: 0x8, addend: 0x0, symName: __ZN3std2io5stdio6Stderr4lock17h9a56e28c32b0e1c7E, symObjAddr: 0x33200, symBinAddr: 0x38850, symSize: 0xD0 }
  - { offset: 0xABCC6, size: 0x8, addend: 0x0, symName: '__ZN59_$LT$std..io..stdio..Stderr$u20$as$u20$core..fmt..Debug$GT$3fmt17h5758a30fd63899faE', symObjAddr: 0x332D0, symBinAddr: 0x38920, symSize: 0x30 }
  - { offset: 0xABCE8, size: 0x8, addend: 0x0, symName: '__ZN57_$LT$std..io..stdio..Stderr$u20$as$u20$std..io..Write$GT$5write17h0cae6fbc6e67ab54E', symObjAddr: 0x33300, symBinAddr: 0x38950, symSize: 0x20 }
  - { offset: 0xABD03, size: 0x8, addend: 0x0, symName: '__ZN57_$LT$std..io..stdio..Stderr$u20$as$u20$std..io..Write$GT$14write_vectored17hac570c136d75349dE', symObjAddr: 0x33320, symBinAddr: 0x38970, symSize: 0x20 }
  - { offset: 0xABD1E, size: 0x8, addend: 0x0, symName: '__ZN57_$LT$std..io..stdio..Stderr$u20$as$u20$std..io..Write$GT$5flush17h4cadd532722cc7aaE', symObjAddr: 0x33340, symBinAddr: 0x38990, symSize: 0x60 }
  - { offset: 0xABF80, size: 0x8, addend: 0x0, symName: '__ZN57_$LT$std..io..stdio..Stderr$u20$as$u20$std..io..Write$GT$9write_all17h44734af1b988d00dE', symObjAddr: 0x333A0, symBinAddr: 0x389F0, symSize: 0x80 }
  - { offset: 0xAC197, size: 0x8, addend: 0x0, symName: '__ZN57_$LT$std..io..stdio..Stderr$u20$as$u20$std..io..Write$GT$18write_all_vectored17h4efb49b8e4372af5E', symObjAddr: 0x33420, symBinAddr: 0x38A70, symSize: 0x20 }
  - { offset: 0xAC1B2, size: 0x8, addend: 0x0, symName: '__ZN57_$LT$std..io..stdio..Stderr$u20$as$u20$std..io..Write$GT$9write_fmt17he521b94735d8de31E', symObjAddr: 0x33440, symBinAddr: 0x38A90, symSize: 0x20 }
  - { offset: 0xAC1F7, size: 0x8, addend: 0x0, symName: '__ZN61_$LT$$RF$std..io..stdio..Stderr$u20$as$u20$std..io..Write$GT$5write17h3724cc062cc81f55E', symObjAddr: 0x33460, symBinAddr: 0x38AB0, symSize: 0x100 }
  - { offset: 0xAC5B4, size: 0x8, addend: 0x0, symName: '__ZN61_$LT$$RF$std..io..stdio..Stderr$u20$as$u20$std..io..Write$GT$14write_vectored17h038826239c4fb8bdE', symObjAddr: 0x33560, symBinAddr: 0x38BB0, symSize: 0x180 }
  - { offset: 0xACA97, size: 0x8, addend: 0x0, symName: '__ZN61_$LT$$RF$std..io..stdio..Stderr$u20$as$u20$std..io..Write$GT$5flush17hab025f09f4acdc25E', symObjAddr: 0x336E0, symBinAddr: 0x38D30, symSize: 0x70 }
  - { offset: 0xACCE3, size: 0x8, addend: 0x0, symName: '__ZN61_$LT$$RF$std..io..stdio..Stderr$u20$as$u20$std..io..Write$GT$9write_all17hc2d00f5dd5d3b134E', symObjAddr: 0x33750, symBinAddr: 0x38DA0, symSize: 0x80 }
  - { offset: 0xACEE4, size: 0x8, addend: 0x0, symName: '__ZN61_$LT$$RF$std..io..stdio..Stderr$u20$as$u20$std..io..Write$GT$18write_all_vectored17h74d304128d60a86aE', symObjAddr: 0x337D0, symBinAddr: 0x38E20, symSize: 0xC0 }
  - { offset: 0xAD2B2, size: 0x8, addend: 0x0, symName: '__ZN61_$LT$$RF$std..io..stdio..Stderr$u20$as$u20$std..io..Write$GT$9write_fmt17h6c7d231879a2b11cE', symObjAddr: 0x33890, symBinAddr: 0x38EE0, symSize: 0x180 }
  - { offset: 0xAD7A8, size: 0x8, addend: 0x0, symName: '__ZN61_$LT$std..io..stdio..StderrLock$u20$as$u20$std..io..Write$GT$5write17h653f5b04a68741d7E', symObjAddr: 0x33A10, symBinAddr: 0x39060, symSize: 0xB0 }
  - { offset: 0xAD9D1, size: 0x8, addend: 0x0, symName: '__ZN61_$LT$std..io..stdio..StderrLock$u20$as$u20$std..io..Write$GT$14write_vectored17hcf3b142f78d53674E', symObjAddr: 0x33AC0, symBinAddr: 0x39110, symSize: 0x130 }
  - { offset: 0xADCC8, size: 0x8, addend: 0x0, symName: '__ZN61_$LT$std..io..stdio..StderrLock$u20$as$u20$std..io..Write$GT$5flush17h917026ac31d91584E', symObjAddr: 0x33BF0, symBinAddr: 0x39240, symSize: 0x20 }
  - { offset: 0xADCE0, size: 0x8, addend: 0x0, symName: '__ZN61_$LT$std..io..stdio..StderrLock$u20$as$u20$std..io..Write$GT$5flush17h917026ac31d91584E', symObjAddr: 0x33BF0, symBinAddr: 0x39240, symSize: 0x20 }
  - { offset: 0xADD2F, size: 0x8, addend: 0x0, symName: '__ZN61_$LT$std..io..stdio..StderrLock$u20$as$u20$std..io..Write$GT$9write_all17h5361a47b31a2ed40E', symObjAddr: 0x33C10, symBinAddr: 0x39260, symSize: 0x120 }
  - { offset: 0xAE07B, size: 0x8, addend: 0x0, symName: '__ZN61_$LT$std..io..stdio..StderrLock$u20$as$u20$std..io..Write$GT$18write_all_vectored17h881b5624fce3c867E', symObjAddr: 0x33D30, symBinAddr: 0x39380, symSize: 0x70 }
  - { offset: 0xAE26C, size: 0x8, addend: 0x0, symName: '__ZN63_$LT$std..io..stdio..StderrLock$u20$as$u20$core..fmt..Debug$GT$3fmt17h03470250438ea6a3E', symObjAddr: 0x33DA0, symBinAddr: 0x393F0, symSize: 0x30 }
  - { offset: 0xAE2C6, size: 0x8, addend: 0x0, symName: __ZN3std2io5stdio18set_output_capture17hcefa5f0fcbd1faebE, symObjAddr: 0x33DD0, symBinAddr: 0x39420, symSize: 0xE0 }
  - { offset: 0xAE57C, size: 0x8, addend: 0x0, symName: __ZN3std2io5stdio22try_set_output_capture17h52e1a7fdfa695a7dE, symObjAddr: 0x33EB0, symBinAddr: 0x39500, symSize: 0xD0 }
  - { offset: 0xAE830, size: 0x8, addend: 0x0, symName: __ZN3std2io5stdio31print_to_buffer_if_capture_used17hd5e50f7c183b4779E, symObjAddr: 0x33F80, symBinAddr: 0x395D0, symSize: 0x240 }
  - { offset: 0xAEFA7, size: 0x8, addend: 0x0, symName: __ZN3std2io5stdio23attempt_print_to_stderr17he697847eeb3ba768E, symObjAddr: 0x341C0, symBinAddr: 0x39810, symSize: 0xD0 }
  - { offset: 0xAF26C, size: 0x8, addend: 0x0, symName: __ZN3std2io5stdio6_print17hff239a3e19a88dccE, symObjAddr: 0x34290, symBinAddr: 0x398E0, symSize: 0xF0 }
  - { offset: 0xAF386, size: 0x8, addend: 0x0, symName: __ZN3std2io5stdio7_eprint17h6c73124107c323bdE, symObjAddr: 0x34380, symBinAddr: 0x399D0, symSize: 0xE0 }
  - { offset: 0xAF412, size: 0x8, addend: 0x0, symName: __ZN3std2io8buffered9bufreader6buffer6Buffer9backshift17h415d84db16f025a8E, symObjAddr: 0x2DB00, symBinAddr: 0x33380, symSize: 0x50 }
  - { offset: 0xAF687, size: 0x8, addend: 0x0, symName: '__ZN82_$LT$std..io..buffered..bufreader..BufReader$LT$R$GT$$u20$as$u20$std..io..Read$GT$4read17ha795da51b1721d55E', symObjAddr: 0x2DB50, symBinAddr: 0x333D0, symSize: 0x1C0 }
  - { offset: 0xAFA66, size: 0x8, addend: 0x0, symName: '__ZN82_$LT$std..io..buffered..bufreader..BufReader$LT$R$GT$$u20$as$u20$std..io..Read$GT$8read_buf17hfb0ec3946b8d7d7fE', symObjAddr: 0x2DD10, symBinAddr: 0x33590, symSize: 0x1D0 }
  - { offset: 0xB00BD, size: 0x8, addend: 0x0, symName: '__ZN82_$LT$std..io..buffered..bufreader..BufReader$LT$R$GT$$u20$as$u20$std..io..Read$GT$11read_to_end17hecb22be98e430776E', symObjAddr: 0x2DEE0, symBinAddr: 0x33760, symSize: 0x170 }
  - { offset: 0xB0497, size: 0x8, addend: 0x0, symName: '__ZN3std2io8buffered9bufwriter18BufWriter$LT$W$GT$9flush_buf17h1f92fe2132a12e45E', symObjAddr: 0x2E050, symBinAddr: 0x338D0, symSize: 0x250 }
  - { offset: 0xB0B41, size: 0x8, addend: 0x0, symName: '__ZN3std2io8buffered9bufwriter18BufWriter$LT$W$GT$10write_cold17h1c25f6a18b61b383E', symObjAddr: 0x2E330, symBinAddr: 0x9B410, symSize: 0xF0 }
  - { offset: 0xB0D95, size: 0x8, addend: 0x0, symName: '__ZN3std2io8buffered9bufwriter18BufWriter$LT$W$GT$14write_all_cold17hd04fe49486c08ee1E', symObjAddr: 0x2E420, symBinAddr: 0x9B500, symSize: 0x140 }
  - { offset: 0xB10F0, size: 0x8, addend: 0x0, symName: '__ZN111_$LT$std..io..buffered..bufwriter..BufWriter$LT$W$GT$..flush_buf..BufGuard$u20$as$u20$core..ops..drop..Drop$GT$4drop17h64ae5e2937d85c10E', symObjAddr: 0x2E2D0, symBinAddr: 0x33B50, symSize: 0x60 }
  - { offset: 0xB127D, size: 0x8, addend: 0x0, symName: '__ZN3std2io8buffered9bufwriter18BufWriter$LT$W$GT$9flush_buf8BufGuard9remaining17hf371d151506c75e6E', symObjAddr: 0x2E2A0, symBinAddr: 0x33B20, symSize: 0x30 }
  - { offset: 0xB1362, size: 0x8, addend: 0x0, symName: '__ZN83_$LT$std..io..buffered..bufwriter..WriterPanicked$u20$as$u20$core..fmt..Display$GT$3fmt17hdb0764c6a8fb580aE', symObjAddr: 0x2E560, symBinAddr: 0x33BB0, symSize: 0x60 }
  - { offset: 0xB13B2, size: 0x8, addend: 0x0, symName: '__ZN81_$LT$std..io..buffered..bufwriter..WriterPanicked$u20$as$u20$core..fmt..Debug$GT$3fmt17h96faf5685b22a2b0E', symObjAddr: 0x2E5C0, symBinAddr: 0x33C10, symSize: 0xB0 }
  - { offset: 0xB1570, size: 0x8, addend: 0x0, symName: '__ZN93_$LT$std..io..buffered..linewritershim..LineWriterShim$LT$W$GT$$u20$as$u20$std..io..Write$GT$14write_vectored17h61db2d2217f2eebcE', symObjAddr: 0x2E670, symBinAddr: 0x33CC0, symSize: 0x4D0 }
  - { offset: 0xB1FDE, size: 0x8, addend: 0x0, symName: '__ZN79_$LT$alloc..vec..Vec$LT$u8$GT$$u20$as$u20$std..io..copy..BufferedWriterSpec$GT$11buffer_size17hd47d5d220058ae3fE', symObjAddr: 0x2EB40, symBinAddr: 0x34190, symSize: 0x20 }
  - { offset: 0xB2079, size: 0x8, addend: 0x0, symName: __ZN3std2io4pipe10PipeReader9try_clone17h9d847328aec73c12E, symObjAddr: 0x2F940, symBinAddr: 0x34F90, symSize: 0x50 }
  - { offset: 0xB218B, size: 0x8, addend: 0x0, symName: '__ZN63_$LT$$RF$std..io..pipe..PipeReader$u20$as$u20$std..io..Read$GT$4read17h20b6d687e9b15615E', symObjAddr: 0x2F990, symBinAddr: 0x34FE0, symSize: 0x50 }
  - { offset: 0xB2292, size: 0x8, addend: 0x0, symName: '__ZN63_$LT$$RF$std..io..pipe..PipeReader$u20$as$u20$std..io..Read$GT$13read_vectored17h1b9bc3a12f6491edE', symObjAddr: 0x2F9E0, symBinAddr: 0x35030, symSize: 0x50 }
  - { offset: 0xB2399, size: 0x8, addend: 0x0, symName: '__ZN63_$LT$$RF$std..io..pipe..PipeReader$u20$as$u20$std..io..Read$GT$11read_to_end17hf1ed0a971f98ca82E', symObjAddr: 0x2FA30, symBinAddr: 0x35080, symSize: 0x10 }
  - { offset: 0xB23B3, size: 0x8, addend: 0x0, symName: '__ZN63_$LT$$RF$std..io..pipe..PipeReader$u20$as$u20$std..io..Read$GT$8read_buf17hb1e868abdf9b3986E', symObjAddr: 0x2FA40, symBinAddr: 0x35090, symSize: 0x70 }
  - { offset: 0xB2598, size: 0x8, addend: 0x0, symName: '__ZN59_$LT$std..io..pipe..PipeReader$u20$as$u20$std..io..Read$GT$11read_to_end17h0e897990e04713e4E', symObjAddr: 0x2FAB0, symBinAddr: 0x35100, symSize: 0x10 }
  - { offset: 0xB25B9, size: 0x8, addend: 0x0, symName: '__ZN64_$LT$$RF$std..io..pipe..PipeWriter$u20$as$u20$std..io..Write$GT$5write17hd892c34c80f2887bE', symObjAddr: 0x2FAC0, symBinAddr: 0x35110, symSize: 0x50 }
  - { offset: 0xB26C3, size: 0x8, addend: 0x0, symName: '__ZN64_$LT$$RF$std..io..pipe..PipeWriter$u20$as$u20$std..io..Write$GT$14write_vectored17he9c78d1b6a833cbbE', symObjAddr: 0x2FB10, symBinAddr: 0x35160, symSize: 0x50 }
  - { offset: 0xB27D6, size: 0x8, addend: 0x0, symName: '__ZN60_$LT$std..io..pipe..PipeWriter$u20$as$u20$std..io..Write$GT$5write17hd339fa80e08de6a8E', symObjAddr: 0x2FB60, symBinAddr: 0x351B0, symSize: 0x50 }
  - { offset: 0xB28E2, size: 0x8, addend: 0x0, symName: '__ZN60_$LT$std..io..pipe..PipeWriter$u20$as$u20$std..io..Write$GT$14write_vectored17h70129afdaba0cc3bE', symObjAddr: 0x2FBB0, symBinAddr: 0x35200, symSize: 0x50 }
  - { offset: 0xB2B06, size: 0x8, addend: 0x0, symName: '__ZN58_$LT$std..io..util..Repeat$u20$as$u20$core..fmt..Debug$GT$3fmt17hf099639696fc84c7E', symObjAddr: 0x34460, symBinAddr: 0x39AB0, symSize: 0x30 }
  - { offset: 0xB2B53, size: 0x8, addend: 0x0, symName: __ZN3std2io19default_read_to_end16small_probe_read17h01cad9304b1b1318E, symObjAddr: 0x34DA0, symBinAddr: 0x3A3F0, symSize: 0xF0 }
  - { offset: 0xB2D60, size: 0x8, addend: 0x0, symName: __ZN3std2io19default_read_to_end16small_probe_read17ha3c887263f3c3679E, symObjAddr: 0x34F80, symBinAddr: 0x3A4E0, symSize: 0xF0 }
  - { offset: 0xB2F6C, size: 0x8, addend: 0x0, symName: __ZN3std2io19default_read_to_end16small_probe_read17hb4eed13bd2d110d8E, symObjAddr: 0x35070, symBinAddr: 0x3A5D0, symSize: 0xF0 }
  - { offset: 0xB31A8, size: 0x8, addend: 0x0, symName: __ZN3std2io19default_read_to_end17h4e30e5ef7bdb7df8E, symObjAddr: 0x34490, symBinAddr: 0x39AE0, symSize: 0x310 }
  - { offset: 0xB371C, size: 0x8, addend: 0x0, symName: __ZN3std2io19default_read_to_end17h63c18ca90c9b3e25E, symObjAddr: 0x347A0, symBinAddr: 0x39DF0, symSize: 0x2F0 }
  - { offset: 0xB3C71, size: 0x8, addend: 0x0, symName: __ZN3std2io19default_read_to_end17hbf44406f38bb1ac4E, symObjAddr: 0x34A90, symBinAddr: 0x3A0E0, symSize: 0x310 }
  - { offset: 0xB41DC, size: 0x8, addend: 0x0, symName: __ZN3std2io10IoSliceMut10into_slice17h59aebca168e06be4E, symObjAddr: 0x354B0, symBinAddr: 0x3AA10, symSize: 0x10 }
  - { offset: 0xB41FE, size: 0x8, addend: 0x0, symName: '__ZN53_$LT$std..io..IoSlice$u20$as$u20$core..fmt..Debug$GT$3fmt17h4c8ab6f01cfe0a9bE', symObjAddr: 0x354C0, symBinAddr: 0x3AA20, symSize: 0x80 }
  - { offset: 0xB42BA, size: 0x8, addend: 0x0, symName: __ZN3std2io10read_until17h787d94e6654a570bE, symObjAddr: 0x35B40, symBinAddr: 0x3B0A0, symSize: 0x400 }
  - { offset: 0xB4A3A, size: 0x8, addend: 0x0, symName: '__ZN3std4sync6poison4once4Once15call_once_force28_$u7b$$u7b$closure$u7d$$u7d$17h39bb3f4863da81deE', symObjAddr: 0x3EDE0, symBinAddr: 0x441C0, symSize: 0x90 }
  - { offset: 0xB4AF8, size: 0x8, addend: 0x0, symName: '__ZN3std4sync6poison4once4Once15call_once_force28_$u7b$$u7b$closure$u7d$$u7d$17he62470d9eebf26ccE', symObjAddr: 0x3EE70, symBinAddr: 0x44250, symSize: 0x90 }
  - { offset: 0xB4C28, size: 0x8, addend: 0x0, symName: '__ZN3std4sync6poison4once4Once15call_once_force28_$u7b$$u7b$closure$u7d$$u7d$17hf00e8e561342ecf0E', symObjAddr: 0x3EF00, symBinAddr: 0x442E0, symSize: 0xA0 }
  - { offset: 0xB4D7D, size: 0x8, addend: 0x0, symName: '__ZN3std4sync6poison4once4Once9call_once28_$u7b$$u7b$closure$u7d$$u7d$17hd0a5aecc9d0edb10E', symObjAddr: 0x3E9B0, symBinAddr: 0x43D90, symSize: 0x230 }
  - { offset: 0xB5486, size: 0x8, addend: 0x0, symName: '__ZN3std4sync6poison4once4Once9call_once28_$u7b$$u7b$closure$u7d$$u7d$17heaac7178c64db27dE', symObjAddr: 0x3EBE0, symBinAddr: 0x43FC0, symSize: 0x200 }
  - { offset: 0xB5821, size: 0x8, addend: 0x0, symName: __ZN3std4sync6poison4once4Once4wait17ha9f22b6a6feb7cbfE, symObjAddr: 0x3EFA0, symBinAddr: 0x44380, symSize: 0x20 }
  - { offset: 0xB5880, size: 0x8, addend: 0x0, symName: __ZN3std4sync6poison4once4Once10wait_force17hfcddf6d7dfc05991E, symObjAddr: 0x3EFC0, symBinAddr: 0x443A0, symSize: 0x30 }
  - { offset: 0xB590D, size: 0x8, addend: 0x0, symName: '__ZN66_$LT$std..sync..poison..once..Once$u20$as$u20$core..fmt..Debug$GT$3fmt17ha5a867c4df5e180aE', symObjAddr: 0x3EFF0, symBinAddr: 0x443D0, symSize: 0x30 }
  - { offset: 0xB5944, size: 0x8, addend: 0x0, symName: '__ZN71_$LT$std..sync..poison..once..OnceState$u20$as$u20$core..fmt..Debug$GT$3fmt17h315d7d063fe201c8E', symObjAddr: 0x3F020, symBinAddr: 0x44400, symSize: 0x60 }
  - { offset: 0xB5BC3, size: 0x8, addend: 0x0, symName: '__ZN3std4sync6poison6rwlock15RwLock$LT$T$GT$5write17h55b2c3a317e8e83cE', symObjAddr: 0x3F080, symBinAddr: 0x44460, symSize: 0x250 }
  - { offset: 0xB62D9, size: 0x8, addend: 0x0, symName: '__ZN3std4sync6poison6rwlock15RwLock$LT$T$GT$5write17h593bb4d854f2b68dE', symObjAddr: 0x3F2D0, symBinAddr: 0x446B0, symSize: 0x250 }
  - { offset: 0xB6A51, size: 0x8, addend: 0x0, symName: __ZN3std4sync6poison7condvar7Condvar10notify_one17ha9aa404824302075E, symObjAddr: 0x3E920, symBinAddr: 0x43D00, symSize: 0x30 }
  - { offset: 0xB6B06, size: 0x8, addend: 0x0, symName: __ZN3std4sync6poison7condvar7Condvar10notify_all17hddf0b6bbc0aa7be4E, symObjAddr: 0x3E950, symBinAddr: 0x43D30, symSize: 0x30 }
  - { offset: 0xB6BE3, size: 0x8, addend: 0x0, symName: '__ZN72_$LT$std..sync..poison..condvar..Condvar$u20$as$u20$core..fmt..Debug$GT$3fmt17hec94e8897b5a0585E', symObjAddr: 0x3E980, symBinAddr: 0x43D60, symSize: 0x30 }
  - { offset: 0xB6C22, size: 0x8, addend: 0x0, symName: '__ZN76_$LT$std..sync..poison..PoisonError$LT$T$GT$$u20$as$u20$core..fmt..Debug$GT$3fmt17hb183ceeb3cd3f07cE', symObjAddr: 0x3F520, symBinAddr: 0x44900, symSize: 0x30 }
  - { offset: 0xB6D3D, size: 0x8, addend: 0x0, symName: '__ZN3std4sync9once_lock17OnceLock$LT$T$GT$10initialize17h716ab836c3a2d061E', symObjAddr: 0x3F8A3, symBinAddr: 0x9B803, symSize: 0x5A }
  - { offset: 0xB6D6A, size: 0x8, addend: 0x0, symName: '__ZN3std4sync9once_lock17OnceLock$LT$T$GT$10initialize17h716ab836c3a2d061E', symObjAddr: 0x3F8A3, symBinAddr: 0x9B803, symSize: 0x5A }
  - { offset: 0xB6D7F, size: 0x8, addend: 0x0, symName: '__ZN3std4sync9once_lock17OnceLock$LT$T$GT$10initialize17h716ab836c3a2d061E', symObjAddr: 0x3F8A3, symBinAddr: 0x9B803, symSize: 0x5A }
  - { offset: 0xB6D94, size: 0x8, addend: 0x0, symName: '__ZN3std4sync9once_lock17OnceLock$LT$T$GT$10initialize17h716ab836c3a2d061E', symObjAddr: 0x3F8A3, symBinAddr: 0x9B803, symSize: 0x5A }
  - { offset: 0xB6DAA, size: 0x8, addend: 0x0, symName: '__ZN3std4sync9once_lock17OnceLock$LT$T$GT$10initialize17ha7672b5d1991fcadE', symObjAddr: 0x3F8FD, symBinAddr: 0x9B85D, symSize: 0x56 }
  - { offset: 0xB6DD7, size: 0x8, addend: 0x0, symName: '__ZN3std4sync9once_lock17OnceLock$LT$T$GT$10initialize17ha7672b5d1991fcadE', symObjAddr: 0x3F8FD, symBinAddr: 0x9B85D, symSize: 0x56 }
  - { offset: 0xB6DEC, size: 0x8, addend: 0x0, symName: '__ZN3std4sync9once_lock17OnceLock$LT$T$GT$10initialize17ha7672b5d1991fcadE', symObjAddr: 0x3F8FD, symBinAddr: 0x9B85D, symSize: 0x56 }
  - { offset: 0xB6E01, size: 0x8, addend: 0x0, symName: '__ZN3std4sync9once_lock17OnceLock$LT$T$GT$10initialize17ha7672b5d1991fcadE', symObjAddr: 0x3F8FD, symBinAddr: 0x9B85D, symSize: 0x56 }
  - { offset: 0xB6E17, size: 0x8, addend: 0x0, symName: '__ZN3std4sync9once_lock17OnceLock$LT$T$GT$10initialize17hda6ae2a682b8d434E', symObjAddr: 0x3F953, symBinAddr: 0x9B8B3, symSize: 0x5D }
  - { offset: 0xB6E44, size: 0x8, addend: 0x0, symName: '__ZN3std4sync9once_lock17OnceLock$LT$T$GT$10initialize17hda6ae2a682b8d434E', symObjAddr: 0x3F953, symBinAddr: 0x9B8B3, symSize: 0x5D }
  - { offset: 0xB6E59, size: 0x8, addend: 0x0, symName: '__ZN3std4sync9once_lock17OnceLock$LT$T$GT$10initialize17hda6ae2a682b8d434E', symObjAddr: 0x3F953, symBinAddr: 0x9B8B3, symSize: 0x5D }
  - { offset: 0xB6E6E, size: 0x8, addend: 0x0, symName: '__ZN3std4sync9once_lock17OnceLock$LT$T$GT$10initialize17hda6ae2a682b8d434E', symObjAddr: 0x3F953, symBinAddr: 0x9B8B3, symSize: 0x5D }
  - { offset: 0xB7064, size: 0x8, addend: 0x0, symName: __ZN3std4sync9lazy_lock14panic_poisoned17h8ec3518ecf0ecda5E, symObjAddr: 0x3F860, symBinAddr: 0x9B7C0, symSize: 0x43 }
  - { offset: 0xB70A9, size: 0x8, addend: 0x0, symName: __ZN3std4sync4mpmc7context7Context3new17h02e91a5320d25fb6E, symObjAddr: 0x3E6F0, symBinAddr: 0x9B660, symSize: 0x160 }
  - { offset: 0xB73CD, size: 0x8, addend: 0x0, symName: '__ZN69_$LT$std..sync..mpmc..zero..ZeroToken$u20$as$u20$core..fmt..Debug$GT$3fmt17hf08ac5a510604c69E', symObjAddr: 0x3E850, symBinAddr: 0x43C30, symSize: 0x50 }
  - { offset: 0xB741A, size: 0x8, addend: 0x0, symName: '__ZN65_$LT$std..sync..mpsc..RecvError$u20$as$u20$core..fmt..Display$GT$3fmt17hfb1c5d43d0fb05f9E', symObjAddr: 0x3E8A0, symBinAddr: 0x43C80, symSize: 0x20 }
  - { offset: 0xB743C, size: 0x8, addend: 0x0, symName: '__ZN68_$LT$std..sync..mpsc..TryRecvError$u20$as$u20$core..fmt..Display$GT$3fmt17ha79b61678f2fdc78E', symObjAddr: 0x3E8C0, symBinAddr: 0x43CA0, symSize: 0x30 }
  - { offset: 0xB745E, size: 0x8, addend: 0x0, symName: '__ZN72_$LT$std..sync..mpsc..RecvTimeoutError$u20$as$u20$core..fmt..Display$GT$3fmt17h9d878814b588bd1bE', symObjAddr: 0x3E8F0, symBinAddr: 0x43CD0, symSize: 0x30 }
  - { offset: 0xB7487, size: 0x8, addend: 0x0, symName: '__ZN64_$LT$std..sync..barrier..Barrier$u20$as$u20$core..fmt..Debug$GT$3fmt17h89f91321b5e3d7d3E', symObjAddr: 0x3F550, symBinAddr: 0x44930, symSize: 0x30 }
  - { offset: 0xB74C3, size: 0x8, addend: 0x0, symName: __ZN3std4sync7barrier7Barrier4wait17he956035514077106E, symObjAddr: 0x3F580, symBinAddr: 0x44960, symSize: 0x280 }
  - { offset: 0xB7A18, size: 0x8, addend: 0x0, symName: '__ZN74_$LT$std..sync..barrier..BarrierWaitResult$u20$as$u20$core..fmt..Debug$GT$3fmt17h8cc0e7fe3956d79dE', symObjAddr: 0x3F800, symBinAddr: 0x44BE0, symSize: 0x60 }
  - { offset: 0xB7A88, size: 0x8, addend: 0x0, symName: '__ZN64_$LT$std..backtrace..Backtrace$u20$as$u20$core..fmt..Display$GT$3fmt17h9aff75395a473854E', symObjAddr: 0x29800, symBinAddr: 0x2F080, symSize: 0x560 }
  - { offset: 0xB83F7, size: 0x8, addend: 0x0, symName: '__ZN62_$LT$std..backtrace..Backtrace$u20$as$u20$core..fmt..Debug$GT$3fmt17h43d1913cb1688913E', symObjAddr: 0x28C10, symBinAddr: 0x2E490, symSize: 0x1B0 }
  - { offset: 0xB864B, size: 0x8, addend: 0x0, symName: '__ZN67_$LT$std..backtrace..BacktraceFrame$u20$as$u20$core..fmt..Debug$GT$3fmt17h663bb3da4b1e2d2bE', symObjAddr: 0x28DC0, symBinAddr: 0x2E640, symSize: 0x90 }
  - { offset: 0xB86C0, size: 0x8, addend: 0x0, symName: '__ZN68_$LT$std..backtrace..BacktraceSymbol$u20$as$u20$core..fmt..Debug$GT$3fmt17h389959d1a35923c6E', symObjAddr: 0x28E50, symBinAddr: 0x2E6D0, symSize: 0x2F0 }
  - { offset: 0xB88CB, size: 0x8, addend: 0x0, symName: '__ZN64_$LT$std..backtrace..BytesOrWide$u20$as$u20$core..fmt..Debug$GT$3fmt17hd86081d1b4db55deE', symObjAddr: 0x29140, symBinAddr: 0x2E9C0, symSize: 0x120 }
  - { offset: 0xB8C10, size: 0x8, addend: 0x0, symName: __ZN3std9backtrace9Backtrace7capture17hbf7242e4a7dd7f92E, symObjAddr: 0x29260, symBinAddr: 0x2EAE0, symSize: 0x220 }
  - { offset: 0xB90A7, size: 0x8, addend: 0x0, symName: __ZN3std9backtrace9Backtrace13force_capture17hd96c1ebe6f1436a4E, symObjAddr: 0x29480, symBinAddr: 0x2ED00, symSize: 0x20 }
  - { offset: 0xB90C2, size: 0x8, addend: 0x0, symName: __ZN3std9backtrace9Backtrace6create17h39d2b7470d6391b0E, symObjAddr: 0x294A0, symBinAddr: 0x2ED20, symSize: 0x190 }
  - { offset: 0xB944A, size: 0x8, addend: 0x0, symName: __ZN3std9backtrace9Backtrace6frames17hb3d489ac3fd59ca6E, symObjAddr: 0x29790, symBinAddr: 0x2F010, symSize: 0x70 }
  - { offset: 0xB953A, size: 0x8, addend: 0x0, symName: '__ZN3std9backtrace9Backtrace6create28_$u7b$$u7b$closure$u7d$$u7d$17h11fd3f0bead456aeE', symObjAddr: 0x29630, symBinAddr: 0x2EEB0, symSize: 0x160 }
  - { offset: 0xB9710, size: 0x8, addend: 0x0, symName: '__ZN3std9backtrace6helper12lazy_resolve28_$u7b$$u7b$closure$u7d$$u7d$28_$u7b$$u7b$closure$u7d$$u7d$17h63fa9427c0d81f4dE', symObjAddr: 0x46090, symBinAddr: 0x4A8D0, symSize: 0x230 }
  - { offset: 0xB9BAA, size: 0x8, addend: 0x0, symName: '__ZN89_$LT$std..backtrace_rs..symbolize..gimli..mmap..Mmap$u20$as$u20$core..ops..drop..Drop$GT$4drop17hb0a5876f8835cde3E', symObjAddr: 0x57A90, symBinAddr: 0x5B950, symSize: 0x20 }
  - { offset: 0xB9BD9, size: 0x8, addend: 0x0, symName: '__ZN91_$LT$std..backtrace_rs..symbolize..gimli..mmap..Mmap$u20$as$u20$core..ops..deref..Deref$GT$5deref17hfc41451f1354b808E', symObjAddr: 0x57A80, symBinAddr: 0x5B940, symSize: 0x10 }
  - { offset: 0xB9CBB, size: 0x8, addend: 0x0, symName: __ZN3std12backtrace_rs9symbolize5gimli7Context3new17h9e197522df008527E, symObjAddr: 0x51284, symBinAddr: 0x55144, symSize: 0x2F8C }
  - { offset: 0xBDD1E, size: 0x8, addend: 0x0, symName: __ZN3std12backtrace_rs9symbolize5gimli7Context11find_frames17h3cf55a1562e94f00E, symObjAddr: 0x54210, symBinAddr: 0x580D0, symSize: 0x3E0 }
  - { offset: 0xBE182, size: 0x8, addend: 0x0, symName: __ZN3std12backtrace_rs9symbolize5gimli5macho6Object5parse17ha193d754d5969c23E, symObjAddr: 0x57C40, symBinAddr: 0x5BB00, symSize: 0xF20 }
  - { offset: 0xC01FD, size: 0x8, addend: 0x0, symName: __ZN3std12backtrace_rs9symbolize5gimli5macho6Object7section17ha1de4f5250a5230fE, symObjAddr: 0x58B60, symBinAddr: 0x5CA20, symSize: 0x169 }
  - { offset: 0xC0669, size: 0x8, addend: 0x0, symName: __ZN3std12backtrace_rs9symbolize5gimli5macho11find_header17h2d44f516f986999dE, symObjAddr: 0x57AB0, symBinAddr: 0x5B970, symSize: 0x190 }
  - { offset: 0xC0ECF, size: 0x8, addend: 0x0, symName: __ZN3std12backtrace_rs9symbolize5gimli4mmap17h38ed7b0ab9fd7627E, symObjAddr: 0x545F0, symBinAddr: 0x584B0, symSize: 0x1B0 }
  - { offset: 0xC1591, size: 0x8, addend: 0x0, symName: __ZN3std12backtrace_rs9symbolize5gimli7resolve17ha01c6d9512e8ed07E, symObjAddr: 0x547A0, symBinAddr: 0x58660, symSize: 0x32E0 }
  - { offset: 0xC8163, size: 0x8, addend: 0x0, symName: __ZN3std12backtrace_rs9symbolize6Symbol4name17h471655044ee5cab2E, symObjAddr: 0x45740, symBinAddr: 0x49F80, symSize: 0x110 }
  - { offset: 0xC820A, size: 0x8, addend: 0x0, symName: __ZN3std12backtrace_rs9symbolize6Symbol12filename_raw17h966d25c01b55e313E, symObjAddr: 0x45850, symBinAddr: 0x4A090, symSize: 0x40 }
  - { offset: 0xC827F, size: 0x8, addend: 0x0, symName: '__ZN73_$LT$std..backtrace_rs..symbolize..Symbol$u20$as$u20$core..fmt..Debug$GT$3fmt17hbd929c5f8c2ac98cE', symObjAddr: 0x45890, symBinAddr: 0x4A0D0, symSize: 0xF0 }
  - { offset: 0xC82F8, size: 0x8, addend: 0x0, symName: '__ZN79_$LT$std..backtrace_rs..symbolize..SymbolName$u20$as$u20$core..fmt..Display$GT$3fmt17hd1a21ac495cfa691E', symObjAddr: 0x45980, symBinAddr: 0x4A1C0, symSize: 0xE0 }
  - { offset: 0xC83E3, size: 0x8, addend: 0x0, symName: '__ZN77_$LT$std..backtrace_rs..symbolize..SymbolName$u20$as$u20$core..fmt..Debug$GT$3fmt17h6bba30f2484f3013E', symObjAddr: 0x45A60, symBinAddr: 0x4A2A0, symSize: 0xE0 }
  - { offset: 0xC8509, size: 0x8, addend: 0x0, symName: '__ZN87_$LT$std..backtrace_rs..backtrace..libunwind..Bomb$u20$as$u20$core..ops..drop..Drop$GT$4drop17hf483f016c2b8c25eE', symObjAddr: 0x511F0, symBinAddr: 0x550B0, symSize: 0x50 }
  - { offset: 0xC8582, size: 0x8, addend: 0x0, symName: '__ZN85_$LT$std..backtrace_rs..backtrace..libunwind..Frame$u20$as$u20$core..clone..Clone$GT$5clone17h4865cf9a79d4c426E', symObjAddr: 0x51180, symBinAddr: 0x55040, symSize: 0x70 }
  - { offset: 0xC85E8, size: 0x8, addend: 0x0, symName: __ZN3std12backtrace_rs9backtrace9libunwind5trace8trace_fn17hdfa1660a3e8c438aE, symObjAddr: 0x51240, symBinAddr: 0x55100, symSize: 0x44 }
  - { offset: 0xC866F, size: 0x8, addend: 0x0, symName: '__ZN72_$LT$std..backtrace_rs..backtrace..Frame$u20$as$u20$core..fmt..Debug$GT$3fmt17hfe9d05b16eb00955E', symObjAddr: 0x45670, symBinAddr: 0x49EB0, symSize: 0xD0 }
  - { offset: 0xC8775, size: 0x8, addend: 0x0, symName: __ZN3std12backtrace_rs5print17BacktraceFrameFmt21print_raw_with_column17h04bc887f0e180cceE, symObjAddr: 0x45B40, symBinAddr: 0x4A380, symSize: 0x340 }
  - { offset: 0xC88AC, size: 0x8, addend: 0x0, symName: __ZN3std12backtrace_rs5print17BacktraceFrameFmt14print_fileline17h295b58dc19263148E, symObjAddr: 0x45E80, symBinAddr: 0x4A6C0, symSize: 0x1D0 }
  - { offset: 0xC8A76, size: 0x8, addend: 0x0, symName: __ZN3std6thread7current11set_current17hdd0a11ccd9cc70d0E, symObjAddr: 0x27810, symBinAddr: 0x2D2F0, symSize: 0x80 }
  - { offset: 0xC8C66, size: 0x8, addend: 0x0, symName: __ZN3std6thread7current18current_or_unnamed17hd8e9b3caafa1e535E, symObjAddr: 0x27890, symBinAddr: 0x2D370, symSize: 0xB0 }
  - { offset: 0xC8E43, size: 0x8, addend: 0x0, symName: __ZN3std6thread7current7current17hb74780240af04c13E, symObjAddr: 0x27940, symBinAddr: 0x2D420, symSize: 0x30 }
  - { offset: 0xC8EDC, size: 0x8, addend: 0x0, symName: __ZN3std6thread7current12init_current17hb689d93a5f9d09dcE, symObjAddr: 0x27970, symBinAddr: 0x9B1B0, symSize: 0x160 }
  - { offset: 0xC928E, size: 0x8, addend: 0x0, symName: __ZN3std6thread8ThreadId3new17h1b72b15d265a20b3E, symObjAddr: 0x286C0, symBinAddr: 0x2DF90, symSize: 0x40 }
  - { offset: 0xC92A6, size: 0x8, addend: 0x0, symName: __ZN3std6thread8ThreadId3new17h1b72b15d265a20b3E, symObjAddr: 0x286C0, symBinAddr: 0x2DF90, symSize: 0x40 }
  - { offset: 0xC92BC, size: 0x8, addend: 0x0, symName: __ZN3std6thread8ThreadId3new17h1b72b15d265a20b3E, symObjAddr: 0x286C0, symBinAddr: 0x2DF90, symSize: 0x40 }
  - { offset: 0xC944F, size: 0x8, addend: 0x0, symName: '__ZN68_$LT$std..thread..local..AccessError$u20$as$u20$core..fmt..Debug$GT$3fmt17ha513ec422479eb12E', symObjAddr: 0x280D0, symBinAddr: 0x2DA50, symSize: 0x30 }
  - { offset: 0xC9470, size: 0x8, addend: 0x0, symName: '__ZN70_$LT$std..thread..local..AccessError$u20$as$u20$core..fmt..Display$GT$3fmt17h18f614463dc1dd6fE', symObjAddr: 0x28100, symBinAddr: 0x2DA80, symSize: 0x20 }
  - { offset: 0xC948B, size: 0x8, addend: 0x0, symName: __ZN3std6thread5local18panic_access_error17h18eb90926eb6d0b2E, symObjAddr: 0x28120, symBinAddr: 0x9B310, symSize: 0x60 }
  - { offset: 0xC94C9, size: 0x8, addend: 0x0, symName: __ZN3std6thread6scoped9ScopeData29increment_num_running_threads17h0c963f292e4bec98E, symObjAddr: 0x276C0, symBinAddr: 0x2D1F0, symSize: 0x20 }
  - { offset: 0xC94E7, size: 0x8, addend: 0x0, symName: __ZN3std6thread6scoped9ScopeData29increment_num_running_threads17h0c963f292e4bec98E, symObjAddr: 0x276C0, symBinAddr: 0x2D1F0, symSize: 0x20 }
  - { offset: 0xC94FC, size: 0x8, addend: 0x0, symName: __ZN3std6thread6scoped9ScopeData29increment_num_running_threads17h0c963f292e4bec98E, symObjAddr: 0x276C0, symBinAddr: 0x2D1F0, symSize: 0x20 }
  - { offset: 0xC9510, size: 0x8, addend: 0x0, symName: __ZN3std6thread6scoped9ScopeData8overflow17h3269658ffd673fc0E, symObjAddr: 0x276E0, symBinAddr: 0x9B160, symSize: 0x50 }
  - { offset: 0xC9540, size: 0x8, addend: 0x0, symName: __ZN3std6thread6scoped9ScopeData29decrement_num_running_threads17h57b530cbc6500aebE, symObjAddr: 0x27730, symBinAddr: 0x2D210, symSize: 0x30 }
  - { offset: 0xC965E, size: 0x8, addend: 0x0, symName: '__ZN63_$LT$std..thread..scoped..Scope$u20$as$u20$core..fmt..Debug$GT$3fmt17h2eb602bdc7f950c8E', symObjAddr: 0x27760, symBinAddr: 0x2D240, symSize: 0xB0 }
  - { offset: 0xC9774, size: 0x8, addend: 0x0, symName: __ZN3std6thread6Thread3new17h358a512717296e5eE, symObjAddr: 0x28850, symBinAddr: 0x2E0D0, symSize: 0x150 }
  - { offset: 0xC9A87, size: 0x8, addend: 0x0, symName: __ZN3std6thread6Thread4park17h7208c1cf88560f9dE, symObjAddr: 0x289A0, symBinAddr: 0x2E220, symSize: 0x40 }
  - { offset: 0xC9B66, size: 0x8, addend: 0x0, symName: __ZN3std6thread6Thread12park_timeout17h9385760ff1e74e89E, symObjAddr: 0x289E0, symBinAddr: 0x2E260, symSize: 0x90 }
  - { offset: 0xC9C86, size: 0x8, addend: 0x0, symName: __ZN3std6thread6Thread4name17hdecb741af69c2e38E, symObjAddr: 0x28A70, symBinAddr: 0x2E2F0, symSize: 0x40 }
  - { offset: 0xC9DD8, size: 0x8, addend: 0x0, symName: __ZN3std6thread6Thread8from_raw17h1e6f4187584b5b9bE, symObjAddr: 0x28AB0, symBinAddr: 0x2E330, symSize: 0x10 }
  - { offset: 0xC9E48, size: 0x8, addend: 0x0, symName: __ZN3std6thread6Thread5cname17h214f2700e939da37E, symObjAddr: 0x28AC0, symBinAddr: 0x2E340, symSize: 0x40 }
  - { offset: 0xCA067, size: 0x8, addend: 0x0, symName: '__ZN76_$LT$std..thread..spawnhook..SpawnHooks$u20$as$u20$core..ops..drop..Drop$GT$4drop17hb6bcbbab905d9eadE', symObjAddr: 0x27AD0, symBinAddr: 0x2D450, symSize: 0xE0 }
  - { offset: 0xCA3E8, size: 0x8, addend: 0x0, symName: __ZN3std6thread9spawnhook15run_spawn_hooks17hb6581a6f7db4e936E, symObjAddr: 0x27BB0, symBinAddr: 0x2D530, symSize: 0x2E0 }
  - { offset: 0xCA9F2, size: 0x8, addend: 0x0, symName: __ZN3std6thread9spawnhook15ChildSpawnHooks3run17hc0a9e61f02abbbf6E, symObjAddr: 0x27E90, symBinAddr: 0x2D810, symSize: 0x240 }
  - { offset: 0xCB0DD, size: 0x8, addend: 0x0, symName: __ZN3std6thread7Builder4name17he0a49071a42e969dE, symObjAddr: 0x28180, symBinAddr: 0x2DAA0, symSize: 0xA0 }
  - { offset: 0xCB1A9, size: 0x8, addend: 0x0, symName: __ZN3std6thread9yield_now17hcf0056286dd054a8E, symObjAddr: 0x28220, symBinAddr: 0x2DB40, symSize: 0x10 }
  - { offset: 0xCB1E9, size: 0x8, addend: 0x0, symName: __ZN3std6thread8sleep_ms17h0533d9bb786d9678E, symObjAddr: 0x28230, symBinAddr: 0x2DB50, symSize: 0xD0 }
  - { offset: 0xCB274, size: 0x8, addend: 0x0, symName: __ZN3std6thread5sleep17h4461510725bf3e02E, symObjAddr: 0x28300, symBinAddr: 0x2DC20, symSize: 0xC0 }
  - { offset: 0xCB2DB, size: 0x8, addend: 0x0, symName: __ZN3std6thread11sleep_until17hc64e74282a6f4ceeE, symObjAddr: 0x283C0, symBinAddr: 0x2DCE0, symSize: 0xE0 }
  - { offset: 0xCB3B8, size: 0x8, addend: 0x0, symName: '__ZN65_$LT$std..thread..PanicGuard$u20$as$u20$core..ops..drop..Drop$GT$4drop17hccc305b7c92630a1E', symObjAddr: 0x284A0, symBinAddr: 0x9B370, symSize: 0x50 }
  - { offset: 0xCB3EB, size: 0x8, addend: 0x0, symName: __ZN3std6thread4park17h77f5bfb15b81b942E, symObjAddr: 0x284F0, symBinAddr: 0x2DDC0, symSize: 0xA0 }
  - { offset: 0xCB5B7, size: 0x8, addend: 0x0, symName: __ZN3std6thread15park_timeout_ms17h345a330c7fd70feaE, symObjAddr: 0x28590, symBinAddr: 0x2DE60, symSize: 0x30 }
  - { offset: 0xCB5E9, size: 0x8, addend: 0x0, symName: __ZN3std6thread12park_timeout17h6d705a35d02b7a3eE, symObjAddr: 0x285C0, symBinAddr: 0x2DE90, symSize: 0x100 }
  - { offset: 0xCB802, size: 0x8, addend: 0x0, symName: __ZN3std6thread8ThreadId3new9exhausted17h4ad24d9586ad25bdE, symObjAddr: 0x28700, symBinAddr: 0x9B3C0, symSize: 0x50 }
  - { offset: 0xCB842, size: 0x8, addend: 0x0, symName: '__ZN118_$LT$std..thread..thread_name_string..ThreadNameString$u20$as$u20$core..convert..From$LT$alloc..string..String$GT$$GT$4from17hab0abf13eedb7bc1E', symObjAddr: 0x28750, symBinAddr: 0x2DFD0, symSize: 0x100 }
  - { offset: 0xCBA63, size: 0x8, addend: 0x0, symName: '__ZN56_$LT$std..thread..Thread$u20$as$u20$core..fmt..Debug$GT$3fmt17h242c2ea40ba32335E', symObjAddr: 0x28B00, symBinAddr: 0x2E380, symSize: 0xC0 }
  - { offset: 0xCBBEB, size: 0x8, addend: 0x0, symName: __ZN3std6thread21available_parallelism17h143555a2c6c9adddE, symObjAddr: 0x28BC0, symBinAddr: 0x2E440, symSize: 0x50 }
  - { offset: 0xCBCC3, size: 0x8, addend: 0x0, symName: '__ZN58_$LT$std..thread..ThreadId$u20$as$u20$core..fmt..Debug$GT$3fmt17hdafe606d9374936bE', symObjAddr: 0x46050, symBinAddr: 0x4A890, symSize: 0x40 }
  - { offset: 0xCBCE6, size: 0x8, addend: 0x0, symName: __ZN3std2rt15handle_rt_panic17h7d7cdbf580941306E, symObjAddr: 0x27280, symBinAddr: 0x9B110, symSize: 0x50 }
  - { offset: 0xCBD18, size: 0x8, addend: 0x0, symName: __ZN3std2rt7cleanup17h417d25ba2f4967b4E, symObjAddr: 0x272D0, symBinAddr: 0x2CE00, symSize: 0x50 }
  - { offset: 0xCBD3D, size: 0x8, addend: 0x0, symName: __ZN3std2rt7cleanup17h417d25ba2f4967b4E, symObjAddr: 0x272D0, symBinAddr: 0x2CE00, symSize: 0x50 }
  - { offset: 0xCBD52, size: 0x8, addend: 0x0, symName: __ZN3std2rt7cleanup17h417d25ba2f4967b4E, symObjAddr: 0x272D0, symBinAddr: 0x2CE00, symSize: 0x50 }
  - { offset: 0xCBD67, size: 0x8, addend: 0x0, symName: __ZN3std2rt7cleanup17h417d25ba2f4967b4E, symObjAddr: 0x272D0, symBinAddr: 0x2CE00, symSize: 0x50 }
  - { offset: 0xCBDE0, size: 0x8, addend: 0x0, symName: __ZN3std2rt19lang_start_internal17hee8489a45831f180E, symObjAddr: 0x27320, symBinAddr: 0x2CE50, symSize: 0x3A0 }
  - { offset: 0xCC6C1, size: 0x8, addend: 0x0, symName: '__ZN64_$LT$std..panic..PanicHookInfo$u20$as$u20$core..fmt..Display$GT$3fmt17h05b6be3268aecb7bE', symObjAddr: 0x39BE0, symBinAddr: 0x3F140, symSize: 0x150 }
  - { offset: 0xCC990, size: 0x8, addend: 0x0, symName: __ZN3std5panic13resume_unwind17h646576d58545274eE, symObjAddr: 0x39D30, symBinAddr: 0x9B640, symSize: 0x10 }
  - { offset: 0xCC9AB, size: 0x8, addend: 0x0, symName: __ZN3std5panic12always_abort17h8245c941170d5a5bE, symObjAddr: 0x39D40, symBinAddr: 0x3F290, symSize: 0x20 }
  - { offset: 0xCCA27, size: 0x8, addend: 0x0, symName: __ZN3std5panic19set_backtrace_style17h0634d70c00f1bd67E, symObjAddr: 0x39D60, symBinAddr: 0x3F2B0, symSize: 0x10 }
  - { offset: 0xCCA86, size: 0x8, addend: 0x0, symName: __ZN3std5panic19get_backtrace_style17hee8036fc4cacefd5E, symObjAddr: 0x39D70, symBinAddr: 0x3F2C0, symSize: 0xD0 }
  - { offset: 0xCCAA5, size: 0x8, addend: 0x0, symName: __ZN3std5panic19get_backtrace_style17hee8036fc4cacefd5E, symObjAddr: 0x39D70, symBinAddr: 0x3F2C0, symSize: 0xD0 }
  - { offset: 0xCCABB, size: 0x8, addend: 0x0, symName: __ZN3std5panic19get_backtrace_style17hee8036fc4cacefd5E, symObjAddr: 0x39D70, symBinAddr: 0x3F2C0, symSize: 0xD0 }
  - { offset: 0xCCD70, size: 0x8, addend: 0x0, symName: __ZN3std4time7Instant3now17hd73ec711a9579f3bE, symObjAddr: 0x3F9B0, symBinAddr: 0x44C40, symSize: 0x10 }
  - { offset: 0xCCD9B, size: 0x8, addend: 0x0, symName: __ZN3std4time7Instant14duration_since17hbaf24b9719486d7fE, symObjAddr: 0x3F9C0, symBinAddr: 0x44C50, symSize: 0x40 }
  - { offset: 0xCCDF3, size: 0x8, addend: 0x0, symName: __ZN3std4time7Instant22checked_duration_since17h85b1e348ed38498dE, symObjAddr: 0x3FA00, symBinAddr: 0x44C90, symSize: 0x40 }
  - { offset: 0xCCE35, size: 0x8, addend: 0x0, symName: __ZN3std4time7Instant7elapsed17h7e304983cf1b62daE, symObjAddr: 0x3FA40, symBinAddr: 0x44CD0, symSize: 0x60 }
  - { offset: 0xCCF19, size: 0x8, addend: 0x0, symName: '__ZN60_$LT$std..time..Instant$u20$as$u20$core..ops..arith..Sub$GT$3sub17h766f3ccf3f35f131E', symObjAddr: 0x3FBF0, symBinAddr: 0x44E80, symSize: 0x40 }
  - { offset: 0xCCF8F, size: 0x8, addend: 0x0, symName: '__ZN88_$LT$std..time..Instant$u20$as$u20$core..ops..arith..Add$LT$core..time..Duration$GT$$GT$3add17h4f4e277363584c67E', symObjAddr: 0x3FAA0, symBinAddr: 0x44D30, symSize: 0x50 }
  - { offset: 0xCCFA7, size: 0x8, addend: 0x0, symName: '__ZN88_$LT$std..time..Instant$u20$as$u20$core..ops..arith..Add$LT$core..time..Duration$GT$$GT$3add17h4f4e277363584c67E', symObjAddr: 0x3FAA0, symBinAddr: 0x44D30, symSize: 0x50 }
  - { offset: 0xCCFBD, size: 0x8, addend: 0x0, symName: '__ZN88_$LT$std..time..Instant$u20$as$u20$core..ops..arith..Add$LT$core..time..Duration$GT$$GT$3add17h4f4e277363584c67E', symObjAddr: 0x3FAA0, symBinAddr: 0x44D30, symSize: 0x50 }
  - { offset: 0xCCFD3, size: 0x8, addend: 0x0, symName: '__ZN88_$LT$std..time..Instant$u20$as$u20$core..ops..arith..Add$LT$core..time..Duration$GT$$GT$3add17h4f4e277363584c67E', symObjAddr: 0x3FAA0, symBinAddr: 0x44D30, symSize: 0x50 }
  - { offset: 0xCCFE9, size: 0x8, addend: 0x0, symName: '__ZN88_$LT$std..time..Instant$u20$as$u20$core..ops..arith..Add$LT$core..time..Duration$GT$$GT$3add17h4f4e277363584c67E', symObjAddr: 0x3FAA0, symBinAddr: 0x44D30, symSize: 0x50 }
  - { offset: 0xCCFFE, size: 0x8, addend: 0x0, symName: '__ZN88_$LT$std..time..Instant$u20$as$u20$core..ops..arith..Add$LT$core..time..Duration$GT$$GT$3add17h4f4e277363584c67E', symObjAddr: 0x3FAA0, symBinAddr: 0x44D30, symSize: 0x50 }
  - { offset: 0xCD014, size: 0x8, addend: 0x0, symName: '__ZN88_$LT$std..time..Instant$u20$as$u20$core..ops..arith..Add$LT$core..time..Duration$GT$$GT$3add17h4f4e277363584c67E', symObjAddr: 0x3FAA0, symBinAddr: 0x44D30, symSize: 0x50 }
  - { offset: 0xCD0AF, size: 0x8, addend: 0x0, symName: '__ZN94_$LT$std..time..Instant$u20$as$u20$core..ops..arith..AddAssign$LT$core..time..Duration$GT$$GT$10add_assign17h5992f298393c6c37E', symObjAddr: 0x3FAF0, symBinAddr: 0x44D80, symSize: 0x50 }
  - { offset: 0xCD1D7, size: 0x8, addend: 0x0, symName: '__ZN88_$LT$std..time..Instant$u20$as$u20$core..ops..arith..Sub$LT$core..time..Duration$GT$$GT$3sub17heceb4d3eabb05bb4E', symObjAddr: 0x3FB40, symBinAddr: 0x44DD0, symSize: 0x50 }
  - { offset: 0xCD219, size: 0x8, addend: 0x0, symName: '__ZN88_$LT$std..time..Instant$u20$as$u20$core..ops..arith..Sub$LT$core..time..Duration$GT$$GT$3sub17heceb4d3eabb05bb4E', symObjAddr: 0x3FB40, symBinAddr: 0x44DD0, symSize: 0x50 }
  - { offset: 0xCD22E, size: 0x8, addend: 0x0, symName: '__ZN88_$LT$std..time..Instant$u20$as$u20$core..ops..arith..Sub$LT$core..time..Duration$GT$$GT$3sub17heceb4d3eabb05bb4E', symObjAddr: 0x3FB40, symBinAddr: 0x44DD0, symSize: 0x50 }
  - { offset: 0xCD244, size: 0x8, addend: 0x0, symName: '__ZN88_$LT$std..time..Instant$u20$as$u20$core..ops..arith..Sub$LT$core..time..Duration$GT$$GT$3sub17heceb4d3eabb05bb4E', symObjAddr: 0x3FB40, symBinAddr: 0x44DD0, symSize: 0x50 }
  - { offset: 0xCD2DF, size: 0x8, addend: 0x0, symName: '__ZN94_$LT$std..time..Instant$u20$as$u20$core..ops..arith..SubAssign$LT$core..time..Duration$GT$$GT$10sub_assign17hd8e2928630dd3b7dE', symObjAddr: 0x3FB90, symBinAddr: 0x44E20, symSize: 0x60 }
  - { offset: 0xCD3EF, size: 0x8, addend: 0x0, symName: '__ZN55_$LT$std..time..Instant$u20$as$u20$core..fmt..Debug$GT$3fmt17ha8acb995e2e1502cE', symObjAddr: 0x3FC30, symBinAddr: 0x44EC0, symSize: 0x80 }
  - { offset: 0xCD428, size: 0x8, addend: 0x0, symName: __ZN3std4time10SystemTime3now17h647034f8b2b64bbcE, symObjAddr: 0x3FCB0, symBinAddr: 0x44F40, symSize: 0x10 }
  - { offset: 0xCD453, size: 0x8, addend: 0x0, symName: __ZN3std4time10SystemTime14duration_since17h931ef8add481477eE, symObjAddr: 0x3FCC0, symBinAddr: 0x44F50, symSize: 0x40 }
  - { offset: 0xCD4B0, size: 0x8, addend: 0x0, symName: __ZN3std4time10SystemTime7elapsed17h9d258de1e1f3007fE, symObjAddr: 0x3FD00, symBinAddr: 0x44F90, symSize: 0x60 }
  - { offset: 0xCD53C, size: 0x8, addend: 0x0, symName: __ZN3std4time10SystemTime11checked_add17h4dc42964dc3c8cb3E, symObjAddr: 0x3FD60, symBinAddr: 0x44FF0, symSize: 0x40 }
  - { offset: 0xCD619, size: 0x8, addend: 0x0, symName: __ZN3std4time10SystemTime11checked_sub17hfc46cc945843c318E, symObjAddr: 0x3FDA0, symBinAddr: 0x45030, symSize: 0x40 }
  - { offset: 0xCD709, size: 0x8, addend: 0x0, symName: '__ZN91_$LT$std..time..SystemTime$u20$as$u20$core..ops..arith..Add$LT$core..time..Duration$GT$$GT$3add17h517ca309c57f9448E', symObjAddr: 0x3FDE0, symBinAddr: 0x45070, symSize: 0x50 }
  - { offset: 0xCD721, size: 0x8, addend: 0x0, symName: '__ZN91_$LT$std..time..SystemTime$u20$as$u20$core..ops..arith..Add$LT$core..time..Duration$GT$$GT$3add17h517ca309c57f9448E', symObjAddr: 0x3FDE0, symBinAddr: 0x45070, symSize: 0x50 }
  - { offset: 0xCD737, size: 0x8, addend: 0x0, symName: '__ZN91_$LT$std..time..SystemTime$u20$as$u20$core..ops..arith..Add$LT$core..time..Duration$GT$$GT$3add17h517ca309c57f9448E', symObjAddr: 0x3FDE0, symBinAddr: 0x45070, symSize: 0x50 }
  - { offset: 0xCD74D, size: 0x8, addend: 0x0, symName: '__ZN91_$LT$std..time..SystemTime$u20$as$u20$core..ops..arith..Add$LT$core..time..Duration$GT$$GT$3add17h517ca309c57f9448E', symObjAddr: 0x3FDE0, symBinAddr: 0x45070, symSize: 0x50 }
  - { offset: 0xCD762, size: 0x8, addend: 0x0, symName: '__ZN91_$LT$std..time..SystemTime$u20$as$u20$core..ops..arith..Add$LT$core..time..Duration$GT$$GT$3add17h517ca309c57f9448E', symObjAddr: 0x3FDE0, symBinAddr: 0x45070, symSize: 0x50 }
  - { offset: 0xCD777, size: 0x8, addend: 0x0, symName: '__ZN91_$LT$std..time..SystemTime$u20$as$u20$core..ops..arith..Add$LT$core..time..Duration$GT$$GT$3add17h517ca309c57f9448E', symObjAddr: 0x3FDE0, symBinAddr: 0x45070, symSize: 0x50 }
  - { offset: 0xCD78D, size: 0x8, addend: 0x0, symName: '__ZN91_$LT$std..time..SystemTime$u20$as$u20$core..ops..arith..Add$LT$core..time..Duration$GT$$GT$3add17h517ca309c57f9448E', symObjAddr: 0x3FDE0, symBinAddr: 0x45070, symSize: 0x50 }
  - { offset: 0xCD828, size: 0x8, addend: 0x0, symName: '__ZN97_$LT$std..time..SystemTime$u20$as$u20$core..ops..arith..AddAssign$LT$core..time..Duration$GT$$GT$10add_assign17h2de6f57f52f42919E', symObjAddr: 0x3FE30, symBinAddr: 0x450C0, symSize: 0x50 }
  - { offset: 0xCD94F, size: 0x8, addend: 0x0, symName: '__ZN91_$LT$std..time..SystemTime$u20$as$u20$core..ops..arith..Sub$LT$core..time..Duration$GT$$GT$3sub17he623b676d472bd65E', symObjAddr: 0x3FE80, symBinAddr: 0x45110, symSize: 0x50 }
  - { offset: 0xCD990, size: 0x8, addend: 0x0, symName: '__ZN91_$LT$std..time..SystemTime$u20$as$u20$core..ops..arith..Sub$LT$core..time..Duration$GT$$GT$3sub17he623b676d472bd65E', symObjAddr: 0x3FE80, symBinAddr: 0x45110, symSize: 0x50 }
  - { offset: 0xCD9A5, size: 0x8, addend: 0x0, symName: '__ZN91_$LT$std..time..SystemTime$u20$as$u20$core..ops..arith..Sub$LT$core..time..Duration$GT$$GT$3sub17he623b676d472bd65E', symObjAddr: 0x3FE80, symBinAddr: 0x45110, symSize: 0x50 }
  - { offset: 0xCD9BB, size: 0x8, addend: 0x0, symName: '__ZN91_$LT$std..time..SystemTime$u20$as$u20$core..ops..arith..Sub$LT$core..time..Duration$GT$$GT$3sub17he623b676d472bd65E', symObjAddr: 0x3FE80, symBinAddr: 0x45110, symSize: 0x50 }
  - { offset: 0xCDA56, size: 0x8, addend: 0x0, symName: '__ZN97_$LT$std..time..SystemTime$u20$as$u20$core..ops..arith..SubAssign$LT$core..time..Duration$GT$$GT$10sub_assign17h8bb22c673d5fc722E', symObjAddr: 0x3FED0, symBinAddr: 0x45160, symSize: 0x60 }
  - { offset: 0xCDB65, size: 0x8, addend: 0x0, symName: '__ZN58_$LT$std..time..SystemTime$u20$as$u20$core..fmt..Debug$GT$3fmt17hc55b6eb6b9b5fc26E', symObjAddr: 0x3FF30, symBinAddr: 0x451C0, symSize: 0x80 }
  - { offset: 0xCDB9E, size: 0x8, addend: 0x0, symName: '__ZN65_$LT$std..time..SystemTimeError$u20$as$u20$core..fmt..Display$GT$3fmt17h6012552a8fc20240E', symObjAddr: 0x3FFB0, symBinAddr: 0x45240, symSize: 0x20 }
  - { offset: 0xCDC00, size: 0x8, addend: 0x0, symName: __ZN3std3env11current_dir17hc600edd1f0856bb2E, symObjAddr: 0x29D60, symBinAddr: 0x2F5E0, symSize: 0x1C0 }
  - { offset: 0xCE06C, size: 0x8, addend: 0x0, symName: __ZN3std3env4vars17h3410e025e78bcca1E, symObjAddr: 0x29F20, symBinAddr: 0x2F7A0, symSize: 0x20 }
  - { offset: 0xCE086, size: 0x8, addend: 0x0, symName: __ZN3std3env7vars_os17h4e584c8d698df4a6E, symObjAddr: 0x29F40, symBinAddr: 0x2F7C0, symSize: 0x3C0 }
  - { offset: 0xCE7D1, size: 0x8, addend: 0x0, symName: '__ZN75_$LT$std..env..VarsOs$u20$as$u20$core..iter..traits..iterator..Iterator$GT$4next17h46a034f431f0a0eeE', symObjAddr: 0x2A5A0, symBinAddr: 0x2FE20, symSize: 0x60 }
  - { offset: 0xCE858, size: 0x8, addend: 0x0, symName: '__ZN75_$LT$std..env..VarsOs$u20$as$u20$core..iter..traits..iterator..Iterator$GT$9size_hint17h74effecbf1fd35feE', symObjAddr: 0x2A600, symBinAddr: 0x2FE80, symSize: 0x40 }
  - { offset: 0xCE8F7, size: 0x8, addend: 0x0, symName: '__ZN73_$LT$std..env..Vars$u20$as$u20$core..iter..traits..iterator..Iterator$GT$4next17h5ff823a4220a248dE', symObjAddr: 0x2A300, symBinAddr: 0x2FB80, symSize: 0x1E0 }
  - { offset: 0xCEE57, size: 0x8, addend: 0x0, symName: '__ZN73_$LT$std..env..Vars$u20$as$u20$core..iter..traits..iterator..Iterator$GT$9size_hint17hc737b370a9a84591E', symObjAddr: 0x2A4E0, symBinAddr: 0x2FD60, symSize: 0x40 }
  - { offset: 0xCEEFE, size: 0x8, addend: 0x0, symName: '__ZN51_$LT$std..env..Vars$u20$as$u20$core..fmt..Debug$GT$3fmt17hd25f143f3889a846E', symObjAddr: 0x2A520, symBinAddr: 0x2FDA0, symSize: 0x80 }
  - { offset: 0xCEFBB, size: 0x8, addend: 0x0, symName: '__ZN53_$LT$std..env..VarsOs$u20$as$u20$core..fmt..Debug$GT$3fmt17h34184d7821e2f8ceE', symObjAddr: 0x2A640, symBinAddr: 0x2FEC0, symSize: 0x60 }
  - { offset: 0xCEFD6, size: 0x8, addend: 0x0, symName: __ZN3std3env4_var17h4f97af0c855bb69aE, symObjAddr: 0x2A6A0, symBinAddr: 0x2FF20, symSize: 0xA0 }
  - { offset: 0xCF0DE, size: 0x8, addend: 0x0, symName: __ZN3std3env7_var_os17hb111ad565ac26cceE, symObjAddr: 0x2A740, symBinAddr: 0x2FFC0, symSize: 0x170 }
  - { offset: 0xCF3C8, size: 0x8, addend: 0x0, symName: '__ZN57_$LT$std..env..VarError$u20$as$u20$core..fmt..Display$GT$3fmt17hc83594f63d316a71E', symObjAddr: 0x2A8B0, symBinAddr: 0x30130, symSize: 0x80 }
  - { offset: 0xCF42E, size: 0x8, addend: 0x0, symName: '__ZN79_$LT$std..env..SplitPaths$u20$as$u20$core..iter..traits..iterator..Iterator$GT$4next17h35d59c6d91761f55E', symObjAddr: 0x2A930, symBinAddr: 0x301B0, symSize: 0xA0 }
  - { offset: 0xCF5A1, size: 0x8, addend: 0x0, symName: '__ZN57_$LT$std..env..SplitPaths$u20$as$u20$core..fmt..Debug$GT$3fmt17hcf9a637aa58a389aE', symObjAddr: 0x2A9D0, symBinAddr: 0x30250, symSize: 0x30 }
  - { offset: 0xCF5C3, size: 0x8, addend: 0x0, symName: '__ZN63_$LT$std..env..JoinPathsError$u20$as$u20$core..fmt..Display$GT$3fmt17h06ad7230e1c28068E', symObjAddr: 0x2AA00, symBinAddr: 0x30280, symSize: 0x70 }
  - { offset: 0xCF645, size: 0x8, addend: 0x0, symName: __ZN3std3env8home_dir17h891953d563cd02fcE, symObjAddr: 0x2AA70, symBinAddr: 0x302F0, symSize: 0x50 }
  - { offset: 0xCF6BA, size: 0x8, addend: 0x0, symName: __ZN3std3env8temp_dir17h98eaf102eab5b7daE, symObjAddr: 0x2AAC0, symBinAddr: 0x30340, symSize: 0x200 }
  - { offset: 0xCFB68, size: 0x8, addend: 0x0, symName: __ZN3std3env11current_exe17h9169d6cfbdc630b1E, symObjAddr: 0x2ACC0, symBinAddr: 0x30540, symSize: 0xF0 }
  - { offset: 0xCFD64, size: 0x8, addend: 0x0, symName: __ZN3std3env4args17hf1c651b0bd6a6bffE, symObjAddr: 0x2ADB0, symBinAddr: 0x30630, symSize: 0x20 }
  - { offset: 0xCFD7F, size: 0x8, addend: 0x0, symName: __ZN3std3env7args_os17h5282bff800d6f3d5E, symObjAddr: 0x2ADD0, symBinAddr: 0x30650, symSize: 0x230 }
  - { offset: 0xD02B3, size: 0x8, addend: 0x0, symName: '__ZN73_$LT$std..env..Args$u20$as$u20$core..iter..traits..iterator..Iterator$GT$4next17hc1a5922584e4b2b3E', symObjAddr: 0x2B000, symBinAddr: 0x30880, symSize: 0xE0 }
  - { offset: 0xD053E, size: 0x8, addend: 0x0, symName: '__ZN88_$LT$std..env..Args$u20$as$u20$core..iter..traits..double_ended..DoubleEndedIterator$GT$9next_back17h95e79c42bb824d1dE', symObjAddr: 0x2B0E0, symBinAddr: 0x30960, symSize: 0xE0 }
  - { offset: 0xD078B, size: 0x8, addend: 0x0, symName: '__ZN51_$LT$std..env..Args$u20$as$u20$core..fmt..Debug$GT$3fmt17h970c1fc9ddb2bad5E', symObjAddr: 0x2B1C0, symBinAddr: 0x30A40, symSize: 0x60 }
  - { offset: 0xD07AD, size: 0x8, addend: 0x0, symName: '__ZN53_$LT$std..env..ArgsOs$u20$as$u20$core..fmt..Debug$GT$3fmt17hac8de8bd3cd04ecdE', symObjAddr: 0x2B220, symBinAddr: 0x30AA0, symSize: 0x60 }
  - { offset: 0xD0838, size: 0x8, addend: 0x0, symName: __ZN3std2fs11OpenOptions5_open17h61381949ed471b91E, symObjAddr: 0x2CBF0, symBinAddr: 0x32470, symSize: 0x1D0 }
  - { offset: 0xD0A74, size: 0x8, addend: 0x0, symName: __ZN3std2fs4File8sync_all17h9db8adc06e057188E, symObjAddr: 0x2BE30, symBinAddr: 0x316B0, symSize: 0x50 }
  - { offset: 0xD0B9F, size: 0x8, addend: 0x0, symName: __ZN3std2fs4File4lock17hd1fcd6cc4381278aE, symObjAddr: 0x2BE80, symBinAddr: 0x31700, symSize: 0x30 }
  - { offset: 0xD0C49, size: 0x8, addend: 0x0, symName: __ZN3std2fs4File11lock_shared17he603824b614f168fE, symObjAddr: 0x2BEB0, symBinAddr: 0x31730, symSize: 0x30 }
  - { offset: 0xD0CF3, size: 0x8, addend: 0x0, symName: __ZN3std2fs4File8try_lock17h73fc73d4bd378f7aE, symObjAddr: 0x2BEE0, symBinAddr: 0x31760, symSize: 0x50 }
  - { offset: 0xD0DB3, size: 0x8, addend: 0x0, symName: __ZN3std2fs4File15try_lock_shared17h14618b08afc1c228E, symObjAddr: 0x2BF30, symBinAddr: 0x317B0, symSize: 0x50 }
  - { offset: 0xD0E73, size: 0x8, addend: 0x0, symName: __ZN3std2fs4File6unlock17h31dba468935bf06bE, symObjAddr: 0x2BF80, symBinAddr: 0x31800, symSize: 0x30 }
  - { offset: 0xD0F1D, size: 0x8, addend: 0x0, symName: __ZN3std2fs4File7set_len17h02610913926222c7E, symObjAddr: 0x2BFB0, symBinAddr: 0x31830, symSize: 0x70 }
  - { offset: 0xD1083, size: 0x8, addend: 0x0, symName: __ZN3std2fs4File8metadata17hec6520c50876d48aE, symObjAddr: 0x2C020, symBinAddr: 0x318A0, symSize: 0xA0 }
  - { offset: 0xD118F, size: 0x8, addend: 0x0, symName: __ZN3std2fs4File9try_clone17h80de624993ea149bE, symObjAddr: 0x2C0C0, symBinAddr: 0x31940, symSize: 0x50 }
  - { offset: 0xD127B, size: 0x8, addend: 0x0, symName: __ZN3std2fs4File15set_permissions17h55769f06a606663aE, symObjAddr: 0x2C110, symBinAddr: 0x31990, symSize: 0x60 }
  - { offset: 0xD1388, size: 0x8, addend: 0x0, symName: __ZN3std2fs4File9set_times17he39347ab746a9eb9E, symObjAddr: 0x2C170, symBinAddr: 0x319F0, symSize: 0xF0 }
  - { offset: 0xD152E, size: 0x8, addend: 0x0, symName: __ZN3std2fs4read5inner17h7aa488741934d516E, symObjAddr: 0x2B860, symBinAddr: 0x310E0, symSize: 0x200 }
  - { offset: 0xD1990, size: 0x8, addend: 0x0, symName: __ZN3std2fs14read_to_string5inner17hab2f634a7dd1ad15E, symObjAddr: 0x2BA60, symBinAddr: 0x312E0, symSize: 0x250 }
  - { offset: 0xD1F61, size: 0x8, addend: 0x0, symName: '__ZN52_$LT$$RF$std..fs..File$u20$as$u20$std..io..Write$GT$5write17ha3dfd7e8e92706a9E', symObjAddr: 0x2C570, symBinAddr: 0x31DF0, symSize: 0x50 }
  - { offset: 0xD2050, size: 0x8, addend: 0x0, symName: '__ZN52_$LT$$RF$std..fs..File$u20$as$u20$std..io..Write$GT$14write_vectored17hdff3a7fb11a07db8E', symObjAddr: 0x2C5C0, symBinAddr: 0x31E40, symSize: 0x50 }
  - { offset: 0xD2162, size: 0x8, addend: 0x0, symName: '__ZN48_$LT$std..fs..File$u20$as$u20$std..io..Write$GT$5write17h7af5c7df78112db8E', symObjAddr: 0x2C800, symBinAddr: 0x32080, symSize: 0x50 }
  - { offset: 0xD2268, size: 0x8, addend: 0x0, symName: '__ZN48_$LT$std..fs..File$u20$as$u20$std..io..Write$GT$14write_vectored17h8c329a018492f7b8E', symObjAddr: 0x2C850, symBinAddr: 0x320D0, symSize: 0x50 }
  - { offset: 0xD2383, size: 0x8, addend: 0x0, symName: __ZN3std2fs5write5inner17h264fc27278902cd2E, symObjAddr: 0x2BCB0, symBinAddr: 0x31530, symSize: 0x110 }
  - { offset: 0xD26E7, size: 0x8, addend: 0x0, symName: '__ZN58_$LT$std..fs..TryLockError$u20$as$u20$core..fmt..Debug$GT$3fmt17hd2101c73f806da72E', symObjAddr: 0x2BDC0, symBinAddr: 0x31640, symSize: 0x30 }
  - { offset: 0xD2720, size: 0x8, addend: 0x0, symName: '__ZN60_$LT$std..fs..TryLockError$u20$as$u20$core..fmt..Display$GT$3fmt17h6a6d4c375f0c384aE', symObjAddr: 0x2BDF0, symBinAddr: 0x31670, symSize: 0x40 }
  - { offset: 0xD2742, size: 0x8, addend: 0x0, symName: '__ZN50_$LT$std..fs..File$u20$as$u20$core..fmt..Debug$GT$3fmt17he2de005799d1623bE', symObjAddr: 0x2C260, symBinAddr: 0x31AE0, symSize: 0x10 }
  - { offset: 0xD2780, size: 0x8, addend: 0x0, symName: '__ZN51_$LT$$RF$std..fs..File$u20$as$u20$std..io..Seek$GT$4seek17h2de7d22e7d39a9c0E', symObjAddr: 0x2C610, symBinAddr: 0x31E90, symSize: 0x50 }
  - { offset: 0xD282B, size: 0x8, addend: 0x0, symName: '__ZN51_$LT$$RF$std..fs..File$u20$as$u20$std..io..Seek$GT$15stream_position17h3a2043b1e2501eecE', symObjAddr: 0x2C660, symBinAddr: 0x31EE0, symSize: 0x50 }
  - { offset: 0xD2902, size: 0x8, addend: 0x0, symName: '__ZN51_$LT$$RF$std..fs..File$u20$as$u20$std..io..Read$GT$11read_to_end17h65dbc442b75341c6E', symObjAddr: 0x2C270, symBinAddr: 0x31AF0, symSize: 0x180 }
  - { offset: 0xD2C3B, size: 0x8, addend: 0x0, symName: '__ZN51_$LT$$RF$std..fs..File$u20$as$u20$std..io..Read$GT$14read_to_string17h2934fbd4ccd887feE', symObjAddr: 0x2C3F0, symBinAddr: 0x31C70, symSize: 0x180 }
  - { offset: 0xD3019, size: 0x8, addend: 0x0, symName: '__ZN47_$LT$std..fs..File$u20$as$u20$std..io..Read$GT$4read17hd50ee51e4392048bE', symObjAddr: 0x2C6B0, symBinAddr: 0x31F30, symSize: 0x50 }
  - { offset: 0xD3149, size: 0x8, addend: 0x0, symName: '__ZN47_$LT$std..fs..File$u20$as$u20$std..io..Read$GT$13read_vectored17ha44e5714e6f2bafcE', symObjAddr: 0x2C700, symBinAddr: 0x31F80, symSize: 0x50 }
  - { offset: 0xD3279, size: 0x8, addend: 0x0, symName: '__ZN47_$LT$std..fs..File$u20$as$u20$std..io..Read$GT$8read_buf17hc522d71b726eda4bE', symObjAddr: 0x2C750, symBinAddr: 0x31FD0, symSize: 0x70 }
  - { offset: 0xD3470, size: 0x8, addend: 0x0, symName: '__ZN47_$LT$std..fs..File$u20$as$u20$std..io..Read$GT$11read_to_end17h7f661cf44896fa97E', symObjAddr: 0x2C7C0, symBinAddr: 0x32040, symSize: 0x20 }
  - { offset: 0xD3484, size: 0x8, addend: 0x0, symName: '__ZN47_$LT$std..fs..File$u20$as$u20$std..io..Read$GT$14read_to_string17he270abdf360afff3E', symObjAddr: 0x2C7E0, symBinAddr: 0x32060, symSize: 0x20 }
  - { offset: 0xD34E5, size: 0x8, addend: 0x0, symName: '__ZN47_$LT$std..fs..File$u20$as$u20$std..io..Seek$GT$4seek17hfd423a26c5eb56d0E', symObjAddr: 0x2C8A0, symBinAddr: 0x32120, symSize: 0x50 }
  - { offset: 0xD35AE, size: 0x8, addend: 0x0, symName: '__ZN47_$LT$std..fs..File$u20$as$u20$std..io..Seek$GT$15stream_position17hadeb59c2a594018bE', symObjAddr: 0x2C8F0, symBinAddr: 0x32170, symSize: 0x50 }
  - { offset: 0xD3695, size: 0x8, addend: 0x0, symName: '__ZN3std2fs81_$LT$impl$u20$std..io..Read$u20$for$u20$alloc..sync..Arc$LT$std..fs..File$GT$$GT$4read17ha801aa23fd03d2fcE', symObjAddr: 0x2C940, symBinAddr: 0x321C0, symSize: 0x50 }
  - { offset: 0xD3810, size: 0x8, addend: 0x0, symName: '__ZN3std2fs81_$LT$impl$u20$std..io..Read$u20$for$u20$alloc..sync..Arc$LT$std..fs..File$GT$$GT$13read_vectored17h06a7816e4b0365f2E', symObjAddr: 0x2C990, symBinAddr: 0x32210, symSize: 0x50 }
  - { offset: 0xD398B, size: 0x8, addend: 0x0, symName: '__ZN3std2fs81_$LT$impl$u20$std..io..Read$u20$for$u20$alloc..sync..Arc$LT$std..fs..File$GT$$GT$8read_buf17h352fed46ec79f0f6E', symObjAddr: 0x2C9E0, symBinAddr: 0x32260, symSize: 0x70 }
  - { offset: 0xD3BCD, size: 0x8, addend: 0x0, symName: '__ZN3std2fs81_$LT$impl$u20$std..io..Read$u20$for$u20$alloc..sync..Arc$LT$std..fs..File$GT$$GT$11read_to_end17h2bc844ebb3d38a56E', symObjAddr: 0x2CA50, symBinAddr: 0x322D0, symSize: 0x30 }
  - { offset: 0xD3C2D, size: 0x8, addend: 0x0, symName: '__ZN3std2fs81_$LT$impl$u20$std..io..Read$u20$for$u20$alloc..sync..Arc$LT$std..fs..File$GT$$GT$14read_to_string17hfe9d03949883b0b3E', symObjAddr: 0x2CA80, symBinAddr: 0x32300, symSize: 0x30 }
  - { offset: 0xD3C94, size: 0x8, addend: 0x0, symName: '__ZN3std2fs82_$LT$impl$u20$std..io..Write$u20$for$u20$alloc..sync..Arc$LT$std..fs..File$GT$$GT$5write17h7b7108eacd46d416E', symObjAddr: 0x2CAB0, symBinAddr: 0x32330, symSize: 0x50 }
  - { offset: 0xD3DE5, size: 0x8, addend: 0x0, symName: '__ZN3std2fs82_$LT$impl$u20$std..io..Write$u20$for$u20$alloc..sync..Arc$LT$std..fs..File$GT$$GT$14write_vectored17he9bb6bb7d71c5f77E', symObjAddr: 0x2CB00, symBinAddr: 0x32380, symSize: 0x50 }
  - { offset: 0xD3F3D, size: 0x8, addend: 0x0, symName: '__ZN3std2fs81_$LT$impl$u20$std..io..Seek$u20$for$u20$alloc..sync..Arc$LT$std..fs..File$GT$$GT$4seek17h8e5275f0ef35bf48E', symObjAddr: 0x2CB50, symBinAddr: 0x323D0, symSize: 0x50 }
  - { offset: 0xD404A, size: 0x8, addend: 0x0, symName: '__ZN3std2fs81_$LT$impl$u20$std..io..Seek$u20$for$u20$alloc..sync..Arc$LT$std..fs..File$GT$$GT$15stream_position17h236e2a80d40436fdE', symObjAddr: 0x2CBA0, symBinAddr: 0x32420, symSize: 0x50 }
  - { offset: 0xD4175, size: 0x8, addend: 0x0, symName: __ZN3std2fs8Metadata8modified17h72a862ab72fd8e99E, symObjAddr: 0x2CDC0, symBinAddr: 0x32640, symSize: 0x70 }
  - { offset: 0xD41D8, size: 0x8, addend: 0x0, symName: __ZN3std2fs8Metadata8accessed17h9dfc4c4ba66c932cE, symObjAddr: 0x2CE30, symBinAddr: 0x326B0, symSize: 0x70 }
  - { offset: 0xD423B, size: 0x8, addend: 0x0, symName: __ZN3std2fs8Metadata7created17h2ce202c1605a8a90E, symObjAddr: 0x2CEA0, symBinAddr: 0x32720, symSize: 0x70 }
  - { offset: 0xD4323, size: 0x8, addend: 0x0, symName: '__ZN54_$LT$std..fs..Metadata$u20$as$u20$core..fmt..Debug$GT$3fmt17hb4f2ab84265e3ff2E', symObjAddr: 0x2CF10, symBinAddr: 0x32790, symSize: 0x1E0 }
  - { offset: 0xD44FE, size: 0x8, addend: 0x0, symName: '__ZN54_$LT$std..fs..FileType$u20$as$u20$core..fmt..Debug$GT$3fmt17h816c53c599b54b0aE', symObjAddr: 0x2D0F0, symBinAddr: 0x32970, symSize: 0xC0 }
  - { offset: 0xD4619, size: 0x8, addend: 0x0, symName: '__ZN75_$LT$std..fs..ReadDir$u20$as$u20$core..iter..traits..iterator..Iterator$GT$4next17h9cbeea85849c6d94E', symObjAddr: 0x2D1B0, symBinAddr: 0x32A30, symSize: 0x90 }
  - { offset: 0xD4677, size: 0x8, addend: 0x0, symName: __ZN3std2fs8DirEntry4path17h82c10360ff47a958E, symObjAddr: 0x2D240, symBinAddr: 0x32AC0, symSize: 0x30 }
  - { offset: 0xD4826, size: 0x8, addend: 0x0, symName: __ZN3std2fs8DirEntry8metadata17hdc3e8aef4a4f7805E, symObjAddr: 0x2D270, symBinAddr: 0x32AF0, symSize: 0x60 }
  - { offset: 0xD4858, size: 0x8, addend: 0x0, symName: __ZN3std2fs8DirEntry9file_type17hf44cc2d510e42068E, symObjAddr: 0x2D2D0, symBinAddr: 0x32B50, symSize: 0x80 }
  - { offset: 0xD489F, size: 0x8, addend: 0x0, symName: __ZN3std2fs8DirEntry9file_name17h360a6e4069eaefe3E, symObjAddr: 0x2D350, symBinAddr: 0x32BD0, symSize: 0x80 }
  - { offset: 0xD4A20, size: 0x8, addend: 0x0, symName: '__ZN54_$LT$std..fs..DirEntry$u20$as$u20$core..fmt..Debug$GT$3fmt17h58b1a4de68cd9ebdE', symObjAddr: 0x2D3D0, symBinAddr: 0x32C50, symSize: 0xB0 }
  - { offset: 0xD4D6C, size: 0x8, addend: 0x0, symName: __ZN3std2fs10DirBuilder7_create17hc7489487b9ea140bE, symObjAddr: 0x2D480, symBinAddr: 0x32D00, symSize: 0xC0 }
  - { offset: 0xD4EA8, size: 0x8, addend: 0x0, symName: __ZN3std2fs10DirBuilder14create_dir_all17h6fbf7e2fe6430380E, symObjAddr: 0x2D540, symBinAddr: 0x32DC0, symSize: 0x590 }
  - { offset: 0xD56FC, size: 0x8, addend: 0x0, symName: '__ZN57_$LT$std..fs..Permissions$u20$as$u20$core..fmt..Debug$GT$3fmt17hfe7030c8f1b77387E', symObjAddr: 0x462C0, symBinAddr: 0x4AB00, symSize: 0x40 }
  - { offset: 0xD5738, size: 0x8, addend: 0x0, symName: '__ZN67_$LT$std..hash..random..RandomState$u20$as$u20$core..fmt..Debug$GT$3fmt17he2bd110d76abe434E', symObjAddr: 0x2DAD0, symBinAddr: 0x33350, symSize: 0x30 }
  - { offset: 0xD5775, size: 0x8, addend: 0x0, symName: __ZN3std3net11socket_addr19resolve_socket_addr17h4a6bd0b6f3d0d271E, symObjAddr: 0x35F40, symBinAddr: 0x3B4A0, symSize: 0x360 }
  - { offset: 0xD5C64, size: 0x8, addend: 0x0, symName: '__ZN78_$LT$$LP$$RF$str$C$u16$RP$$u20$as$u20$std..net..socket_addr..ToSocketAddrs$GT$15to_socket_addrs17h657c7c7f5029d824E', symObjAddr: 0x362A0, symBinAddr: 0x3B800, symSize: 0x220 }
  - { offset: 0xD5E35, size: 0x8, addend: 0x0, symName: '__ZN92_$LT$$LP$alloc..string..String$C$u16$RP$$u20$as$u20$std..net..socket_addr..ToSocketAddrs$GT$15to_socket_addrs17h1f60f5b99feee681E', symObjAddr: 0x364C0, symBinAddr: 0x3BA20, symSize: 0x40 }
  - { offset: 0xD5EF6, size: 0x8, addend: 0x0, symName: '__ZN60_$LT$str$u20$as$u20$std..net..socket_addr..ToSocketAddrs$GT$15to_socket_addrs17h09c84e5068ddf100E', symObjAddr: 0x36500, symBinAddr: 0x3BA60, symSize: 0xF0 }
  - { offset: 0xD5FE1, size: 0x8, addend: 0x0, symName: '__ZN78_$LT$alloc..string..String$u20$as$u20$std..net..socket_addr..ToSocketAddrs$GT$15to_socket_addrs17hdfa2b8694ec72f2fE', symObjAddr: 0x365F0, symBinAddr: 0x3BB50, symSize: 0x30 }
  - { offset: 0xD60AB, size: 0x8, addend: 0x0, symName: __ZN3std3net3tcp9TcpStream15connect_timeout17hcd78234d4bc7f54cE, symObjAddr: 0x36620, symBinAddr: 0x3BB80, symSize: 0x4C0 }
  - { offset: 0xD6985, size: 0x8, addend: 0x0, symName: __ZN3std3net3tcp9TcpStream9peer_addr17hf9de562362145d6fE, symObjAddr: 0x36AE0, symBinAddr: 0x3C040, symSize: 0x20 }
  - { offset: 0xD699F, size: 0x8, addend: 0x0, symName: __ZN3std3net3tcp9TcpStream12read_timeout17h1bc2a3e9f5151492E, symObjAddr: 0x36B00, symBinAddr: 0x3C060, symSize: 0xD0 }
  - { offset: 0xD6B10, size: 0x8, addend: 0x0, symName: __ZN3std3net3tcp9TcpStream13write_timeout17h5194e51baf4458d7E, symObjAddr: 0x36BD0, symBinAddr: 0x3C130, symSize: 0xD0 }
  - { offset: 0xD6C81, size: 0x8, addend: 0x0, symName: __ZN3std3net3tcp9TcpStream10set_linger17h2b6ce74996799512E, symObjAddr: 0x36CA0, symBinAddr: 0x3C200, symSize: 0x60 }
  - { offset: 0xD6D94, size: 0x8, addend: 0x0, symName: __ZN3std3net3tcp9TcpStream6linger17h194d7e2ec16dcf76E, symObjAddr: 0x36D00, symBinAddr: 0x3C260, symSize: 0x80 }
  - { offset: 0xD6EBC, size: 0x8, addend: 0x0, symName: __ZN3std3net3tcp9TcpStream11set_nodelay17h67ac7e03037ac814E, symObjAddr: 0x36D80, symBinAddr: 0x3C2E0, symSize: 0x50 }
  - { offset: 0xD6F83, size: 0x8, addend: 0x0, symName: __ZN3std3net3tcp9TcpStream7nodelay17h7f07638301e5705bE, symObjAddr: 0x36DD0, symBinAddr: 0x3C330, symSize: 0x70 }
  - { offset: 0xD70BB, size: 0x8, addend: 0x0, symName: '__ZN58_$LT$std..net..tcp..TcpStream$u20$as$u20$std..io..Read$GT$8read_buf17h372f8878d1c71fc0E', symObjAddr: 0x36E40, symBinAddr: 0x3C3A0, symSize: 0x60 }
  - { offset: 0xD7265, size: 0x8, addend: 0x0, symName: '__ZN58_$LT$std..net..tcp..TcpStream$u20$as$u20$std..io..Read$GT$13read_vectored17h43f55edd6a7bb934E', symObjAddr: 0x36EA0, symBinAddr: 0x3C400, symSize: 0x50 }
  - { offset: 0xD7377, size: 0x8, addend: 0x0, symName: '__ZN59_$LT$std..net..tcp..TcpStream$u20$as$u20$std..io..Write$GT$14write_vectored17h12ee048bcf628aaaE', symObjAddr: 0x36EF0, symBinAddr: 0x3C450, symSize: 0x50 }
  - { offset: 0xD748B, size: 0x8, addend: 0x0, symName: '__ZN62_$LT$$RF$std..net..tcp..TcpStream$u20$as$u20$std..io..Read$GT$4read17h74dc28e7f757d56fE', symObjAddr: 0x36F40, symBinAddr: 0x3C4A0, symSize: 0x40 }
  - { offset: 0xD7553, size: 0x8, addend: 0x0, symName: '__ZN62_$LT$$RF$std..net..tcp..TcpStream$u20$as$u20$std..io..Read$GT$8read_buf17h9c3ac5c4677ec217E', symObjAddr: 0x36F80, symBinAddr: 0x3C4E0, symSize: 0x60 }
  - { offset: 0xD76FD, size: 0x8, addend: 0x0, symName: '__ZN62_$LT$$RF$std..net..tcp..TcpStream$u20$as$u20$std..io..Read$GT$13read_vectored17hfcb1740f2a27caf1E', symObjAddr: 0x36FE0, symBinAddr: 0x3C540, symSize: 0x50 }
  - { offset: 0xD780F, size: 0x8, addend: 0x0, symName: '__ZN63_$LT$$RF$std..net..tcp..TcpStream$u20$as$u20$std..io..Write$GT$5write17h33f9a57cb5530484E', symObjAddr: 0x37030, symBinAddr: 0x3C590, symSize: 0x40 }
  - { offset: 0xD78C8, size: 0x8, addend: 0x0, symName: '__ZN61_$LT$std..net..tcp..TcpStream$u20$as$u20$core..fmt..Debug$GT$3fmt17h7aa9f3cfe7b424daE', symObjAddr: 0x37070, symBinAddr: 0x3C5D0, symSize: 0x10 }
  - { offset: 0xD78EA, size: 0x8, addend: 0x0, symName: __ZN3std3net3tcp11TcpListener10local_addr17h988d5252d6d8473eE, symObjAddr: 0x37080, symBinAddr: 0x3C5E0, symSize: 0x20 }
  - { offset: 0xD7905, size: 0x8, addend: 0x0, symName: __ZN3std3net3tcp11TcpListener9try_clone17h174c1bba2d007a83E, symObjAddr: 0x370A0, symBinAddr: 0x3C600, symSize: 0x50 }
  - { offset: 0xD79F7, size: 0x8, addend: 0x0, symName: __ZN3std3net3tcp11TcpListener6accept17h2bf7cf71fa96dabcE, symObjAddr: 0x370F0, symBinAddr: 0x3C650, symSize: 0x1B0 }
  - { offset: 0xD7D3B, size: 0x8, addend: 0x0, symName: __ZN3std3net3tcp11TcpListener7set_ttl17h6e67cbc0a9e84a5fE, symObjAddr: 0x372A0, symBinAddr: 0x3C800, symSize: 0x50 }
  - { offset: 0xD7E0B, size: 0x8, addend: 0x0, symName: __ZN3std3net3tcp11TcpListener3ttl17h6fd23e94f54e11f8E, symObjAddr: 0x372F0, symBinAddr: 0x3C850, symSize: 0x70 }
  - { offset: 0xD7F25, size: 0x8, addend: 0x0, symName: __ZN3std3net3tcp11TcpListener11set_only_v617hba276c5e0a481174E, symObjAddr: 0x37360, symBinAddr: 0x3C8C0, symSize: 0x50 }
  - { offset: 0xD7FDD, size: 0x8, addend: 0x0, symName: __ZN3std3net3tcp11TcpListener7only_v617hf27ba324572c56d0E, symObjAddr: 0x373B0, symBinAddr: 0x3C910, symSize: 0x70 }
  - { offset: 0xD80FE, size: 0x8, addend: 0x0, symName: '__ZN82_$LT$std..net..tcp..Incoming$u20$as$u20$core..iter..traits..iterator..Iterator$GT$4next17h1794566e8eeb11a5E', symObjAddr: 0x37420, symBinAddr: 0x3C980, symSize: 0x40 }
  - { offset: 0xD8137, size: 0x8, addend: 0x0, symName: '__ZN86_$LT$std..net..tcp..IntoIncoming$u20$as$u20$core..iter..traits..iterator..Iterator$GT$4next17h8867333b6dc2360bE', symObjAddr: 0x37460, symBinAddr: 0x3C9C0, symSize: 0x30 }
  - { offset: 0xD8170, size: 0x8, addend: 0x0, symName: '__ZN63_$LT$std..net..tcp..TcpListener$u20$as$u20$core..fmt..Debug$GT$3fmt17h2db64f0a78f5a21dE', symObjAddr: 0x37490, symBinAddr: 0x3C9F0, symSize: 0x10 }
  - { offset: 0xD8199, size: 0x8, addend: 0x0, symName: __ZN3std3net3udp9UdpSocket9recv_from17h3cc93673fc40739eE, symObjAddr: 0x374A0, symBinAddr: 0x3CA00, symSize: 0x20 }
  - { offset: 0xD81E0, size: 0x8, addend: 0x0, symName: __ZN3std3net3udp9UdpSocket9peek_from17h9f86db4c7e630040E, symObjAddr: 0x374C0, symBinAddr: 0x3CA20, symSize: 0x20 }
  - { offset: 0xD8227, size: 0x8, addend: 0x0, symName: __ZN3std3net3udp9UdpSocket9peer_addr17hfc981db1729c27aeE, symObjAddr: 0x374E0, symBinAddr: 0x3CA40, symSize: 0x160 }
  - { offset: 0xD83F4, size: 0x8, addend: 0x0, symName: __ZN3std3net3udp9UdpSocket13set_broadcast17hb8e433e54a596c9bE, symObjAddr: 0x37640, symBinAddr: 0x3CBA0, symSize: 0x50 }
  - { offset: 0xD84AC, size: 0x8, addend: 0x0, symName: __ZN3std3net3udp9UdpSocket9broadcast17h1bb24e1ef2f6099bE, symObjAddr: 0x37690, symBinAddr: 0x3CBF0, symSize: 0x70 }
  - { offset: 0xD85C6, size: 0x8, addend: 0x0, symName: __ZN3std3net3udp9UdpSocket21set_multicast_loop_v417h6edf2cab09d92c81E, symObjAddr: 0x37700, symBinAddr: 0x3CC60, symSize: 0x50 }
  - { offset: 0xD8696, size: 0x8, addend: 0x0, symName: __ZN3std3net3udp9UdpSocket17multicast_loop_v417h74bad124dcd822bbE, symObjAddr: 0x37750, symBinAddr: 0x3CCB0, symSize: 0x60 }
  - { offset: 0xD87B0, size: 0x8, addend: 0x0, symName: __ZN3std3net3udp9UdpSocket20set_multicast_ttl_v417ha0352e7eaf5784caE, symObjAddr: 0x377B0, symBinAddr: 0x3CD10, symSize: 0x50 }
  - { offset: 0xD8880, size: 0x8, addend: 0x0, symName: __ZN3std3net3udp9UdpSocket16multicast_ttl_v417hd99323f1061fe60aE, symObjAddr: 0x37800, symBinAddr: 0x3CD60, symSize: 0x70 }
  - { offset: 0xD899A, size: 0x8, addend: 0x0, symName: __ZN3std3net3udp9UdpSocket21set_multicast_loop_v617h8511d745cce61bceE, symObjAddr: 0x37870, symBinAddr: 0x3CDD0, symSize: 0x50 }
  - { offset: 0xD8A52, size: 0x8, addend: 0x0, symName: __ZN3std3net3udp9UdpSocket17multicast_loop_v617hb1e4df281f662266E, symObjAddr: 0x378C0, symBinAddr: 0x3CE20, symSize: 0x70 }
  - { offset: 0xD8B6C, size: 0x8, addend: 0x0, symName: __ZN3std3net3udp9UdpSocket17join_multicast_v417hd08c5954af3c0172E, symObjAddr: 0x37930, symBinAddr: 0x3CE90, symSize: 0x50 }
  - { offset: 0xD8C3C, size: 0x8, addend: 0x0, symName: __ZN3std3net3udp9UdpSocket17join_multicast_v617h81e36aa86da64e35E, symObjAddr: 0x37980, symBinAddr: 0x3CEE0, symSize: 0x60 }
  - { offset: 0xD8D0A, size: 0x8, addend: 0x0, symName: __ZN3std3net3udp9UdpSocket18leave_multicast_v417ha8ecf806a3acc80bE, symObjAddr: 0x379E0, symBinAddr: 0x3CF40, symSize: 0x50 }
  - { offset: 0xD8DDA, size: 0x8, addend: 0x0, symName: __ZN3std3net3udp9UdpSocket18leave_multicast_v617h77cc44aae9fe1059E, symObjAddr: 0x37A30, symBinAddr: 0x3CF90, symSize: 0x60 }
  - { offset: 0xD8EA8, size: 0x8, addend: 0x0, symName: __ZN3std3net3udp9UdpSocket4send17h9c30ab2d059e304bE, symObjAddr: 0x37A90, symBinAddr: 0x3CFF0, symSize: 0x40 }
  - { offset: 0xD8F61, size: 0x8, addend: 0x0, symName: '__ZN61_$LT$std..net..udp..UdpSocket$u20$as$u20$core..fmt..Debug$GT$3fmt17hafdfc8eff2e003e2E', symObjAddr: 0x37AD0, symBinAddr: 0x3D030, symSize: 0x10 }
  - { offset: 0xD8F8B, size: 0x8, addend: 0x0, symName: '__ZN79_$LT$std..random..DefaultRandomSource$u20$as$u20$core..random..RandomSource$GT$10fill_bytes17h288e55ef590a64c9E', symObjAddr: 0x3E680, symBinAddr: 0x43BC0, symSize: 0x70 }
  - { offset: 0xD8FDC, size: 0x8, addend: 0x0, symName: '__ZN91_$LT$std..sys_common..wstr..WStrUnits$u20$as$u20$core..iter..traits..iterator..Iterator$GT$4next17h73b31253836ecd4aE', symObjAddr: 0x43250, symBinAddr: 0x47CD0, symSize: 0x20 }
  - { offset: 0xD9066, size: 0x8, addend: 0x0, symName: __ZN3std10sys_common4wtf87Wtf8Buf25push_code_point_unchecked17hcb18cd63b5e13370E, symObjAddr: 0x432B0, symBinAddr: 0x47D30, symSize: 0x110 }
  - { offset: 0xD91AC, size: 0x8, addend: 0x0, symName: '__ZN74_$LT$std..sys_common..wtf8..Wtf8Buf$u20$as$u20$core..ops..deref..Deref$GT$5deref17h12630a2523c04399E', symObjAddr: 0x43270, symBinAddr: 0x47CF0, symSize: 0x10 }
  - { offset: 0xD9270, size: 0x8, addend: 0x0, symName: '__ZN69_$LT$std..sys_common..wtf8..Wtf8Buf$u20$as$u20$core..fmt..Display$GT$3fmt17h549578b103866c28E', symObjAddr: 0x43280, symBinAddr: 0x47D00, symSize: 0x30 }
  - { offset: 0xD92CE, size: 0x8, addend: 0x0, symName: '__ZN64_$LT$std..sys_common..wtf8..Wtf8$u20$as$u20$core..fmt..Debug$GT$3fmt17h00eae371416614ebE', symObjAddr: 0x433C0, symBinAddr: 0x47E40, symSize: 0x220 }
  - { offset: 0xD95E1, size: 0x8, addend: 0x0, symName: '__ZN64_$LT$std..sys_common..wtf8..Wtf8$u20$as$u20$core..fmt..Debug$GT$3fmt17write_str_escaped17h6348b171c10ffdf0E', symObjAddr: 0x435E0, symBinAddr: 0x48060, symSize: 0x430 }
  - { offset: 0xD99A5, size: 0x8, addend: 0x0, symName: '__ZN66_$LT$std..sys_common..wtf8..Wtf8$u20$as$u20$core..fmt..Display$GT$3fmt17h818df39f951b8836E', symObjAddr: 0x43A10, symBinAddr: 0x48490, symSize: 0x1B0 }
  - { offset: 0xD9C28, size: 0x8, addend: 0x0, symName: __ZN3std10sys_common4wtf816slice_error_fail17h2463323b7b137b68E, symObjAddr: 0x43BC0, symBinAddr: 0x9C120, symSize: 0xB0 }
  - { offset: 0xD9C73, size: 0x8, addend: 0x0, symName: __ZN3std5alloc20set_alloc_error_hook17hec584b1c54fe161cE, symObjAddr: 0x43C70, symBinAddr: 0x48640, symSize: 0x10 }
  - { offset: 0xD9CBE, size: 0x8, addend: 0x0, symName: __ZN3std5alloc21take_alloc_error_hook17h2cabf50d44924099E, symObjAddr: 0x43C80, symBinAddr: 0x48650, symSize: 0x20 }
  - { offset: 0xD9D09, size: 0x8, addend: 0x0, symName: __ZN3std5alloc24default_alloc_error_hook17h499c30eb63006078E, symObjAddr: 0x43CA0, symBinAddr: 0x48670, symSize: 0x160 }
  - { offset: 0xD9FC0, size: 0x8, addend: 0x0, symName: __RNvCs691rhTbG0Ee_7___rustc11___rdl_alloc, symObjAddr: 0x43E00, symBinAddr: 0x487D0, symSize: 0x70 }
  - { offset: 0xDA044, size: 0x8, addend: 0x0, symName: __RNvCs691rhTbG0Ee_7___rustc13___rdl_dealloc, symObjAddr: 0x43E70, symBinAddr: 0x48840, symSize: 0x10 }
  - { offset: 0xDA078, size: 0x8, addend: 0x0, symName: __RNvCs691rhTbG0Ee_7___rustc13___rdl_realloc, symObjAddr: 0x43E80, symBinAddr: 0x48850, symSize: 0xA0 }
  - { offset: 0xDA157, size: 0x8, addend: 0x0, symName: __RNvCs691rhTbG0Ee_7___rustc18___rdl_alloc_zeroed, symObjAddr: 0x43F20, symBinAddr: 0x488F0, symSize: 0x90 }
  - { offset: 0xDA1FF, size: 0x8, addend: 0x0, symName: __ZN3std5alloc8rust_oom17h52da512976c48b02E, symObjAddr: 0x51140, symBinAddr: 0x9CCB0, symSize: 0x20 }
  - { offset: 0xDA250, size: 0x8, addend: 0x0, symName: __RNvCs691rhTbG0Ee_7___rustc8___rg_oom, symObjAddr: 0x51160, symBinAddr: 0x9CCD0, symSize: 0x20 }
  - { offset: 0xDA396, size: 0x8, addend: 0x0, symName: '__ZN9addr2line8function17Function$LT$R$GT$14parse_children17h2b1f4b717eb654f9E', symObjAddr: 0x25D30, symBinAddr: 0x2B8B0, symSize: 0x13A0 }
  - { offset: 0xDB9FD, size: 0x8, addend: 0x0, symName: __ZN9addr2line8function10name_entry17hd5942d7e5ddc52e5E, symObjAddr: 0x258F0, symBinAddr: 0x2B470, symSize: 0x440 }
  - { offset: 0xDBE8F, size: 0x8, addend: 0x0, symName: __ZN9addr2line8function9name_attr17h215e0b89b63b87d1E, symObjAddr: 0x270D0, symBinAddr: 0x2CC50, symSize: 0x1B0 }
  - { offset: 0xDC114, size: 0x8, addend: 0x0, symName: '__ZN9addr2line4unit16ResUnit$LT$R$GT$25find_function_or_location17hf8592656026fc961E', symObjAddr: 0x230F0, symBinAddr: 0x28C70, symSize: 0x540 }
  - { offset: 0xDC5DA, size: 0x8, addend: 0x0, symName: '__ZN9addr2line4unit16ResUnit$LT$R$GT$25find_function_or_location28_$u7b$$u7b$closure$u7d$$u7d$17hf8f364c7bf78fef6E', symObjAddr: 0x23630, symBinAddr: 0x291B0, symSize: 0x1A50 }
  - { offset: 0xDEF53, size: 0x8, addend: 0x0, symName: '__ZN9addr2line16Context$LT$R$GT$9find_unit17h41c6153d5f2ae83fE', symObjAddr: 0x200D0, symBinAddr: 0x25C50, symSize: 0x150 }
  - { offset: 0xDF164, size: 0x8, addend: 0x0, symName: __ZN9addr2line4line11render_file17h8124614b2155c08aE, symObjAddr: 0x20220, symBinAddr: 0x25DA0, symSize: 0x6C0 }
  - { offset: 0xDFB64, size: 0x8, addend: 0x0, symName: __ZN9addr2line4line9LazyLines6borrow17h4bb9514b8a0c0d73E, symObjAddr: 0x208E0, symBinAddr: 0x26460, symSize: 0x2810 }
  - { offset: 0xE310A, size: 0x8, addend: 0x0, symName: '__ZN9addr2line6lookup30LoopingLookup$LT$T$C$L$C$F$GT$10new_lookup17hdac7e9ab7995a3c8E', symObjAddr: 0x253C0, symBinAddr: 0x2AF40, symSize: 0x530 }
  - { offset: 0xE36A0, size: 0x8, addend: 0x0, symName: '__ZN9addr2line5frame18FrameIter$LT$R$GT$4next17he744122147baef89E', symObjAddr: 0x25080, symBinAddr: 0x2AC00, symSize: 0x340 }
  - { offset: 0xE3B8A, size: 0x8, addend: 0x0, symName: '__ZN5gimli4read4unit32AttributeValue$LT$R$C$Offset$GT$11udata_value17hbb9ff7d31eca5f68E', symObjAddr: 0x1A4F0, symBinAddr: 0x20070, symSize: 0x80 }
  - { offset: 0xE3BE5, size: 0x8, addend: 0x0, symName: __ZN5gimli4read4unit15parse_attribute17h07a579f7edb5e315E, symObjAddr: 0x17900, symBinAddr: 0x1D480, symSize: 0x1960 }
  - { offset: 0xE75F9, size: 0x8, addend: 0x0, symName: __ZN5gimli4read4unit15skip_attributes17h1d7c4f24e191fb99E, symObjAddr: 0x19260, symBinAddr: 0x1EDE0, symSize: 0x7A0 }
  - { offset: 0xE80EF, size: 0x8, addend: 0x0, symName: '__ZN5gimli4read4unit18Attribute$LT$R$GT$5value17h1fcfbb590d9b2680E', symObjAddr: 0x19A00, symBinAddr: 0x1F580, symSize: 0x7C0 }
  - { offset: 0xE8695, size: 0x8, addend: 0x0, symName: '__ZN5gimli4read4unit22EntriesCursor$LT$R$GT$10next_entry17h34b8358204084c83E', symObjAddr: 0x1A1C0, symBinAddr: 0x1FD40, symSize: 0x330 }
  - { offset: 0xE8C2E, size: 0x8, addend: 0x0, symName: '__ZN5gimli4read4unit33DebugInfoUnitHeadersIter$LT$R$GT$4next17h433fb6ea016a9850E', symObjAddr: 0x1A570, symBinAddr: 0x200F0, symSize: 0x660 }
  - { offset: 0xE9EB3, size: 0x8, addend: 0x0, symName: '__ZN90_$LT$gimli..read..unit..AttributeValue$LT$R$C$Offset$GT$$u20$as$u20$core..clone..Clone$GT$5clone17h62ab72a04f1971dcE', symObjAddr: 0x1FEC0, symBinAddr: 0x25A40, symSize: 0x120 }
  - { offset: 0xEA119, size: 0x8, addend: 0x0, symName: __ZN5gimli4read6reader6Reader11read_offset17hc1a1540a38fadd55E, symObjAddr: 0x1E010, symBinAddr: 0x23B90, symSize: 0xB0 }
  - { offset: 0xEA39C, size: 0x8, addend: 0x0, symName: __ZN5gimli4read6reader6Reader12read_uleb12817h494cc1902c97b92bE, symObjAddr: 0x1E0C0, symBinAddr: 0x23C40, symSize: 0xB0 }
  - { offset: 0xEA452, size: 0x8, addend: 0x0, symName: __ZN5gimli4read6reader6Reader17read_sized_offset17h20c4962440add5e7E, symObjAddr: 0x1E170, symBinAddr: 0x23CF0, symSize: 0x130 }
  - { offset: 0xEA931, size: 0x8, addend: 0x0, symName: __ZN5gimli4read4line13parse_file_v517h46a0bc5ede7cb50dE, symObjAddr: 0x163C0, symBinAddr: 0x1BF40, symSize: 0x350 }
  - { offset: 0xEAABB, size: 0x8, addend: 0x0, symName: __ZN5gimli4read4line15FileEntryFormat5parse17h73b1f01337841bfeE, symObjAddr: 0x16710, symBinAddr: 0x1C290, symSize: 0x3B0 }
  - { offset: 0xEB2FD, size: 0x8, addend: 0x0, symName: __ZN5gimli4read4line15parse_attribute17h3ec56f7d7be635adE, symObjAddr: 0x16AC0, symBinAddr: 0x1C640, symSize: 0xAD0 }
  - { offset: 0xED04F, size: 0x8, addend: 0x0, symName: __ZN5gimli4read4line18parse_directory_v517h4cdd4d4a52af9e77E, symObjAddr: 0x17590, symBinAddr: 0x1D110, symSize: 0x110 }
  - { offset: 0xED0D0, size: 0x8, addend: 0x0, symName: '__ZN5gimli4read4line27FileEntry$LT$R$C$Offset$GT$5parse17h97a69ef4ef4d33c8E', symObjAddr: 0x176A0, symBinAddr: 0x1D220, symSize: 0x260 }
  - { offset: 0xED828, size: 0x8, addend: 0x0, symName: '__ZN5gimli4read5dwarf14Dwarf$LT$R$GT$11attr_string17h9c7bcc24fc559e30E', symObjAddr: 0x1D410, symBinAddr: 0x22F90, symSize: 0x210 }
  - { offset: 0xEE1A3, size: 0x8, addend: 0x0, symName: '__ZN5gimli4read5dwarf13Unit$LT$R$GT$3new17h2763151f96fa4a91E', symObjAddr: 0x1ABD0, symBinAddr: 0x20750, symSize: 0x2840 }
  - { offset: 0xF1C3C, size: 0x8, addend: 0x0, symName: '__ZN5gimli4read5index18UnitIndex$LT$R$GT$5parse17haa26f5a62e49af26E', symObjAddr: 0x1D620, symBinAddr: 0x231A0, symSize: 0x9F0 }
  - { offset: 0xF1C5A, size: 0x8, addend: 0x0, symName: '__ZN5gimli4read5index18UnitIndex$LT$R$GT$5parse17haa26f5a62e49af26E', symObjAddr: 0x1D620, symBinAddr: 0x231A0, symSize: 0x9F0 }
  - { offset: 0xF1C6F, size: 0x8, addend: 0x0, symName: '__ZN5gimli4read5index18UnitIndex$LT$R$GT$5parse17haa26f5a62e49af26E', symObjAddr: 0x1D620, symBinAddr: 0x231A0, symSize: 0x9F0 }
  - { offset: 0xF2216, size: 0x8, addend: 0x0, symName: '__ZN5gimli4read7aranges30ArangeHeader$LT$R$C$Offset$GT$5parse17h815be9125e7102e4E', symObjAddr: 0x1E2A0, symBinAddr: 0x23E20, symSize: 0x2A0 }
  - { offset: 0xF2B64, size: 0x8, addend: 0x0, symName: '__ZN5gimli4read8rnglists20RngListIter$LT$R$GT$4next17h44404e3bdde5f417E', symObjAddr: 0x1E540, symBinAddr: 0x240C0, symSize: 0x1040 }
  - { offset: 0xF5BC6, size: 0x8, addend: 0x0, symName: __ZN6object4read7archive13ArchiveMember5parse17h794b69a998d192cfE, symObjAddr: 0x1FA00, symBinAddr: 0x25580, symSize: 0x370 }
  - { offset: 0xF6390, size: 0x8, addend: 0x0, symName: __ZN6object4read7archive23parse_bsd_extended_name17h947dde1b696941bcE, symObjAddr: 0x1FD70, symBinAddr: 0x258F0, symSize: 0xA0 }
  - { offset: 0xF6BAC, size: 0x8, addend: 0x0, symName: '__ZN4core3ptr49drop_in_place$LT$panic_unwind..imp..Exception$GT$17h5afb27348f1c9c5dE', symObjAddr: 0x0, symBinAddr: 0x5CB90, symSize: 0x70 }
  - { offset: 0xF6BD4, size: 0x8, addend: 0x0, symName: '__ZN4core3ptr49drop_in_place$LT$panic_unwind..imp..Exception$GT$17h5afb27348f1c9c5dE', symObjAddr: 0x0, symBinAddr: 0x5CB90, symSize: 0x70 }
  - { offset: 0xF6CE6, size: 0x8, addend: 0x0, symName: '__ZN4core3ptr74drop_in_place$LT$alloc..boxed..Box$LT$panic_unwind..imp..Exception$GT$$GT$17h2582b0f6470e3968E', symObjAddr: 0x70, symBinAddr: 0x5CC00, symSize: 0x90 }
  - { offset: 0xF6FB4, size: 0x8, addend: 0x0, symName: __ZN12panic_unwind3imp5panic17exception_cleanup17hfc7814930b61657bE, symObjAddr: 0x200, symBinAddr: 0x5CD90, symSize: 0x16 }
  - { offset: 0xF6FD0, size: 0x8, addend: 0x0, symName: __RNvCs691rhTbG0Ee_7___rustc20___rust_panic_cleanup, symObjAddr: 0x100, symBinAddr: 0x5CC90, symSize: 0x50 }
  - { offset: 0xF7051, size: 0x8, addend: 0x0, symName: __RNvCs691rhTbG0Ee_7___rustc18___rust_start_panic, symObjAddr: 0x150, symBinAddr: 0x5CCE0, symSize: 0xB0 }
  - { offset: 0xF7116, size: 0x8, addend: 0x0, symName: '__ZN42_$LT$$RF$T$u20$as$u20$core..fmt..Debug$GT$3fmt17h233bada60cdedd36E', symObjAddr: 0x0, symBinAddr: 0x604D0, symSize: 0x30 }
  - { offset: 0xF7173, size: 0x8, addend: 0x0, symName: '__ZN4core3fmt3num49_$LT$impl$u20$core..fmt..Debug$u20$for$u20$u8$GT$3fmt17h87d517bdb7eb864aE', symObjAddr: 0x50, symBinAddr: 0x60520, symSize: 0x30 }
  - { offset: 0xF71AB, size: 0x8, addend: 0x0, symName: '__ZN42_$LT$$RF$T$u20$as$u20$core..fmt..Debug$GT$3fmt17h233bada60cdedd36E', symObjAddr: 0x0, symBinAddr: 0x604D0, symSize: 0x30 }
  - { offset: 0xF71F3, size: 0x8, addend: 0x0, symName: '__ZN42_$LT$$RF$T$u20$as$u20$core..fmt..Debug$GT$3fmt17h66f5314474182dfaE', symObjAddr: 0x30, symBinAddr: 0x60500, symSize: 0x20 }
  - { offset: 0xF7E9B, size: 0x8, addend: 0x0, symName: __ZN6memchr4arch3all6memchr3One4iter17hf92298de268612a5E, symObjAddr: 0x80, symBinAddr: 0x60550, symSize: 0x20 }
  - { offset: 0xF7F45, size: 0x8, addend: 0x0, symName: __ZN6memchr4arch3all6memchr3Two4iter17h87b4d629844a1f03E, symObjAddr: 0xA0, symBinAddr: 0x60570, symSize: 0x20 }
  - { offset: 0xF7FAC, size: 0x8, addend: 0x0, symName: __ZN6memchr4arch3all6memchr5Three4iter17h6f169e90c7cda8beE, symObjAddr: 0xC0, symBinAddr: 0x60590, symSize: 0x20 }
  - { offset: 0xF8049, size: 0x8, addend: 0x0, symName: '__ZN125_$LT$memchr..arch..all..packedpair..DefaultFrequencyRank$u20$as$u20$memchr..arch..all..packedpair..HeuristicFrequencyRank$GT$4rank17h37fe3444de180a03E', symObjAddr: 0xE0, symBinAddr: 0x605B0, symSize: 0x20 }
  - { offset: 0xF8148, size: 0x8, addend: 0x0, symName: __ZN6memchr4arch3all9rabinkarp12is_equal_raw17h495154de540a66d2E, symObjAddr: 0x100, symBinAddr: 0x9CDA0, symSize: 0x60 }
  - { offset: 0xF838D, size: 0x8, addend: 0x0, symName: '__ZN73_$LT$memchr..arch..all..rabinkarp..Finder$u20$as$u20$core..fmt..Debug$GT$3fmt17h798233dffd6433c8E', symObjAddr: 0x2D20, symBinAddr: 0x63190, symSize: 0x70 }
  - { offset: 0xF83AE, size: 0x8, addend: 0x0, symName: '__ZN71_$LT$memchr..arch..all..rabinkarp..Hash$u20$as$u20$core..fmt..Debug$GT$3fmt17he3ccc6bf80975f95E', symObjAddr: 0x2D90, symBinAddr: 0x63200, symSize: 0x40 }
  - { offset: 0xF83F1, size: 0x8, addend: 0x0, symName: __ZN6memchr4arch3all6twoway5Shift7forward17h293d34fcd93f1f12E, symObjAddr: 0x160, symBinAddr: 0x605D0, symSize: 0x100 }
  - { offset: 0xF85BC, size: 0x8, addend: 0x0, symName: __ZN6memchr4arch3all6twoway5Shift7reverse17h93756bf83879b879E, symObjAddr: 0x260, symBinAddr: 0x606D0, symSize: 0x110 }
  - { offset: 0xF87A2, size: 0x8, addend: 0x0, symName: __ZN6memchr4arch3all6twoway6Suffix7forward17h7c30627855afcbe1E, symObjAddr: 0x370, symBinAddr: 0x607E0, symSize: 0x140 }
  - { offset: 0xF87CC, size: 0x8, addend: 0x0, symName: __ZN6memchr4arch3all6twoway6Suffix7reverse17h81a914e1eeb24379E, symObjAddr: 0x4B0, symBinAddr: 0x60920, symSize: 0x150 }
  - { offset: 0xF8813, size: 0x8, addend: 0x0, symName: __ZN6memchr4arch3all6twoway18ApproximateByteSet3new17h94d3b2b37ceabd64E, symObjAddr: 0x600, symBinAddr: 0x60A70, symSize: 0x120 }
  - { offset: 0xF890E, size: 0x8, addend: 0x0, symName: __ZN6memchr4arch6x86_644avx210packedpair6Finder9find_impl17ha99253e34c04e063E, symObjAddr: 0x720, symBinAddr: 0x60B90, symSize: 0x700 }
  - { offset: 0xF9428, size: 0x8, addend: 0x0, symName: __ZN6memchr4arch6x86_644avx210packedpair6Finder19find_prefilter_impl17h98657609f15dda79E, symObjAddr: 0xE20, symBinAddr: 0x61290, symSize: 0x1D0 }
  - { offset: 0xF9A05, size: 0x8, addend: 0x0, symName: __ZN6memchr4arch6x86_646memchr10memchr_raw9find_sse217h82c86ee6b05cf32bE, symObjAddr: 0x2DD0, symBinAddr: 0x63240, symSize: 0x1B0 }
  - { offset: 0xF9FCE, size: 0x8, addend: 0x0, symName: __ZN6memchr4arch6x86_646memchr10memchr_raw6detect17h62aa2642c50d21dcE, symObjAddr: 0x2F80, symBinAddr: 0x633F0, symSize: 0x1C0 }
  - { offset: 0xFA5D1, size: 0x8, addend: 0x0, symName: __ZN6memchr4arch6x86_646memchr11memrchr_raw9find_sse217heb47651572cf3e9dE, symObjAddr: 0x3140, symBinAddr: 0x635B0, symSize: 0x1D0 }
  - { offset: 0xFABB0, size: 0x8, addend: 0x0, symName: __ZN6memchr4arch6x86_646memchr11memrchr_raw6detect17ha0c4a39d8b8e426dE, symObjAddr: 0x3310, symBinAddr: 0x63780, symSize: 0x1E0 }
  - { offset: 0xFB1C9, size: 0x8, addend: 0x0, symName: __ZN6memchr4arch6x86_646memchr11memchr2_raw9find_sse217h632eb72fa5596f23E, symObjAddr: 0x34F0, symBinAddr: 0x63960, symSize: 0x1A0 }
  - { offset: 0xFB879, size: 0x8, addend: 0x0, symName: __ZN6memchr4arch6x86_646memchr11memchr2_raw6detect17h5a9266ac38458549E, symObjAddr: 0x3690, symBinAddr: 0x63B00, symSize: 0x1A0 }
  - { offset: 0xFBF63, size: 0x8, addend: 0x0, symName: __ZN6memchr4arch6x86_646memchr12memrchr2_raw9find_sse217hcd9e4de813e6ce37E, symObjAddr: 0x3830, symBinAddr: 0x63CA0, symSize: 0x1D0 }
  - { offset: 0xFC702, size: 0x8, addend: 0x0, symName: __ZN6memchr4arch6x86_646memchr12memrchr2_raw6detect17hb592b23d6c1628bfE, symObjAddr: 0x3A00, symBinAddr: 0x63E70, symSize: 0x1E0 }
  - { offset: 0xFCEDB, size: 0x8, addend: 0x0, symName: __ZN6memchr4arch6x86_646memchr11memchr3_raw9find_sse217h41384272b2fd020fE, symObjAddr: 0x3BE0, symBinAddr: 0x64050, symSize: 0x200 }
  - { offset: 0xFD717, size: 0x8, addend: 0x0, symName: __ZN6memchr4arch6x86_646memchr11memchr3_raw6detect17hfacad42fb7388c1eE, symObjAddr: 0x3DE0, symBinAddr: 0x64250, symSize: 0x210 }
  - { offset: 0xFDF8D, size: 0x8, addend: 0x0, symName: __ZN6memchr4arch6x86_646memchr12memrchr3_raw9find_sse217h74bce5a5dcf29b18E, symObjAddr: 0x3FF0, symBinAddr: 0x64460, symSize: 0x230 }
  - { offset: 0xFE8B8, size: 0x8, addend: 0x0, symName: __ZN6memchr4arch6x86_646memchr12memrchr3_raw6detect17hb141488fc18ff131E, symObjAddr: 0x4220, symBinAddr: 0x64690, symSize: 0x240 }
  - { offset: 0xFF21D, size: 0x8, addend: 0x0, symName: __ZN6memchr4arch6x86_646memchr9count_raw9find_sse217hac79bd47f9bb3cd4E, symObjAddr: 0x4460, symBinAddr: 0x648D0, symSize: 0x3E0 }
  - { offset: 0xFF501, size: 0x8, addend: 0x0, symName: __ZN6memchr4arch6x86_646memchr9count_raw6detect17h37aa66da1514d67eE, symObjAddr: 0x4840, symBinAddr: 0x64CB0, symSize: 0x3E9 }
  - { offset: 0xFF51F, size: 0x8, addend: 0x0, symName: __ZN6memchr4arch6x86_646memchr9count_raw6detect17h37aa66da1514d67eE, symObjAddr: 0x4840, symBinAddr: 0x64CB0, symSize: 0x3E9 }
  - { offset: 0xFF534, size: 0x8, addend: 0x0, symName: __ZN6memchr4arch6x86_646memchr9count_raw6detect17h37aa66da1514d67eE, symObjAddr: 0x4840, symBinAddr: 0x64CB0, symSize: 0x3E9 }
  - { offset: 0xFFB4F, size: 0x8, addend: 0x0, symName: '__ZN71_$LT$memchr..memmem..searcher..Searcher$u20$as$u20$core..fmt..Debug$GT$3fmt17h30aa2290accd951eE', symObjAddr: 0xFF0, symBinAddr: 0x61460, symSize: 0xB0 }
  - { offset: 0xFFB6A, size: 0x8, addend: 0x0, symName: __ZN6memchr6memmem8searcher22searcher_kind_one_byte17h04f023ac22e0fe93E, symObjAddr: 0x10A0, symBinAddr: 0x61510, symSize: 0x40 }
  - { offset: 0xFFC7B, size: 0x8, addend: 0x0, symName: __ZN6memchr6memmem8searcher21searcher_kind_two_way17h82b86c9955df5954E, symObjAddr: 0x10E0, symBinAddr: 0x61550, symSize: 0x400 }
  - { offset: 0xFFFDD, size: 0x8, addend: 0x0, symName: __ZN6memchr6memmem8searcher36searcher_kind_two_way_with_prefilter17h7cb216c47be8b0eaE, symObjAddr: 0x14E0, symBinAddr: 0x61950, symSize: 0x660 }
  - { offset: 0x100518, size: 0x8, addend: 0x0, symName: __ZN6memchr6memmem8searcher18searcher_kind_sse217hdfade37fce7eabc9E, symObjAddr: 0x1B40, symBinAddr: 0x61FB0, symSize: 0x4A0 }
  - { offset: 0x100CFF, size: 0x8, addend: 0x0, symName: __ZN6memchr6memmem8searcher18searcher_kind_avx217h78a0400078425f04E, symObjAddr: 0x1FE0, symBinAddr: 0x62450, symSize: 0x110 }
  - { offset: 0x100EE2, size: 0x8, addend: 0x0, symName: '__ZN72_$LT$memchr..memmem..searcher..Prefilter$u20$as$u20$core..fmt..Debug$GT$3fmt17h567cac9854a9cee8E', symObjAddr: 0x20F0, symBinAddr: 0x62560, symSize: 0xD0 }
  - { offset: 0x100EFE, size: 0x8, addend: 0x0, symName: __ZN6memchr6memmem8searcher23prefilter_kind_fallback17hfb95a3aedf422efcE, symObjAddr: 0x21C0, symBinAddr: 0x62630, symSize: 0xC0 }
  - { offset: 0x10116A, size: 0x8, addend: 0x0, symName: __ZN6memchr6memmem8searcher19prefilter_kind_sse217h05224b2f6dce93aaE, symObjAddr: 0x2280, symBinAddr: 0x626F0, symSize: 0x290 }
  - { offset: 0x1017E2, size: 0x8, addend: 0x0, symName: __ZN6memchr6memmem8searcher19prefilter_kind_avx217h548eb64bd0e45aabE, symObjAddr: 0x2510, symBinAddr: 0x62980, symSize: 0x1F0 }
  - { offset: 0x101A98, size: 0x8, addend: 0x0, symName: '__ZN83_$LT$memchr..memmem..FindIter$u20$as$u20$core..iter..traits..iterator..Iterator$GT$4next17ha871d5f4845a2ed3E', symObjAddr: 0x2700, symBinAddr: 0x62B70, symSize: 0x80 }
  - { offset: 0x101B5D, size: 0x8, addend: 0x0, symName: '__ZN83_$LT$memchr..memmem..FindIter$u20$as$u20$core..iter..traits..iterator..Iterator$GT$9size_hint17hb8ed33db19da1c7eE', symObjAddr: 0x2780, symBinAddr: 0x62BF0, symSize: 0x70 }
  - { offset: 0x101C46, size: 0x8, addend: 0x0, symName: '__ZN86_$LT$memchr..memmem..FindRevIter$u20$as$u20$core..iter..traits..iterator..Iterator$GT$4next17he11e2a2273a9d080E', symObjAddr: 0x27F0, symBinAddr: 0x62C60, symSize: 0x530 }
  - { offset: 0x1020F8, size: 0x8, addend: 0x0, symName: '__ZN42_$LT$$RF$T$u20$as$u20$core..fmt..Debug$GT$3fmt17h23e0fbeb1240f764E', symObjAddr: 0x0, symBinAddr: 0x79420, symSize: 0x30 }
  - { offset: 0x102156, size: 0x8, addend: 0x0, symName: '__ZN42_$LT$$RF$T$u20$as$u20$core..fmt..Debug$GT$3fmt17h23e0fbeb1240f764E', symObjAddr: 0x0, symBinAddr: 0x79420, symSize: 0x30 }
  - { offset: 0x10219E, size: 0x8, addend: 0x0, symName: '__ZN42_$LT$$RF$T$u20$as$u20$core..fmt..Debug$GT$3fmt17h7152c8b95de72ee9E', symObjAddr: 0x30, symBinAddr: 0x79450, symSize: 0x60 }
  - { offset: 0x1021C8, size: 0x8, addend: 0x0, symName: '__ZN42_$LT$$RF$T$u20$as$u20$core..fmt..Debug$GT$3fmt17he21e98b291ebdc95E', symObjAddr: 0x90, symBinAddr: 0x794B0, symSize: 0x20 }
  - { offset: 0x102205, size: 0x8, addend: 0x0, symName: __ZN4core3fmt5Write9write_fmt17hb199acf92f306cedE, symObjAddr: 0xB0, symBinAddr: 0x794D0, symSize: 0x20 }
  - { offset: 0x102249, size: 0x8, addend: 0x0, symName: '__ZN53_$LT$core..fmt..Error$u20$as$u20$core..fmt..Debug$GT$3fmt17hca8101cabe698b64E', symObjAddr: 0x4B0, symBinAddr: 0x798A0, symSize: 0x20 }
  - { offset: 0x102395, size: 0x8, addend: 0x0, symName: '__ZN4core3ptr238drop_in_place$LT$alloc..boxed..convert..$LT$impl$u20$core..convert..From$LT$alloc..string..String$GT$$u20$for$u20$alloc..boxed..Box$LT$dyn$u20$core..error..Error$u2b$core..marker..Send$u2b$core..marker..Sync$GT$$GT$..from..StringError$GT$17hc393afbb7283c42aE', symObjAddr: 0xD0, symBinAddr: 0x794F0, symSize: 0x20 }
  - { offset: 0x102440, size: 0x8, addend: 0x0, symName: '__ZN4core3ptr42drop_in_place$LT$alloc..string..String$GT$17hbc2020376329277cE', symObjAddr: 0xF0, symBinAddr: 0x79510, symSize: 0x20 }
  - { offset: 0x102A44, size: 0x8, addend: 0x0, symName: __ZN4core4iter6traits8iterator8Iterator7collect17hd3e93431912ddb2fE, symObjAddr: 0x110, symBinAddr: 0x79530, symSize: 0x330 }
  - { offset: 0x103597, size: 0x8, addend: 0x0, symName: __ZN4core5error5Error5cause17h82be5890424b38dbE, symObjAddr: 0x440, symBinAddr: 0x79860, symSize: 0x10 }
  - { offset: 0x1035B1, size: 0x8, addend: 0x0, symName: __ZN4core5error5Error7provide17hea4758ca63a0b323E, symObjAddr: 0x450, symBinAddr: 0x79870, symSize: 0x10 }
  - { offset: 0x1035CB, size: 0x8, addend: 0x0, symName: __ZN4core5error5Error7type_id17h919a308a1cb3b60dE, symObjAddr: 0x460, symBinAddr: 0x79880, symSize: 0x1A }
  - { offset: 0x1035ED, size: 0x8, addend: 0x0, symName: __ZN4core9panicking13assert_failed17h3a285a51c38a32bdE, symObjAddr: 0x47A, symBinAddr: 0x9CEAA, symSize: 0x36 }
  - { offset: 0x10361B, size: 0x8, addend: 0x0, symName: '__ZN69_$LT$core..alloc..layout..LayoutError$u20$as$u20$core..fmt..Debug$GT$3fmt17h36b78e20d6350f7cE', symObjAddr: 0x4D0, symBinAddr: 0x798C0, symSize: 0x20 }
  - { offset: 0x1037E6, size: 0x8, addend: 0x0, symName: '__ZN5alloc3ffi5c_str40_$LT$impl$u20$core..ffi..c_str..CStr$GT$15to_string_lossy17h07e19d5dba4b4709E', symObjAddr: 0x1C90, symBinAddr: 0x7ADD0, symSize: 0x20 }
  - { offset: 0x103818, size: 0x8, addend: 0x0, symName: '__ZN5alloc3ffi5c_str40_$LT$impl$u20$core..ffi..c_str..CStr$GT$13into_c_string17heaca6a1db1d627f5E', symObjAddr: 0x1CB0, symBinAddr: 0x7ADF0, symSize: 0x10 }
  - { offset: 0x103D52, size: 0x8, addend: 0x0, symName: '__ZN5alloc7raw_vec19RawVec$LT$T$C$A$GT$8grow_one17h2f34ef753058c595E', symObjAddr: 0x530, symBinAddr: 0x798E0, symSize: 0xA0 }
  - { offset: 0x103FB2, size: 0x8, addend: 0x0, symName: __ZN5alloc7raw_vec17capacity_overflow17h0ca739f05a3f9592E, symObjAddr: 0x4F0, symBinAddr: 0x9CEE0, symSize: 0x40 }
  - { offset: 0x103FFC, size: 0x8, addend: 0x0, symName: '__ZN5alloc7raw_vec20RawVecInner$LT$A$GT$7reserve21do_reserve_and_handle17h6d5e09b03822a9ffE', symObjAddr: 0x5D0, symBinAddr: 0x9CF20, symSize: 0xB0 }
  - { offset: 0x104155, size: 0x8, addend: 0x0, symName: __ZN5alloc7raw_vec11finish_grow17hb024d46a7044288bE, symObjAddr: 0x680, symBinAddr: 0x9CFD0, symSize: 0x74 }
  - { offset: 0x1041D0, size: 0x8, addend: 0x0, symName: __ZN5alloc7raw_vec12handle_error17h80ddfa667069b2b1E, symObjAddr: 0x6F4, symBinAddr: 0x9D044, symSize: 0x16 }
  - { offset: 0x1042DC, size: 0x8, addend: 0x0, symName: __ZN5alloc5alloc18handle_alloc_error8ct_error17h7d800d2a2ade9c59E, symObjAddr: 0x720, symBinAddr: 0x9D070, symSize: 0x50 }
  - { offset: 0x10430F, size: 0x8, addend: 0x0, symName: __ZN5alloc5alloc18handle_alloc_error17hdcc72e48e03a26cdE, symObjAddr: 0x70A, symBinAddr: 0x9D05A, symSize: 0x16 }
  - { offset: 0x104347, size: 0x8, addend: 0x0, symName: __RNvCs691rhTbG0Ee_7___rustc9___rdl_oom, symObjAddr: 0x770, symBinAddr: 0x9D0C0, symSize: 0xC0 }
  - { offset: 0x1044A7, size: 0x8, addend: 0x0, symName: __ZN5alloc6string6String15from_utf8_lossy17h57321c9e1e8d376eE, symObjAddr: 0x3480, symBinAddr: 0x7C5C0, symSize: 0x270 }
  - { offset: 0x104B6A, size: 0x8, addend: 0x0, symName: __ZN5alloc6string6String21from_utf8_lossy_owned17h9df16508acda8dfcE, symObjAddr: 0x36F0, symBinAddr: 0x7C830, symSize: 0xB0 }
  - { offset: 0x104D71, size: 0x8, addend: 0x0, symName: __ZN5alloc6string6String10from_utf1617h25c2277f2fb682c1E, symObjAddr: 0x37A0, symBinAddr: 0x7C8E0, symSize: 0x2F0 }
  - { offset: 0x10524C, size: 0x8, addend: 0x0, symName: __ZN5alloc6string6String12from_utf16le17h40da5c76b2f64b34E, symObjAddr: 0x3A90, symBinAddr: 0x7CBD0, symSize: 0x500 }
  - { offset: 0x1056FE, size: 0x8, addend: 0x0, symName: __ZN5alloc6string6String18from_utf16le_lossy17h3ece7775e9f85093E, symObjAddr: 0x3F90, symBinAddr: 0x7D0D0, symSize: 0x480 }
  - { offset: 0x1060A1, size: 0x8, addend: 0x0, symName: __ZN5alloc6string6String12from_utf16be17h85994f472aa037ebE, symObjAddr: 0x4410, symBinAddr: 0x7D550, symSize: 0x4F0 }
  - { offset: 0x1064FC, size: 0x8, addend: 0x0, symName: __ZN5alloc6string6String18from_utf16be_lossy17h7ab8359365fa9b88E, symObjAddr: 0x4900, symBinAddr: 0x7DA40, symSize: 0x390 }
  - { offset: 0x106B82, size: 0x8, addend: 0x0, symName: __ZN5alloc6string6String11try_reserve17h5d7955a0c35f7a0aE, symObjAddr: 0x4C90, symBinAddr: 0x7DDD0, symSize: 0xD0 }
  - { offset: 0x106BD9, size: 0x8, addend: 0x0, symName: __ZN5alloc6string6String11try_reserve17h5d7955a0c35f7a0aE, symObjAddr: 0x4C90, symBinAddr: 0x7DDD0, symSize: 0xD0 }
  - { offset: 0x106D40, size: 0x8, addend: 0x0, symName: __ZN5alloc6string6String17try_reserve_exact17h0bca5081afd8fb40E, symObjAddr: 0x4D60, symBinAddr: 0x7DEA0, symSize: 0xB0 }
  - { offset: 0x1070AA, size: 0x8, addend: 0x0, symName: '__ZN98_$LT$alloc..string..String$u20$as$u20$core..convert..From$LT$alloc..borrow..Cow$LT$str$GT$$GT$$GT$4from17h31fa5b54bce3343eE', symObjAddr: 0x5210, symBinAddr: 0x7E350, symSize: 0xB0 }
  - { offset: 0x107283, size: 0x8, addend: 0x0, symName: __ZN5alloc6string13FromUtf8Error8as_bytes17h9ddba403922b2a49E, symObjAddr: 0x4E10, symBinAddr: 0x7DF50, symSize: 0x10 }
  - { offset: 0x10733F, size: 0x8, addend: 0x0, symName: __ZN5alloc6string13FromUtf8Error15into_utf8_lossy17h00eaf5492c247964E, symObjAddr: 0x4E20, symBinAddr: 0x7DF60, symSize: 0x200 }
  - { offset: 0x107A11, size: 0x8, addend: 0x0, symName: '__ZN67_$LT$alloc..string..FromUtf8Error$u20$as$u20$core..fmt..Display$GT$3fmt17h2da5251c2da640d1E', symObjAddr: 0x5020, symBinAddr: 0x7E160, symSize: 0x10 }
  - { offset: 0x107A33, size: 0x8, addend: 0x0, symName: '__ZN68_$LT$alloc..string..FromUtf16Error$u20$as$u20$core..fmt..Display$GT$3fmt17hac4f45a5eef193f6E', symObjAddr: 0x5030, symBinAddr: 0x7E170, symSize: 0x20 }
  - { offset: 0x107A55, size: 0x8, addend: 0x0, symName: '__ZN60_$LT$alloc..string..String$u20$as$u20$core..clone..Clone$GT$5clone17h43571bde5f23301bE', symObjAddr: 0x5050, symBinAddr: 0x7E190, symSize: 0x90 }
  - { offset: 0x107BD8, size: 0x8, addend: 0x0, symName: '__ZN60_$LT$alloc..string..String$u20$as$u20$core..clone..Clone$GT$10clone_from17hf769ed1795da785eE', symObjAddr: 0x50E0, symBinAddr: 0x7E220, symSize: 0x70 }
  - { offset: 0x107CF5, size: 0x8, addend: 0x0, symName: '__ZN73_$LT$$RF$alloc..string..String$u20$as$u20$core..str..pattern..Pattern$GT$13into_searcher17ha58de8967f37f2ceE', symObjAddr: 0x5150, symBinAddr: 0x7E290, symSize: 0x30 }
  - { offset: 0x107DCE, size: 0x8, addend: 0x0, symName: '__ZN5alloc6string107_$LT$impl$u20$core..convert..From$LT$alloc..string..String$GT$$u20$for$u20$alloc..boxed..Box$LT$str$GT$$GT$4from17he88f33a9a664d457E', symObjAddr: 0x5180, symBinAddr: 0x7E2C0, symSize: 0x90 }
  - { offset: 0x107F61, size: 0x8, addend: 0x0, symName: '__ZN97_$LT$alloc..string..String$u20$as$u20$core..convert..TryFrom$LT$alloc..vec..Vec$LT$u8$GT$$GT$$GT$8try_from17hd2affc2f19bbed1fE', symObjAddr: 0x52C0, symBinAddr: 0x7E400, symSize: 0xC0 }
  - { offset: 0x1080BB, size: 0x8, addend: 0x0, symName: '__ZN58_$LT$alloc..string..String$u20$as$u20$core..fmt..Write$GT$9write_str17h37797420daa7dd36E', symObjAddr: 0x5380, symBinAddr: 0x7E4C0, symSize: 0x60 }
  - { offset: 0x1081BC, size: 0x8, addend: 0x0, symName: '__ZN58_$LT$alloc..string..String$u20$as$u20$core..fmt..Write$GT$10write_char17h23f6be54a417ecdcE', symObjAddr: 0x53E0, symBinAddr: 0x7E520, symSize: 0x130 }
  - { offset: 0x108370, size: 0x8, addend: 0x0, symName: '__ZN61_$LT$alloc..string..IntoChars$u20$as$u20$core..fmt..Debug$GT$3fmt17h9c2a3e4670963d7cE', symObjAddr: 0x5510, symBinAddr: 0x7E650, symSize: 0x60 }
  - { offset: 0x108454, size: 0x8, addend: 0x0, symName: __ZN5alloc6string5Drain6as_str17hb194896098e64f5fE, symObjAddr: 0x5640, symBinAddr: 0x7E780, symSize: 0x10 }
  - { offset: 0x1084F6, size: 0x8, addend: 0x0, symName: '__ZN57_$LT$alloc..string..Drain$u20$as$u20$core..fmt..Debug$GT$3fmt17h523a34410f7ed971E', symObjAddr: 0x5570, symBinAddr: 0x7E6B0, symSize: 0x60 }
  - { offset: 0x1085B6, size: 0x8, addend: 0x0, symName: '__ZN62_$LT$alloc..string..Drain$u20$as$u20$core..ops..drop..Drop$GT$4drop17hf922a8984c3a721aE', symObjAddr: 0x55D0, symBinAddr: 0x7E710, symSize: 0x70 }
  - { offset: 0x1086F6, size: 0x8, addend: 0x0, symName: '__ZN72_$LT$alloc..string..Drain$u20$as$u20$core..convert..AsRef$LT$str$GT$$GT$6as_ref17h0e96aaeb963ca18aE', symObjAddr: 0x5650, symBinAddr: 0x7E790, symSize: 0x10 }
  - { offset: 0x1087B6, size: 0x8, addend: 0x0, symName: '__ZN79_$LT$alloc..string..Drain$u20$as$u20$core..iter..traits..iterator..Iterator$GT$9size_hint17he4330bd6c0d3f979E', symObjAddr: 0x5660, symBinAddr: 0x7E7A0, symSize: 0x30 }
  - { offset: 0x108D21, size: 0x8, addend: 0x0, symName: '__ZN5alloc3vec16Vec$LT$T$C$A$GT$11swap_remove13assert_failed17h91a4d2772cc75e95E', symObjAddr: 0x56F6, symBinAddr: 0x9D196, symSize: 0x5F }
  - { offset: 0x108D53, size: 0x8, addend: 0x0, symName: '__ZN5alloc3vec16Vec$LT$T$C$A$GT$6insert13assert_failed17h561b9769896cb087E', symObjAddr: 0x5755, symBinAddr: 0x9D1F5, symSize: 0x5F }
  - { offset: 0x108D85, size: 0x8, addend: 0x0, symName: '__ZN5alloc3vec16Vec$LT$T$C$A$GT$6remove13assert_failed17h2997b3a6ff392767E', symObjAddr: 0x57B4, symBinAddr: 0x9D254, symSize: 0x5F }
  - { offset: 0x108DB7, size: 0x8, addend: 0x0, symName: '__ZN5alloc3vec16Vec$LT$T$C$A$GT$9split_off13assert_failed17h42e157f8f330fe60E', symObjAddr: 0x5813, symBinAddr: 0x9D2B3, symSize: 0x6D }
  - { offset: 0x108DFF, size: 0x8, addend: 0x0, symName: '__ZN80_$LT$alloc..vec..Vec$LT$u8$GT$$u20$as$u20$core..convert..From$LT$$RF$str$GT$$GT$4from17h1c6bbfd801b2765fE', symObjAddr: 0x5880, symBinAddr: 0x7E840, symSize: 0x8B }
  - { offset: 0x108FD3, size: 0x8, addend: 0x0, symName: '__ZN88_$LT$alloc..collections..btree..map..UnorderedKeyError$u20$as$u20$core..fmt..Display$GT$3fmt17h9bd17a3078a84bb5E', symObjAddr: 0x1120, symBinAddr: 0x7A270, symSize: 0x20 }
  - { offset: 0x109019, size: 0x8, addend: 0x0, symName: '__ZN93_$LT$alloc..collections..btree..mem..replace..PanicGuard$u20$as$u20$core..ops..drop..Drop$GT$4drop17hd4813d3d61ef9005E', symObjAddr: 0x1140, symBinAddr: 0x9D180, symSize: 0x10 }
  - { offset: 0x10903D, size: 0x8, addend: 0x0, symName: '__ZN74_$LT$alloc..collections..TryReserveError$u20$as$u20$core..fmt..Display$GT$3fmt17h73649d84e9b1e4eeE', symObjAddr: 0x1150, symBinAddr: 0x7A290, symSize: 0x60 }
  - { offset: 0x1090C1, size: 0x8, addend: 0x0, symName: '__ZN92_$LT$alloc..borrow..Cow$LT$str$GT$$u20$as$u20$core..ops..arith..AddAssign$LT$$RF$str$GT$$GT$10add_assign17ha6297f157f789b0aE', symObjAddr: 0x830, symBinAddr: 0x79980, symSize: 0x230 }
  - { offset: 0x1096F0, size: 0x8, addend: 0x0, symName: '__ZN77_$LT$alloc..borrow..Cow$LT$str$GT$$u20$as$u20$core..ops..arith..AddAssign$GT$10add_assign17hc3eeb7880c97ec86E', symObjAddr: 0xA60, symBinAddr: 0x79BB0, symSize: 0x2A0 }
  - { offset: 0x10A058, size: 0x8, addend: 0x0, symName: '__ZN5alloc3str21_$LT$impl$u20$str$GT$12to_lowercase17h291fe5bd3394b8feE', symObjAddr: 0x1EF0, symBinAddr: 0x7B030, symSize: 0xCF0 }
  - { offset: 0x10B170, size: 0x8, addend: 0x0, symName: '__ZN5alloc3str21_$LT$impl$u20$str$GT$12to_uppercase17hac33a6e21311a85dE', symObjAddr: 0x2BE0, symBinAddr: 0x7BD20, symSize: 0x8A0 }
  - { offset: 0x10BD30, size: 0x8, addend: 0x0, symName: '__ZN256_$LT$alloc..boxed..convert..$LT$impl$u20$core..convert..From$LT$alloc..string..String$GT$$u20$for$u20$alloc..boxed..Box$LT$dyn$u20$core..error..Error$u2b$core..marker..Send$u2b$core..marker..Sync$GT$$GT$..from..StringError$u20$as$u20$core..error..Error$GT$11description17h1d98ce635dfaf88dE', symObjAddr: 0xD00, symBinAddr: 0x79E50, symSize: 0x10 }
  - { offset: 0x10BDF3, size: 0x8, addend: 0x0, symName: '__ZN256_$LT$alloc..boxed..convert..$LT$impl$u20$core..convert..From$LT$alloc..string..String$GT$$u20$for$u20$alloc..boxed..Box$LT$dyn$u20$core..error..Error$u2b$core..marker..Send$u2b$core..marker..Sync$GT$$GT$..from..StringError$u20$as$u20$core..fmt..Display$GT$3fmt17h4dbc9be38f0b0435E', symObjAddr: 0xD10, symBinAddr: 0x79E60, symSize: 0x20 }
  - { offset: 0x10BECD, size: 0x8, addend: 0x0, symName: '__ZN254_$LT$alloc..boxed..convert..$LT$impl$u20$core..convert..From$LT$alloc..string..String$GT$$u20$for$u20$alloc..boxed..Box$LT$dyn$u20$core..error..Error$u2b$core..marker..Send$u2b$core..marker..Sync$GT$$GT$..from..StringError$u20$as$u20$core..fmt..Debug$GT$3fmt17hebaecf8e96771bf4E', symObjAddr: 0xD30, symBinAddr: 0x79E80, symSize: 0x20 }
  - { offset: 0x10BFC5, size: 0x8, addend: 0x0, symName: '__ZN5alloc5boxed7convert130_$LT$impl$u20$core..convert..From$LT$alloc..string..String$GT$$u20$for$u20$alloc..boxed..Box$LT$dyn$u20$core..error..Error$GT$$GT$4from17hf9216b7dfb5257f2E', symObjAddr: 0xD50, symBinAddr: 0x79EA0, symSize: 0x90 }
  - { offset: 0x10C141, size: 0x8, addend: 0x0, symName: '__ZN5alloc5boxed7convert116_$LT$impl$u20$core..convert..From$LT$$RF$str$GT$$u20$for$u20$alloc..boxed..Box$LT$dyn$u20$core..error..Error$GT$$GT$4from17h4db9b2a07c4c4483E', symObjAddr: 0xDE0, symBinAddr: 0x79F30, symSize: 0xE0 }
  - { offset: 0x10C450, size: 0x8, addend: 0x0, symName: '__ZN5alloc5boxed7convert184_$LT$impl$u20$core..convert..From$LT$alloc..borrow..Cow$LT$str$GT$$GT$$u20$for$u20$alloc..boxed..Box$LT$dyn$u20$core..error..Error$u2b$core..marker..Send$u2b$core..marker..Sync$GT$$GT$4from17h284bc7af6f216063E', symObjAddr: 0xEC0, symBinAddr: 0x7A010, symSize: 0xF0 }
  - { offset: 0x10C767, size: 0x8, addend: 0x0, symName: '__ZN5alloc5boxed7convert138_$LT$impl$u20$core..convert..From$LT$alloc..borrow..Cow$LT$str$GT$$GT$$u20$for$u20$alloc..boxed..Box$LT$dyn$u20$core..error..Error$GT$$GT$4from17h1c9647f85d7d2421E', symObjAddr: 0xFB0, symBinAddr: 0x7A100, symSize: 0xF0 }
  - { offset: 0x10CB08, size: 0x8, addend: 0x0, symName: '__ZN67_$LT$alloc..boxed..Box$LT$str$GT$$u20$as$u20$core..clone..Clone$GT$5clone17hcf761e4e3ddf81ffE', symObjAddr: 0x10A0, symBinAddr: 0x7A1F0, symSize: 0x80 }
  - { offset: 0x10CC75, size: 0x8, addend: 0x0, symName: __ZN5alloc3ffi5c_str19FromVecWithNulError8as_bytes17h0e768f417b676e31E, symObjAddr: 0x11B0, symBinAddr: 0x7A2F0, symSize: 0x10 }
  - { offset: 0x10CD50, size: 0x8, addend: 0x0, symName: '__ZN72_$LT$$RF$str$u20$as$u20$alloc..ffi..c_str..CString..new..SpecNewImpl$GT$13spec_new_impl17hb9c3f4e79f647f12E', symObjAddr: 0x11C0, symBinAddr: 0x7A300, symSize: 0x140 }
  - { offset: 0x10CFF0, size: 0x8, addend: 0x0, symName: '__ZN89_$LT$$RF$mut$u20$$u5b$u8$u5d$$u20$as$u20$alloc..ffi..c_str..CString..new..SpecNewImpl$GT$13spec_new_impl17hd60cae1003b41dd8E', symObjAddr: 0x1300, symBinAddr: 0x7A440, symSize: 0x140 }
  - { offset: 0x10D2A7, size: 0x8, addend: 0x0, symName: __ZN5alloc3ffi5c_str7CString18from_vec_unchecked17hdf12d27541448148E, symObjAddr: 0x1440, symBinAddr: 0x7A580, symSize: 0x30 }
  - { offset: 0x10D2C2, size: 0x8, addend: 0x0, symName: __ZN5alloc3ffi5c_str7CString19_from_vec_unchecked17hf208d74381786c8dE, symObjAddr: 0x1470, symBinAddr: 0x7A5B0, symSize: 0x130 }
  - { offset: 0x10D65A, size: 0x8, addend: 0x0, symName: __ZN5alloc3ffi5c_str7CString8from_raw17h3624a67f71e3abb7E, symObjAddr: 0x15A0, symBinAddr: 0x7A6E0, symSize: 0x20 }
  - { offset: 0x10D683, size: 0x8, addend: 0x0, symName: __ZN5alloc3ffi5c_str7CString11into_string17h42d073a51e55f426E, symObjAddr: 0x15C0, symBinAddr: 0x7A700, symSize: 0xF0 }
  - { offset: 0x10D79F, size: 0x8, addend: 0x0, symName: __ZN5alloc3ffi5c_str7CString10into_bytes17he84bef8bc91eb205E, symObjAddr: 0x16B0, symBinAddr: 0x7A7F0, symSize: 0x30 }
  - { offset: 0x10D7CA, size: 0x8, addend: 0x0, symName: __ZN5alloc3ffi5c_str7CString19into_bytes_with_nul17hcdad8abce127abcaE, symObjAddr: 0x16E0, symBinAddr: 0x7A820, symSize: 0x20 }
  - { offset: 0x10D821, size: 0x8, addend: 0x0, symName: __ZN5alloc3ffi5c_str7CString27from_vec_with_nul_unchecked17hdeba8d90afa6ac1fE, symObjAddr: 0x1700, symBinAddr: 0x7A840, symSize: 0x90 }
  - { offset: 0x10D9AD, size: 0x8, addend: 0x0, symName: __ZN5alloc3ffi5c_str7CString17from_vec_with_nul17hb37746c08b850ff2E, symObjAddr: 0x1790, symBinAddr: 0x7A8D0, symSize: 0x130 }
  - { offset: 0x10DC02, size: 0x8, addend: 0x0, symName: '__ZN63_$LT$alloc..ffi..c_str..CString$u20$as$u20$core..fmt..Debug$GT$3fmt17h373e46c82013b847E', symObjAddr: 0x18C0, symBinAddr: 0x7AA00, symSize: 0x20 }
  - { offset: 0x10DC60, size: 0x8, addend: 0x0, symName: '__ZN5alloc3ffi5c_str75_$LT$impl$u20$alloc..borrow..ToOwned$u20$for$u20$core..ffi..c_str..CStr$GT$10clone_into17hea75f08060161732E', symObjAddr: 0x1AF0, symBinAddr: 0x7AC30, symSize: 0x120 }
  - { offset: 0x10E00D, size: 0x8, addend: 0x0, symName: '__ZN69_$LT$alloc..ffi..c_str..CString$u20$as$u20$core..default..Default$GT$7default17h7b82f1600592f0b3E', symObjAddr: 0x18E0, symBinAddr: 0x7AA20, symSize: 0x40 }
  - { offset: 0x10E11F, size: 0x8, addend: 0x0, symName: '__ZN5alloc3ffi5c_str131_$LT$impl$u20$core..convert..From$LT$$RF$core..ffi..c_str..CStr$GT$$u20$for$u20$alloc..boxed..Box$LT$core..ffi..c_str..CStr$GT$$GT$4from17ha85ff53b2541c921E', symObjAddr: 0x1920, symBinAddr: 0x7AA60, symSize: 0x80 }
  - { offset: 0x10E270, size: 0x8, addend: 0x0, symName: '__ZN5alloc3ffi5c_str100_$LT$impl$u20$core..default..Default$u20$for$u20$alloc..boxed..Box$LT$core..ffi..c_str..CStr$GT$$GT$7default17h47df321a50b998fbE', symObjAddr: 0x19A0, symBinAddr: 0x7AAE0, symSize: 0x40 }
  - { offset: 0x10E318, size: 0x8, addend: 0x0, symName: '__ZN66_$LT$alloc..ffi..c_str..NulError$u20$as$u20$core..fmt..Display$GT$3fmt17h6093ebaac0383b47E', symObjAddr: 0x19E0, symBinAddr: 0x7AB20, symSize: 0x60 }
  - { offset: 0x10E394, size: 0x8, addend: 0x0, symName: '__ZN77_$LT$alloc..ffi..c_str..FromVecWithNulError$u20$as$u20$core..fmt..Display$GT$3fmt17hdd315edf1c786c28E', symObjAddr: 0x1A40, symBinAddr: 0x7AB80, symSize: 0x90 }
  - { offset: 0x10E3FA, size: 0x8, addend: 0x0, symName: '__ZN73_$LT$alloc..ffi..c_str..IntoStringError$u20$as$u20$core..fmt..Display$GT$3fmt17h2031c0a7eff93210E', symObjAddr: 0x1AD0, symBinAddr: 0x7AC10, symSize: 0x20 }
  - { offset: 0x10E41C, size: 0x8, addend: 0x0, symName: '__ZN100_$LT$alloc..ffi..c_str..CString$u20$as$u20$core..convert..From$LT$$RF$core..ffi..c_str..CStr$GT$$GT$4from17h6a15201bc25cb7c5E', symObjAddr: 0x1C10, symBinAddr: 0x7AD50, symSize: 0x80 }
  - { offset: 0x10E593, size: 0x8, addend: 0x0, symName: __ZN5alloc3fmt6format12format_inner17h00277abbc90bbae4E, symObjAddr: 0x1CC0, symBinAddr: 0x7AE00, symSize: 0x1C0 }
  - { offset: 0x10E870, size: 0x8, addend: 0x0, symName: __ZN5alloc2rc32rc_inner_layout_for_value_layout17hfbf3f82205acf5efE, symObjAddr: 0x1E80, symBinAddr: 0x7AFC0, symSize: 0x70 }
  - { offset: 0x10E88F, size: 0x8, addend: 0x0, symName: __ZN5alloc2rc32rc_inner_layout_for_value_layout17hfbf3f82205acf5efE, symObjAddr: 0x1E80, symBinAddr: 0x7AFC0, symSize: 0x70 }
  - { offset: 0x10E8A5, size: 0x8, addend: 0x0, symName: __ZN5alloc2rc32rc_inner_layout_for_value_layout17hfbf3f82205acf5efE, symObjAddr: 0x1E80, symBinAddr: 0x7AFC0, symSize: 0x70 }
  - { offset: 0x10E945, size: 0x8, addend: 0x0, symName: __ZN5alloc4sync32arcinner_layout_for_value_layout17h04610016b666f020E, symObjAddr: 0x5690, symBinAddr: 0x7E7D0, symSize: 0x66 }
  - { offset: 0x10E964, size: 0x8, addend: 0x0, symName: __ZN5alloc4sync32arcinner_layout_for_value_layout17h04610016b666f020E, symObjAddr: 0x5690, symBinAddr: 0x7E7D0, symSize: 0x66 }
  - { offset: 0x10E97A, size: 0x8, addend: 0x0, symName: __ZN5alloc4sync32arcinner_layout_for_value_layout17h04610016b666f020E, symObjAddr: 0x5690, symBinAddr: 0x7E7D0, symSize: 0x66 }
  - { offset: 0x10EA33, size: 0x8, addend: 0x0, symName: __ZN4core3num7dec2flt11decimal_seq10DecimalSeq4trim17hf3a44954bf3df3b5E, symObjAddr: 0x0, symBinAddr: 0x7E8D0, symSize: 0x50 }
  - { offset: 0x10EA5F, size: 0x8, addend: 0x0, symName: __ZN4core3num7dec2flt11decimal_seq10DecimalSeq4trim17hf3a44954bf3df3b5E, symObjAddr: 0x0, symBinAddr: 0x7E8D0, symSize: 0x50 }
  - { offset: 0x10EA73, size: 0x8, addend: 0x0, symName: __ZN4core3num7dec2flt11decimal_seq10DecimalSeq5round17h6edf427461528b97E, symObjAddr: 0x50, symBinAddr: 0x7E920, symSize: 0x110 }
  - { offset: 0x10EAC1, size: 0x8, addend: 0x0, symName: __ZN4core3num7dec2flt11decimal_seq10DecimalSeq10left_shift17h875c0af62559e18bE, symObjAddr: 0x160, symBinAddr: 0x7EA30, symSize: 0x230 }
  - { offset: 0x10EB7B, size: 0x8, addend: 0x0, symName: __ZN4core3num7dec2flt11decimal_seq10DecimalSeq11right_shift17h92c434c8eeebaf9aE, symObjAddr: 0x390, symBinAddr: 0x7EC60, symSize: 0x200 }
  - { offset: 0x10EC0F, size: 0x8, addend: 0x0, symName: __ZN4core3num7dec2flt11decimal_seq17parse_decimal_seq17hdb0d0fc1275b4e2bE, symObjAddr: 0x590, symBinAddr: 0x7EE60, symSize: 0x400 }
  - { offset: 0x10F057, size: 0x8, addend: 0x0, symName: '__ZN59_$LT$f32$u20$as$u20$core..num..dec2flt..float..RawFloat$GT$15pow10_fast_path17h48710d41c7c00fe7E', symObjAddr: 0x990, symBinAddr: 0x7F260, symSize: 0x20 }
  - { offset: 0x10F0B3, size: 0x8, addend: 0x0, symName: '__ZN59_$LT$f64$u20$as$u20$core..num..dec2flt..float..RawFloat$GT$15pow10_fast_path17h12f48a07eae8839eE', symObjAddr: 0x9B0, symBinAddr: 0x7F280, symSize: 0x20 }
  - { offset: 0x10F185, size: 0x8, addend: 0x0, symName: __ZN4core3num7dec2flt6lemire13compute_float17h566df413cc6c939eE, symObjAddr: 0x9D0, symBinAddr: 0x7F2A0, symSize: 0x170 }
  - { offset: 0x10F242, size: 0x8, addend: 0x0, symName: __ZN4core3num7dec2flt6lemire13compute_float17hf3be184539e4149aE, symObjAddr: 0xB40, symBinAddr: 0x7F410, symSize: 0x190 }
  - { offset: 0x10F2F2, size: 0x8, addend: 0x0, symName: __ZN4core3num7dec2flt6lemire22compute_product_approx17haee6af625cff7883E, symObjAddr: 0xCD0, symBinAddr: 0x7F5A0, symSize: 0x80 }
  - { offset: 0x10F3B6, size: 0x8, addend: 0x0, symName: __ZN4core3num7dec2flt5parse12parse_number17h92ac94b8f2e6f03eE, symObjAddr: 0xD50, symBinAddr: 0x7F620, symSize: 0x4C0 }
  - { offset: 0x10F9D2, size: 0x8, addend: 0x0, symName: '__ZN74_$LT$core..num..dec2flt..ParseFloatError$u20$as$u20$core..fmt..Display$GT$3fmt17h1877d3626c5e8a8cE', symObjAddr: 0x1210, symBinAddr: 0x7FAE0, symSize: 0x40 }
  - { offset: 0x10FADE, size: 0x8, addend: 0x0, symName: '__ZN4core3num7dec2flt60_$LT$impl$u20$core..str..traits..FromStr$u20$for$u20$f32$GT$8from_str17hd3cbf353af01f6d7E', symObjAddr: 0x152A0, symBinAddr: 0x92F40, symSize: 0x510 }
  - { offset: 0x10FD16, size: 0x8, addend: 0x0, symName: '__ZN4core3num7dec2flt60_$LT$impl$u20$core..str..traits..FromStr$u20$for$u20$f64$GT$8from_str17h0e270d774c5a8cb3E', symObjAddr: 0x157B0, symBinAddr: 0x93450, symSize: 0x550 }
  - { offset: 0x110391, size: 0x8, addend: 0x0, symName: __ZN4core3num9diy_float2Fp3mul17hcb5d90224e97f664E, symObjAddr: 0x1250, symBinAddr: 0x7FB20, symSize: 0x20 }
  - { offset: 0x1103D2, size: 0x8, addend: 0x0, symName: __ZN4core3num9diy_float2Fp9normalize17h01281b76a3ea729eE, symObjAddr: 0x1270, symBinAddr: 0x7FB40, symSize: 0x20 }
  - { offset: 0x1103FC, size: 0x8, addend: 0x0, symName: __ZN4core3num9diy_float2Fp12normalize_to17ha9a98ed31c5c36c0E, symObjAddr: 0x1290, symBinAddr: 0x7FB60, symSize: 0x70 }
  - { offset: 0x110445, size: 0x8, addend: 0x0, symName: __ZN4core3num7flt2dec9estimator23estimate_scaling_factor17he24714afb3298e78E, symObjAddr: 0x1300, symBinAddr: 0x7FBD0, symSize: 0x40 }
  - { offset: 0x110489, size: 0x8, addend: 0x0, symName: __ZN4core3num7flt2dec8strategy6dragon9mul_pow1017hc9f0c813a28d2358E, symObjAddr: 0x1340, symBinAddr: 0x7FC10, symSize: 0x280 }
  - { offset: 0x110729, size: 0x8, addend: 0x0, symName: __ZN4core3num7flt2dec8strategy6dragon15format_shortest17h36c8e48d4773a4e3E, symObjAddr: 0x15C0, symBinAddr: 0x7FE90, symSize: 0xD00 }
  - { offset: 0x1120CE, size: 0x8, addend: 0x0, symName: __ZN4core3num7flt2dec8strategy6dragon12format_exact17h24aecce82e30734bE, symObjAddr: 0x22C0, symBinAddr: 0x80B90, symSize: 0xAF0 }
  - { offset: 0x1137AA, size: 0x8, addend: 0x0, symName: __ZN4core3num7flt2dec8strategy5grisu12cached_power17h3934f39b5f3289dbE, symObjAddr: 0x2DB0, symBinAddr: 0x81680, symSize: 0x70 }
  - { offset: 0x1137ED, size: 0x8, addend: 0x0, symName: __ZN4core3num7flt2dec8strategy5grisu19format_shortest_opt17h4924bd5381a6b8c8E, symObjAddr: 0x2E20, symBinAddr: 0x816F0, symSize: 0x690 }
  - { offset: 0x1139AB, size: 0x8, addend: 0x0, symName: __ZN4core3num7flt2dec8strategy5grisu15format_shortest17h83796fc7808f2728E, symObjAddr: 0x34B0, symBinAddr: 0x81D80, symSize: 0x70 }
  - { offset: 0x1139BF, size: 0x8, addend: 0x0, symName: __ZN4core3num7flt2dec8strategy5grisu16format_exact_opt17h81ef4a5082dc1edeE, symObjAddr: 0x3520, symBinAddr: 0x81DF0, symSize: 0x3E0 }
  - { offset: 0x113A64, size: 0x8, addend: 0x0, symName: __ZN4core3num7flt2dec8strategy5grisu16format_exact_opt14possibly_round17hc7fa4285dbf9205dE, symObjAddr: 0x3900, symBinAddr: 0x821D0, symSize: 0x1C0 }
  - { offset: 0x113C14, size: 0x8, addend: 0x0, symName: __ZN4core3num7flt2dec8strategy5grisu12format_exact17hd441ab1cb82bb503E, symObjAddr: 0x3AC0, symBinAddr: 0x82390, symSize: 0x70 }
  - { offset: 0x113C67, size: 0x8, addend: 0x0, symName: __ZN4core3num7flt2dec8round_up17h32c70cbc2e617627E, symObjAddr: 0x3B30, symBinAddr: 0x82400, symSize: 0xA0 }
  - { offset: 0x113D46, size: 0x8, addend: 0x0, symName: __ZN4core3num7flt2dec17digits_to_dec_str17head4fbd423368fffE, symObjAddr: 0x3BD0, symBinAddr: 0x824A0, symSize: 0x170 }
  - { offset: 0x113DE7, size: 0x8, addend: 0x0, symName: __ZN4core3num7flt2dec17digits_to_exp_str17h3901de9f9aed0701E, symObjAddr: 0x3D40, symBinAddr: 0x82610, symSize: 0x170 }
  - { offset: 0x11404D, size: 0x8, addend: 0x0, symName: __ZN4core3num6bignum8Big32x408from_u6417hdd8875a7f4702133E, symObjAddr: 0x12C10, symBinAddr: 0x908B0, symSize: 0x60 }
  - { offset: 0x114061, size: 0x8, addend: 0x0, symName: __ZN4core3num6bignum8Big32x406digits17he83694eb7b87d35fE, symObjAddr: 0x12C70, symBinAddr: 0x90910, symSize: 0x30 }
  - { offset: 0x1140AF, size: 0x8, addend: 0x0, symName: __ZN4core3num6bignum8Big32x407get_bit17hc3acdbf74acb485eE, symObjAddr: 0x12CA0, symBinAddr: 0x90940, symSize: 0x40 }
  - { offset: 0x1140C3, size: 0x8, addend: 0x0, symName: __ZN4core3num6bignum8Big32x407is_zero17he325f02b863f2270E, symObjAddr: 0x12CE0, symBinAddr: 0x90980, symSize: 0x50 }
  - { offset: 0x114167, size: 0x8, addend: 0x0, symName: __ZN4core3num6bignum8Big32x4010bit_length17hf68ace305ac72235E, symObjAddr: 0x12D30, symBinAddr: 0x909D0, symSize: 0x80 }
  - { offset: 0x114256, size: 0x8, addend: 0x0, symName: __ZN4core3num6bignum8Big32x403add17h56d14b773192795aE, symObjAddr: 0x12DB0, symBinAddr: 0x90A50, symSize: 0xA0 }
  - { offset: 0x1142F9, size: 0x8, addend: 0x0, symName: __ZN4core3num6bignum8Big32x409add_small17h150fedf52963e8c8E, symObjAddr: 0x12E50, symBinAddr: 0x90AF0, symSize: 0x60 }
  - { offset: 0x114313, size: 0x8, addend: 0x0, symName: __ZN4core3num6bignum8Big32x403sub17h82841ca7986ad3d5E, symObjAddr: 0x12EB0, symBinAddr: 0x90B50, symSize: 0x90 }
  - { offset: 0x1143B6, size: 0x8, addend: 0x0, symName: __ZN4core3num6bignum8Big32x409mul_small17hec56b8558e259a88E, symObjAddr: 0x12F40, symBinAddr: 0x90BE0, symSize: 0xA0 }
  - { offset: 0x11444B, size: 0x8, addend: 0x0, symName: __ZN4core3num6bignum8Big32x408mul_pow217ha735d442a417897fE, symObjAddr: 0x12FE0, symBinAddr: 0x90C80, symSize: 0x4B0 }
  - { offset: 0x114509, size: 0x8, addend: 0x0, symName: __ZN4core3num6bignum8Big32x408mul_pow517hc9f4ff9c5d216032E, symObjAddr: 0x13490, symBinAddr: 0x91130, symSize: 0x200 }
  - { offset: 0x114751, size: 0x8, addend: 0x0, symName: __ZN4core3num6bignum8Big32x4010mul_digits17h4781c75c32442158E, symObjAddr: 0x13690, symBinAddr: 0x91330, symSize: 0x340 }
  - { offset: 0x114A54, size: 0x8, addend: 0x0, symName: __ZN4core3num6bignum8Big32x4013div_rem_small17hc69bb0d210a63f53E, symObjAddr: 0x139D0, symBinAddr: 0x91670, symSize: 0x90 }
  - { offset: 0x114AFE, size: 0x8, addend: 0x0, symName: __ZN4core3num6bignum8Big32x407div_rem17h42c308039e80f5adE, symObjAddr: 0x13A60, symBinAddr: 0x91700, symSize: 0x270 }
  - { offset: 0x114FAD, size: 0x8, addend: 0x0, symName: '__ZN62_$LT$core..num..bignum..Big32x40$u20$as$u20$core..cmp..Ord$GT$3cmp17h62636fcfee5fbc95E', symObjAddr: 0x13D60, symBinAddr: 0x91A00, symSize: 0x70 }
  - { offset: 0x1151B0, size: 0x8, addend: 0x0, symName: '__ZN69_$LT$core..num..bignum..Big32x40$u20$as$u20$core..cmp..PartialOrd$GT$11partial_cmp17h152541bcfa9c7c9cE', symObjAddr: 0x13CF0, symBinAddr: 0x91990, symSize: 0x70 }
  - { offset: 0x1153C1, size: 0x8, addend: 0x0, symName: '__ZN50_$LT$u32$u20$as$u20$core..num..bignum..FullOps$GT$12full_div_rem17h9cd68374fc87ba2dE', symObjAddr: 0x12BE0, symBinAddr: 0x90880, symSize: 0x30 }
  - { offset: 0x11542D, size: 0x8, addend: 0x0, symName: '__ZN49_$LT$u8$u20$as$u20$core..num..bignum..FullOps$GT$12full_div_rem17hc956a67337284b9cE', symObjAddr: 0x12B80, symBinAddr: 0x90820, symSize: 0x30 }
  - { offset: 0x115462, size: 0x8, addend: 0x0, symName: '__ZN50_$LT$u16$u20$as$u20$core..num..bignum..FullOps$GT$12full_div_rem17h53859b0fb63d350dE', symObjAddr: 0x12BB0, symBinAddr: 0x90850, symSize: 0x30 }
  - { offset: 0x115483, size: 0x8, addend: 0x0, symName: '__ZN68_$LT$core..num..bignum..Big32x40$u20$as$u20$core..cmp..PartialEq$GT$2eq17he56fe37adeaf357aE', symObjAddr: 0x13CD0, symBinAddr: 0x91970, symSize: 0x20 }
  - { offset: 0x1154D2, size: 0x8, addend: 0x0, symName: '__ZN64_$LT$core..num..bignum..Big32x40$u20$as$u20$core..fmt..Debug$GT$3fmt17h6015a46c9ac63e90E', symObjAddr: 0x13DD0, symBinAddr: 0x91A70, symSize: 0x170 }
  - { offset: 0x1155C4, size: 0x8, addend: 0x0, symName: __ZN4core3num6bignum5tests6Big8x38from_u6417h9cbbc881761986fcE, symObjAddr: 0x13F40, symBinAddr: 0x91BE0, symSize: 0x80 }
  - { offset: 0x1155DE, size: 0x8, addend: 0x0, symName: __ZN4core3num6bignum5tests6Big8x36digits17h160fa639926a3728E, symObjAddr: 0x13FC0, symBinAddr: 0x91C60, symSize: 0x30 }
  - { offset: 0x11562C, size: 0x8, addend: 0x0, symName: __ZN4core3num6bignum5tests6Big8x37get_bit17hfed1b64f9f4d0805E, symObjAddr: 0x13FF0, symBinAddr: 0x91C90, symSize: 0x40 }
  - { offset: 0x11564D, size: 0x8, addend: 0x0, symName: __ZN4core3num6bignum5tests6Big8x37is_zero17he1232f54912a61a7E, symObjAddr: 0x14030, symBinAddr: 0x91CD0, symSize: 0x70 }
  - { offset: 0x1156E1, size: 0x8, addend: 0x0, symName: __ZN4core3num6bignum5tests6Big8x310bit_length17h9ffa9399575a1680E, symObjAddr: 0x140A0, symBinAddr: 0x91D40, symSize: 0xA0 }
  - { offset: 0x1157B0, size: 0x8, addend: 0x0, symName: __ZN4core3num6bignum5tests6Big8x33add17h05ed617c94d50c13E, symObjAddr: 0x14140, symBinAddr: 0x91DE0, symSize: 0xA0 }
  - { offset: 0x115859, size: 0x8, addend: 0x0, symName: __ZN4core3num6bignum5tests6Big8x39add_small17h26f51b9538c98fbeE, symObjAddr: 0x141E0, symBinAddr: 0x91E80, symSize: 0x50 }
  - { offset: 0x115873, size: 0x8, addend: 0x0, symName: __ZN4core3num6bignum5tests6Big8x33sub17h32e4d78288a7db38E, symObjAddr: 0x14230, symBinAddr: 0x91ED0, symSize: 0x90 }
  - { offset: 0x115916, size: 0x8, addend: 0x0, symName: __ZN4core3num6bignum5tests6Big8x39mul_small17h9f24357822cc0f5cE, symObjAddr: 0x142C0, symBinAddr: 0x91F60, symSize: 0xC0 }
  - { offset: 0x11599B, size: 0x8, addend: 0x0, symName: __ZN4core3num6bignum5tests6Big8x38mul_pow217hfcc95bb4695b1a8cE, symObjAddr: 0x14380, symBinAddr: 0x92020, symSize: 0x2D0 }
  - { offset: 0x115A7E, size: 0x8, addend: 0x0, symName: __ZN4core3num6bignum5tests6Big8x38mul_pow517h1a62288cbb2610deE, symObjAddr: 0x14650, symBinAddr: 0x922F0, symSize: 0x1E0 }
  - { offset: 0x115C62, size: 0x8, addend: 0x0, symName: __ZN4core3num6bignum5tests6Big8x310mul_digits17h72ea2e8a86c8c4a9E, symObjAddr: 0x14830, symBinAddr: 0x924D0, symSize: 0x410 }
  - { offset: 0x115F29, size: 0x8, addend: 0x0, symName: __ZN4core3num6bignum5tests6Big8x313div_rem_small17h754913252edc683fE, symObjAddr: 0x14C40, symBinAddr: 0x928E0, symSize: 0xB0 }
  - { offset: 0x116025, size: 0x8, addend: 0x0, symName: __ZN4core3num6bignum5tests6Big8x37div_rem17hb62ce006eec2d6d3E, symObjAddr: 0x14CF0, symBinAddr: 0x92990, symSize: 0x310 }
  - { offset: 0x11646D, size: 0x8, addend: 0x0, symName: '__ZN67_$LT$core..num..bignum..tests..Big8x3$u20$as$u20$core..cmp..Ord$GT$3cmp17h51d680be8f5ba9cfE', symObjAddr: 0x150B0, symBinAddr: 0x92D50, symSize: 0x90 }
  - { offset: 0x116600, size: 0x8, addend: 0x0, symName: '__ZN74_$LT$core..num..bignum..tests..Big8x3$u20$as$u20$core..cmp..PartialOrd$GT$11partial_cmp17hca85a190eafc477cE', symObjAddr: 0x15020, symBinAddr: 0x92CC0, symSize: 0x90 }
  - { offset: 0x116794, size: 0x8, addend: 0x0, symName: '__ZN73_$LT$core..num..bignum..tests..Big8x3$u20$as$u20$core..cmp..PartialEq$GT$2eq17h3380df16062ff4dfE', symObjAddr: 0x15000, symBinAddr: 0x92CA0, symSize: 0x20 }
  - { offset: 0x1167E3, size: 0x8, addend: 0x0, symName: '__ZN69_$LT$core..num..bignum..tests..Big8x3$u20$as$u20$core..fmt..Debug$GT$3fmt17hba9869ebda655dccE', symObjAddr: 0x15140, symBinAddr: 0x92DE0, symSize: 0x160 }
  - { offset: 0x1169AE, size: 0x8, addend: 0x0, symName: __ZN4core3num3fmt4Part5write17h3dd132e86a0b14b7E, symObjAddr: 0x3EB0, symBinAddr: 0x82780, symSize: 0x1B0 }
  - { offset: 0x116B31, size: 0x8, addend: 0x0, symName: __ZN4core3num3fmt9Formatted3len17ha4c86ea69e23a78bE, symObjAddr: 0x4060, symBinAddr: 0x82930, symSize: 0xA0 }
  - { offset: 0x116B6E, size: 0x8, addend: 0x0, symName: __ZN4core3num3fmt9Formatted5write17heef03df6108da19cE, symObjAddr: 0x4100, symBinAddr: 0x829D0, symSize: 0xB0 }
  - { offset: 0x116C8A, size: 0x8, addend: 0x0, symName: '__ZN72_$LT$core..num..error..TryFromIntError$u20$as$u20$core..fmt..Display$GT$3fmt17h1d747488043b6082E', symObjAddr: 0x41B0, symBinAddr: 0x82A80, symSize: 0x20 }
  - { offset: 0x116CD5, size: 0x8, addend: 0x0, symName: '__ZN70_$LT$core..num..error..ParseIntError$u20$as$u20$core..fmt..Display$GT$3fmt17h1f7370b8f2961cddE', symObjAddr: 0x41D0, symBinAddr: 0x82AA0, symSize: 0x30 }
  - { offset: 0x116D22, size: 0x8, addend: 0x0, symName: __ZN4core3num9int_log1030panic_for_nonpositive_argument17h0a535760a5a328e4E, symObjAddr: 0x4200, symBinAddr: 0x9D320, symSize: 0x40 }
  - { offset: 0x116D9A, size: 0x8, addend: 0x0, symName: __ZN4core3num8int_sqrt27panic_for_negative_argument17he5c6e3cc44f3e2d5E, symObjAddr: 0x4240, symBinAddr: 0x9D360, symSize: 0x40 }
  - { offset: 0x116DD3, size: 0x8, addend: 0x0, symName: __ZN4core3num14overflow_panic3add17h4d74d3a4bff69165E, symObjAddr: 0x4280, symBinAddr: 0x9D3A0, symSize: 0x40 }
  - { offset: 0x116E03, size: 0x8, addend: 0x0, symName: __ZN4core3num14overflow_panic3sub17h06c3667cce7c1718E, symObjAddr: 0x42C0, symBinAddr: 0x9D3E0, symSize: 0x40 }
  - { offset: 0x116E33, size: 0x8, addend: 0x0, symName: __ZN4core3num14overflow_panic3mul17h53f5453748129d47E, symObjAddr: 0x4300, symBinAddr: 0x9D420, symSize: 0x40 }
  - { offset: 0x116E63, size: 0x8, addend: 0x0, symName: __ZN4core3num14overflow_panic3div17h5398053078a11afbE, symObjAddr: 0x4340, symBinAddr: 0x9D460, symSize: 0x40 }
  - { offset: 0x116E93, size: 0x8, addend: 0x0, symName: __ZN4core3num14overflow_panic3rem17hed8edebcc89f509bE, symObjAddr: 0x4380, symBinAddr: 0x9D4A0, symSize: 0x40 }
  - { offset: 0x116EC3, size: 0x8, addend: 0x0, symName: __ZN4core3num14overflow_panic3neg17h5e98653cb5f7f364E, symObjAddr: 0x43C0, symBinAddr: 0x9D4E0, symSize: 0x40 }
  - { offset: 0x116EF3, size: 0x8, addend: 0x0, symName: __ZN4core3num14overflow_panic3shr17h5f17c467c22a787fE, symObjAddr: 0x4400, symBinAddr: 0x9D520, symSize: 0x40 }
  - { offset: 0x116F23, size: 0x8, addend: 0x0, symName: __ZN4core3num14overflow_panic3shl17h2faf40a461cc65f1E, symObjAddr: 0x4440, symBinAddr: 0x9D560, symSize: 0x40 }
  - { offset: 0x116F6D, size: 0x8, addend: 0x0, symName: __ZN4core3num22from_ascii_radix_panic8do_panic7runtime17h20d4a5c525436262E, symObjAddr: 0x17710, symBinAddr: 0x9DF60, symSize: 0x60 }
  - { offset: 0x116FA1, size: 0x8, addend: 0x0, symName: __ZN4core3num22from_ascii_radix_panic17h02448f97048ed297E, symObjAddr: 0x4480, symBinAddr: 0x9D5A0, symSize: 0x10 }
  - { offset: 0x117055, size: 0x8, addend: 0x0, symName: '__ZN73_$LT$core..num..nonzero..NonZero$LT$T$GT$$u20$as$u20$core..fmt..Debug$GT$3fmt17h447da4f65d52c643E', symObjAddr: 0x15D00, symBinAddr: 0x939A0, symSize: 0xE0 }
  - { offset: 0x1171E1, size: 0x8, addend: 0x0, symName: '__ZN84_$LT$core..num..nonzero..NonZero$LT$u8$GT$$u20$as$u20$core..str..traits..FromStr$GT$8from_str17h6633191b4193d515E', symObjAddr: 0x15DE0, symBinAddr: 0x93A80, symSize: 0xE0 }
  - { offset: 0x1172B6, size: 0x8, addend: 0x0, symName: '__ZN85_$LT$core..num..nonzero..NonZero$LT$u16$GT$$u20$as$u20$core..str..traits..FromStr$GT$8from_str17hdf0293e20be0fc1cE', symObjAddr: 0x15EC0, symBinAddr: 0x93B60, symSize: 0xF0 }
  - { offset: 0x11739B, size: 0x8, addend: 0x0, symName: '__ZN85_$LT$core..num..nonzero..NonZero$LT$u32$GT$$u20$as$u20$core..str..traits..FromStr$GT$8from_str17h93165f583047854aE', symObjAddr: 0x15FB0, symBinAddr: 0x93C50, symSize: 0x110 }
  - { offset: 0x117494, size: 0x8, addend: 0x0, symName: '__ZN85_$LT$core..num..nonzero..NonZero$LT$u64$GT$$u20$as$u20$core..str..traits..FromStr$GT$8from_str17h5c2c2e2fadcb1236E', symObjAddr: 0x160C0, symBinAddr: 0x93D60, symSize: 0xF0 }
  - { offset: 0x11756F, size: 0x8, addend: 0x0, symName: '__ZN86_$LT$core..num..nonzero..NonZero$LT$u128$GT$$u20$as$u20$core..str..traits..FromStr$GT$8from_str17h6abf9d94776dfe5bE', symObjAddr: 0x161B0, symBinAddr: 0x93E50, symSize: 0x130 }
  - { offset: 0x117661, size: 0x8, addend: 0x0, symName: '__ZN84_$LT$core..num..nonzero..NonZero$LT$i8$GT$$u20$as$u20$core..str..traits..FromStr$GT$8from_str17hc3ba51aa73e13214E', symObjAddr: 0x162E0, symBinAddr: 0x93F80, symSize: 0x160 }
  - { offset: 0x1177B6, size: 0x8, addend: 0x0, symName: '__ZN85_$LT$core..num..nonzero..NonZero$LT$i16$GT$$u20$as$u20$core..str..traits..FromStr$GT$8from_str17hcf00886ece768f43E', symObjAddr: 0x16440, symBinAddr: 0x940E0, symSize: 0x1F0 }
  - { offset: 0x11791B, size: 0x8, addend: 0x0, symName: '__ZN85_$LT$core..num..nonzero..NonZero$LT$i32$GT$$u20$as$u20$core..str..traits..FromStr$GT$8from_str17h9672b2417366bb70E', symObjAddr: 0x16630, symBinAddr: 0x942D0, symSize: 0x1E0 }
  - { offset: 0x117A80, size: 0x8, addend: 0x0, symName: '__ZN85_$LT$core..num..nonzero..NonZero$LT$i64$GT$$u20$as$u20$core..str..traits..FromStr$GT$8from_str17h1a092ef85acf23ccE', symObjAddr: 0x16810, symBinAddr: 0x944B0, symSize: 0x190 }
  - { offset: 0x117BFB, size: 0x8, addend: 0x0, symName: '__ZN86_$LT$core..num..nonzero..NonZero$LT$i128$GT$$u20$as$u20$core..str..traits..FromStr$GT$8from_str17h3548bec5541c36c1E', symObjAddr: 0x169A0, symBinAddr: 0x94640, symSize: 0x240 }
  - { offset: 0x1184AF, size: 0x8, addend: 0x0, symName: '__ZN72_$LT$core..num..niche_types..Nanoseconds$u20$as$u20$core..fmt..Debug$GT$3fmt17he1aa921c4557ee90E', symObjAddr: 0x16BE0, symBinAddr: 0x94880, symSize: 0xE0 }
  - { offset: 0x11863B, size: 0x8, addend: 0x0, symName: '__ZN75_$LT$core..num..niche_types..NonZeroU8Inner$u20$as$u20$core..fmt..Debug$GT$3fmt17he6a6fd1c94f1c86bE', symObjAddr: 0x16CC0, symBinAddr: 0x94960, symSize: 0x10 }
  - { offset: 0x11865C, size: 0x8, addend: 0x0, symName: '__ZN76_$LT$core..num..niche_types..NonZeroU16Inner$u20$as$u20$core..fmt..Debug$GT$3fmt17h30094610e558cd54E', symObjAddr: 0x16CD0, symBinAddr: 0x94970, symSize: 0x10 }
  - { offset: 0x11867D, size: 0x8, addend: 0x0, symName: '__ZN76_$LT$core..num..niche_types..NonZeroU32Inner$u20$as$u20$core..fmt..Debug$GT$3fmt17h0fc068939cc995e1E', symObjAddr: 0x16CE0, symBinAddr: 0x94980, symSize: 0xE0 }
  - { offset: 0x118809, size: 0x8, addend: 0x0, symName: '__ZN76_$LT$core..num..niche_types..NonZeroU64Inner$u20$as$u20$core..fmt..Debug$GT$3fmt17hc77afaffa391643dE', symObjAddr: 0x16DC0, symBinAddr: 0x94A60, symSize: 0xE0 }
  - { offset: 0x118995, size: 0x8, addend: 0x0, symName: '__ZN77_$LT$core..num..niche_types..NonZeroU128Inner$u20$as$u20$core..fmt..Debug$GT$3fmt17h6515460601ebcf5aE', symObjAddr: 0x16EA0, symBinAddr: 0x94B40, symSize: 0x20 }
  - { offset: 0x1189B6, size: 0x8, addend: 0x0, symName: '__ZN75_$LT$core..num..niche_types..NonZeroI8Inner$u20$as$u20$core..fmt..Debug$GT$3fmt17hba6d14903232bcf7E', symObjAddr: 0x16EC0, symBinAddr: 0x94B60, symSize: 0x10 }
  - { offset: 0x1189EB, size: 0x8, addend: 0x0, symName: '__ZN76_$LT$core..num..niche_types..NonZeroI16Inner$u20$as$u20$core..fmt..Debug$GT$3fmt17h5b9b81a2fb9056dfE', symObjAddr: 0x16ED0, symBinAddr: 0x94B70, symSize: 0xE0 }
  - { offset: 0x118B6F, size: 0x8, addend: 0x0, symName: '__ZN76_$LT$core..num..niche_types..NonZeroI32Inner$u20$as$u20$core..fmt..Debug$GT$3fmt17h72041f9aad297a7eE', symObjAddr: 0x16FB0, symBinAddr: 0x94C50, symSize: 0xF0 }
  - { offset: 0x118D28, size: 0x8, addend: 0x0, symName: '__ZN76_$LT$core..num..niche_types..NonZeroI64Inner$u20$as$u20$core..fmt..Debug$GT$3fmt17h2c05a65de62a1916E', symObjAddr: 0x170A0, symBinAddr: 0x94D40, symSize: 0xF0 }
  - { offset: 0x118EE1, size: 0x8, addend: 0x0, symName: '__ZN77_$LT$core..num..niche_types..NonZeroI128Inner$u20$as$u20$core..fmt..Debug$GT$3fmt17h7a54014a440d29b0E', symObjAddr: 0x17190, symBinAddr: 0x94E30, symSize: 0x20 }
  - { offset: 0x118F02, size: 0x8, addend: 0x0, symName: '__ZN75_$LT$core..num..niche_types..UsizeNoHighBit$u20$as$u20$core..fmt..Debug$GT$3fmt17h1faf5e60504f876fE', symObjAddr: 0x171B0, symBinAddr: 0x94E50, symSize: 0xE0 }
  - { offset: 0x11908E, size: 0x8, addend: 0x0, symName: '__ZN78_$LT$core..num..niche_types..NonZeroUsizeInner$u20$as$u20$core..fmt..Debug$GT$3fmt17h71820ef38cd57accE', symObjAddr: 0x17290, symBinAddr: 0x94F30, symSize: 0xE0 }
  - { offset: 0x11921A, size: 0x8, addend: 0x0, symName: '__ZN74_$LT$core..num..niche_types..U32NotAllOnes$u20$as$u20$core..fmt..Debug$GT$3fmt17hcc6ab6530fa0c2b1E', symObjAddr: 0x17370, symBinAddr: 0x95010, symSize: 0xE0 }
  - { offset: 0x1193A6, size: 0x8, addend: 0x0, symName: '__ZN74_$LT$core..num..niche_types..I32NotAllOnes$u20$as$u20$core..fmt..Debug$GT$3fmt17h91f4b5871e8a43c3E', symObjAddr: 0x17450, symBinAddr: 0x950F0, symSize: 0xF0 }
  - { offset: 0x11955F, size: 0x8, addend: 0x0, symName: '__ZN74_$LT$core..num..niche_types..U64NotAllOnes$u20$as$u20$core..fmt..Debug$GT$3fmt17h811ca39a33ebc745E', symObjAddr: 0x17540, symBinAddr: 0x951E0, symSize: 0xE0 }
  - { offset: 0x1196EB, size: 0x8, addend: 0x0, symName: '__ZN74_$LT$core..num..niche_types..I64NotAllOnes$u20$as$u20$core..fmt..Debug$GT$3fmt17hddb0235ea5a24951E', symObjAddr: 0x17620, symBinAddr: 0x952C0, symSize: 0xF0 }
  - { offset: 0x11B47E, size: 0x8, addend: 0x0, symName: __ZN4core5slice5index26slice_start_index_len_fail8do_panic7runtime17h07cd563b57eb2b13E, symObjAddr: 0x1BC50, symBinAddr: 0x9E670, symSize: 0x70 }
  - { offset: 0x11B4B2, size: 0x8, addend: 0x0, symName: __ZN4core5slice5index26slice_start_index_len_fail17h0f70fe847510de23E, symObjAddr: 0xF460, symBinAddr: 0x9DD20, symSize: 0x10 }
  - { offset: 0x11B4FB, size: 0x8, addend: 0x0, symName: __ZN4core5slice5index24slice_end_index_len_fail8do_panic7runtime17h33faeb55a4546580E, symObjAddr: 0x1BCC0, symBinAddr: 0x9E6E0, symSize: 0x70 }
  - { offset: 0x11B52F, size: 0x8, addend: 0x0, symName: __ZN4core5slice5index24slice_end_index_len_fail17h5975a346e17c5e48E, symObjAddr: 0xF470, symBinAddr: 0x9DD30, symSize: 0x10 }
  - { offset: 0x11B578, size: 0x8, addend: 0x0, symName: __ZN4core5slice5index22slice_index_order_fail8do_panic7runtime17hd9f21c007bf9eb2dE, symObjAddr: 0x1BD30, symBinAddr: 0x9E750, symSize: 0x70 }
  - { offset: 0x11B5AC, size: 0x8, addend: 0x0, symName: __ZN4core5slice5index22slice_index_order_fail17h5ee568b5c92a3a05E, symObjAddr: 0xF480, symBinAddr: 0x9DD40, symSize: 0x10 }
  - { offset: 0x11B5DC, size: 0x8, addend: 0x0, symName: __ZN4core5slice5index31slice_start_index_overflow_fail17he483f780b62da14eE, symObjAddr: 0xF490, symBinAddr: 0x9DD50, symSize: 0x40 }
  - { offset: 0x11B60C, size: 0x8, addend: 0x0, symName: __ZN4core5slice5index29slice_end_index_overflow_fail17h8ae783dc63fa90bfE, symObjAddr: 0xF4D0, symBinAddr: 0x9DD90, symSize: 0x40 }
  - { offset: 0x11B63C, size: 0x8, addend: 0x0, symName: __ZN4core5slice5index10into_range17he9544e7a3cc681beE, symObjAddr: 0xF510, symBinAddr: 0x8D340, symSize: 0x70 }
  - { offset: 0x11B6D6, size: 0x8, addend: 0x0, symName: __ZN4core5slice5index16into_slice_range17h30018e65388cdb75E, symObjAddr: 0xF580, symBinAddr: 0x8D3B0, symSize: 0x60 }
  - { offset: 0x11BDDF, size: 0x8, addend: 0x0, symName: '__ZN4core5slice29_$LT$impl$u20$$u5b$T$u5d$$GT$15copy_from_slice17len_mismatch_fail8do_panic7runtime17he510f04bf6fea5a4E', symObjAddr: 0x1BDA0, symBinAddr: 0x9E7C0, symSize: 0x70 }
  - { offset: 0x11BE13, size: 0x8, addend: 0x0, symName: '__ZN4core5slice29_$LT$impl$u20$$u5b$T$u5d$$GT$15copy_from_slice17len_mismatch_fail17ha840ec05d062f050E', symObjAddr: 0xF5E0, symBinAddr: 0x9DDD0, symSize: 0x20 }
  - { offset: 0x11BE4B, size: 0x8, addend: 0x0, symName: '__ZN4core5slice29_$LT$impl$u20$$u5b$T$u5d$$GT$16align_to_offsets3gcd17h39130abf1b0b4647E', symObjAddr: 0xF600, symBinAddr: 0x8D410, symSize: 0x30 }
  - { offset: 0x11C26C, size: 0x8, addend: 0x0, symName: '__ZN105_$LT$core..slice..ascii..EscapeAscii$u20$as$u20$core..iter..traits..double_ended..DoubleEndedIterator$GT$9next_back17h6ccf9c47b169e17cE', symObjAddr: 0xF0A0, symBinAddr: 0x8CF80, symSize: 0x100 }
  - { offset: 0x11C5E6, size: 0x8, addend: 0x0, symName: '__ZN70_$LT$core..slice..ascii..EscapeAscii$u20$as$u20$core..fmt..Display$GT$3fmt17ha88797780ec0c1c9E', symObjAddr: 0xF1A0, symBinAddr: 0x8D080, symSize: 0x270 }
  - { offset: 0x11CB25, size: 0x8, addend: 0x0, symName: '__ZN68_$LT$core..slice..ascii..EscapeAscii$u20$as$u20$core..fmt..Debug$GT$3fmt17hf0602c2e8047ea9fE', symObjAddr: 0xF410, symBinAddr: 0x8D2F0, symSize: 0x50 }
  - { offset: 0x11CC2B, size: 0x8, addend: 0x0, symName: __ZN4core5slice6memchr14memchr_aligned17h89552f3c3c2b63c0E, symObjAddr: 0xEE20, symBinAddr: 0x8CD50, symSize: 0xF0 }
  - { offset: 0x11CD2F, size: 0x8, addend: 0x0, symName: __ZN4core5slice6memchr7memrchr17h72c185b0665ab90eE, symObjAddr: 0xEF10, symBinAddr: 0x8CE40, symSize: 0x110 }
  - { offset: 0x11CF2D, size: 0x8, addend: 0x0, symName: __ZN4core5slice4sort6stable5drift11sqrt_approx17h5125de1e0bbe74c9E, symObjAddr: 0xF020, symBinAddr: 0x8CF50, symSize: 0x30 }
  - { offset: 0x11CFB0, size: 0x8, addend: 0x0, symName: __ZN4core5slice4sort6shared9smallsort22panic_on_ord_violation17h07ffb20107eda8a2E, symObjAddr: 0xF050, symBinAddr: 0x9DCD0, symSize: 0x50 }
  - { offset: 0x11CFEB, size: 0x8, addend: 0x0, symName: '__ZN71_$LT$core..slice..GetDisjointMutError$u20$as$u20$core..fmt..Display$GT$3fmt17h8d093647d855ea58E', symObjAddr: 0xF630, symBinAddr: 0x8D440, symSize: 0x40 }
  - { offset: 0x11D665, size: 0x8, addend: 0x0, symName: '__ZN68_$LT$core..ptr..alignment..Alignment$u20$as$u20$core..fmt..Debug$GT$3fmt17h9cab77e4ed4d9b43E', symObjAddr: 0x44B0, symBinAddr: 0x82AF0, symSize: 0x80 }
  - { offset: 0x11D8C2, size: 0x8, addend: 0x0, symName: __ZN4core10intrinsics3mir11PtrMetadata19panic_cold_explicit17h0a5f02d23f1504a0E, symObjAddr: 0x17770, symBinAddr: 0x9DFC0, symSize: 0x10 }
  - { offset: 0x11D95B, size: 0x8, addend: 0x0, symName: '__ZN42_$LT$str$u20$as$u20$core..fmt..Display$GT$3fmt17h6e6958e04f1fe41dE', symObjAddr: 0xEB20, symBinAddr: 0x8CA50, symSize: 0x20 }
  - { offset: 0x11DFAA, size: 0x8, addend: 0x0, symName: __ZN4core3fmt9Formatter12pad_integral17h4bd7d4504a7d09b5E, symObjAddr: 0xC4A0, symBinAddr: 0x8A3D0, symSize: 0x4A0 }
  - { offset: 0x11E259, size: 0x8, addend: 0x0, symName: __ZN4core3fmt9Formatter3pad17h6c2d833414065504E, symObjAddr: 0xC9A0, symBinAddr: 0x8A8D0, symSize: 0x3D0 }
  - { offset: 0x11E519, size: 0x8, addend: 0x0, symName: __ZN4core3fmt9Formatter19pad_formatted_parts17h12f7fadf31a054bdE, symObjAddr: 0xCD70, symBinAddr: 0x8ACA0, symSize: 0x280 }
  - { offset: 0x11E6D8, size: 0x8, addend: 0x0, symName: __ZN4core3fmt9Formatter21write_formatted_parts17h34445eaf4ea33f32E, symObjAddr: 0xCFF0, symBinAddr: 0x8AF20, symSize: 0x260 }
  - { offset: 0x11E7D8, size: 0x8, addend: 0x0, symName: __ZN4core3fmt9Formatter9write_str17h57e4fa5e875886eaE, symObjAddr: 0xD250, symBinAddr: 0x8B180, symSize: 0x20 }
  - { offset: 0x11E7EC, size: 0x8, addend: 0x0, symName: __ZN4core3fmt9Formatter4fill17hef81a89d2c6d9ec2E, symObjAddr: 0xD270, symBinAddr: 0x8B1A0, symSize: 0x10 }
  - { offset: 0x11E817, size: 0x8, addend: 0x0, symName: __ZN4core3fmt9Formatter12debug_struct17h9d1cd98edeaf82fbE, symObjAddr: 0xD280, symBinAddr: 0x8B1B0, symSize: 0x40 }
  - { offset: 0x11E858, size: 0x8, addend: 0x0, symName: __ZN4core3fmt9Formatter26debug_struct_field1_finish17h97672aa0978771c7E, symObjAddr: 0xD2C0, symBinAddr: 0x8B1F0, symSize: 0xB0 }
  - { offset: 0x11E937, size: 0x8, addend: 0x0, symName: __ZN4core3fmt9Formatter26debug_struct_field2_finish17h97f6159311fec6f7E, symObjAddr: 0xD370, symBinAddr: 0x8B2A0, symSize: 0xD0 }
  - { offset: 0x11EA16, size: 0x8, addend: 0x0, symName: __ZN4core3fmt9Formatter26debug_struct_field3_finish17h72287c528f3df2aaE, symObjAddr: 0xD440, symBinAddr: 0x8B370, symSize: 0xE0 }
  - { offset: 0x11EAF5, size: 0x8, addend: 0x0, symName: __ZN4core3fmt9Formatter26debug_struct_field4_finish17h3c57e83b36f0f267E, symObjAddr: 0xD520, symBinAddr: 0x8B450, symSize: 0x100 }
  - { offset: 0x11EBD4, size: 0x8, addend: 0x0, symName: __ZN4core3fmt9Formatter26debug_struct_field5_finish17h18133b23522c80b8E, symObjAddr: 0xD620, symBinAddr: 0x8B550, symSize: 0x120 }
  - { offset: 0x11ECB3, size: 0x8, addend: 0x0, symName: __ZN4core3fmt9Formatter26debug_struct_fields_finish17h2e279312d2b19421E, symObjAddr: 0xD740, symBinAddr: 0x8B670, symSize: 0x110 }
  - { offset: 0x11EDAF, size: 0x8, addend: 0x0, symName: __ZN4core3fmt9Formatter11debug_tuple17h7b7b295adec5f01aE, symObjAddr: 0xD850, symBinAddr: 0x8B780, symSize: 0x50 }
  - { offset: 0x11EE0E, size: 0x8, addend: 0x0, symName: __ZN4core3fmt9Formatter25debug_tuple_field1_finish17h560dbd9a9b473fc8E, symObjAddr: 0xD8A0, symBinAddr: 0x8B7D0, symSize: 0x140 }
  - { offset: 0x11F037, size: 0x8, addend: 0x0, symName: __ZN4core3fmt9Formatter25debug_tuple_field2_finish17h83564bdd89045ad3E, symObjAddr: 0xD9E0, symBinAddr: 0x8B910, symSize: 0x1A0 }
  - { offset: 0x11F355, size: 0x8, addend: 0x0, symName: __ZN4core3fmt9Formatter25debug_tuple_field3_finish17h3ff82e9cfbe4f8efE, symObjAddr: 0xDB80, symBinAddr: 0x8BAB0, symSize: 0x250 }
  - { offset: 0x11F7A2, size: 0x8, addend: 0x0, symName: __ZN4core3fmt9Formatter25debug_tuple_field4_finish17h4242c67ac59255d5E, symObjAddr: 0xDDD0, symBinAddr: 0x8BD00, symSize: 0x2E0 }
  - { offset: 0x11FD1E, size: 0x8, addend: 0x0, symName: __ZN4core3fmt9Formatter25debug_tuple_field5_finish17hce02a4b65f232847E, symObjAddr: 0xE0B0, symBinAddr: 0x8BFE0, symSize: 0x380 }
  - { offset: 0x1203C9, size: 0x8, addend: 0x0, symName: __ZN4core3fmt9Formatter25debug_tuple_fields_finish17h9d589726f93a3f14E, symObjAddr: 0xE430, symBinAddr: 0x8C360, symSize: 0x220 }
  - { offset: 0x1205C6, size: 0x8, addend: 0x0, symName: __ZN4core3fmt9Formatter10debug_list17he3573501a11c740cE, symObjAddr: 0xE650, symBinAddr: 0x8C580, symSize: 0x40 }
  - { offset: 0x120608, size: 0x8, addend: 0x0, symName: __ZN4core3fmt9Formatter9debug_set17hc21c8063bbb8a9abE, symObjAddr: 0xE690, symBinAddr: 0x8C5C0, symSize: 0x40 }
  - { offset: 0x120651, size: 0x8, addend: 0x0, symName: __ZN4core3fmt9Formatter9debug_map17h3de4b7b664adeb59E, symObjAddr: 0xE6D0, symBinAddr: 0x8C600, symSize: 0x40 }
  - { offset: 0x120837, size: 0x8, addend: 0x0, symName: __ZN4core3fmt8builders11DebugStruct5field17hea8b02af8f6caae4E, symObjAddr: 0x8ED0, symBinAddr: 0x86E00, symSize: 0x190 }
  - { offset: 0x120A57, size: 0x8, addend: 0x0, symName: __ZN4core3fmt8builders11DebugStruct21finish_non_exhaustive17hf8f6bdb72ac70569E, symObjAddr: 0x9060, symBinAddr: 0x86F90, symSize: 0xB0 }
  - { offset: 0x120B73, size: 0x8, addend: 0x0, symName: __ZN4core3fmt8builders11DebugStruct6finish17h27ddef6caf087c20E, symObjAddr: 0x9110, symBinAddr: 0x87040, symSize: 0x60 }
  - { offset: 0x120C81, size: 0x8, addend: 0x0, symName: __ZN4core3fmt8builders10PadAdapter4wrap17h73187bf1cb1242e9E, symObjAddr: 0x8BC0, symBinAddr: 0x86AF0, symSize: 0x30 }
  - { offset: 0x120CEC, size: 0x8, addend: 0x0, symName: '__ZN68_$LT$core..fmt..builders..PadAdapter$u20$as$u20$core..fmt..Write$GT$9write_str17h58eb9dae8fe3e4e3E', symObjAddr: 0x8BF0, symBinAddr: 0x86B20, symSize: 0x280 }
  - { offset: 0x120F6B, size: 0x8, addend: 0x0, symName: '__ZN68_$LT$core..fmt..builders..PadAdapter$u20$as$u20$core..fmt..Write$GT$10write_char17h73692a57ee3cf227E', symObjAddr: 0x8E70, symBinAddr: 0x86DA0, symSize: 0x60 }
  - { offset: 0x121041, size: 0x8, addend: 0x0, symName: __ZN4core3fmt8builders10DebugTuple5field17h38dda50cb31944e0E, symObjAddr: 0x9170, symBinAddr: 0x870A0, symSize: 0x130 }
  - { offset: 0x1211C0, size: 0x8, addend: 0x0, symName: __ZN4core3fmt8builders10DebugTuple21finish_non_exhaustive17h0b8cf9e95d5dd2d9E, symObjAddr: 0x92A0, symBinAddr: 0x871D0, symSize: 0xB0 }
  - { offset: 0x121309, size: 0x8, addend: 0x0, symName: __ZN4core3fmt8builders10DebugTuple6finish17h8e048e90516d0cdcE, symObjAddr: 0x9350, symBinAddr: 0x87280, symSize: 0x90 }
  - { offset: 0x1214C3, size: 0x8, addend: 0x0, symName: __ZN4core3fmt8builders8DebugSet5entry17h587b776cb651de8cE, symObjAddr: 0x93E0, symBinAddr: 0x87310, symSize: 0x120 }
  - { offset: 0x121659, size: 0x8, addend: 0x0, symName: __ZN4core3fmt8builders8DebugSet21finish_non_exhaustive17h880db428a7782f8cE, symObjAddr: 0x9500, symBinAddr: 0x87430, symSize: 0xB0 }
  - { offset: 0x121784, size: 0x8, addend: 0x0, symName: __ZN4core3fmt8builders8DebugSet6finish17h3af07b1b52a9ec81E, symObjAddr: 0x95B0, symBinAddr: 0x874E0, symSize: 0x40 }
  - { offset: 0x121829, size: 0x8, addend: 0x0, symName: __ZN4core3fmt8builders9DebugList21finish_non_exhaustive17h53b4824838708f94E, symObjAddr: 0x95F0, symBinAddr: 0x87520, symSize: 0xC0 }
  - { offset: 0x12194C, size: 0x8, addend: 0x0, symName: __ZN4core3fmt8builders9DebugList6finish17hb254b1eae82e46ddE, symObjAddr: 0x96B0, symBinAddr: 0x875E0, symSize: 0x40 }
  - { offset: 0x1219F8, size: 0x8, addend: 0x0, symName: __ZN4core3fmt8builders8DebugMap5entry17hfdbf4e11424e3a35E, symObjAddr: 0x96F0, symBinAddr: 0x87620, symSize: 0x100 }
  - { offset: 0x121B55, size: 0x8, addend: 0x0, symName: __ZN4core3fmt8builders8DebugMap3key17h3f63f33d01c1be77E, symObjAddr: 0x97F0, symBinAddr: 0x87720, symSize: 0x170 }
  - { offset: 0x121D2F, size: 0x8, addend: 0x0, symName: __ZN4core3fmt8builders8DebugMap5value17h7cc7cfe13c5f393bE, symObjAddr: 0x9960, symBinAddr: 0x87890, symSize: 0xF0 }
  - { offset: 0x121E5A, size: 0x8, addend: 0x0, symName: __ZN4core3fmt8builders8DebugMap21finish_non_exhaustive17h3d7611a24fda8fa8E, symObjAddr: 0x9A50, symBinAddr: 0x87980, symSize: 0xF0 }
  - { offset: 0x121F9B, size: 0x8, addend: 0x0, symName: __ZN4core3fmt8builders8DebugMap6finish17h5d934bdddbd085f3E, symObjAddr: 0x9B40, symBinAddr: 0x87A70, symSize: 0x80 }
  - { offset: 0x1220D9, size: 0x8, addend: 0x0, symName: '__ZN4core3fmt3num52_$LT$impl$u20$core..fmt..Debug$u20$for$u20$usize$GT$3fmt17h189550f1425cd12dE', symObjAddr: 0x1A270, symBinAddr: 0x97800, symSize: 0xE0 }
  - { offset: 0x122270, size: 0x8, addend: 0x0, symName: '__ZN4core3fmt3num3imp52_$LT$impl$u20$core..fmt..Display$u20$for$u20$u32$GT$3fmt17h15ef63a632994ba5E', symObjAddr: 0x1A690, symBinAddr: 0x97C20, symSize: 0x20 }
  - { offset: 0x122298, size: 0x8, addend: 0x0, symName: '__ZN4core3fmt3num3imp52_$LT$impl$u20$core..fmt..Display$u20$for$u20$u64$GT$3fmt17hd260aedbe46a7a7aE', symObjAddr: 0x1A7E0, symBinAddr: 0x97D70, symSize: 0x20 }
  - { offset: 0x1222C0, size: 0x8, addend: 0x0, symName: '__ZN4core3fmt3num3imp52_$LT$impl$u20$core..fmt..Display$u20$for$u20$i32$GT$3fmt17hb0482469189f718aE', symObjAddr: 0x1A6B0, symBinAddr: 0x97C40, symSize: 0x20 }
  - { offset: 0x122315, size: 0x8, addend: 0x0, symName: '__ZN4core3fmt3num3imp52_$LT$impl$u20$core..fmt..Display$u20$for$u20$i64$GT$3fmt17hae7b2e0ddaa7c9deE', symObjAddr: 0x1A800, symBinAddr: 0x97D90, symSize: 0x30 }
  - { offset: 0x12236A, size: 0x8, addend: 0x0, symName: '__ZN4core3fmt3num3imp51_$LT$impl$u20$core..fmt..Display$u20$for$u20$i8$GT$3fmt17hb90dbd979865b6acE', symObjAddr: 0x1A3F0, symBinAddr: 0x97980, symSize: 0xB0 }
  - { offset: 0x12247E, size: 0x8, addend: 0x0, symName: '__ZN4core3fmt3num3imp51_$LT$impl$u20$core..fmt..Display$u20$for$u20$u8$GT$3fmt17h118b8096310ce3b2E', symObjAddr: 0x1A350, symBinAddr: 0x978E0, symSize: 0xA0 }
  - { offset: 0x12256E, size: 0x8, addend: 0x0, symName: '__ZN4core3fmt3num3imp52_$LT$impl$u20$core..fmt..Display$u20$for$u20$u16$GT$3fmt17hdce8d30d103e7992E', symObjAddr: 0x1A4A0, symBinAddr: 0x97A30, symSize: 0xF0 }
  - { offset: 0x122669, size: 0x8, addend: 0x0, symName: '__ZN4core3fmt3num3imp52_$LT$impl$u20$core..fmt..Display$u20$for$u20$i16$GT$3fmt17h049d86f8e5d3918bE', symObjAddr: 0x1A590, symBinAddr: 0x97B20, symSize: 0x100 }
  - { offset: 0x12278E, size: 0x8, addend: 0x0, symName: '__ZN4core3fmt3num3imp21_$LT$impl$u20$u32$GT$4_fmt17h45676cda5b9cd2f1E', symObjAddr: 0x1A6D0, symBinAddr: 0x97C60, symSize: 0x110 }
  - { offset: 0x122879, size: 0x8, addend: 0x0, symName: '__ZN4core3fmt3num3imp21_$LT$impl$u20$u64$GT$4_fmt17hb879ea91c1477fddE', symObjAddr: 0x1A830, symBinAddr: 0x97DC0, symSize: 0x110 }
  - { offset: 0x12295E, size: 0x8, addend: 0x0, symName: __ZN4core3fmt3num3imp7exp_u6417h7b6faa3a5220fb85E, symObjAddr: 0x1A940, symBinAddr: 0x97ED0, symSize: 0x490 }
  - { offset: 0x122B49, size: 0x8, addend: 0x0, symName: '__ZN4core3fmt3num3imp52_$LT$impl$u20$core..fmt..LowerExp$u20$for$u20$i8$GT$3fmt17h6bbfb381a3863b78E', symObjAddr: 0x1ADD0, symBinAddr: 0x98360, symSize: 0x30 }
  - { offset: 0x122B6B, size: 0x8, addend: 0x0, symName: '__ZN4core3fmt3num3imp52_$LT$impl$u20$core..fmt..LowerExp$u20$for$u20$u8$GT$3fmt17h878f932aacee3872E', symObjAddr: 0x1AE00, symBinAddr: 0x98390, symSize: 0x20 }
  - { offset: 0x122B8D, size: 0x8, addend: 0x0, symName: '__ZN4core3fmt3num3imp53_$LT$impl$u20$core..fmt..LowerExp$u20$for$u20$i16$GT$3fmt17h116e4f84560a2f96E', symObjAddr: 0x1AE20, symBinAddr: 0x983B0, symSize: 0x30 }
  - { offset: 0x122BAF, size: 0x8, addend: 0x0, symName: '__ZN4core3fmt3num3imp53_$LT$impl$u20$core..fmt..LowerExp$u20$for$u20$u16$GT$3fmt17h876b1532235e7615E', symObjAddr: 0x1AE50, symBinAddr: 0x983E0, symSize: 0x20 }
  - { offset: 0x122BD1, size: 0x8, addend: 0x0, symName: '__ZN4core3fmt3num3imp53_$LT$impl$u20$core..fmt..LowerExp$u20$for$u20$i32$GT$3fmt17hac6e4d722f1ce93cE', symObjAddr: 0x1AE70, symBinAddr: 0x98400, symSize: 0x20 }
  - { offset: 0x122BF3, size: 0x8, addend: 0x0, symName: '__ZN4core3fmt3num3imp53_$LT$impl$u20$core..fmt..LowerExp$u20$for$u20$u32$GT$3fmt17h9b7d044e89ac51f1E', symObjAddr: 0x1AE90, symBinAddr: 0x98420, symSize: 0x20 }
  - { offset: 0x122C15, size: 0x8, addend: 0x0, symName: '__ZN4core3fmt3num3imp53_$LT$impl$u20$core..fmt..LowerExp$u20$for$u20$i64$GT$3fmt17h669b8eabe8fc453eE', symObjAddr: 0x1AEB0, symBinAddr: 0x98440, symSize: 0x30 }
  - { offset: 0x122C37, size: 0x8, addend: 0x0, symName: '__ZN4core3fmt3num3imp53_$LT$impl$u20$core..fmt..LowerExp$u20$for$u20$u64$GT$3fmt17h839025d3e2efafadE', symObjAddr: 0x1AEE0, symBinAddr: 0x98470, symSize: 0x20 }
  - { offset: 0x122C59, size: 0x8, addend: 0x0, symName: '__ZN4core3fmt3num3imp52_$LT$impl$u20$core..fmt..UpperExp$u20$for$u20$i8$GT$3fmt17h932ca0a57a5a9117E', symObjAddr: 0x1AF00, symBinAddr: 0x98490, symSize: 0x30 }
  - { offset: 0x122C7B, size: 0x8, addend: 0x0, symName: '__ZN4core3fmt3num3imp52_$LT$impl$u20$core..fmt..UpperExp$u20$for$u20$u8$GT$3fmt17h224dbc01a98ab63bE', symObjAddr: 0x1AF30, symBinAddr: 0x984C0, symSize: 0x20 }
  - { offset: 0x122C9D, size: 0x8, addend: 0x0, symName: '__ZN4core3fmt3num3imp53_$LT$impl$u20$core..fmt..UpperExp$u20$for$u20$i16$GT$3fmt17h86cf5d9bae5fadd0E', symObjAddr: 0x1AF50, symBinAddr: 0x984E0, symSize: 0x30 }
  - { offset: 0x122CBF, size: 0x8, addend: 0x0, symName: '__ZN4core3fmt3num3imp53_$LT$impl$u20$core..fmt..UpperExp$u20$for$u20$u16$GT$3fmt17h331dc6eb9eeeccf8E', symObjAddr: 0x1AF80, symBinAddr: 0x98510, symSize: 0x20 }
  - { offset: 0x122CE1, size: 0x8, addend: 0x0, symName: '__ZN4core3fmt3num3imp53_$LT$impl$u20$core..fmt..UpperExp$u20$for$u20$i32$GT$3fmt17hf5579e45cd2f9302E', symObjAddr: 0x1AFA0, symBinAddr: 0x98530, symSize: 0x20 }
  - { offset: 0x122D03, size: 0x8, addend: 0x0, symName: '__ZN4core3fmt3num3imp53_$LT$impl$u20$core..fmt..UpperExp$u20$for$u20$u32$GT$3fmt17h7baf18059fc0ee85E', symObjAddr: 0x1AFC0, symBinAddr: 0x98550, symSize: 0x20 }
  - { offset: 0x122D25, size: 0x8, addend: 0x0, symName: '__ZN4core3fmt3num3imp53_$LT$impl$u20$core..fmt..UpperExp$u20$for$u20$i64$GT$3fmt17h9a90fa819085f13eE', symObjAddr: 0x1AFE0, symBinAddr: 0x98570, symSize: 0x30 }
  - { offset: 0x122D47, size: 0x8, addend: 0x0, symName: '__ZN4core3fmt3num3imp53_$LT$impl$u20$core..fmt..UpperExp$u20$for$u20$u64$GT$3fmt17hea629c988aea2f22E', symObjAddr: 0x1B010, symBinAddr: 0x985A0, symSize: 0x20 }
  - { offset: 0x122EC4, size: 0x8, addend: 0x0, symName: '__ZN73_$LT$core..fmt..num..LowerHex$u20$as$u20$core..fmt..num..GenericRadix$GT$5digit17he8abfa84d6928e3bE', symObjAddr: 0x18F00, symBinAddr: 0x96490, symSize: 0x90 }
  - { offset: 0x122F17, size: 0x8, addend: 0x0, symName: '__ZN73_$LT$core..fmt..num..UpperHex$u20$as$u20$core..fmt..num..GenericRadix$GT$5digit17h1f82ea39fc1bc994E', symObjAddr: 0x18F90, symBinAddr: 0x96520, symSize: 0x90 }
  - { offset: 0x122F43, size: 0x8, addend: 0x0, symName: __ZN4core3fmt3num14parse_u64_into17h3716260925921e85E, symObjAddr: 0xB840, symBinAddr: 0x89770, symSize: 0x390 }
  - { offset: 0x123133, size: 0x8, addend: 0x0, symName: '__ZN4core3fmt3num53_$LT$impl$u20$core..fmt..Display$u20$for$u20$u128$GT$3fmt17hce754d0545cc8a7dE', symObjAddr: 0xBBD0, symBinAddr: 0x89B00, symSize: 0x20 }
  - { offset: 0x12315C, size: 0x8, addend: 0x0, symName: '__ZN4core3fmt3num53_$LT$impl$u20$core..fmt..Display$u20$for$u20$i128$GT$3fmt17h280f40841c791c5fE', symObjAddr: 0xBBF0, symBinAddr: 0x89B20, symSize: 0x30 }
  - { offset: 0x12318D, size: 0x8, addend: 0x0, symName: __ZN4core3fmt3num8fmt_u12817h04ec5ca5c6af7722E, symObjAddr: 0xBC20, symBinAddr: 0x89B50, symSize: 0x180 }
  - { offset: 0x12327C, size: 0x8, addend: 0x0, symName: '__ZN4core3fmt3num50_$LT$impl$u20$core..fmt..Debug$u20$for$u20$u32$GT$3fmt17h89b29a287525fd46E', symObjAddr: 0x1A050, symBinAddr: 0x975E0, symSize: 0xE0 }
  - { offset: 0x123499, size: 0x8, addend: 0x0, symName: '__ZN4core3fmt3num53_$LT$impl$u20$core..fmt..LowerHex$u20$for$u20$i16$GT$3fmt17hffc4041c9bf89ff6E', symObjAddr: 0x192E0, symBinAddr: 0x96870, symSize: 0x80 }
  - { offset: 0x123598, size: 0x8, addend: 0x0, symName: '__ZN4core3fmt3num53_$LT$impl$u20$core..fmt..UpperHex$u20$for$u20$i16$GT$3fmt17hb0364d044462b83dE', symObjAddr: 0x19360, symBinAddr: 0x968F0, symSize: 0x80 }
  - { offset: 0x123697, size: 0x8, addend: 0x0, symName: '__ZN4core3fmt3num53_$LT$impl$u20$core..fmt..LowerHex$u20$for$u20$i32$GT$3fmt17h9c977f9983dd8f04E', symObjAddr: 0x194C0, symBinAddr: 0x96A50, symSize: 0x80 }
  - { offset: 0x123782, size: 0x8, addend: 0x0, symName: '__ZN4core3fmt3num53_$LT$impl$u20$core..fmt..UpperHex$u20$for$u20$i32$GT$3fmt17hf8921951dae0c326E', symObjAddr: 0x19540, symBinAddr: 0x96AD0, symSize: 0x80 }
  - { offset: 0x123881, size: 0x8, addend: 0x0, symName: '__ZN4core3fmt3num53_$LT$impl$u20$core..fmt..LowerHex$u20$for$u20$i64$GT$3fmt17h39fc8660588726ddE', symObjAddr: 0x196A0, symBinAddr: 0x96C30, symSize: 0x80 }
  - { offset: 0x12396C, size: 0x8, addend: 0x0, symName: '__ZN4core3fmt3num53_$LT$impl$u20$core..fmt..UpperHex$u20$for$u20$i64$GT$3fmt17h5303f688c5fe15faE', symObjAddr: 0x19720, symBinAddr: 0x96CB0, symSize: 0x80 }
  - { offset: 0x123A4A, size: 0x8, addend: 0x0, symName: '__ZN71_$LT$core..fmt..num..Binary$u20$as$u20$core..fmt..num..GenericRadix$GT$5digit17ha0fb690b94e036e0E', symObjAddr: 0x18E00, symBinAddr: 0x96390, symSize: 0x80 }
  - { offset: 0x123A89, size: 0x8, addend: 0x0, symName: '__ZN70_$LT$core..fmt..num..Octal$u20$as$u20$core..fmt..num..GenericRadix$GT$5digit17h2de89829f7eb3c8aE', symObjAddr: 0x18E80, symBinAddr: 0x96410, symSize: 0x80 }
  - { offset: 0x123AC8, size: 0x8, addend: 0x0, symName: '__ZN4core3fmt3num50_$LT$impl$u20$core..fmt..Binary$u20$for$u20$i8$GT$3fmt17h8f93c73c938c733fE', symObjAddr: 0x19020, symBinAddr: 0x965B0, symSize: 0x70 }
  - { offset: 0x123BAC, size: 0x8, addend: 0x0, symName: '__ZN4core3fmt3num49_$LT$impl$u20$core..fmt..Octal$u20$for$u20$i8$GT$3fmt17hb9fa114408b0fb5fE', symObjAddr: 0x19090, symBinAddr: 0x96620, symSize: 0x70 }
  - { offset: 0x123C90, size: 0x8, addend: 0x0, symName: '__ZN4core3fmt3num52_$LT$impl$u20$core..fmt..LowerHex$u20$for$u20$i8$GT$3fmt17h7ca6912ca430b202E', symObjAddr: 0x19100, symBinAddr: 0x96690, symSize: 0x80 }
  - { offset: 0x123D7B, size: 0x8, addend: 0x0, symName: '__ZN4core3fmt3num52_$LT$impl$u20$core..fmt..UpperHex$u20$for$u20$i8$GT$3fmt17h38ae2cfd6ad7f941E', symObjAddr: 0x19180, symBinAddr: 0x96710, symSize: 0x80 }
  - { offset: 0x123E66, size: 0x8, addend: 0x0, symName: '__ZN4core3fmt3num51_$LT$impl$u20$core..fmt..Binary$u20$for$u20$i16$GT$3fmt17h418a054f8bb16759E', symObjAddr: 0x19200, symBinAddr: 0x96790, symSize: 0x70 }
  - { offset: 0x123F4A, size: 0x8, addend: 0x0, symName: '__ZN4core3fmt3num50_$LT$impl$u20$core..fmt..Octal$u20$for$u20$i16$GT$3fmt17ha96f52d786fe5737E', symObjAddr: 0x19270, symBinAddr: 0x96800, symSize: 0x70 }
  - { offset: 0x12402E, size: 0x8, addend: 0x0, symName: '__ZN4core3fmt3num51_$LT$impl$u20$core..fmt..Binary$u20$for$u20$i32$GT$3fmt17h762291e2c5a76c46E', symObjAddr: 0x193E0, symBinAddr: 0x96970, symSize: 0x70 }
  - { offset: 0x124112, size: 0x8, addend: 0x0, symName: '__ZN4core3fmt3num50_$LT$impl$u20$core..fmt..Octal$u20$for$u20$i32$GT$3fmt17he3652dc1e0195c60E', symObjAddr: 0x19450, symBinAddr: 0x969E0, symSize: 0x70 }
  - { offset: 0x1241F6, size: 0x8, addend: 0x0, symName: '__ZN4core3fmt3num51_$LT$impl$u20$core..fmt..Binary$u20$for$u20$i64$GT$3fmt17hf4e5b8efd14baf30E', symObjAddr: 0x195C0, symBinAddr: 0x96B50, symSize: 0x70 }
  - { offset: 0x1242DA, size: 0x8, addend: 0x0, symName: '__ZN4core3fmt3num50_$LT$impl$u20$core..fmt..Octal$u20$for$u20$i64$GT$3fmt17hef3ca5de58ac6860E', symObjAddr: 0x19630, symBinAddr: 0x96BC0, symSize: 0x70 }
  - { offset: 0x1243D2, size: 0x8, addend: 0x0, symName: '__ZN4core3fmt3num52_$LT$impl$u20$core..fmt..Binary$u20$for$u20$i128$GT$3fmt17hd2162c979273f806E', symObjAddr: 0x197A0, symBinAddr: 0x96D30, symSize: 0xA0 }
  - { offset: 0x1244AE, size: 0x8, addend: 0x0, symName: '__ZN4core3fmt3num51_$LT$impl$u20$core..fmt..Octal$u20$for$u20$i128$GT$3fmt17h375aac65f5ad9ac5E', symObjAddr: 0x19840, symBinAddr: 0x96DD0, symSize: 0xA0 }
  - { offset: 0x12458A, size: 0x8, addend: 0x0, symName: '__ZN4core3fmt3num54_$LT$impl$u20$core..fmt..LowerHex$u20$for$u20$i128$GT$3fmt17h53ed9c589f989c74E', symObjAddr: 0x198E0, symBinAddr: 0x96E70, symSize: 0xC0 }
  - { offset: 0x12466D, size: 0x8, addend: 0x0, symName: '__ZN4core3fmt3num54_$LT$impl$u20$core..fmt..UpperHex$u20$for$u20$i128$GT$3fmt17ha1343aa2c0f25110E', symObjAddr: 0x199A0, symBinAddr: 0x96F30, symSize: 0xC0 }
  - { offset: 0x124750, size: 0x8, addend: 0x0, symName: '__ZN4core3fmt3num49_$LT$impl$u20$core..fmt..Debug$u20$for$u20$i8$GT$3fmt17h3e140a60ac2f8101E', symObjAddr: 0x19A60, symBinAddr: 0x96FF0, symSize: 0x170 }
  - { offset: 0x12499E, size: 0x8, addend: 0x0, symName: '__ZN4core3fmt3num51_$LT$impl$u20$core..fmt..Debug$u20$for$u20$i128$GT$3fmt17haa64b0b471edb550E', symObjAddr: 0x19BD0, symBinAddr: 0x97160, symSize: 0x160 }
  - { offset: 0x124B3C, size: 0x8, addend: 0x0, symName: '__ZN4core3fmt3num49_$LT$impl$u20$core..fmt..Debug$u20$for$u20$u8$GT$3fmt17h87d517bdb7eb864aE', symObjAddr: 0x19D30, symBinAddr: 0x972C0, symSize: 0x160 }
  - { offset: 0x124D8E, size: 0x8, addend: 0x0, symName: '__ZN4core3fmt3num50_$LT$impl$u20$core..fmt..Debug$u20$for$u20$u16$GT$3fmt17hfc302fd894e84e42E', symObjAddr: 0x19E90, symBinAddr: 0x97420, symSize: 0x1C0 }
  - { offset: 0x124FFC, size: 0x8, addend: 0x0, symName: '__ZN4core3fmt3num51_$LT$impl$u20$core..fmt..Debug$u20$for$u20$u128$GT$3fmt17h250a014865e35c32E', symObjAddr: 0x1A130, symBinAddr: 0x976C0, symSize: 0x140 }
  - { offset: 0x12516C, size: 0x8, addend: 0x0, symName: __ZN4core3fmt3num8exp_u12817h60fb0e4574cc0c63E, symObjAddr: 0x1B030, symBinAddr: 0x985C0, symSize: 0x850 }
  - { offset: 0x125373, size: 0x8, addend: 0x0, symName: '__ZN4core3fmt3num54_$LT$impl$u20$core..fmt..LowerExp$u20$for$u20$i128$GT$3fmt17h50fada977b21bd76E', symObjAddr: 0x1B880, symBinAddr: 0x98E10, symSize: 0x40 }
  - { offset: 0x125395, size: 0x8, addend: 0x0, symName: '__ZN4core3fmt3num54_$LT$impl$u20$core..fmt..LowerExp$u20$for$u20$u128$GT$3fmt17h52d3fe52da141f73E', symObjAddr: 0x1B8C0, symBinAddr: 0x98E50, symSize: 0x20 }
  - { offset: 0x1253B7, size: 0x8, addend: 0x0, symName: '__ZN4core3fmt3num54_$LT$impl$u20$core..fmt..UpperExp$u20$for$u20$i128$GT$3fmt17h0bb5b9ae307d7470E', symObjAddr: 0x1B8E0, symBinAddr: 0x98E70, symSize: 0x40 }
  - { offset: 0x1253D9, size: 0x8, addend: 0x0, symName: '__ZN4core3fmt3num54_$LT$impl$u20$core..fmt..UpperExp$u20$for$u20$u128$GT$3fmt17h2dd6c53c14c55ae0E', symObjAddr: 0x1B920, symBinAddr: 0x98EB0, symSize: 0x30 }
  - { offset: 0x125418, size: 0x8, addend: 0x0, symName: __ZN4core3fmt17FormattingOptions8get_fill17hdee415b869b66972E, symObjAddr: 0xC240, symBinAddr: 0x8A170, symSize: 0x10 }
  - { offset: 0x125513, size: 0x8, addend: 0x0, symName: '__ZN57_$LT$core..fmt..Formatter$u20$as$u20$core..fmt..Write$GT$10write_char17hf579e55882c84776E', symObjAddr: 0xE710, symBinAddr: 0x8C640, symSize: 0x20 }
  - { offset: 0x1255B1, size: 0x8, addend: 0x0, symName: __ZN4core3fmt5Write10write_char17h03b55e9feb568e8bE, symObjAddr: 0xBDA0, symBinAddr: 0x89CD0, symSize: 0x100 }
  - { offset: 0x1256F4, size: 0x8, addend: 0x0, symName: __ZN4core3fmt5Write10write_char17h2ccd47db25c1314aE, symObjAddr: 0xBEA0, symBinAddr: 0x89DD0, symSize: 0x100 }
  - { offset: 0x125837, size: 0x8, addend: 0x0, symName: __ZN4core3fmt5Write10write_char17h3a04d65345b3a479E, symObjAddr: 0xBFA0, symBinAddr: 0x89ED0, symSize: 0x100 }
  - { offset: 0x12597A, size: 0x8, addend: 0x0, symName: __ZN4core3fmt5Write10write_char17h4c485737ca4b7f70E, symObjAddr: 0xC0A0, symBinAddr: 0x89FD0, symSize: 0x100 }
  - { offset: 0x125ABD, size: 0x8, addend: 0x0, symName: __ZN4core3fmt5Write9write_fmt17h33af4c7e4a0a5514E, symObjAddr: 0xC1A0, symBinAddr: 0x8A0D0, symSize: 0x20 }
  - { offset: 0x125AED, size: 0x8, addend: 0x0, symName: __ZN4core3fmt5Write9write_fmt17h4194d946504eb89dE, symObjAddr: 0xC1C0, symBinAddr: 0x8A0F0, symSize: 0x20 }
  - { offset: 0x125B1D, size: 0x8, addend: 0x0, symName: __ZN4core3fmt5Write9write_fmt17h7ea8a4efcc82b641E, symObjAddr: 0xC1E0, symBinAddr: 0x8A110, symSize: 0x20 }
  - { offset: 0x125B4D, size: 0x8, addend: 0x0, symName: __ZN4core3fmt5Write9write_fmt17h87132a36a403abcfE, symObjAddr: 0xC200, symBinAddr: 0x8A130, symSize: 0x20 }
  - { offset: 0x125B7D, size: 0x8, addend: 0x0, symName: __ZN4core3fmt5Write9write_fmt17h9b481254f9888f09E, symObjAddr: 0xC220, symBinAddr: 0x8A150, symSize: 0x20 }
  - { offset: 0x125C11, size: 0x8, addend: 0x0, symName: '__ZN43_$LT$bool$u20$as$u20$core..fmt..Display$GT$3fmt17hd8ccdb995a1d2c85E', symObjAddr: 0xE750, symBinAddr: 0x8C680, symSize: 0x40 }
  - { offset: 0x125C7C, size: 0x8, addend: 0x0, symName: __ZN4core3fmt5float29float_to_decimal_common_exact17h52b3d59c0e42bdaaE, symObjAddr: 0x9BC0, symBinAddr: 0x87AF0, symSize: 0x3F0 }
  - { offset: 0x125D58, size: 0x8, addend: 0x0, symName: __ZN4core3fmt5float29float_to_decimal_common_exact17he5f5701825c9a52cE, symObjAddr: 0x9FB0, symBinAddr: 0x87EE0, symSize: 0x3E0 }
  - { offset: 0x125E34, size: 0x8, addend: 0x0, symName: __ZN4core3fmt5float32float_to_decimal_common_shortest17h3a21035507084057E, symObjAddr: 0xA390, symBinAddr: 0x882C0, symSize: 0x2F0 }
  - { offset: 0x125F02, size: 0x8, addend: 0x0, symName: __ZN4core3fmt5float32float_to_decimal_common_shortest17h3d4f9d7859621937E, symObjAddr: 0xA680, symBinAddr: 0x885B0, symSize: 0x2E0 }
  - { offset: 0x125FD0, size: 0x8, addend: 0x0, symName: __ZN4core3fmt5float33float_to_exponential_common_exact17h161d550fb063af64E, symObjAddr: 0xA960, symBinAddr: 0x88890, symSize: 0x3D0 }
  - { offset: 0x1260FB, size: 0x8, addend: 0x0, symName: __ZN4core3fmt5float33float_to_exponential_common_exact17hde5dfe9ba021ff18E, symObjAddr: 0xAD30, symBinAddr: 0x88C60, symSize: 0x3C0 }
  - { offset: 0x126225, size: 0x8, addend: 0x0, symName: __ZN4core3fmt5float36float_to_exponential_common_shortest17h2abdb40503e24c7fE, symObjAddr: 0xB0F0, symBinAddr: 0x89020, symSize: 0x3B0 }
  - { offset: 0x126381, size: 0x8, addend: 0x0, symName: __ZN4core3fmt5float36float_to_exponential_common_shortest17h52746ffa9e9cb46cE, symObjAddr: 0xB4A0, symBinAddr: 0x893D0, symSize: 0x3A0 }
  - { offset: 0x1264E3, size: 0x8, addend: 0x0, symName: '__ZN55_$LT$f32$u20$as$u20$core..fmt..float..GeneralFormat$GT$44already_rounded_value_should_use_exponential17haf03d55cf8ff580aE', symObjAddr: 0x18AC0, symBinAddr: 0x96050, symSize: 0x40 }
  - { offset: 0x126521, size: 0x8, addend: 0x0, symName: '__ZN55_$LT$f64$u20$as$u20$core..fmt..float..GeneralFormat$GT$44already_rounded_value_should_use_exponential17h5acdb41ba1be917aE', symObjAddr: 0x18B00, symBinAddr: 0x96090, symSize: 0x50 }
  - { offset: 0x12656C, size: 0x8, addend: 0x0, symName: '__ZN4core3fmt5float50_$LT$impl$u20$core..fmt..Debug$u20$for$u20$f32$GT$3fmt17ha6d0a7b7059ddb18E', symObjAddr: 0x18B50, symBinAddr: 0x960E0, symSize: 0x80 }
  - { offset: 0x126606, size: 0x8, addend: 0x0, symName: '__ZN4core3fmt5float52_$LT$impl$u20$core..fmt..Display$u20$for$u20$f32$GT$3fmt17h8be50599fb6eccaaE', symObjAddr: 0x18BD0, symBinAddr: 0x96160, symSize: 0x40 }
  - { offset: 0x126675, size: 0x8, addend: 0x0, symName: '__ZN4core3fmt5float53_$LT$impl$u20$core..fmt..LowerExp$u20$for$u20$f32$GT$3fmt17h83646393b63e511eE', symObjAddr: 0x18C10, symBinAddr: 0x961A0, symSize: 0x40 }
  - { offset: 0x1266CF, size: 0x8, addend: 0x0, symName: '__ZN4core3fmt5float53_$LT$impl$u20$core..fmt..UpperExp$u20$for$u20$f32$GT$3fmt17h0e44e2f1e89d1b74E', symObjAddr: 0x18C50, symBinAddr: 0x961E0, symSize: 0x50 }
  - { offset: 0x126736, size: 0x8, addend: 0x0, symName: '__ZN4core3fmt5float50_$LT$impl$u20$core..fmt..Debug$u20$for$u20$f64$GT$3fmt17hc904dfeb80f60b99E', symObjAddr: 0x18CA0, symBinAddr: 0x96230, symSize: 0x90 }
  - { offset: 0x1267D0, size: 0x8, addend: 0x0, symName: '__ZN4core3fmt5float52_$LT$impl$u20$core..fmt..Display$u20$for$u20$f64$GT$3fmt17hce6f5edce18f35cfE', symObjAddr: 0x18D30, symBinAddr: 0x962C0, symSize: 0x40 }
  - { offset: 0x12683F, size: 0x8, addend: 0x0, symName: '__ZN4core3fmt5float53_$LT$impl$u20$core..fmt..LowerExp$u20$for$u20$f64$GT$3fmt17h484019bb001a4928E', symObjAddr: 0x18D70, symBinAddr: 0x96300, symSize: 0x40 }
  - { offset: 0x126899, size: 0x8, addend: 0x0, symName: '__ZN4core3fmt5float53_$LT$impl$u20$core..fmt..UpperExp$u20$for$u20$f64$GT$3fmt17h68ceab9a2908adfbE', symObjAddr: 0x18DB0, symBinAddr: 0x96340, symSize: 0x50 }
  - { offset: 0x126902, size: 0x8, addend: 0x0, symName: '__ZN59_$LT$core..fmt..Arguments$u20$as$u20$core..fmt..Display$GT$3fmt17hd9bdd608949e844aE', symObjAddr: 0xC270, symBinAddr: 0x8A1A0, symSize: 0x20 }
  - { offset: 0x12691D, size: 0x8, addend: 0x0, symName: '__ZN57_$LT$core..fmt..Arguments$u20$as$u20$core..fmt..Debug$GT$3fmt17h061c0036b31495d0E', symObjAddr: 0xC250, symBinAddr: 0x8A180, symSize: 0x20 }
  - { offset: 0x12696C, size: 0x8, addend: 0x0, symName: __ZN4core3fmt5write17h280df61ccf8b4af9E, symObjAddr: 0xC290, symBinAddr: 0x8A1C0, symSize: 0x210 }
  - { offset: 0x126B89, size: 0x8, addend: 0x0, symName: __ZN4core3fmt9Formatter12pad_integral12write_prefix17h77fc2bed097a9521E, symObjAddr: 0xC940, symBinAddr: 0x8A870, symSize: 0x60 }
  - { offset: 0x126BE6, size: 0x8, addend: 0x0, symName: '__ZN42_$LT$$RF$T$u20$as$u20$core..fmt..Debug$GT$3fmt17h11d004444668fde4E', symObjAddr: 0x1B970, symBinAddr: 0x98F00, symSize: 0xF0 }
  - { offset: 0x126D6D, size: 0x8, addend: 0x0, symName: '__ZN42_$LT$$RF$T$u20$as$u20$core..fmt..Debug$GT$3fmt17h4c0c9704a5268f37E', symObjAddr: 0x1BA60, symBinAddr: 0x98FF0, symSize: 0x10 }
  - { offset: 0x126D88, size: 0x8, addend: 0x0, symName: '__ZN42_$LT$$RF$T$u20$as$u20$core..fmt..Debug$GT$3fmt17h515e9fd2a91810bfE', symObjAddr: 0x1BA70, symBinAddr: 0x99000, symSize: 0x20 }
  - { offset: 0x126D9C, size: 0x8, addend: 0x0, symName: '__ZN42_$LT$$RF$T$u20$as$u20$core..fmt..Debug$GT$3fmt17h70328a494354eba7E', symObjAddr: 0x1BA90, symBinAddr: 0x99020, symSize: 0xE0 }
  - { offset: 0x126F2A, size: 0x8, addend: 0x0, symName: '__ZN55_$LT$core..fmt..Error$u20$as$u20$core..fmt..Display$GT$3fmt17h9c170d8fe615c089E', symObjAddr: 0xE730, symBinAddr: 0x8C660, symSize: 0x20 }
  - { offset: 0x126F86, size: 0x8, addend: 0x0, symName: '__ZN40_$LT$str$u20$as$u20$core..fmt..Debug$GT$3fmt17hb72df8a4ad491758E', symObjAddr: 0xE790, symBinAddr: 0x8C6C0, symSize: 0x390 }
  - { offset: 0x127427, size: 0x8, addend: 0x0, symName: '__ZN41_$LT$char$u20$as$u20$core..fmt..Debug$GT$3fmt17hbbcd835e13728f0dE', symObjAddr: 0xEB40, symBinAddr: 0x8CA70, symSize: 0xA0 }
  - { offset: 0x127562, size: 0x8, addend: 0x0, symName: '__ZN43_$LT$char$u20$as$u20$core..fmt..Display$GT$3fmt17h6fc03c83423c66feE', symObjAddr: 0xEBE0, symBinAddr: 0x8CB10, symSize: 0xE0 }
  - { offset: 0x1275E6, size: 0x8, addend: 0x0, symName: __ZN4core3fmt17pointer_fmt_inner17hfedcf3141dbff632E, symObjAddr: 0xECC0, symBinAddr: 0x8CBF0, symSize: 0xB0 }
  - { offset: 0x127737, size: 0x8, addend: 0x0, symName: '__ZN52_$LT$$BP$const$u20$T$u20$as$u20$core..fmt..Debug$GT$3fmt17h1bd402c61f001909E', symObjAddr: 0xED70, symBinAddr: 0x8CCA0, symSize: 0xB0 }
  - { offset: 0x12789B, size: 0x8, addend: 0x0, symName: '__ZN53_$LT$core..fmt..Error$u20$as$u20$core..fmt..Debug$GT$3fmt17hca8101cabe698b64E', symObjAddr: 0x1B950, symBinAddr: 0x98EE0, symSize: 0x20 }
  - { offset: 0x1278D2, size: 0x8, addend: 0x0, symName: '__ZN44_$LT$$RF$T$u20$as$u20$core..fmt..Display$GT$3fmt17h59c878f2d9b1f79fE', symObjAddr: 0x1BB70, symBinAddr: 0x99100, symSize: 0x10 }
  - { offset: 0x1278ED, size: 0x8, addend: 0x0, symName: '__ZN44_$LT$$RF$T$u20$as$u20$core..fmt..Display$GT$3fmt17h8d6ac2b83baa1014E', symObjAddr: 0x1BB80, symBinAddr: 0x99110, symSize: 0x10 }
  - { offset: 0x127908, size: 0x8, addend: 0x0, symName: '__ZN44_$LT$$RF$T$u20$as$u20$core..fmt..Display$GT$3fmt17h9d8fedd316f58c78E', symObjAddr: 0x1BB90, symBinAddr: 0x99120, symSize: 0x20 }
  - { offset: 0x12793A, size: 0x8, addend: 0x0, symName: '__ZN44_$LT$$RF$T$u20$as$u20$core..fmt..Display$GT$3fmt17hca68227e14fce7acE', symObjAddr: 0x1BBB0, symBinAddr: 0x99140, symSize: 0x20 }
  - { offset: 0x127973, size: 0x8, addend: 0x0, symName: '__ZN45_$LT$$RF$T$u20$as$u20$core..fmt..LowerHex$GT$3fmt17hb0c324215bc7c120E', symObjAddr: 0x1BBD0, symBinAddr: 0x99160, symSize: 0x80 }
  - { offset: 0x127AD7, size: 0x8, addend: 0x0, symName: '__ZN69_$LT$core..ffi..c_str..CStr$u20$as$u20$core..clone..CloneToUninit$GT$15clone_to_uninit17ha78b1f2be6db54e5E', symObjAddr: 0x4530, symBinAddr: 0x82B70, symSize: 0x20 }
  - { offset: 0x127F27, size: 0x8, addend: 0x0, symName: __ZN4core6option13unwrap_failed17hf29500f586d6cf5cE, symObjAddr: 0x83E0, symBinAddr: 0x9D6C0, symSize: 0x20 }
  - { offset: 0x127F42, size: 0x8, addend: 0x0, symName: __ZN4core6option13expect_failed17he002e2b4bde1533bE, symObjAddr: 0x8400, symBinAddr: 0x9D6E0, symSize: 0x60 }
  - { offset: 0x128151, size: 0x8, addend: 0x0, symName: '__ZN64_$LT$core..ops..range..RangeFull$u20$as$u20$core..fmt..Debug$GT$3fmt17h747da5f4930f6addE', symObjAddr: 0x45E0, symBinAddr: 0x82C20, symSize: 0x20 }
  - { offset: 0x128189, size: 0x8, addend: 0x0, symName: '__ZN71_$LT$core..ops..range..Range$LT$Idx$GT$$u20$as$u20$core..fmt..Debug$GT$3fmt17hac8c11688b7c865bE', symObjAddr: 0x4600, symBinAddr: 0x82C40, symSize: 0x1E0 }
  - { offset: 0x128776, size: 0x8, addend: 0x0, symName: '__ZN76_$LT$core..mem..transmutability..Assume$u20$as$u20$core..ops..arith..Sub$GT$3sub17h75779cf7c8555b4fE', symObjAddr: 0x4490, symBinAddr: 0x82AD0, symSize: 0x20 }
  - { offset: 0x128CDC, size: 0x8, addend: 0x0, symName: __ZN4core6result13unwrap_failed17hdf549b0ad160787aE, symObjAddr: 0x8B00, symBinAddr: 0x9DC50, symSize: 0x80 }
  - { offset: 0x128D5B, size: 0x8, addend: 0x0, symName: '__ZN57_$LT$core..error..Request$u20$as$u20$core..fmt..Debug$GT$3fmt17h6dec4124df1e845aE', symObjAddr: 0x4550, symBinAddr: 0x82B90, symSize: 0x50 }
  - { offset: 0x128E0A, size: 0x8, addend: 0x0, symName: '__ZN78_$LT$core..error..Source$u20$as$u20$core..iter..traits..iterator..Iterator$GT$4next17ha6c4cbb39a6ae7c7E', symObjAddr: 0x45A0, symBinAddr: 0x82BE0, symSize: 0x40 }
  - { offset: 0x128E61, size: 0x8, addend: 0x0, symName: '__ZN105_$LT$dyn$u20$core..any..Any$u2b$core..marker..Send$u2b$core..marker..Sync$u20$as$u20$core..fmt..Debug$GT$3fmt17hb3093f59b72a8afeE', symObjAddr: 0x47E0, symBinAddr: 0x82E20, symSize: 0x50 }
  - { offset: 0x128F22, size: 0x8, addend: 0x0, symName: '__ZN54_$LT$core..any..TypeId$u20$as$u20$core..fmt..Debug$GT$3fmt17hbfbf6c720f205e0fE', symObjAddr: 0x4830, symBinAddr: 0x82E70, symSize: 0x80 }
  - { offset: 0x12905D, size: 0x8, addend: 0x0, symName: '__ZN73_$LT$core..ascii..ascii_char..AsciiChar$u20$as$u20$core..fmt..Display$GT$3fmt17h8c2aeb43f0d38775E', symObjAddr: 0x48B0, symBinAddr: 0x82EF0, symSize: 0x20 }
  - { offset: 0x129096, size: 0x8, addend: 0x0, symName: '__ZN71_$LT$core..ascii..ascii_char..AsciiChar$u20$as$u20$core..fmt..Debug$GT$3fmt17h5f3d7b80bb335c88E', symObjAddr: 0x48D0, symBinAddr: 0x82F10, symSize: 0x170 }
  - { offset: 0x1290F4, size: 0x8, addend: 0x0, symName: __ZN4core5ascii14escape_default17h3fd18c97d4007afcE, symObjAddr: 0x4A40, symBinAddr: 0x83080, symSize: 0x70 }
  - { offset: 0x12917B, size: 0x8, addend: 0x0, symName: '__ZN65_$LT$core..ascii..EscapeDefault$u20$as$u20$core..fmt..Display$GT$3fmt17hae174aa0536b9d8eE', symObjAddr: 0x4AB0, symBinAddr: 0x830F0, symSize: 0x30 }
  - { offset: 0x129237, size: 0x8, addend: 0x0, symName: '__ZN63_$LT$core..ascii..EscapeDefault$u20$as$u20$core..fmt..Debug$GT$3fmt17hefe415ea0d30a8caE', symObjAddr: 0x4AE0, symBinAddr: 0x83120, symSize: 0x50 }
  - { offset: 0x1295D2, size: 0x8, addend: 0x0, symName: '__ZN59_$LT$core..str..iter..Chars$u20$as$u20$core..fmt..Debug$GT$3fmt17hd2e9ee4fc4c7990fE', symObjAddr: 0x101D0, symBinAddr: 0x8DFE0, symSize: 0x6A0 }
  - { offset: 0x129B3C, size: 0x8, addend: 0x0, symName: '__ZN65_$LT$core..str..iter..EncodeUtf16$u20$as$u20$core..fmt..Debug$GT$3fmt17hb27b74d4b538c079E', symObjAddr: 0x10870, symBinAddr: 0x8E680, symSize: 0x50 }
  - { offset: 0x129C2A, size: 0x8, addend: 0x0, symName: '__ZN67_$LT$core..str..iter..EscapeDebug$u20$as$u20$core..fmt..Display$GT$3fmt17h6c184c1102382a3bE', symObjAddr: 0x1BE10, symBinAddr: 0x991E0, symSize: 0x9A0 }
  - { offset: 0x12A645, size: 0x8, addend: 0x0, symName: '__ZN69_$LT$core..str..iter..EscapeDefault$u20$as$u20$core..fmt..Display$GT$3fmt17hc685053363eaa6dcE', symObjAddr: 0x1C7B0, symBinAddr: 0x99B80, symSize: 0x450 }
  - { offset: 0x12AC86, size: 0x8, addend: 0x0, symName: '__ZN69_$LT$core..str..iter..EscapeUnicode$u20$as$u20$core..fmt..Display$GT$3fmt17h0858a531ea1f6d01E', symObjAddr: 0x1CC00, symBinAddr: 0x99FD0, symSize: 0x2F0 }
  - { offset: 0x12B27D, size: 0x8, addend: 0x0, symName: __ZN4core3str5count14do_count_chars17h4f22857b6d264013E, symObjAddr: 0xFA90, symBinAddr: 0x8D8A0, symSize: 0x5B0 }
  - { offset: 0x12B641, size: 0x8, addend: 0x0, symName: __ZN4core3str5count23char_count_general_case17h1751330612ec7ddbE, symObjAddr: 0x10040, symBinAddr: 0x8DE50, symSize: 0xB0 }
  - { offset: 0x12B69B, size: 0x8, addend: 0x0, symName: __ZN4core3str5count23char_count_general_case17h1751330612ec7ddbE, symObjAddr: 0x10040, symBinAddr: 0x8DE50, symSize: 0xB0 }
  - { offset: 0x12B7C3, size: 0x8, addend: 0x0, symName: __ZN4core3str7pattern11StrSearcher3new17hf69e0ed7b6a28da8E, symObjAddr: 0x10900, symBinAddr: 0x8E6D0, symSize: 0x640 }
  - { offset: 0x12BAE5, size: 0x8, addend: 0x0, symName: '__ZN4core3str21_$LT$impl$u20$str$GT$9from_utf817ha6badb9c0061475bE', symObjAddr: 0x11A60, symBinAddr: 0x8F7E0, symSize: 0x20 }
  - { offset: 0x12BAFF, size: 0x8, addend: 0x0, symName: '__ZN4core3str21_$LT$impl$u20$str$GT$13from_utf8_mut17hee0da7d1f6b08a21E', symObjAddr: 0x11A80, symBinAddr: 0x8F800, symSize: 0x20 }
  - { offset: 0x12BB1A, size: 0x8, addend: 0x0, symName: '__ZN4core3str21_$LT$impl$u20$str$GT$18split_at_unchecked17h25fe35157ae051bfE', symObjAddr: 0x11AA0, symBinAddr: 0x8F820, symSize: 0x20 }
  - { offset: 0x12BB4C, size: 0x8, addend: 0x0, symName: '__ZN4core3str21_$LT$impl$u20$str$GT$22split_at_mut_unchecked17h9807d4dddf5510d8E', symObjAddr: 0x11AC0, symBinAddr: 0x8F840, symSize: 0x20 }
  - { offset: 0x12BBA1, size: 0x8, addend: 0x0, symName: '__ZN4core3str21_$LT$impl$u20$str$GT$12escape_debug17ha21d44569940e882E', symObjAddr: 0x11AE0, symBinAddr: 0x8F860, symSize: 0xE0 }
  - { offset: 0x12BD14, size: 0x8, addend: 0x0, symName: '__ZN4core3str21_$LT$impl$u20$str$GT$12substr_range17h73e4164bb5ba0db8E', symObjAddr: 0x11BC0, symBinAddr: 0x8F940, symSize: 0x40 }
  - { offset: 0x12BE5C, size: 0x8, addend: 0x0, symName: __ZN4core3str6traits23str_index_overflow_fail17hfcd9b00eb85d6cd1E, symObjAddr: 0x108C0, symBinAddr: 0x9DDF0, symSize: 0x40 }
  - { offset: 0x12BEB6, size: 0x8, addend: 0x0, symName: __ZN4core3str8converts9from_utf817hacc822a03fae80c2E, symObjAddr: 0xF670, symBinAddr: 0x8D480, symSize: 0x210 }
  - { offset: 0x12BF09, size: 0x8, addend: 0x0, symName: __ZN4core3str8converts13from_utf8_mut17h00cbbbbfe77e929cE, symObjAddr: 0xF880, symBinAddr: 0x8D690, symSize: 0x210 }
  - { offset: 0x12BF76, size: 0x8, addend: 0x0, symName: '__ZN66_$LT$core..str..error..Utf8Error$u20$as$u20$core..fmt..Display$GT$3fmt17ha98a298f8315e381E', symObjAddr: 0x100F0, symBinAddr: 0x8DF00, symSize: 0xC0 }
  - { offset: 0x12BFDC, size: 0x8, addend: 0x0, symName: '__ZN71_$LT$core..str..error..ParseBoolError$u20$as$u20$core..fmt..Display$GT$3fmt17h5ca62f2a93f13517E', symObjAddr: 0x101B0, symBinAddr: 0x8DFC0, symSize: 0x20 }
  - { offset: 0x12C01A, size: 0x8, addend: 0x0, symName: '__ZN60_$LT$core..str..lossy..Debug$u20$as$u20$core..fmt..Debug$GT$3fmt17h4fb6e64bbcb3e6a0E', symObjAddr: 0x10F40, symBinAddr: 0x8ED10, symSize: 0x490 }
  - { offset: 0x12C41B, size: 0x8, addend: 0x0, symName: '__ZN87_$LT$core..str..lossy..Utf8Chunks$u20$as$u20$core..iter..traits..iterator..Iterator$GT$4next17hc14d7c49fa88a2a6E', symObjAddr: 0x113D0, symBinAddr: 0x8F1A0, symSize: 0x1A0 }
  - { offset: 0x12C64F, size: 0x8, addend: 0x0, symName: '__ZN65_$LT$core..str..lossy..Utf8Chunks$u20$as$u20$core..fmt..Debug$GT$3fmt17h8d94167ed0262ff5E', symObjAddr: 0x11570, symBinAddr: 0x8F340, symSize: 0xC0 }
  - { offset: 0x12C75D, size: 0x8, addend: 0x0, symName: __ZN4core3str16slice_error_fail17h8f83fb35f518f767E, symObjAddr: 0x11630, symBinAddr: 0x9DE30, symSize: 0x10 }
  - { offset: 0x12C777, size: 0x8, addend: 0x0, symName: __ZN4core3str19slice_error_fail_ct17h6c9ce4be8b2b7835E, symObjAddr: 0x11640, symBinAddr: 0x9DE40, symSize: 0x40 }
  - { offset: 0x12C7A7, size: 0x8, addend: 0x0, symName: __ZN4core3str19slice_error_fail_rt17h91450754561fe325E, symObjAddr: 0x11680, symBinAddr: 0x8F400, symSize: 0x3E0 }
  - { offset: 0x12CB45, size: 0x8, addend: 0x0, symName: '__ZN4core4char7methods22_$LT$impl$u20$char$GT$16escape_debug_ext17hd698323264427f50E', symObjAddr: 0x5630, symBinAddr: 0x83B60, symSize: 0x2D0 }
  - { offset: 0x12CE66, size: 0x8, addend: 0x0, symName: __ZN4core4char7methods15encode_utf8_raw8do_panic7runtime17h6459a163df7fb1edE, symObjAddr: 0x177E0, symBinAddr: 0x9DFD0, symSize: 0x90 }
  - { offset: 0x12CEA6, size: 0x8, addend: 0x0, symName: __ZN4core4char7methods16encode_utf16_raw8do_panic7runtime17h7f6dc705dddec99fE, symObjAddr: 0x17870, symBinAddr: 0x9E060, symSize: 0x90 }
  - { offset: 0x12CEFB, size: 0x8, addend: 0x0, symName: '__ZN74_$LT$core..char..convert..ParseCharError$u20$as$u20$core..fmt..Display$GT$3fmt17hd26f8f8e8bb9fb69E', symObjAddr: 0x5570, symBinAddr: 0x83AA0, symSize: 0x40 }
  - { offset: 0x12CF69, size: 0x8, addend: 0x0, symName: '__ZN76_$LT$core..char..convert..CharTryFromError$u20$as$u20$core..fmt..Display$GT$3fmt17h8b4a700747e97ab2E', symObjAddr: 0x55B0, symBinAddr: 0x83AE0, symSize: 0x20 }
  - { offset: 0x12CFF7, size: 0x8, addend: 0x0, symName: '__ZN75_$LT$core..char..decode..DecodeUtf16Error$u20$as$u20$core..fmt..Display$GT$3fmt17h08d2cf8ccc8efa41E', symObjAddr: 0x55D0, symBinAddr: 0x83B00, symSize: 0x60 }
  - { offset: 0x12D094, size: 0x8, addend: 0x0, symName: '__ZN64_$LT$core..char..EscapeDefault$u20$as$u20$core..fmt..Display$GT$3fmt17h10e49e625771d6d9E', symObjAddr: 0x5900, symBinAddr: 0x83E30, symSize: 0x30 }
  - { offset: 0x12D153, size: 0x8, addend: 0x0, symName: '__ZN62_$LT$core..char..EscapeDebug$u20$as$u20$core..fmt..Display$GT$3fmt17hb15f0bc557daf90dE', symObjAddr: 0x5930, symBinAddr: 0x83E60, symSize: 0x40 }
  - { offset: 0x12D22F, size: 0x8, addend: 0x0, symName: '__ZN86_$LT$core..char..CaseMappingIter$u20$as$u20$core..iter..traits..iterator..Iterator$GT$4next17h4c9c84973ab07392E', symObjAddr: 0x5970, symBinAddr: 0x83EA0, symSize: 0x20 }
  - { offset: 0x12D363, size: 0x8, addend: 0x0, symName: '__ZN86_$LT$core..char..CaseMappingIter$u20$as$u20$core..iter..traits..iterator..Iterator$GT$5count17h3dec332297a4743aE', symObjAddr: 0x5990, symBinAddr: 0x83EC0, symSize: 0x10 }
  - { offset: 0x12D3D2, size: 0x8, addend: 0x0, symName: '__ZN86_$LT$core..char..CaseMappingIter$u20$as$u20$core..iter..traits..iterator..Iterator$GT$4last17h7769acdb94da6437E', symObjAddr: 0x59A0, symBinAddr: 0x83ED0, symSize: 0x40 }
  - { offset: 0x12D4DD, size: 0x8, addend: 0x0, symName: '__ZN86_$LT$core..char..CaseMappingIter$u20$as$u20$core..iter..traits..iterator..Iterator$GT$10advance_by17h7398ada772629eb9E', symObjAddr: 0x59E0, symBinAddr: 0x83F10, symSize: 0x30 }
  - { offset: 0x12D577, size: 0x8, addend: 0x0, symName: '__ZN86_$LT$core..char..CaseMappingIter$u20$as$u20$core..iter..traits..iterator..Iterator$GT$24__iterator_get_unchecked17hc463502bdd57a5d2E', symObjAddr: 0x5A10, symBinAddr: 0x83F40, symSize: 0x20 }
  - { offset: 0x12D65D, size: 0x8, addend: 0x0, symName: '__ZN101_$LT$core..char..CaseMappingIter$u20$as$u20$core..iter..traits..double_ended..DoubleEndedIterator$GT$9next_back17he746822bd28b722cE', symObjAddr: 0x5A30, symBinAddr: 0x83F60, symSize: 0x20 }
  - { offset: 0x12D792, size: 0x8, addend: 0x0, symName: '__ZN101_$LT$core..char..CaseMappingIter$u20$as$u20$core..iter..traits..double_ended..DoubleEndedIterator$GT$15advance_back_by17h1426312aec051b74E', symObjAddr: 0x5A50, symBinAddr: 0x83F80, symSize: 0x30 }
  - { offset: 0x12D864, size: 0x8, addend: 0x0, symName: '__ZN67_$LT$core..char..TryFromCharError$u20$as$u20$core..fmt..Display$GT$3fmt17hbbf385c1951156e9E', symObjAddr: 0x5A80, symBinAddr: 0x83FB0, symSize: 0x20 }
  - { offset: 0x12D8E3, size: 0x8, addend: 0x0, symName: '__ZN82_$LT$core..char..ToLowercase$u20$as$u20$core..iter..traits..iterator..Iterator$GT$4next17h84025fee4a94f0c7E', symObjAddr: 0x17900, symBinAddr: 0x95410, symSize: 0x20 }
  - { offset: 0x12DA35, size: 0x8, addend: 0x0, symName: '__ZN82_$LT$core..char..ToLowercase$u20$as$u20$core..iter..traits..iterator..Iterator$GT$5count17hfccfe637c179660bE', symObjAddr: 0x17920, symBinAddr: 0x95430, symSize: 0x10 }
  - { offset: 0x12DAC2, size: 0x8, addend: 0x0, symName: '__ZN82_$LT$core..char..ToLowercase$u20$as$u20$core..iter..traits..iterator..Iterator$GT$4last17h1c54fab790b9bfd7E', symObjAddr: 0x17930, symBinAddr: 0x95440, symSize: 0x40 }
  - { offset: 0x12DBEB, size: 0x8, addend: 0x0, symName: '__ZN82_$LT$core..char..ToLowercase$u20$as$u20$core..iter..traits..iterator..Iterator$GT$10advance_by17he52bb2195ca3d613E', symObjAddr: 0x17970, symBinAddr: 0x95480, symSize: 0x30 }
  - { offset: 0x12DCA3, size: 0x8, addend: 0x0, symName: '__ZN82_$LT$core..char..ToLowercase$u20$as$u20$core..iter..traits..iterator..Iterator$GT$24__iterator_get_unchecked17h5af89e22c8ed24b5E', symObjAddr: 0x179A0, symBinAddr: 0x954B0, symSize: 0x20 }
  - { offset: 0x12DD61, size: 0x8, addend: 0x0, symName: '__ZN97_$LT$core..char..ToLowercase$u20$as$u20$core..iter..traits..double_ended..DoubleEndedIterator$GT$9next_back17hff9f714304db90e1E', symObjAddr: 0x179C0, symBinAddr: 0x954D0, symSize: 0x20 }
  - { offset: 0x12DEB4, size: 0x8, addend: 0x0, symName: '__ZN97_$LT$core..char..ToLowercase$u20$as$u20$core..iter..traits..double_ended..DoubleEndedIterator$GT$15advance_back_by17h4b17201c2c3e0713E', symObjAddr: 0x179E0, symBinAddr: 0x954F0, symSize: 0x30 }
  - { offset: 0x12DF9D, size: 0x8, addend: 0x0, symName: '__ZN62_$LT$core..char..ToLowercase$u20$as$u20$core..fmt..Display$GT$3fmt17h849aabfd5087f8e6E', symObjAddr: 0x17A10, symBinAddr: 0x95520, symSize: 0xB0 }
  - { offset: 0x12E2C9, size: 0x8, addend: 0x0, symName: '__ZN56_$LT$core..bstr..ByteStr$u20$as$u20$core..fmt..Debug$GT$3fmt17hdf13f524e248f1c2E', symObjAddr: 0x4B30, symBinAddr: 0x83170, symSize: 0x350 }
  - { offset: 0x12E53E, size: 0x8, addend: 0x0, symName: '__ZN58_$LT$core..bstr..ByteStr$u20$as$u20$core..fmt..Display$GT$3fmt17h038d464bdf408742E', symObjAddr: 0x4E80, symBinAddr: 0x834C0, symSize: 0x560 }
  - { offset: 0x12E921, size: 0x8, addend: 0x0, symName: __ZN4core4cell4lazy14panic_poisoned17hec525e90538f7e4aE, symObjAddr: 0x53E0, symBinAddr: 0x9D5B0, symSize: 0x50 }
  - { offset: 0x12E95A, size: 0x8, addend: 0x0, symName: '__ZN60_$LT$core..cell..BorrowError$u20$as$u20$core..fmt..Debug$GT$3fmt17h6d9feddccf287889E', symObjAddr: 0x5430, symBinAddr: 0x83A20, symSize: 0x20 }
  - { offset: 0x12E9C0, size: 0x8, addend: 0x0, symName: '__ZN62_$LT$core..cell..BorrowError$u20$as$u20$core..fmt..Display$GT$3fmt17h1790fccea1987890E', symObjAddr: 0x5450, symBinAddr: 0x83A40, symSize: 0x20 }
  - { offset: 0x12E9F9, size: 0x8, addend: 0x0, symName: '__ZN63_$LT$core..cell..BorrowMutError$u20$as$u20$core..fmt..Debug$GT$3fmt17hf28cab1431c94a9aE', symObjAddr: 0x5470, symBinAddr: 0x83A60, symSize: 0x20 }
  - { offset: 0x12EA5F, size: 0x8, addend: 0x0, symName: '__ZN65_$LT$core..cell..BorrowMutError$u20$as$u20$core..fmt..Display$GT$3fmt17h3a254ccd1d71aec1E', symObjAddr: 0x5490, symBinAddr: 0x83A80, symSize: 0x20 }
  - { offset: 0x12EA92, size: 0x8, addend: 0x0, symName: __ZN4core4cell22panic_already_borrowed17h4cbe3bba76583688E, symObjAddr: 0x54B0, symBinAddr: 0x9D600, symSize: 0x60 }
  - { offset: 0x12EAC5, size: 0x8, addend: 0x0, symName: __ZN4core4cell30panic_already_mutably_borrowed17hd81e27d9fe769e11E, symObjAddr: 0x5510, symBinAddr: 0x9D660, symSize: 0x60 }
  - { offset: 0x12EB19, size: 0x8, addend: 0x0, symName: __ZN4core7unicode12unicode_data15grapheme_extend11lookup_slow17h508e31d2a62a323fE, symObjAddr: 0x1D200, symBinAddr: 0x9A5D0, symSize: 0x100 }
  - { offset: 0x12EE22, size: 0x8, addend: 0x0, symName: __ZN4core7unicode12unicode_data10alphabetic6lookup17ha445e50d579f4f5eE, symObjAddr: 0x1CEF0, symBinAddr: 0x9A2C0, symSize: 0x100 }
  - { offset: 0x12F017, size: 0x8, addend: 0x0, symName: __ZN4core7unicode12unicode_data14case_ignorable6lookup17h52c3a4bd88132471E, symObjAddr: 0x1CFF0, symBinAddr: 0x9A3C0, symSize: 0x100 }
  - { offset: 0x12F20E, size: 0x8, addend: 0x0, symName: __ZN4core7unicode12unicode_data5cased6lookup17h9d2a0ff6d341cc12E, symObjAddr: 0x1D0F0, symBinAddr: 0x9A4C0, symSize: 0xF0 }
  - { offset: 0x12F405, size: 0x8, addend: 0x0, symName: __ZN4core7unicode12unicode_data2cc6lookup17h028346bfc7ec013cE, symObjAddr: 0x1D1E0, symBinAddr: 0x9A5B0, symSize: 0x20 }
  - { offset: 0x12F458, size: 0x8, addend: 0x0, symName: __ZN4core7unicode12unicode_data9lowercase6lookup17hef477121526da69eE, symObjAddr: 0x1D300, symBinAddr: 0x9A6D0, symSize: 0xE0 }
  - { offset: 0x12F4AC, size: 0x8, addend: 0x0, symName: __ZN4core7unicode12unicode_data1n6lookup17hc8a9426843bad030E, symObjAddr: 0x1D3E0, symBinAddr: 0x9A7B0, symSize: 0x100 }
  - { offset: 0x12F6A3, size: 0x8, addend: 0x0, symName: __ZN4core7unicode12unicode_data9uppercase6lookup17hd86956329fa8ce07E, symObjAddr: 0x1D4E0, symBinAddr: 0x9A8B0, symSize: 0xE0 }
  - { offset: 0x12F6FF, size: 0x8, addend: 0x0, symName: __ZN4core7unicode12unicode_data11conversions8to_lower17h261394070cb61928E, symObjAddr: 0x1D5C0, symBinAddr: 0x9A990, symSize: 0x140 }
  - { offset: 0x12F71E, size: 0x8, addend: 0x0, symName: __ZN4core7unicode12unicode_data11conversions8to_lower17h261394070cb61928E, symObjAddr: 0x1D5C0, symBinAddr: 0x9A990, symSize: 0x140 }
  - { offset: 0x12F86D, size: 0x8, addend: 0x0, symName: __ZN4core7unicode12unicode_data11conversions8to_upper17h88a1faffaf6791b5E, symObjAddr: 0x1D700, symBinAddr: 0x9AAD0, symSize: 0x151 }
  - { offset: 0x12F88C, size: 0x8, addend: 0x0, symName: __ZN4core7unicode12unicode_data11conversions8to_upper17h88a1faffaf6791b5E, symObjAddr: 0x1D700, symBinAddr: 0x9AAD0, symSize: 0x151 }
  - { offset: 0x12FA2B, size: 0x8, addend: 0x0, symName: __ZN4core7unicode9printable5check17he88b6413c6884d84E, symObjAddr: 0x12580, symBinAddr: 0x90300, symSize: 0x110 }
  - { offset: 0x12FC97, size: 0x8, addend: 0x0, symName: __ZN4core7unicode9printable12is_printable17habfde87812656284E, symObjAddr: 0x12690, symBinAddr: 0x90410, symSize: 0x130 }
  - { offset: 0x12FCC5, size: 0x8, addend: 0x0, symName: '__ZN79_$LT$core..ffi..c_str..FromBytesUntilNulError$u20$as$u20$core..fmt..Display$GT$3fmt17hff86c3edbe2121e1E', symObjAddr: 0x5AA0, symBinAddr: 0x83FD0, symSize: 0x20 }
  - { offset: 0x12FCFD, size: 0x8, addend: 0x0, symName: '__ZN59_$LT$core..ffi..c_str..CStr$u20$as$u20$core..fmt..Debug$GT$3fmt17h9c6477a2f154f203E', symObjAddr: 0x5AC0, symBinAddr: 0x83FF0, symSize: 0x80 }
  - { offset: 0x12FDB8, size: 0x8, addend: 0x0, symName: '__ZN78_$LT$core..ffi..c_str..FromBytesWithNulError$u20$as$u20$core..fmt..Display$GT$3fmt17hd2f2b711ea92f4d6E', symObjAddr: 0x5B40, symBinAddr: 0x84070, symSize: 0xB0 }
  - { offset: 0x12FDD6, size: 0x8, addend: 0x0, symName: '__ZN78_$LT$core..ffi..c_str..FromBytesWithNulError$u20$as$u20$core..fmt..Display$GT$3fmt17hd2f2b711ea92f4d6E', symObjAddr: 0x5B40, symBinAddr: 0x84070, symSize: 0xB0 }
  - { offset: 0x12FE5B, size: 0x8, addend: 0x0, symName: __ZN4core3ffi5c_str4CStr20from_bytes_until_nul17h389758ca1b54da3fE, symObjAddr: 0x5BF0, symBinAddr: 0x84120, symSize: 0xF0 }
  - { offset: 0x12FF1B, size: 0x8, addend: 0x0, symName: __ZN4core3ffi5c_str4CStr19from_bytes_with_nul17h41c619bac8653a68E, symObjAddr: 0x5CE0, symBinAddr: 0x84210, symSize: 0x120 }
  - { offset: 0x130009, size: 0x8, addend: 0x0, symName: __ZN4core3ffi5c_str4CStr6to_str17h632eb8dca13e0e6dE, symObjAddr: 0x5E00, symBinAddr: 0x84330, symSize: 0x20 }
  - { offset: 0x130043, size: 0x8, addend: 0x0, symName: '__ZN54_$LT$core..ffi..c_void$u20$as$u20$core..fmt..Debug$GT$3fmt17h9256e60a05effcedE', symObjAddr: 0x5E20, symBinAddr: 0x84350, symSize: 0x20 }
  - { offset: 0x1300C8, size: 0x8, addend: 0x0, symName: '__ZN72_$LT$core..io..borrowed_buf..BorrowedBuf$u20$as$u20$core..fmt..Debug$GT$3fmt17hdb454f1af5058a18E', symObjAddr: 0x5E40, symBinAddr: 0x84370, symSize: 0x100 }
  - { offset: 0x1301E5, size: 0x8, addend: 0x0, symName: '__ZN86_$LT$core..net..display_buffer..DisplayBuffer$LT$_$GT$$u20$as$u20$core..fmt..Write$GT$9write_str17h1bbab9233ca7e01cE', symObjAddr: 0x5F40, symBinAddr: 0x84470, symSize: 0x50 }
  - { offset: 0x1302AC, size: 0x8, addend: 0x0, symName: '__ZN86_$LT$core..net..display_buffer..DisplayBuffer$LT$_$GT$$u20$as$u20$core..fmt..Write$GT$9write_str17h26df781aba3db613E', symObjAddr: 0x5F90, symBinAddr: 0x844C0, symSize: 0x50 }
  - { offset: 0x130373, size: 0x8, addend: 0x0, symName: '__ZN86_$LT$core..net..display_buffer..DisplayBuffer$LT$_$GT$$u20$as$u20$core..fmt..Write$GT$9write_str17h605e719a486f6696E', symObjAddr: 0x5FE0, symBinAddr: 0x84510, symSize: 0x50 }
  - { offset: 0x13043A, size: 0x8, addend: 0x0, symName: '__ZN86_$LT$core..net..display_buffer..DisplayBuffer$LT$_$GT$$u20$as$u20$core..fmt..Write$GT$9write_str17heed9d4f489ef152cE', symObjAddr: 0x6030, symBinAddr: 0x84560, symSize: 0x50 }
  - { offset: 0x1305B2, size: 0x8, addend: 0x0, symName: '__ZN65_$LT$core..net..ip_addr..IpAddr$u20$as$u20$core..fmt..Display$GT$3fmt17hedfcf075978d63feE', symObjAddr: 0x6080, symBinAddr: 0x845B0, symSize: 0x20 }
  - { offset: 0x1305DB, size: 0x8, addend: 0x0, symName: '__ZN63_$LT$core..net..ip_addr..IpAddr$u20$as$u20$core..fmt..Debug$GT$3fmt17h18572404f91711c3E', symObjAddr: 0x60A0, symBinAddr: 0x845D0, symSize: 0x20 }
  - { offset: 0x130622, size: 0x8, addend: 0x0, symName: '__ZN4core3net6parser46_$LT$impl$u20$core..net..ip_addr..Ipv4Addr$GT$11parse_ascii17h0485c70d8defa2a8E', symObjAddr: 0x7890, symBinAddr: 0x85DC0, symSize: 0x70 }
  - { offset: 0x130693, size: 0x8, addend: 0x0, symName: '__ZN67_$LT$core..net..ip_addr..Ipv4Addr$u20$as$u20$core..fmt..Display$GT$3fmt17h005da8800c1f5682E', symObjAddr: 0x60C0, symBinAddr: 0x845F0, symSize: 0x190 }
  - { offset: 0x1307A8, size: 0x8, addend: 0x0, symName: '__ZN65_$LT$core..net..ip_addr..Ipv4Addr$u20$as$u20$core..fmt..Debug$GT$3fmt17he34464ab11542a00E', symObjAddr: 0x6250, symBinAddr: 0x84780, symSize: 0x10 }
  - { offset: 0x130802, size: 0x8, addend: 0x0, symName: '__ZN4core3net6parser46_$LT$impl$u20$core..net..ip_addr..Ipv6Addr$GT$11parse_ascii17h944737b9bbb457e6E', symObjAddr: 0x7970, symBinAddr: 0x85EA0, symSize: 0x60 }
  - { offset: 0x13088F, size: 0x8, addend: 0x0, symName: '__ZN67_$LT$core..net..ip_addr..Ipv6Addr$u20$as$u20$core..fmt..Display$GT$3fmt12fmt_subslice17h3cd13486013c387fE', symObjAddr: 0x6B10, symBinAddr: 0x85040, symSize: 0x130 }
  - { offset: 0x1308A7, size: 0x8, addend: 0x0, symName: '__ZN67_$LT$core..net..ip_addr..Ipv6Addr$u20$as$u20$core..fmt..Display$GT$3fmt12fmt_subslice17h3cd13486013c387fE', symObjAddr: 0x6B10, symBinAddr: 0x85040, symSize: 0x130 }
  - { offset: 0x1309E2, size: 0x8, addend: 0x0, symName: '__ZN67_$LT$core..net..ip_addr..Ipv6Addr$u20$as$u20$core..fmt..Display$GT$3fmt17hdda669d7398a505dE', symObjAddr: 0x6260, symBinAddr: 0x84790, symSize: 0x8B0 }
  - { offset: 0x130D65, size: 0x8, addend: 0x0, symName: '__ZN65_$LT$core..net..ip_addr..Ipv6Addr$u20$as$u20$core..fmt..Debug$GT$3fmt17hc2a71aee2f843c03E', symObjAddr: 0x6C40, symBinAddr: 0x85170, symSize: 0x10 }
  - { offset: 0x130D9C, size: 0x8, addend: 0x0, symName: '__ZN4core3net6parser44_$LT$impl$u20$core..net..ip_addr..IpAddr$GT$11parse_ascii17hf1dd363ac2a1ff4bE', symObjAddr: 0x7750, symBinAddr: 0x85C80, symSize: 0xA0 }
  - { offset: 0x130E74, size: 0x8, addend: 0x0, symName: '__ZN77_$LT$core..net..ip_addr..Ipv4Addr$u20$as$u20$core..ops..bit..BitAndAssign$GT$13bitand_assign17h715b0aa684a8864dE', symObjAddr: 0x17AC0, symBinAddr: 0x955D0, symSize: 0x20 }
  - { offset: 0x130F2E, size: 0x8, addend: 0x0, symName: '__ZN117_$LT$core..net..ip_addr..Ipv4Addr$u20$as$u20$core..ops..bit..BitAndAssign$LT$$RF$core..net..ip_addr..Ipv4Addr$GT$$GT$13bitand_assign17h2c881a609167c2a8E', symObjAddr: 0x17AE0, symBinAddr: 0x955F0, symSize: 0x20 }
  - { offset: 0x130FF8, size: 0x8, addend: 0x0, symName: '__ZN76_$LT$core..net..ip_addr..Ipv4Addr$u20$as$u20$core..ops..bit..BitOrAssign$GT$12bitor_assign17h357295a8b551541cE', symObjAddr: 0x17B00, symBinAddr: 0x95610, symSize: 0x20 }
  - { offset: 0x1310B2, size: 0x8, addend: 0x0, symName: '__ZN116_$LT$core..net..ip_addr..Ipv4Addr$u20$as$u20$core..ops..bit..BitOrAssign$LT$$RF$core..net..ip_addr..Ipv4Addr$GT$$GT$12bitor_assign17h97bc56099101d0b8E', symObjAddr: 0x17B20, symBinAddr: 0x95630, symSize: 0x20 }
  - { offset: 0x13117C, size: 0x8, addend: 0x0, symName: '__ZN77_$LT$core..net..ip_addr..Ipv6Addr$u20$as$u20$core..ops..bit..BitAndAssign$GT$13bitand_assign17h641d9167edcafaa5E', symObjAddr: 0x17B40, symBinAddr: 0x95650, symSize: 0x50 }
  - { offset: 0x1311DE, size: 0x8, addend: 0x0, symName: '__ZN117_$LT$core..net..ip_addr..Ipv6Addr$u20$as$u20$core..ops..bit..BitAndAssign$LT$$RF$core..net..ip_addr..Ipv6Addr$GT$$GT$13bitand_assign17h9f28049fcd48fceaE', symObjAddr: 0x17B90, symBinAddr: 0x956A0, symSize: 0x20 }
  - { offset: 0x131270, size: 0x8, addend: 0x0, symName: '__ZN76_$LT$core..net..ip_addr..Ipv6Addr$u20$as$u20$core..ops..bit..BitOrAssign$GT$12bitor_assign17h7c14e0d24ccff395E', symObjAddr: 0x17BB0, symBinAddr: 0x956C0, symSize: 0x50 }
  - { offset: 0x1312D2, size: 0x8, addend: 0x0, symName: '__ZN116_$LT$core..net..ip_addr..Ipv6Addr$u20$as$u20$core..ops..bit..BitOrAssign$LT$$RF$core..net..ip_addr..Ipv6Addr$GT$$GT$12bitor_assign17h645810a70bd46e17E', symObjAddr: 0x17C00, symBinAddr: 0x95710, symSize: 0x20 }
  - { offset: 0x131414, size: 0x8, addend: 0x0, symName: __ZN4core3net6parser6Parser14read_ipv4_addr17hfe56036bb4215817E, symObjAddr: 0x6EB0, symBinAddr: 0x853E0, symSize: 0x3C0 }
  - { offset: 0x1315DB, size: 0x8, addend: 0x0, symName: __ZN4core3net6parser6Parser14read_ipv6_addr17h5030dfa3c96f4b58E, symObjAddr: 0x7270, symBinAddr: 0x857A0, symSize: 0x130 }
  - { offset: 0x131A1F, size: 0x8, addend: 0x0, symName: __ZN4core3net6parser6Parser19read_socket_addr_v617h22ecce0f0d3fd662E, symObjAddr: 0x7590, symBinAddr: 0x85AC0, symSize: 0x1C0 }
  - { offset: 0x1320D3, size: 0x8, addend: 0x0, symName: '__ZN4core3net6parser6Parser11read_number28_$u7b$$u7b$closure$u7d$$u7d$17h626c991bd5af5cddE', symObjAddr: 0x6C50, symBinAddr: 0x85180, symSize: 0x260 }
  - { offset: 0x13236A, size: 0x8, addend: 0x0, symName: __ZN4core3net6parser6Parser14read_ipv6_addr11read_groups17h6677b54e148cf92dE, symObjAddr: 0x73A0, symBinAddr: 0x858D0, symSize: 0x1F0 }
  - { offset: 0x13274A, size: 0x8, addend: 0x0, symName: '__ZN4core3net6parser83_$LT$impl$u20$core..str..traits..FromStr$u20$for$u20$core..net..ip_addr..IpAddr$GT$8from_str17h9c5d761e47afa2eeE', symObjAddr: 0x77F0, symBinAddr: 0x85D20, symSize: 0xA0 }
  - { offset: 0x13284E, size: 0x8, addend: 0x0, symName: '__ZN4core3net6parser85_$LT$impl$u20$core..str..traits..FromStr$u20$for$u20$core..net..ip_addr..Ipv4Addr$GT$8from_str17h606c8adc66962c19E', symObjAddr: 0x7900, symBinAddr: 0x85E30, symSize: 0x70 }
  - { offset: 0x13286D, size: 0x8, addend: 0x0, symName: '__ZN4core3net6parser85_$LT$impl$u20$core..str..traits..FromStr$u20$for$u20$core..net..ip_addr..Ipv4Addr$GT$8from_str17h606c8adc66962c19E', symObjAddr: 0x7900, symBinAddr: 0x85E30, symSize: 0x70 }
  - { offset: 0x1328EB, size: 0x8, addend: 0x0, symName: '__ZN4core3net6parser85_$LT$impl$u20$core..str..traits..FromStr$u20$for$u20$core..net..ip_addr..Ipv6Addr$GT$8from_str17h64f36961d07d0b7fE', symObjAddr: 0x79D0, symBinAddr: 0x85F00, symSize: 0x60 }
  - { offset: 0x132990, size: 0x8, addend: 0x0, symName: '__ZN4core3net6parser93_$LT$impl$u20$core..str..traits..FromStr$u20$for$u20$core..net..socket_addr..SocketAddrV4$GT$8from_str17h63bd949e87088298E', symObjAddr: 0x7B40, symBinAddr: 0x86070, symSize: 0x100 }
  - { offset: 0x132BEA, size: 0x8, addend: 0x0, symName: '__ZN4core3net6parser93_$LT$impl$u20$core..str..traits..FromStr$u20$for$u20$core..net..socket_addr..SocketAddrV6$GT$8from_str17h6124bc82b6ce54b3E', symObjAddr: 0x7CB0, symBinAddr: 0x861E0, symSize: 0x70 }
  - { offset: 0x132C8F, size: 0x8, addend: 0x0, symName: '__ZN4core3net6parser91_$LT$impl$u20$core..str..traits..FromStr$u20$for$u20$core..net..socket_addr..SocketAddr$GT$8from_str17hf85697f46cc69a9cE', symObjAddr: 0x7ED0, symBinAddr: 0x86400, symSize: 0x20 }
  - { offset: 0x132CC6, size: 0x8, addend: 0x0, symName: '__ZN72_$LT$core..net..parser..AddrParseError$u20$as$u20$core..fmt..Display$GT$3fmt17h13ded2a6d3af64beE', symObjAddr: 0x7EF0, symBinAddr: 0x86420, symSize: 0x40 }
  - { offset: 0x132D2A, size: 0x8, addend: 0x0, symName: '__ZN4core3net6parser54_$LT$impl$u20$core..net..socket_addr..SocketAddrV6$GT$11parse_ascii17h9c7ae00e36a180a0E', symObjAddr: 0x7C40, symBinAddr: 0x86170, symSize: 0x70 }
  - { offset: 0x132DCD, size: 0x8, addend: 0x0, symName: '__ZN4core3net6parser54_$LT$impl$u20$core..net..socket_addr..SocketAddrV4$GT$11parse_ascii17hdb42e9c87fcbe129E', symObjAddr: 0x7A30, symBinAddr: 0x85F60, symSize: 0x110 }
  - { offset: 0x13300B, size: 0x8, addend: 0x0, symName: '__ZN4core3net6parser52_$LT$impl$u20$core..net..socket_addr..SocketAddr$GT$11parse_ascii17h014a1dcf0af27288E', symObjAddr: 0x7D20, symBinAddr: 0x86250, symSize: 0x1B0 }
  - { offset: 0x1332B0, size: 0x8, addend: 0x0, symName: '__ZN73_$LT$core..net..socket_addr..SocketAddr$u20$as$u20$core..fmt..Display$GT$3fmt17hfaeea9abe40ba3b8E', symObjAddr: 0x7F30, symBinAddr: 0x86460, symSize: 0x20 }
  - { offset: 0x1332D9, size: 0x8, addend: 0x0, symName: '__ZN71_$LT$core..net..socket_addr..SocketAddr$u20$as$u20$core..fmt..Debug$GT$3fmt17h07e5be5fc85adf5bE', symObjAddr: 0x7F50, symBinAddr: 0x86480, symSize: 0x20 }
  - { offset: 0x133312, size: 0x8, addend: 0x0, symName: '__ZN75_$LT$core..net..socket_addr..SocketAddrV4$u20$as$u20$core..fmt..Display$GT$3fmt17ha7597aeee1f96b83E', symObjAddr: 0x7F70, symBinAddr: 0x864A0, symSize: 0x180 }
  - { offset: 0x133469, size: 0x8, addend: 0x0, symName: '__ZN73_$LT$core..net..socket_addr..SocketAddrV4$u20$as$u20$core..fmt..Debug$GT$3fmt17h99e354b5ac8a6b22E', symObjAddr: 0x80F0, symBinAddr: 0x86620, symSize: 0x10 }
  - { offset: 0x13348B, size: 0x8, addend: 0x0, symName: '__ZN75_$LT$core..net..socket_addr..SocketAddrV6$u20$as$u20$core..fmt..Display$GT$3fmt17h1fe24183c839cbfdE', symObjAddr: 0x8100, symBinAddr: 0x86630, symSize: 0x2D0 }
  - { offset: 0x1336F3, size: 0x8, addend: 0x0, symName: '__ZN73_$LT$core..net..socket_addr..SocketAddrV6$u20$as$u20$core..fmt..Debug$GT$3fmt17h139e549001097563E', symObjAddr: 0x83D0, symBinAddr: 0x86900, symSize: 0x10 }
  - { offset: 0x133725, size: 0x8, addend: 0x0, symName: __ZN4core9panicking9panic_fmt17h53eb849620493f7aE, symObjAddr: 0x8580, symBinAddr: 0x9D740, symSize: 0x20 }
  - { offset: 0x13376A, size: 0x8, addend: 0x0, symName: __ZN4core9panicking18panic_nounwind_fmt17h9359dba5b258b8d6E, symObjAddr: 0x85A0, symBinAddr: 0x9D760, symSize: 0x60 }
  - { offset: 0x1337B1, size: 0x8, addend: 0x0, symName: __ZN4core9panicking5panic17h3efeda31f45f912aE, symObjAddr: 0x8600, symBinAddr: 0x9D7C0, symSize: 0x50 }
  - { offset: 0x1337E1, size: 0x8, addend: 0x0, symName: __ZN4core9panicking14panic_nounwind17h465bcdc81341f023E, symObjAddr: 0x8650, symBinAddr: 0x9D810, symSize: 0x50 }
  - { offset: 0x133811, size: 0x8, addend: 0x0, symName: __ZN4core9panicking26panic_nounwind_nobacktrace17h3ad20c58fcf0fab2E, symObjAddr: 0x86A0, symBinAddr: 0x9D860, symSize: 0x50 }
  - { offset: 0x13384F, size: 0x8, addend: 0x0, symName: __ZN4core9panicking14panic_explicit17hdd5c0a8ac10fa904E, symObjAddr: 0x86F0, symBinAddr: 0x9D8B0, symSize: 0x55 }
  - { offset: 0x133897, size: 0x8, addend: 0x0, symName: __ZN4core9panicking18panic_bounds_check17h04df25f4ae652683E, symObjAddr: 0x8745, symBinAddr: 0x9D905, symSize: 0x5B }
  - { offset: 0x1338C2, size: 0x8, addend: 0x0, symName: __ZN4core9panicking36panic_misaligned_pointer_dereference17h9c5ad71ea31d1baaE, symObjAddr: 0x87A0, symBinAddr: 0x9D960, symSize: 0x63 }
  - { offset: 0x1338F5, size: 0x8, addend: 0x0, symName: __ZN4core9panicking30panic_null_pointer_dereference17h18ea8989d66bf56eE, symObjAddr: 0x8803, symBinAddr: 0x9D9C3, symSize: 0x3A }
  - { offset: 0x133927, size: 0x8, addend: 0x0, symName: __ZN4core9panicking19panic_cannot_unwind17h9f45c3c8d559e0d6E, symObjAddr: 0x883D, symBinAddr: 0x9D9FD, symSize: 0x13 }
  - { offset: 0x133942, size: 0x8, addend: 0x0, symName: __ZN4core9panicking16panic_in_cleanup17h1484f0e51e32e8d2E, symObjAddr: 0x8850, symBinAddr: 0x9DA10, symSize: 0x20 }
  - { offset: 0x13396B, size: 0x8, addend: 0x0, symName: __ZN4core9panicking15const_panic_fmt17hf6af4be70ac531bbE, symObjAddr: 0x8870, symBinAddr: 0x9DA30, symSize: 0x78 }
  - { offset: 0x13398A, size: 0x8, addend: 0x0, symName: __ZN4core9panicking15const_panic_fmt17hf6af4be70ac531bbE, symObjAddr: 0x8870, symBinAddr: 0x9DA30, symSize: 0x78 }
  - { offset: 0x1339CB, size: 0x8, addend: 0x0, symName: __ZN4core9panicking13assert_failed17h0d4a65da1fce300aE, symObjAddr: 0x88E8, symBinAddr: 0x9DAA8, symSize: 0x2F }
  - { offset: 0x1339E6, size: 0x8, addend: 0x0, symName: __ZN4core9panicking13assert_failed17h7888427f30b08653E, symObjAddr: 0x8917, symBinAddr: 0x9DAD7, symSize: 0x39 }
  - { offset: 0x133A0D, size: 0x8, addend: 0x0, symName: '__ZN84_$LT$core..panicking..assert_matches_failed..Pattern$u20$as$u20$core..fmt..Debug$GT$3fmt17h278954e740a1e323E', symObjAddr: 0x8950, symBinAddr: 0x86A30, symSize: 0x1C }
  - { offset: 0x133A41, size: 0x8, addend: 0x0, symName: __ZN4core9panicking19assert_failed_inner17hb618a1b24a610c66E, symObjAddr: 0x896C, symBinAddr: 0x9DB1C, symSize: 0x134 }
  - { offset: 0x133A81, size: 0x8, addend: 0x0, symName: __ZN4core9panicking11panic_const24panic_const_add_overflow17he4eff2803f163d1bE, symObjAddr: 0x17C20, symBinAddr: 0x9E0F0, symSize: 0x40 }
  - { offset: 0x133AB1, size: 0x8, addend: 0x0, symName: __ZN4core9panicking11panic_const24panic_const_sub_overflow17hf0404bc456682e14E, symObjAddr: 0x17C60, symBinAddr: 0x9E130, symSize: 0x40 }
  - { offset: 0x133AE1, size: 0x8, addend: 0x0, symName: __ZN4core9panicking11panic_const24panic_const_mul_overflow17ha81e0958929b4d1eE, symObjAddr: 0x17CA0, symBinAddr: 0x9E170, symSize: 0x40 }
  - { offset: 0x133B11, size: 0x8, addend: 0x0, symName: __ZN4core9panicking11panic_const24panic_const_div_overflow17hcedecef2a51f3a37E, symObjAddr: 0x17CE0, symBinAddr: 0x9E1B0, symSize: 0x40 }
  - { offset: 0x133B41, size: 0x8, addend: 0x0, symName: __ZN4core9panicking11panic_const24panic_const_rem_overflow17hf4b8b67c44fd445aE, symObjAddr: 0x17D20, symBinAddr: 0x9E1F0, symSize: 0x40 }
  - { offset: 0x133B71, size: 0x8, addend: 0x0, symName: __ZN4core9panicking11panic_const24panic_const_neg_overflow17h33949d7f11fa0f92E, symObjAddr: 0x17D60, symBinAddr: 0x9E230, symSize: 0x40 }
  - { offset: 0x133BA1, size: 0x8, addend: 0x0, symName: __ZN4core9panicking11panic_const24panic_const_shr_overflow17hb0888a9b9f8cbd01E, symObjAddr: 0x17DA0, symBinAddr: 0x9E270, symSize: 0x40 }
  - { offset: 0x133BD1, size: 0x8, addend: 0x0, symName: __ZN4core9panicking11panic_const24panic_const_shl_overflow17h1a3b207255ce7675E, symObjAddr: 0x17DE0, symBinAddr: 0x9E2B0, symSize: 0x40 }
  - { offset: 0x133C01, size: 0x8, addend: 0x0, symName: __ZN4core9panicking11panic_const23panic_const_div_by_zero17h1aa02620feba6701E, symObjAddr: 0x17E20, symBinAddr: 0x9E2F0, symSize: 0x40 }
  - { offset: 0x133C31, size: 0x8, addend: 0x0, symName: __ZN4core9panicking11panic_const23panic_const_rem_by_zero17h9469628086608378E, symObjAddr: 0x17E60, symBinAddr: 0x9E330, symSize: 0x40 }
  - { offset: 0x133C61, size: 0x8, addend: 0x0, symName: __ZN4core9panicking11panic_const29panic_const_coroutine_resumed17h43a3bb789e3278a4E, symObjAddr: 0x17EA0, symBinAddr: 0x9E370, symSize: 0x40 }
  - { offset: 0x133C91, size: 0x8, addend: 0x0, symName: __ZN4core9panicking11panic_const28panic_const_async_fn_resumed17h306d4f864123f88aE, symObjAddr: 0x17EE0, symBinAddr: 0x9E3B0, symSize: 0x40 }
  - { offset: 0x133CC1, size: 0x8, addend: 0x0, symName: __ZN4core9panicking11panic_const32panic_const_async_gen_fn_resumed17hf60024a283553304E, symObjAddr: 0x17F20, symBinAddr: 0x9E3F0, symSize: 0x40 }
  - { offset: 0x133CF1, size: 0x8, addend: 0x0, symName: __ZN4core9panicking11panic_const23panic_const_gen_fn_none17h3e585daec225f601E, symObjAddr: 0x17F60, symBinAddr: 0x9E430, symSize: 0x40 }
  - { offset: 0x133D21, size: 0x8, addend: 0x0, symName: __ZN4core9panicking11panic_const35panic_const_coroutine_resumed_panic17h31891ba1d73687deE, symObjAddr: 0x17FA0, symBinAddr: 0x9E470, symSize: 0x40 }
  - { offset: 0x133D51, size: 0x8, addend: 0x0, symName: __ZN4core9panicking11panic_const34panic_const_async_fn_resumed_panic17h775b255d44acf8f7E, symObjAddr: 0x17FE0, symBinAddr: 0x9E4B0, symSize: 0x40 }
  - { offset: 0x133D81, size: 0x8, addend: 0x0, symName: __ZN4core9panicking11panic_const38panic_const_async_gen_fn_resumed_panic17h8ed234231d10bb30E, symObjAddr: 0x18020, symBinAddr: 0x9E4F0, symSize: 0x40 }
  - { offset: 0x133DB1, size: 0x8, addend: 0x0, symName: __ZN4core9panicking11panic_const29panic_const_gen_fn_none_panic17hf40b5d8f53d962adE, symObjAddr: 0x18060, symBinAddr: 0x9E530, symSize: 0x40 }
  - { offset: 0x133DE1, size: 0x8, addend: 0x0, symName: __ZN4core9panicking11panic_const34panic_const_coroutine_resumed_drop17h28f556f496ddf7faE, symObjAddr: 0x180A0, symBinAddr: 0x9E570, symSize: 0x40 }
  - { offset: 0x133E11, size: 0x8, addend: 0x0, symName: __ZN4core9panicking11panic_const33panic_const_async_fn_resumed_drop17he5a79c829f494fe4E, symObjAddr: 0x180E0, symBinAddr: 0x9E5B0, symSize: 0x40 }
  - { offset: 0x133E41, size: 0x8, addend: 0x0, symName: __ZN4core9panicking11panic_const37panic_const_async_gen_fn_resumed_drop17hef05beb8dd46fa28E, symObjAddr: 0x18120, symBinAddr: 0x9E5F0, symSize: 0x40 }
  - { offset: 0x133E71, size: 0x8, addend: 0x0, symName: __ZN4core9panicking11panic_const28panic_const_gen_fn_none_drop17h06e307d7a920703aE, symObjAddr: 0x18160, symBinAddr: 0x9E630, symSize: 0x40 }
  - { offset: 0x133ED0, size: 0x8, addend: 0x0, symName: '__ZN73_$LT$core..panic..panic_info..PanicInfo$u20$as$u20$core..fmt..Display$GT$3fmt17h62bf96dfaef0a62eE', symObjAddr: 0x8460, symBinAddr: 0x86910, symSize: 0x120 }
  - { offset: 0x134038, size: 0x8, addend: 0x0, symName: '__ZN48_$LT$char$u20$as$u20$core..pat..RangePattern$GT$7sub_one17h1f2f41e87d932beeE', symObjAddr: 0x8AA0, symBinAddr: 0x86A50, symSize: 0x60 }
  - { offset: 0x1340B0, size: 0x8, addend: 0x0, symName: '__ZN46_$LT$i8$u20$as$u20$core..pat..RangePattern$GT$7sub_one17hdf6d0e212cb2e029E', symObjAddr: 0x181A0, symBinAddr: 0x95730, symSize: 0x50 }
  - { offset: 0x1340CE, size: 0x8, addend: 0x0, symName: '__ZN46_$LT$i8$u20$as$u20$core..pat..RangePattern$GT$7sub_one17hdf6d0e212cb2e029E', symObjAddr: 0x181A0, symBinAddr: 0x95730, symSize: 0x50 }
  - { offset: 0x1340E3, size: 0x8, addend: 0x0, symName: '__ZN46_$LT$i8$u20$as$u20$core..pat..RangePattern$GT$7sub_one17hdf6d0e212cb2e029E', symObjAddr: 0x181A0, symBinAddr: 0x95730, symSize: 0x50 }
  - { offset: 0x134129, size: 0x8, addend: 0x0, symName: '__ZN47_$LT$i16$u20$as$u20$core..pat..RangePattern$GT$7sub_one17hc2fb42fd35d8482aE', symObjAddr: 0x181F0, symBinAddr: 0x95780, symSize: 0x50 }
  - { offset: 0x134147, size: 0x8, addend: 0x0, symName: '__ZN47_$LT$i16$u20$as$u20$core..pat..RangePattern$GT$7sub_one17hc2fb42fd35d8482aE', symObjAddr: 0x181F0, symBinAddr: 0x95780, symSize: 0x50 }
  - { offset: 0x13415C, size: 0x8, addend: 0x0, symName: '__ZN47_$LT$i16$u20$as$u20$core..pat..RangePattern$GT$7sub_one17hc2fb42fd35d8482aE', symObjAddr: 0x181F0, symBinAddr: 0x95780, symSize: 0x50 }
  - { offset: 0x1341A2, size: 0x8, addend: 0x0, symName: '__ZN47_$LT$i32$u20$as$u20$core..pat..RangePattern$GT$7sub_one17hd428f31729db7096E', symObjAddr: 0x18240, symBinAddr: 0x957D0, symSize: 0x50 }
  - { offset: 0x1341C0, size: 0x8, addend: 0x0, symName: '__ZN47_$LT$i32$u20$as$u20$core..pat..RangePattern$GT$7sub_one17hd428f31729db7096E', symObjAddr: 0x18240, symBinAddr: 0x957D0, symSize: 0x50 }
  - { offset: 0x1341D5, size: 0x8, addend: 0x0, symName: '__ZN47_$LT$i32$u20$as$u20$core..pat..RangePattern$GT$7sub_one17hd428f31729db7096E', symObjAddr: 0x18240, symBinAddr: 0x957D0, symSize: 0x50 }
  - { offset: 0x13421B, size: 0x8, addend: 0x0, symName: '__ZN47_$LT$i64$u20$as$u20$core..pat..RangePattern$GT$7sub_one17h2bca16407a911c30E', symObjAddr: 0x18290, symBinAddr: 0x95820, symSize: 0x50 }
  - { offset: 0x134239, size: 0x8, addend: 0x0, symName: '__ZN47_$LT$i64$u20$as$u20$core..pat..RangePattern$GT$7sub_one17h2bca16407a911c30E', symObjAddr: 0x18290, symBinAddr: 0x95820, symSize: 0x50 }
  - { offset: 0x13424E, size: 0x8, addend: 0x0, symName: '__ZN47_$LT$i64$u20$as$u20$core..pat..RangePattern$GT$7sub_one17h2bca16407a911c30E', symObjAddr: 0x18290, symBinAddr: 0x95820, symSize: 0x50 }
  - { offset: 0x134294, size: 0x8, addend: 0x0, symName: '__ZN48_$LT$i128$u20$as$u20$core..pat..RangePattern$GT$7sub_one17h10455faff5258d22E', symObjAddr: 0x182E0, symBinAddr: 0x95870, symSize: 0x50 }
  - { offset: 0x1342B2, size: 0x8, addend: 0x0, symName: '__ZN48_$LT$i128$u20$as$u20$core..pat..RangePattern$GT$7sub_one17h10455faff5258d22E', symObjAddr: 0x182E0, symBinAddr: 0x95870, symSize: 0x50 }
  - { offset: 0x1342C7, size: 0x8, addend: 0x0, symName: '__ZN48_$LT$i128$u20$as$u20$core..pat..RangePattern$GT$7sub_one17h10455faff5258d22E', symObjAddr: 0x182E0, symBinAddr: 0x95870, symSize: 0x50 }
  - { offset: 0x13430D, size: 0x8, addend: 0x0, symName: '__ZN46_$LT$u8$u20$as$u20$core..pat..RangePattern$GT$7sub_one17hb1a2da5a5cbc6ac3E', symObjAddr: 0x18330, symBinAddr: 0x958C0, symSize: 0x50 }
  - { offset: 0x13432B, size: 0x8, addend: 0x0, symName: '__ZN46_$LT$u8$u20$as$u20$core..pat..RangePattern$GT$7sub_one17hb1a2da5a5cbc6ac3E', symObjAddr: 0x18330, symBinAddr: 0x958C0, symSize: 0x50 }
  - { offset: 0x134359, size: 0x8, addend: 0x0, symName: '__ZN47_$LT$u16$u20$as$u20$core..pat..RangePattern$GT$7sub_one17h7742ad3f9c88164bE', symObjAddr: 0x18380, symBinAddr: 0x95910, symSize: 0x50 }
  - { offset: 0x134377, size: 0x8, addend: 0x0, symName: '__ZN47_$LT$u16$u20$as$u20$core..pat..RangePattern$GT$7sub_one17h7742ad3f9c88164bE', symObjAddr: 0x18380, symBinAddr: 0x95910, symSize: 0x50 }
  - { offset: 0x1343A5, size: 0x8, addend: 0x0, symName: '__ZN47_$LT$u32$u20$as$u20$core..pat..RangePattern$GT$7sub_one17h6c88d4ad36a99191E', symObjAddr: 0x183D0, symBinAddr: 0x95960, symSize: 0x50 }
  - { offset: 0x1343C3, size: 0x8, addend: 0x0, symName: '__ZN47_$LT$u32$u20$as$u20$core..pat..RangePattern$GT$7sub_one17h6c88d4ad36a99191E', symObjAddr: 0x183D0, symBinAddr: 0x95960, symSize: 0x50 }
  - { offset: 0x1343F1, size: 0x8, addend: 0x0, symName: '__ZN47_$LT$u64$u20$as$u20$core..pat..RangePattern$GT$7sub_one17h3da483324ae76d7eE', symObjAddr: 0x18420, symBinAddr: 0x959B0, symSize: 0x50 }
  - { offset: 0x13440F, size: 0x8, addend: 0x0, symName: '__ZN47_$LT$u64$u20$as$u20$core..pat..RangePattern$GT$7sub_one17h3da483324ae76d7eE', symObjAddr: 0x18420, symBinAddr: 0x959B0, symSize: 0x50 }
  - { offset: 0x13443D, size: 0x8, addend: 0x0, symName: '__ZN48_$LT$u128$u20$as$u20$core..pat..RangePattern$GT$7sub_one17h13f239dfd8efc4f2E', symObjAddr: 0x18470, symBinAddr: 0x95A00, symSize: 0x60 }
  - { offset: 0x13445B, size: 0x8, addend: 0x0, symName: '__ZN48_$LT$u128$u20$as$u20$core..pat..RangePattern$GT$7sub_one17h13f239dfd8efc4f2E', symObjAddr: 0x18470, symBinAddr: 0x95A00, symSize: 0x60 }
  - { offset: 0x1344B9, size: 0x8, addend: 0x0, symName: '__ZN67_$LT$core..sync..atomic..AtomicBool$u20$as$u20$core..fmt..Debug$GT$3fmt17he1e5113125ad469aE', symObjAddr: 0x8B80, symBinAddr: 0x86AB0, symSize: 0x40 }
  - { offset: 0x134594, size: 0x8, addend: 0x0, symName: '__ZN65_$LT$core..sync..atomic..AtomicI8$u20$as$u20$core..fmt..Debug$GT$3fmt17hc3bcc4274afd39faE', symObjAddr: 0x184D0, symBinAddr: 0x95A60, symSize: 0x10 }
  - { offset: 0x1345F9, size: 0x8, addend: 0x0, symName: '__ZN65_$LT$core..sync..atomic..AtomicU8$u20$as$u20$core..fmt..Debug$GT$3fmt17h08bf659204152e2dE', symObjAddr: 0x184E0, symBinAddr: 0x95A70, symSize: 0x10 }
  - { offset: 0x13466C, size: 0x8, addend: 0x0, symName: '__ZN66_$LT$core..sync..atomic..AtomicI16$u20$as$u20$core..fmt..Debug$GT$3fmt17he797552705f3844cE', symObjAddr: 0x184F0, symBinAddr: 0x95A80, symSize: 0xE0 }
  - { offset: 0x13482D, size: 0x8, addend: 0x0, symName: '__ZN66_$LT$core..sync..atomic..AtomicU16$u20$as$u20$core..fmt..Debug$GT$3fmt17he0e1436c4cdeed68E', symObjAddr: 0x185D0, symBinAddr: 0x95B60, symSize: 0x10 }
  - { offset: 0x1348A0, size: 0x8, addend: 0x0, symName: '__ZN66_$LT$core..sync..atomic..AtomicI32$u20$as$u20$core..fmt..Debug$GT$3fmt17ha5656ec8c77d6632E', symObjAddr: 0x185E0, symBinAddr: 0x95B70, symSize: 0xF0 }
  - { offset: 0x134AAB, size: 0x8, addend: 0x0, symName: '__ZN66_$LT$core..sync..atomic..AtomicU32$u20$as$u20$core..fmt..Debug$GT$3fmt17h5641baff4374ddf9E', symObjAddr: 0x186D0, symBinAddr: 0x95C60, symSize: 0xE0 }
  - { offset: 0x134C89, size: 0x8, addend: 0x0, symName: '__ZN66_$LT$core..sync..atomic..AtomicI64$u20$as$u20$core..fmt..Debug$GT$3fmt17hc77cb34ea67622e0E', symObjAddr: 0x187B0, symBinAddr: 0x95D40, symSize: 0xF0 }
  - { offset: 0x134E94, size: 0x8, addend: 0x0, symName: '__ZN66_$LT$core..sync..atomic..AtomicU64$u20$as$u20$core..fmt..Debug$GT$3fmt17haf75f0d59857389eE', symObjAddr: 0x188A0, symBinAddr: 0x95E30, symSize: 0xE0 }
  - { offset: 0x135072, size: 0x8, addend: 0x0, symName: '__ZN67_$LT$core..sync..atomic..AtomicI128$u20$as$u20$core..fmt..Debug$GT$3fmt17h24522cbbcb9f89a4E', symObjAddr: 0x18980, symBinAddr: 0x95F10, symSize: 0x30 }
  - { offset: 0x1350E5, size: 0x8, addend: 0x0, symName: '__ZN67_$LT$core..sync..atomic..AtomicU128$u20$as$u20$core..fmt..Debug$GT$3fmt17h2c77e870da4cc08aE', symObjAddr: 0x189B0, symBinAddr: 0x95F40, symSize: 0x30 }
  - { offset: 0x135158, size: 0x8, addend: 0x0, symName: '__ZN68_$LT$core..sync..atomic..AtomicUsize$u20$as$u20$core..fmt..Debug$GT$3fmt17h9e84ee74c396a788E', symObjAddr: 0x189E0, symBinAddr: 0x95F70, symSize: 0xE0 }
  - { offset: 0x135343, size: 0x8, addend: 0x0, symName: '__ZN4core3f6421_$LT$impl$u20$f64$GT$5clamp8do_panic7runtime17h542343eec64f4c17E', symObjAddr: 0x12B10, symBinAddr: 0x9DEF0, symSize: 0x70 }
  - { offset: 0x1353C9, size: 0x8, addend: 0x0, symName: '__ZN4core3f3221_$LT$impl$u20$f32$GT$5clamp8do_panic7runtime17h1d819639b410f493E', symObjAddr: 0x12AA0, symBinAddr: 0x9DE80, symSize: 0x70 }
  - { offset: 0x135427, size: 0x8, addend: 0x0, symName: '__ZN57_$LT$core..time..Duration$u20$as$u20$core..fmt..Debug$GT$3fmt17he07784b5b7e630faE', symObjAddr: 0x11C00, symBinAddr: 0x8F980, symSize: 0xD0 }
  - { offset: 0x13545F, size: 0x8, addend: 0x0, symName: '__ZN57_$LT$core..time..Duration$u20$as$u20$core..fmt..Debug$GT$3fmt11fmt_decimal17hd0310ccc6ff5a534E', symObjAddr: 0x11CD0, symBinAddr: 0x8FA50, symSize: 0x600 }
  - { offset: 0x135718, size: 0x8, addend: 0x0, symName: '__ZN57_$LT$core..time..Duration$u20$as$u20$core..fmt..Debug$GT$3fmt11fmt_decimal28_$u7b$$u7b$closure$u7d$$u7d$17hd4dc5852352709a1E', symObjAddr: 0x122D0, symBinAddr: 0x90050, symSize: 0x270 }
  - { offset: 0x135891, size: 0x8, addend: 0x0, symName: '__ZN72_$LT$core..time..TryFromFloatSecsError$u20$as$u20$core..fmt..Display$GT$3fmt17hae142449e1f5e12cE', symObjAddr: 0x12540, symBinAddr: 0x902C0, symSize: 0x40 }
  - { offset: 0x135911, size: 0x8, addend: 0x0, symName: '__ZN62_$LT$core..task..wake..Context$u20$as$u20$core..fmt..Debug$GT$3fmt17hc173f64718a6b13bE', symObjAddr: 0x127C0, symBinAddr: 0x90540, symSize: 0xB0 }
  - { offset: 0x135A0E, size: 0x8, addend: 0x0, symName: '__ZN60_$LT$core..task..wake..Waker$u20$as$u20$core..fmt..Debug$GT$3fmt17h058abac0a1e63147E', symObjAddr: 0x12870, symBinAddr: 0x905F0, symSize: 0xE0 }
  - { offset: 0x135B0B, size: 0x8, addend: 0x0, symName: '__ZN65_$LT$core..task..wake..LocalWaker$u20$as$u20$core..fmt..Debug$GT$3fmt17h238397d420479523E', symObjAddr: 0x12950, symBinAddr: 0x906D0, symSize: 0xE0 }
  - { offset: 0x135C16, size: 0x8, addend: 0x0, symName: __ZN4core5alloc6layout6Layout19is_size_align_valid17h4e14ba1266de9b82E, symObjAddr: 0x12A30, symBinAddr: 0x907B0, symSize: 0x30 }
  - { offset: 0x135C4D, size: 0x8, addend: 0x0, symName: '__ZN71_$LT$core..alloc..layout..LayoutError$u20$as$u20$core..fmt..Display$GT$3fmt17h57f6336d6f5316e5E', symObjAddr: 0x12A60, symBinAddr: 0x907E0, symSize: 0x20 }
  - { offset: 0x135C87, size: 0x8, addend: 0x0, symName: '__ZN62_$LT$core..alloc..AllocError$u20$as$u20$core..fmt..Display$GT$3fmt17hc211c2fbdc2439f7E', symObjAddr: 0x12A80, symBinAddr: 0x90800, symSize: 0x20 }
  - { offset: 0x135CCB, size: 0x8, addend: 0x0, symName: '__ZN85_$LT$core..marker..variance..PhantomCovariantLifetime$u20$as$u20$core..fmt..Debug$GT$3fmt17h50395bb76ef6a2f0E', symObjAddr: 0x17780, symBinAddr: 0x953B0, symSize: 0x20 }
  - { offset: 0x135D03, size: 0x8, addend: 0x0, symName: '__ZN89_$LT$core..marker..variance..PhantomContravariantLifetime$u20$as$u20$core..fmt..Debug$GT$3fmt17hfb1ba573457c20c9E', symObjAddr: 0x177A0, symBinAddr: 0x953D0, symSize: 0x20 }
  - { offset: 0x135D3B, size: 0x8, addend: 0x0, symName: '__ZN85_$LT$core..marker..variance..PhantomInvariantLifetime$u20$as$u20$core..fmt..Debug$GT$3fmt17hcd8e2dd03dee2b88E', symObjAddr: 0x177C0, symBinAddr: 0x953F0, symSize: 0x20 }
  - { offset: 0x135DA3, size: 0x8, addend: 0x0, symName: ___udivti3, symObjAddr: 0x0, symBinAddr: 0x9AC30, symSize: 0xAC }
  - { offset: 0x135DC9, size: 0x8, addend: 0x0, symName: ___udivti3, symObjAddr: 0x0, symBinAddr: 0x9AC30, symSize: 0xAC }
...
