---
triple:          'x86_64-apple-darwin'
binary-path:     '/Users/klaus/Library/Developer/Xcode/DerivedData/OPAQUEAAWaaSModule-fuqdibrybtakesgrgcfiezbbnsbb/Build/Intermediates.noindex/ArchiveIntermediates/OPAQUEAAWaaSModule/InstallationBuildProductsLocation/Library/Frameworks/OPAQUEAAWaaSModule.framework/Versions/A/OPAQUEAAWaaSModule'
relocations:
  - { offset: 0x90950, size: 0x8, addend: 0x0, symName: '__ZN108_$LT$alloc..collections..btree..map..Iter$LT$K$C$V$GT$$u20$as$u20$core..iter..traits..iterator..Iterator$GT$4next17h8f929f0c03f2c78eE', symObjAddr: 0x0, symBinAddr: 0x6210, symSize: 0x230 }
  - { offset: 0x90E4E, size: 0x8, addend: 0x0, symName: '__ZN5alloc11collections5btree4node208Handle$LT$alloc..collections..btree..node..NodeRef$LT$alloc..collections..btree..node..marker..Mut$C$K$C$V$C$alloc..collections..btree..node..marker..Leaf$GT$$C$alloc..collections..btree..node..marker..KV$GT$5split17h03485557d69dab8dE', symObjAddr: 0x12CA0, symBinAddr: 0x18AE0, symSize: 0x210 }
  - { offset: 0x9138B, size: 0x8, addend: 0x0, symName: '__ZN5alloc11collections5btree4node208Handle$LT$alloc..collections..btree..node..NodeRef$LT$alloc..collections..btree..node..marker..Mut$C$K$C$V$C$alloc..collections..btree..node..marker..Leaf$GT$$C$alloc..collections..btree..node..marker..KV$GT$5split17h4eed6d2c69141b8aE', symObjAddr: 0x12EB0, symBinAddr: 0x18CF0, symSize: 0x210 }
  - { offset: 0x918C9, size: 0x8, addend: 0x0, symName: '__ZN5alloc11collections5btree4node212Handle$LT$alloc..collections..btree..node..NodeRef$LT$alloc..collections..btree..node..marker..Mut$C$K$C$V$C$alloc..collections..btree..node..marker..Internal$GT$$C$alloc..collections..btree..node..marker..KV$GT$5split17h10de3316a6dc6c2aE', symObjAddr: 0x130C0, symBinAddr: 0x18F00, symSize: 0x320 }
  - { offset: 0x92011, size: 0x8, addend: 0x0, symName: '__ZN5alloc11collections5btree4node212Handle$LT$alloc..collections..btree..node..NodeRef$LT$alloc..collections..btree..node..marker..Mut$C$K$C$V$C$alloc..collections..btree..node..marker..Internal$GT$$C$alloc..collections..btree..node..marker..KV$GT$5split17hd7e8d8254f4fae42E', symObjAddr: 0x133E0, symBinAddr: 0x19220, symSize: 0x320 }
  - { offset: 0x927AC, size: 0x8, addend: 0x0, symName: '__ZN5alloc11collections5btree6remove259_$LT$impl$u20$alloc..collections..btree..node..Handle$LT$alloc..collections..btree..node..NodeRef$LT$alloc..collections..btree..node..marker..Mut$C$K$C$V$C$alloc..collections..btree..node..marker..Leaf$GT$$C$alloc..collections..btree..node..marker..KV$GT$$GT$14remove_leaf_kv17h0553f73279caa89fE', symObjAddr: 0x14340, symBinAddr: 0x1A180, symSize: 0x910 }
  - { offset: 0x9344E, size: 0x8, addend: 0x0, symName: '__ZN5alloc11collections5btree6remove259_$LT$impl$u20$alloc..collections..btree..node..Handle$LT$alloc..collections..btree..node..NodeRef$LT$alloc..collections..btree..node..marker..Mut$C$K$C$V$C$alloc..collections..btree..node..marker..Leaf$GT$$C$alloc..collections..btree..node..marker..KV$GT$$GT$14remove_leaf_kv17hdc03597bae565a6bE', symObjAddr: 0x14C50, symBinAddr: 0x1AA90, symSize: 0x910 }
  - { offset: 0x94E57, size: 0x8, addend: 0x0, symName: '__ZN5alloc11collections5btree4node29BalancingContext$LT$K$C$V$GT$15bulk_steal_left17hb2521a113d68f1e6E', symObjAddr: 0x13700, symBinAddr: 0x19540, symSize: 0x400 }
  - { offset: 0x953C9, size: 0x8, addend: 0x0, symName: '__ZN5alloc11collections5btree4node29BalancingContext$LT$K$C$V$GT$16bulk_steal_right17h610c32e92c0b2c07E', symObjAddr: 0x13B00, symBinAddr: 0x19940, symSize: 0x440 }
  - { offset: 0x95A22, size: 0x8, addend: 0x0, symName: '__ZN5alloc11collections5btree4node29BalancingContext$LT$K$C$V$GT$8do_merge17h43a1205dc6960c16E', symObjAddr: 0x13F40, symBinAddr: 0x19D80, symSize: 0x400 }
  - { offset: 0x96165, size: 0x8, addend: 0x0, symName: '__ZN108_$LT$alloc..collections..btree..map..Iter$LT$K$C$V$GT$$u20$as$u20$core..iter..traits..iterator..Iterator$GT$4next17h8f929f0c03f2c78eE', symObjAddr: 0x0, symBinAddr: 0x6210, symSize: 0x230 }
  - { offset: 0x96551, size: 0x8, addend: 0x0, symName: '__ZN5alloc11collections5btree3map25BTreeMap$LT$K$C$V$C$A$GT$6insert17h5161f2d0f62826d3E', symObjAddr: 0x10310, symBinAddr: 0x16150, symSize: 0xEE0 }
  - { offset: 0x97BC0, size: 0x8, addend: 0x0, symName: '__ZN5alloc11collections5btree3map25BTreeMap$LT$K$C$V$C$A$GT$6insert17hc18e088f51a6d9bdE', symObjAddr: 0x111F0, symBinAddr: 0x17030, symSize: 0xEB0 }
  - { offset: 0x993CE, size: 0x8, addend: 0x0, symName: '__ZN5alloc11collections5btree3map25IntoIter$LT$K$C$V$C$A$GT$10dying_next17h0eebe09b0af649feE', symObjAddr: 0x120A0, symBinAddr: 0x17EE0, symSize: 0x400 }
  - { offset: 0x99762, size: 0x8, addend: 0x0, symName: '__ZN5alloc11collections5btree3map25IntoIter$LT$K$C$V$C$A$GT$10dying_next17h251d2f6808caf12aE', symObjAddr: 0x124A0, symBinAddr: 0x182E0, symSize: 0x400 }
  - { offset: 0x99AF6, size: 0x8, addend: 0x0, symName: '__ZN5alloc11collections5btree3map25IntoIter$LT$K$C$V$C$A$GT$10dying_next17h44598608c9e0350bE', symObjAddr: 0x128A0, symBinAddr: 0x186E0, symSize: 0x400 }
  - { offset: 0x99E91, size: 0x8, addend: 0x0, symName: '__ZN94_$LT$alloc..collections..btree..map..BTreeMap$LT$K$C$V$C$A$GT$$u20$as$u20$core..fmt..Debug$GT$3fmt17h1a4ed947d30463adE', symObjAddr: 0x20040, symBinAddr: 0x25D20, symSize: 0xF0 }
  - { offset: 0x9AD86, size: 0x8, addend: 0x0, symName: '__ZN5alloc7raw_vec19RawVec$LT$T$C$A$GT$8grow_one17h00dd0d94ab415b02E', symObjAddr: 0x15A40, symBinAddr: 0x1B800, symSize: 0xC0 }
  - { offset: 0x9AEA8, size: 0x8, addend: 0x0, symName: '__ZN5alloc7raw_vec19RawVec$LT$T$C$A$GT$8grow_one17h04f0fa73ebcfcc4aE', symObjAddr: 0x15B00, symBinAddr: 0x1B8C0, symSize: 0xC0 }
  - { offset: 0x9AFCA, size: 0x8, addend: 0x0, symName: '__ZN5alloc7raw_vec19RawVec$LT$T$C$A$GT$8grow_one17h168d8599c1e0341fE', symObjAddr: 0x15BC0, symBinAddr: 0x1B980, symSize: 0xC0 }
  - { offset: 0x9B0EC, size: 0x8, addend: 0x0, symName: '__ZN5alloc7raw_vec19RawVec$LT$T$C$A$GT$8grow_one17h169ce219bc2cf79dE', symObjAddr: 0x15C80, symBinAddr: 0x1BA40, symSize: 0xC0 }
  - { offset: 0x9B20E, size: 0x8, addend: 0x0, symName: '__ZN5alloc7raw_vec19RawVec$LT$T$C$A$GT$8grow_one17h1b1d2d9b784d4276E', symObjAddr: 0x15D40, symBinAddr: 0x1BB00, symSize: 0xC0 }
  - { offset: 0x9B330, size: 0x8, addend: 0x0, symName: '__ZN5alloc7raw_vec19RawVec$LT$T$C$A$GT$8grow_one17h30280d26e8111589E', symObjAddr: 0x15E00, symBinAddr: 0x1BBC0, symSize: 0xC0 }
  - { offset: 0x9B452, size: 0x8, addend: 0x0, symName: '__ZN5alloc7raw_vec19RawVec$LT$T$C$A$GT$8grow_one17h3e84a22f545b1ce6E', symObjAddr: 0x15EC0, symBinAddr: 0x1BC80, symSize: 0xC0 }
  - { offset: 0x9B574, size: 0x8, addend: 0x0, symName: '__ZN5alloc7raw_vec19RawVec$LT$T$C$A$GT$8grow_one17h3ee91e4ab740d560E', symObjAddr: 0x15F80, symBinAddr: 0x1BD40, symSize: 0xC0 }
  - { offset: 0x9B696, size: 0x8, addend: 0x0, symName: '__ZN5alloc7raw_vec19RawVec$LT$T$C$A$GT$8grow_one17h7a6fae6c823da5edE', symObjAddr: 0x16040, symBinAddr: 0x1BE00, symSize: 0xC0 }
  - { offset: 0x9B7B8, size: 0x8, addend: 0x0, symName: '__ZN5alloc7raw_vec19RawVec$LT$T$C$A$GT$8grow_one17h7db4270167543191E', symObjAddr: 0x16100, symBinAddr: 0x1BEC0, symSize: 0xC0 }
  - { offset: 0x9B8DA, size: 0x8, addend: 0x0, symName: '__ZN5alloc7raw_vec19RawVec$LT$T$C$A$GT$8grow_one17h9a315bb8c4f69bbfE', symObjAddr: 0x161C0, symBinAddr: 0x1BF80, symSize: 0xC0 }
  - { offset: 0x9B9FC, size: 0x8, addend: 0x0, symName: '__ZN5alloc7raw_vec19RawVec$LT$T$C$A$GT$8grow_one17h9bc11b223643a879E', symObjAddr: 0x16280, symBinAddr: 0x1C040, symSize: 0xC0 }
  - { offset: 0x9C520, size: 0x8, addend: 0x0, symName: '__ZN5alloc7raw_vec20RawVecInner$LT$A$GT$7reserve21do_reserve_and_handle17h44927530c3400290E', symObjAddr: 0x16340, symBinAddr: 0x9BB00, symSize: 0xE0 }
  - { offset: 0x9DCA3, size: 0x8, addend: 0x0, symName: '__ZN65_$LT$alloc..vec..Vec$LT$T$C$A$GT$$u20$as$u20$core..fmt..Debug$GT$3fmt17h8149f4b1594265caE', symObjAddr: 0x1F650, symBinAddr: 0x25330, symSize: 0x80 }
  - { offset: 0x9DDA0, size: 0x8, addend: 0x0, symName: '__ZN65_$LT$alloc..vec..Vec$LT$T$C$A$GT$$u20$as$u20$core..fmt..Debug$GT$3fmt17he1f9c6b0d4f39f64E', symObjAddr: 0x1F6D0, symBinAddr: 0x253B0, symSize: 0x80 }
  - { offset: 0x9E91E, size: 0x8, addend: 0x0, symName: __ZN5alloc5alloc15exchange_malloc17h0f38935955fdeabaE, symObjAddr: 0x15970, symBinAddr: 0x1B7B0, symSize: 0x50 }
  - { offset: 0x9E9D4, size: 0x8, addend: 0x0, symName: '__ZN5alloc4sync16Arc$LT$T$C$A$GT$9drop_slow17h241f429d260e2f40E', symObjAddr: 0x15560, symBinAddr: 0x1B3A0, symSize: 0xA0 }
  - { offset: 0x9EBF1, size: 0x8, addend: 0x0, symName: '__ZN5alloc4sync16Arc$LT$T$C$A$GT$9drop_slow17h2e18a6acd753d0a9E', symObjAddr: 0x15600, symBinAddr: 0x1B440, symSize: 0xF0 }
  - { offset: 0x9EF57, size: 0x8, addend: 0x0, symName: '__ZN5alloc4sync16Arc$LT$T$C$A$GT$9drop_slow17h4b81a98541cb703fE', symObjAddr: 0x156F0, symBinAddr: 0x1B530, symSize: 0x50 }
  - { offset: 0x9F0E4, size: 0x8, addend: 0x0, symName: '__ZN5alloc4sync16Arc$LT$T$C$A$GT$9drop_slow17h6755f416409e1edeE', symObjAddr: 0x15740, symBinAddr: 0x1B580, symSize: 0x90 }
  - { offset: 0x9F402, size: 0x8, addend: 0x0, symName: '__ZN5alloc4sync16Arc$LT$T$C$A$GT$9drop_slow17h75f5325184c1e57aE', symObjAddr: 0x157D0, symBinAddr: 0x1B610, symSize: 0x60 }
  - { offset: 0x9F5DC, size: 0x8, addend: 0x0, symName: '__ZN5alloc4sync16Arc$LT$T$C$A$GT$9drop_slow17hb926de5039c65c42E', symObjAddr: 0x15830, symBinAddr: 0x1B670, symSize: 0x70 }
  - { offset: 0x9F790, size: 0x8, addend: 0x0, symName: '__ZN5alloc4sync16Arc$LT$T$C$A$GT$9drop_slow17hc81c05b2b73bc8daE', symObjAddr: 0x158A0, symBinAddr: 0x1B6E0, symSize: 0xA0 }
  - { offset: 0x9FAE1, size: 0x8, addend: 0x0, symName: '__ZN5alloc4sync16Arc$LT$T$C$A$GT$9drop_slow17hc9b3d87e6fb1827eE', symObjAddr: 0x15940, symBinAddr: 0x1B780, symSize: 0x30 }
  - { offset: 0xA0235, size: 0x8, addend: 0x0, symName: '__ZN64_$LT$alloc..ffi..c_str..NulError$u20$as$u20$core..fmt..Debug$GT$3fmt17h3cf51fdb5e7fa0cdE', symObjAddr: 0x1F600, symBinAddr: 0x252E0, symSize: 0x50 }
  - { offset: 0xA09DC, size: 0x8, addend: 0x0, symName: '__ZN58_$LT$alloc..string..String$u20$as$u20$core..fmt..Debug$GT$3fmt17h992969695271fa21E', symObjAddr: 0x10140, symBinAddr: 0x15F80, symSize: 0x20 }
  - { offset: 0xA0A9F, size: 0x8, addend: 0x0, symName: '__ZN58_$LT$alloc..string..String$u20$as$u20$core..fmt..Write$GT$10write_char17h1bc49a5d0385c8c3E', symObjAddr: 0x10160, symBinAddr: 0x15FA0, symSize: 0x140 }
  - { offset: 0xA0C37, size: 0x8, addend: 0x0, symName: '__ZN58_$LT$alloc..string..String$u20$as$u20$core..fmt..Write$GT$9write_str17h2a487f279c3e8f7fE', symObjAddr: 0x102A0, symBinAddr: 0x160E0, symSize: 0x70 }
  - { offset: 0xA0D3F, size: 0x8, addend: 0x0, symName: '__ZN60_$LT$alloc..string..String$u20$as$u20$core..fmt..Display$GT$3fmt17h73026bafcc350434E', symObjAddr: 0x1F5E0, symBinAddr: 0x252C0, symSize: 0x20 }
  - { offset: 0xA0EE2, size: 0x8, addend: 0x0, symName: '__ZN66_$LT$alloc..borrow..Cow$LT$B$GT$$u20$as$u20$core..fmt..Display$GT$3fmt17he2846404ba379befE', symObjAddr: 0x1F750, symBinAddr: 0x25430, symSize: 0x20 }
  - { offset: 0xA1E1C, size: 0x8, addend: 0x0, symName: '__ZN66_$LT$core..option..Option$LT$T$GT$$u20$as$u20$core..fmt..Debug$GT$3fmt17h1a6c572ca33b1a44E', symObjAddr: 0x1F770, symBinAddr: 0x25450, symSize: 0x50 }
  - { offset: 0xA1E37, size: 0x8, addend: 0x0, symName: '__ZN66_$LT$core..option..Option$LT$T$GT$$u20$as$u20$core..fmt..Debug$GT$3fmt17h22984d2794582890E', symObjAddr: 0x1F7C0, symBinAddr: 0x254A0, symSize: 0x50 }
  - { offset: 0xA1E52, size: 0x8, addend: 0x0, symName: '__ZN66_$LT$core..option..Option$LT$T$GT$$u20$as$u20$core..fmt..Debug$GT$3fmt17h294fec88e0fc36baE', symObjAddr: 0x1F810, symBinAddr: 0x254F0, symSize: 0x50 }
  - { offset: 0xA1E6D, size: 0x8, addend: 0x0, symName: '__ZN66_$LT$core..option..Option$LT$T$GT$$u20$as$u20$core..fmt..Debug$GT$3fmt17h2a9af7ae52c82368E', symObjAddr: 0x1F860, symBinAddr: 0x25540, symSize: 0x50 }
  - { offset: 0xA1E88, size: 0x8, addend: 0x0, symName: '__ZN66_$LT$core..option..Option$LT$T$GT$$u20$as$u20$core..fmt..Debug$GT$3fmt17h4b58fef4bfe2b5bfE', symObjAddr: 0x1F8B0, symBinAddr: 0x25590, symSize: 0x50 }
  - { offset: 0xA1EA3, size: 0x8, addend: 0x0, symName: '__ZN66_$LT$core..option..Option$LT$T$GT$$u20$as$u20$core..fmt..Debug$GT$3fmt17h6827336211a6ce1bE', symObjAddr: 0x1F900, symBinAddr: 0x255E0, symSize: 0x60 }
  - { offset: 0xA1EBE, size: 0x8, addend: 0x0, symName: '__ZN66_$LT$core..option..Option$LT$T$GT$$u20$as$u20$core..fmt..Debug$GT$3fmt17h89da084ab732604cE', symObjAddr: 0x1F960, symBinAddr: 0x25640, symSize: 0x50 }
  - { offset: 0xA1ED9, size: 0x8, addend: 0x0, symName: '__ZN66_$LT$core..option..Option$LT$T$GT$$u20$as$u20$core..fmt..Debug$GT$3fmt17hd2fe7747a75f6cedE', symObjAddr: 0x1F9B0, symBinAddr: 0x25690, symSize: 0x50 }
  - { offset: 0xA1EF4, size: 0x8, addend: 0x0, symName: '__ZN66_$LT$core..option..Option$LT$T$GT$$u20$as$u20$core..fmt..Debug$GT$3fmt17hd92ca3adceb35e46E', symObjAddr: 0x1FA00, symBinAddr: 0x256E0, symSize: 0x60 }
  - { offset: 0xA36E6, size: 0x8, addend: 0x0, symName: '__ZN4core3ptr107drop_in_place$LT$alloc..vec..Vec$LT$$LP$std..ffi..os_str..OsString$C$std..ffi..os_str..OsString$RP$$GT$$GT$17hf0672fc9ed57c1b1E', symObjAddr: 0x1F50, symBinAddr: 0x8150, symSize: 0xA0 }
  - { offset: 0xA3934, size: 0x8, addend: 0x0, symName: '__ZN4core3ptr107drop_in_place$LT$core..pin..Pin$LT$alloc..boxed..Box$LT$std..sys..pal..unix..sync..mutex..Mutex$GT$$GT$$GT$17h589b156044547c95E', symObjAddr: 0x1FF0, symBinAddr: 0x81F0, symSize: 0x30 }
  - { offset: 0xA39DF, size: 0x8, addend: 0x0, symName: '__ZN4core3ptr112drop_in_place$LT$$LP$std..ffi..os_str..OsString$C$core..option..Option$LT$std..ffi..os_str..OsString$GT$$RP$$GT$17h03038081dc1db5c1E', symObjAddr: 0x2020, symBinAddr: 0x8220, symSize: 0x50 }
  - { offset: 0xA3B66, size: 0x8, addend: 0x0, symName: '__ZN4core3ptr118drop_in_place$LT$$LT$std..backtrace..Backtrace$u20$as$u20$core..fmt..Display$GT$..fmt..$u7b$$u7b$closure$u7d$$u7d$$GT$17hda5aa31762641896E', symObjAddr: 0x2070, symBinAddr: 0x8270, symSize: 0x30 }
  - { offset: 0xA3C4E, size: 0x8, addend: 0x0, symName: '__ZN4core3ptr119drop_in_place$LT$std..io..default_write_fmt..Adapter$LT$std..io..cursor..Cursor$LT$$RF$mut$u20$$u5b$u8$u5d$$GT$$GT$$GT$17ha839042caae8cc9aE', symObjAddr: 0x20A0, symBinAddr: 0x82A0, symSize: 0x20 }
  - { offset: 0xA3C7F, size: 0x8, addend: 0x0, symName: '__ZN4core3ptr123drop_in_place$LT$addr2line..Context$LT$gimli..read..endian_slice..EndianSlice$LT$gimli..endianity..LittleEndian$GT$$GT$$GT$17h77bbcef1f0a8069bE', symObjAddr: 0x20C0, symBinAddr: 0x82C0, symSize: 0x60 }
  - { offset: 0xA3D46, size: 0x8, addend: 0x0, symName: '__ZN4core3ptr124drop_in_place$LT$alloc..collections..btree..map..BTreeMap$LT$std..ffi..os_str..OsString$C$std..ffi..os_str..OsString$GT$$GT$17h6056e96de4ab62dbE', symObjAddr: 0x2120, symBinAddr: 0x8320, symSize: 0xF0 }
  - { offset: 0xA3FC8, size: 0x8, addend: 0x0, symName: '__ZN4core3ptr124drop_in_place$LT$alloc..collections..btree..map..IntoIter$LT$std..ffi..os_str..OsString$C$std..ffi..os_str..OsString$GT$$GT$17hea6c3b26f47d448cE', symObjAddr: 0x2210, symBinAddr: 0x8410, symSize: 0xA0 }
  - { offset: 0xA421D, size: 0x8, addend: 0x0, symName: '__ZN4core3ptr128drop_in_place$LT$core..result..Result$LT$$RF$std..thread..Thread$C$$LP$$RF$std..thread..Thread$C$std..thread..Thread$RP$$GT$$GT$17h6ad5e99ca35665b3E', symObjAddr: 0x22B0, symBinAddr: 0x84B0, symSize: 0x20 }
  - { offset: 0xA439C, size: 0x8, addend: 0x0, symName: '__ZN4core3ptr129drop_in_place$LT$addr2line..unit..ResUnit$LT$gimli..read..endian_slice..EndianSlice$LT$gimli..endianity..LittleEndian$GT$$GT$$GT$17h4b23fd93beb7d3f9E', symObjAddr: 0x22D0, symBinAddr: 0x84D0, symSize: 0x100 }
  - { offset: 0xA45C3, size: 0x8, addend: 0x0, symName: '__ZN4core3ptr129drop_in_place$LT$addr2line..unit..SupUnit$LT$gimli..read..endian_slice..EndianSlice$LT$gimli..endianity..LittleEndian$GT$$GT$$GT$17hc48b9be98df6f536E', symObjAddr: 0x23D0, symBinAddr: 0x85D0, symSize: 0x50 }
  - { offset: 0xA4691, size: 0x8, addend: 0x0, symName: '__ZN4core3ptr130drop_in_place$LT$addr2line..unit..ResUnits$LT$gimli..read..endian_slice..EndianSlice$LT$gimli..endianity..LittleEndian$GT$$GT$$GT$17h148cc610f397e7acE', symObjAddr: 0x2420, symBinAddr: 0x8620, symSize: 0xE0 }
  - { offset: 0xA484B, size: 0x8, addend: 0x0, symName: '__ZN4core3ptr130drop_in_place$LT$addr2line..unit..SupUnits$LT$gimli..read..endian_slice..EndianSlice$LT$gimli..endianity..LittleEndian$GT$$GT$$GT$17h9fcb088add0156ccE', symObjAddr: 0x2500, symBinAddr: 0x8700, symSize: 0xE0 }
  - { offset: 0xA4A09, size: 0x8, addend: 0x0, symName: '__ZN4core3ptr130drop_in_place$LT$gimli..read..dwarf..Dwarf$LT$gimli..read..endian_slice..EndianSlice$LT$gimli..endianity..LittleEndian$GT$$GT$$GT$17ha409cc0d8f96126fE', symObjAddr: 0x25E0, symBinAddr: 0x87E0, symSize: 0x60 }
  - { offset: 0xA4AB0, size: 0x8, addend: 0x0, symName: '__ZN4core3ptr131drop_in_place$LT$$u5b$core..option..Option$LT$core..option..Option$LT$std..backtrace_rs..symbolize..gimli..Mapping$GT$$GT$$u5d$$GT$17h0ea0ec25969bed3aE', symObjAddr: 0x2640, symBinAddr: 0x8840, symSize: 0xE0 }
  - { offset: 0xA4B62, size: 0x8, addend: 0x0, symName: '__ZN4core3ptr131drop_in_place$LT$alloc..boxed..Box$LT$dyn$u20$core..ops..function..FnOnce$LT$$LP$$RP$$GT$$u2b$Output$u20$$u3d$$u20$$LP$$RP$$GT$$GT$17he9c7a859602c02e8E', symObjAddr: 0x2720, symBinAddr: 0x8920, symSize: 0x70 }
  - { offset: 0xA4C65, size: 0x8, addend: 0x0, symName: '__ZN4core3ptr135drop_in_place$LT$std..sync..poison..PoisonError$LT$std..sync..poison..mutex..MutexGuard$LT$std..sync..barrier..BarrierState$GT$$GT$$GT$17haf30c0dab186819cE', symObjAddr: 0x2790, symBinAddr: 0x8990, symSize: 0x40 }
  - { offset: 0xA4DB1, size: 0x8, addend: 0x0, symName: '__ZN4core3ptr137drop_in_place$LT$gimli..read..dwarf..Unit$LT$gimli..read..endian_slice..EndianSlice$LT$gimli..endianity..LittleEndian$GT$$C$usize$GT$$GT$17h5013606b032334e7E', symObjAddr: 0x27D0, symBinAddr: 0x89D0, symSize: 0x50 }
  - { offset: 0xA4EA0, size: 0x8, addend: 0x0, symName: '__ZN4core3ptr138drop_in_place$LT$addr2line..function..LazyFunction$LT$gimli..read..endian_slice..EndianSlice$LT$gimli..endianity..LittleEndian$GT$$GT$$GT$17h5914230a0dda7338E', symObjAddr: 0x2820, symBinAddr: 0x8A20, symSize: 0x60 }
  - { offset: 0xA4EB8, size: 0x8, addend: 0x0, symName: '__ZN4core3ptr138drop_in_place$LT$addr2line..function..LazyFunction$LT$gimli..read..endian_slice..EndianSlice$LT$gimli..endianity..LittleEndian$GT$$GT$$GT$17h5914230a0dda7338E', symObjAddr: 0x2820, symBinAddr: 0x8A20, symSize: 0x60 }
  - { offset: 0xA4ECE, size: 0x8, addend: 0x0, symName: '__ZN4core3ptr138drop_in_place$LT$addr2line..function..LazyFunction$LT$gimli..read..endian_slice..EndianSlice$LT$gimli..endianity..LittleEndian$GT$$GT$$GT$17h5914230a0dda7338E', symObjAddr: 0x2820, symBinAddr: 0x8A20, symSize: 0x60 }
  - { offset: 0xA4EE4, size: 0x8, addend: 0x0, symName: '__ZN4core3ptr138drop_in_place$LT$addr2line..function..LazyFunction$LT$gimli..read..endian_slice..EndianSlice$LT$gimli..endianity..LittleEndian$GT$$GT$$GT$17h5914230a0dda7338E', symObjAddr: 0x2820, symBinAddr: 0x8A20, symSize: 0x60 }
  - { offset: 0xA5034, size: 0x8, addend: 0x0, symName: '__ZN4core3ptr144drop_in_place$LT$alloc..vec..Vec$LT$core..option..Option$LT$core..option..Option$LT$std..backtrace_rs..symbolize..gimli..Mapping$GT$$GT$$GT$$GT$17h6f7a5149f1a907feE', symObjAddr: 0x2880, symBinAddr: 0x8A80, symSize: 0x80 }
  - { offset: 0xA51C7, size: 0x8, addend: 0x0, symName: '__ZN4core3ptr152drop_in_place$LT$alloc..collections..btree..map..BTreeMap$LT$std..ffi..os_str..OsString$C$core..option..Option$LT$std..ffi..os_str..OsString$GT$$GT$$GT$17he2e46d8a4d6d97d8E', symObjAddr: 0x2900, symBinAddr: 0x8B00, symSize: 0xF0 }
  - { offset: 0xA5471, size: 0x8, addend: 0x0, symName: '__ZN4core3ptr152drop_in_place$LT$alloc..vec..Vec$LT$addr2line..unit..ResUnit$LT$gimli..read..endian_slice..EndianSlice$LT$gimli..endianity..LittleEndian$GT$$GT$$GT$$GT$17h41fa6f2dd419879bE', symObjAddr: 0x29F0, symBinAddr: 0x8BF0, symSize: 0xD0 }
  - { offset: 0xA55EF, size: 0x8, addend: 0x0, symName: '__ZN4core3ptr152drop_in_place$LT$alloc..vec..Vec$LT$addr2line..unit..SupUnit$LT$gimli..read..endian_slice..EndianSlice$LT$gimli..endianity..LittleEndian$GT$$GT$$GT$$GT$17h3293e037f68c9d2bE', symObjAddr: 0x2AC0, symBinAddr: 0x8CC0, symSize: 0x100 }
  - { offset: 0xA580B, size: 0x8, addend: 0x0, symName: '__ZN4core3ptr156drop_in_place$LT$alloc..boxed..Box$LT$$u5b$core..option..Option$LT$core..option..Option$LT$std..backtrace_rs..symbolize..gimli..Mapping$GT$$GT$$u5d$$GT$$GT$17he0113b626bb1818fE', symObjAddr: 0x2BC0, symBinAddr: 0x8DC0, symSize: 0xF0 }
  - { offset: 0xA5941, size: 0x8, addend: 0x0, symName: '__ZN4core3ptr159drop_in_place$LT$alloc..sync..ArcInner$LT$gimli..read..dwarf..Dwarf$LT$gimli..read..endian_slice..EndianSlice$LT$gimli..endianity..LittleEndian$GT$$GT$$GT$$GT$17h576a6f0cb3102088E', symObjAddr: 0x2CB0, symBinAddr: 0x8EB0, symSize: 0x60 }
  - { offset: 0xA59F8, size: 0x8, addend: 0x0, symName: '__ZN4core3ptr161drop_in_place$LT$alloc..vec..Vec$LT$addr2line..function..LazyFunction$LT$gimli..read..endian_slice..EndianSlice$LT$gimli..endianity..LittleEndian$GT$$GT$$GT$$GT$17h0b2227fd0f258c46E', symObjAddr: 0x2D10, symBinAddr: 0x8F10, symSize: 0xC0 }
  - { offset: 0xA5C50, size: 0x8, addend: 0x0, symName: '__ZN4core3ptr164drop_in_place$LT$$u5b$alloc..boxed..Box$LT$dyn$u20$core..ops..function..FnOnce$LT$$LP$$RP$$GT$$u2b$Output$u20$$u3d$$u20$$LP$$RP$$u2b$core..marker..Send$GT$$u5d$$GT$17h89c9f67a89f7d890E', symObjAddr: 0x2DD0, symBinAddr: 0x8FD0, symSize: 0xB0 }
  - { offset: 0xA5D69, size: 0x8, addend: 0x0, symName: '__ZN4core3ptr172drop_in_place$LT$core..result..Result$LT$addr2line..Context$LT$gimli..read..endian_slice..EndianSlice$LT$gimli..endianity..LittleEndian$GT$$GT$$C$gimli..read..Error$GT$$GT$17h3f2a6e332a52d094E', symObjAddr: 0x2E80, symBinAddr: 0x9080, symSize: 0x70 }
  - { offset: 0xA5DEF, size: 0x8, addend: 0x0, symName: '__ZN4core3ptr173drop_in_place$LT$alloc..boxed..Box$LT$$u5b$addr2line..function..LazyFunction$LT$gimli..read..endian_slice..EndianSlice$LT$gimli..endianity..LittleEndian$GT$$GT$$u5d$$GT$$GT$17h6e6491c5eb68f4edE', symObjAddr: 0x2EF0, symBinAddr: 0x90F0, symSize: 0xA0 }
  - { offset: 0xA5E07, size: 0x8, addend: 0x0, symName: '__ZN4core3ptr173drop_in_place$LT$alloc..boxed..Box$LT$$u5b$addr2line..function..LazyFunction$LT$gimli..read..endian_slice..EndianSlice$LT$gimli..endianity..LittleEndian$GT$$GT$$u5d$$GT$$GT$17h6e6491c5eb68f4edE', symObjAddr: 0x2EF0, symBinAddr: 0x90F0, symSize: 0xA0 }
  - { offset: 0xA6001, size: 0x8, addend: 0x0, symName: '__ZN4core3ptr177drop_in_place$LT$alloc..vec..Vec$LT$alloc..boxed..Box$LT$dyn$u20$core..ops..function..FnOnce$LT$$LP$$RP$$GT$$u2b$Output$u20$$u3d$$u20$$LP$$RP$$u2b$core..marker..Send$GT$$GT$$GT$17h1d2acfa7dc9aa06dE', symObjAddr: 0x2F90, symBinAddr: 0x9190, symSize: 0x70 }
  - { offset: 0xA61E1, size: 0x8, addend: 0x0, symName: '__ZN4core3ptr181drop_in_place$LT$core..option..Option$LT$gimli..read..line..IncompleteLineProgram$LT$gimli..read..endian_slice..EndianSlice$LT$gimli..endianity..LittleEndian$GT$$C$usize$GT$$GT$$GT$17h9c615930d9e11fc4E', symObjAddr: 0x3000, symBinAddr: 0x9200, symSize: 0xA0 }
  - { offset: 0xA64BE, size: 0x8, addend: 0x0, symName: '__ZN4core3ptr181drop_in_place$LT$core..result..Result$LT$addr2line..frame..FrameIter$LT$gimli..read..endian_slice..EndianSlice$LT$gimli..endianity..LittleEndian$GT$$GT$$C$gimli..read..Error$GT$$GT$17hd6edf1f60551d315E', symObjAddr: 0x30A0, symBinAddr: 0x92A0, symSize: 0x40 }
  - { offset: 0xA660B, size: 0x8, addend: 0x0, symName: '__ZN4core3ptr184drop_in_place$LT$core..result..Result$LT$addr2line..function..Functions$LT$gimli..read..endian_slice..EndianSlice$LT$gimli..endianity..LittleEndian$GT$$GT$$C$gimli..read..Error$GT$$GT$17ha578d98975ec036cE', symObjAddr: 0x30E0, symBinAddr: 0x92E0, symSize: 0xE0 }
  - { offset: 0xA7213, size: 0x8, addend: 0x0, symName: '__ZN4core3ptr193drop_in_place$LT$alloc..vec..into_iter..IntoIter$LT$alloc..boxed..Box$LT$dyn$u20$core..ops..function..FnOnce$LT$$LP$$RP$$GT$$u2b$Output$u20$$u3d$$u20$$LP$$RP$$u2b$core..marker..Send$GT$$GT$$GT$17h323ce6d271237844E', symObjAddr: 0x31C0, symBinAddr: 0x93C0, symSize: 0x70 }
  - { offset: 0xA7449, size: 0x8, addend: 0x0, symName: '__ZN4core3ptr199drop_in_place$LT$core..result..Result$LT$core..option..Option$LT$alloc..sync..Arc$LT$std..sync..poison..mutex..Mutex$LT$alloc..vec..Vec$LT$u8$GT$$GT$$GT$$GT$$C$std..thread..local..AccessError$GT$$GT$17h5ea2868c1c7e713eE', symObjAddr: 0x3230, symBinAddr: 0x9430, symSize: 0x30 }
  - { offset: 0xA74E9, size: 0x8, addend: 0x0, symName: '__ZN4core3ptr231drop_in_place$LT$core..result..Result$LT$core..option..Option$LT$alloc..boxed..Box$LT$addr2line..unit..DwoUnit$LT$gimli..read..endian_slice..EndianSlice$LT$gimli..endianity..LittleEndian$GT$$GT$$GT$$GT$$C$gimli..read..Error$GT$$GT$17h8db8c06fabc741fcE', symObjAddr: 0x3260, symBinAddr: 0x9460, symSize: 0xB0 }
  - { offset: 0xA76D7, size: 0x8, addend: 0x0, symName: '__ZN4core3ptr238drop_in_place$LT$alloc..boxed..convert..$LT$impl$u20$core..convert..From$LT$alloc..string..String$GT$$u20$for$u20$alloc..boxed..Box$LT$dyn$u20$core..error..Error$u2b$core..marker..Sync$u2b$core..marker..Send$GT$$GT$..from..StringError$GT$17hc564b2f5810573bdE', symObjAddr: 0x3310, symBinAddr: 0x9510, symSize: 0x20 }
  - { offset: 0xA778A, size: 0x8, addend: 0x0, symName: '__ZN4core3ptr275drop_in_place$LT$gimli..read..line..LineRows$LT$gimli..read..endian_slice..EndianSlice$LT$gimli..endianity..LittleEndian$GT$$C$gimli..read..line..IncompleteLineProgram$LT$gimli..read..endian_slice..EndianSlice$LT$gimli..endianity..LittleEndian$GT$$C$usize$GT$$C$usize$GT$$GT$17h083eea69e99837c2E', symObjAddr: 0x3330, symBinAddr: 0x9530, symSize: 0xA0 }
  - { offset: 0xA7A21, size: 0x8, addend: 0x0, symName: '__ZN4core3ptr280drop_in_place$LT$$LT$alloc..collections..btree..map..IntoIter$LT$K$C$V$C$A$GT$$u20$as$u20$core..ops..drop..Drop$GT$..drop..DropGuard$LT$u64$C$core..result..Result$LT$alloc..sync..Arc$LT$gimli..read..abbrev..Abbreviations$GT$$C$gimli..read..Error$GT$$C$alloc..alloc..Global$GT$$GT$17hccfe2dc9a20f8f2eE', symObjAddr: 0x33D0, symBinAddr: 0x95D0, symSize: 0x80 }
  - { offset: 0xA7B8F, size: 0x8, addend: 0x0, symName: '__ZN4core3ptr37drop_in_place$LT$std..env..VarsOs$GT$17he495620ab551c363E', symObjAddr: 0x3450, symBinAddr: 0x9650, symSize: 0xB0 }
  - { offset: 0xA7E7A, size: 0x8, addend: 0x0, symName: '__ZN4core3ptr39drop_in_place$LT$std..path..PathBuf$GT$17h5a8806a97d79577aE', symObjAddr: 0x3500, symBinAddr: 0x9700, symSize: 0x20 }
  - { offset: 0xA7FB2, size: 0x8, addend: 0x0, symName: '__ZN4core3ptr40drop_in_place$LT$std..process..Child$GT$17hbd49891d7e4920dcE', symObjAddr: 0x3520, symBinAddr: 0x9720, symSize: 0x40 }
  - { offset: 0xA813A, size: 0x8, addend: 0x0, symName: '__ZN4core3ptr40drop_in_place$LT$std..thread..Thread$GT$17h48ea788e2a64c900E', symObjAddr: 0x3560, symBinAddr: 0x9760, symSize: 0x20 }
  - { offset: 0xA81FC, size: 0x8, addend: 0x0, symName: '__ZN4core3ptr41drop_in_place$LT$std..panicking..Hook$GT$17hadc4165129c6a2ebE', symObjAddr: 0x3580, symBinAddr: 0x9780, symSize: 0x70 }
  - { offset: 0xA8300, size: 0x8, addend: 0x0, symName: '__ZN4core3ptr42drop_in_place$LT$alloc..string..String$GT$17h962b7eddced39f42E', symObjAddr: 0x35F0, symBinAddr: 0x97F0, symSize: 0x20 }
  - { offset: 0xA83E2, size: 0x8, addend: 0x0, symName: '__ZN4core3ptr42drop_in_place$LT$std..io..error..Error$GT$17h8a9b789be159f3bcE', symObjAddr: 0x3610, symBinAddr: 0x9810, symSize: 0xA0 }
  - { offset: 0xA8660, size: 0x8, addend: 0x0, symName: '__ZN4core3ptr44drop_in_place$LT$object..read..ObjectMap$GT$17hf0b34c57e85c25f3E', symObjAddr: 0x36B0, symBinAddr: 0x98B0, symSize: 0x50 }
  - { offset: 0xA87CA, size: 0x8, addend: 0x0, symName: '__ZN4core3ptr44drop_in_place$LT$std..backtrace..Capture$GT$17h7318effc9a915142E', symObjAddr: 0x3700, symBinAddr: 0x9900, symSize: 0x60 }
  - { offset: 0xA88C9, size: 0x8, addend: 0x0, symName: '__ZN4core3ptr46drop_in_place$LT$alloc..vec..Vec$LT$u8$GT$$GT$17h9e5c0976dc9f6f37E', symObjAddr: 0x3760, symBinAddr: 0x9960, symSize: 0x20 }
  - { offset: 0xA895C, size: 0x8, addend: 0x0, symName: '__ZN4core3ptr46drop_in_place$LT$std..io..stdio..StdinLock$GT$17hd4b964982484da1dE', symObjAddr: 0x3780, symBinAddr: 0x9980, symSize: 0x50 }
  - { offset: 0xA8974, size: 0x8, addend: 0x0, symName: '__ZN4core3ptr46drop_in_place$LT$std..io..stdio..StdinLock$GT$17hd4b964982484da1dE', symObjAddr: 0x3780, symBinAddr: 0x9980, symSize: 0x50 }
  - { offset: 0xA898A, size: 0x8, addend: 0x0, symName: '__ZN4core3ptr46drop_in_place$LT$std..io..stdio..StdinLock$GT$17hd4b964982484da1dE', symObjAddr: 0x3780, symBinAddr: 0x9980, symSize: 0x50 }
  - { offset: 0xA8A87, size: 0x8, addend: 0x0, symName: '__ZN4core3ptr47drop_in_place$LT$alloc..ffi..c_str..CString$GT$17h62d41263924adca3E', symObjAddr: 0x37D0, symBinAddr: 0x99D0, symSize: 0x30 }
  - { offset: 0xA8B0D, size: 0x8, addend: 0x0, symName: '__ZN4core3ptr47drop_in_place$LT$std..ffi..os_str..OsString$GT$17h54ff31b630da04c8E', symObjAddr: 0x3800, symBinAddr: 0x9A00, symSize: 0x20 }
  - { offset: 0xA8BB0, size: 0x8, addend: 0x0, symName: '__ZN4core3ptr47drop_in_place$LT$std..sys..env..common..Env$GT$17h6c55b1ea3e5b9708E', symObjAddr: 0x3820, symBinAddr: 0x9A20, symSize: 0xB0 }
  - { offset: 0xA8E84, size: 0x8, addend: 0x0, symName: '__ZN4core3ptr48drop_in_place$LT$alloc..ffi..c_str..NulError$GT$17hb1a516a91255b332E', symObjAddr: 0x38D0, symBinAddr: 0x9AD0, symSize: 0x20 }
  - { offset: 0xA8F58, size: 0x8, addend: 0x0, symName: '__ZN4core3ptr49drop_in_place$LT$std..sys..args..common..Args$GT$17hf33fd8e7ddda8351E', symObjAddr: 0x38F0, symBinAddr: 0x9AF0, symSize: 0xA0 }
  - { offset: 0xA917F, size: 0x8, addend: 0x0, symName: '__ZN4core3ptr49drop_in_place$LT$std..sys..fd..unix..FileDesc$GT$17hf89b5540311589ecE', symObjAddr: 0x3990, symBinAddr: 0x9B90, symSize: 0x10 }
  - { offset: 0xA923F, size: 0x8, addend: 0x0, symName: '__ZN4core3ptr51drop_in_place$LT$std..backtrace..BacktraceFrame$GT$17h3ad327b2dc56b5ccE', symObjAddr: 0x39A0, symBinAddr: 0x9BA0, symSize: 0xE0 }
  - { offset: 0xA9519, size: 0x8, addend: 0x0, symName: '__ZN4core3ptr52drop_in_place$LT$std..backtrace..BacktraceSymbol$GT$17h7631404ee0db4b60E', symObjAddr: 0x3A80, symBinAddr: 0x9C80, symSize: 0x80 }
  - { offset: 0xA979B, size: 0x8, addend: 0x0, symName: '__ZN4core3ptr55drop_in_place$LT$gimli..read..abbrev..Abbreviations$GT$17h8f8a4a550a1bae9eE', symObjAddr: 0x3B00, symBinAddr: 0x9D00, symSize: 0x130 }
  - { offset: 0xA9B09, size: 0x8, addend: 0x0, symName: '__ZN4core3ptr55drop_in_place$LT$std..sys..process..env..CommandEnv$GT$17he3d49dc419a47206E', symObjAddr: 0x3C30, symBinAddr: 0x9E30, symSize: 0x10 }
  - { offset: 0xA9B40, size: 0x8, addend: 0x0, symName: '__ZN4core3ptr55drop_in_place$LT$std..thread..spawnhook..SpawnHooks$GT$17h84b840be03044a96E', symObjAddr: 0x3C40, symBinAddr: 0x9E40, symSize: 0x60 }
  - { offset: 0xA9C63, size: 0x8, addend: 0x0, symName: '__ZN4core3ptr60drop_in_place$LT$gimli..read..abbrev..AbbreviationsCache$GT$17h52eda3182c702e3eE', symObjAddr: 0x3CA0, symBinAddr: 0x9EA0, symSize: 0xE0 }
  - { offset: 0xA9DF4, size: 0x8, addend: 0x0, symName: '__ZN4core3ptr64drop_in_place$LT$std..sys..pal..unix..sync..mutex..AttrGuard$GT$17h20cfb208a097735dE', symObjAddr: 0x3D80, symBinAddr: 0x9F80, symSize: 0x40 }
  - { offset: 0xA9E25, size: 0x8, addend: 0x0, symName: '__ZN4core3ptr64drop_in_place$LT$std..sys..process..unix..common..ChildPipes$GT$17hff078f0dbfebeb9aE', symObjAddr: 0x3DC0, symBinAddr: 0x9FC0, symSize: 0x50 }
  - { offset: 0xA9F41, size: 0x8, addend: 0x0, symName: '__ZN4core3ptr64drop_in_place$LT$std..sys..process..unix..common..StdioPipes$GT$17h24453ab79cffc000E', symObjAddr: 0x3E10, symBinAddr: 0xA010, symSize: 0x40 }
  - { offset: 0xAA0EE, size: 0x8, addend: 0x0, symName: '__ZN4core3ptr65drop_in_place$LT$std..backtrace_rs..symbolize..gimli..Context$GT$17hd7e3b4ad994f9acfE', symObjAddr: 0x3EE0, symBinAddr: 0xA050, symSize: 0x100 }
  - { offset: 0xAA38F, size: 0x8, addend: 0x0, symName: '__ZN4core3ptr65drop_in_place$LT$std..sys..pal..unix..stack_overflow..Handler$GT$17h327069a1a775b9f2E', symObjAddr: 0x3FE0, symBinAddr: 0xA150, symSize: 0x60 }
  - { offset: 0xAA3A7, size: 0x8, addend: 0x0, symName: '__ZN4core3ptr65drop_in_place$LT$std..sys..pal..unix..stack_overflow..Handler$GT$17h327069a1a775b9f2E', symObjAddr: 0x3FE0, symBinAddr: 0xA150, symSize: 0x60 }
  - { offset: 0xAA3BD, size: 0x8, addend: 0x0, symName: '__ZN4core3ptr65drop_in_place$LT$std..sys..pal..unix..stack_overflow..Handler$GT$17h327069a1a775b9f2E', symObjAddr: 0x3FE0, symBinAddr: 0xA150, symSize: 0x60 }
  - { offset: 0xAA413, size: 0x8, addend: 0x0, symName: '__ZN4core3ptr66drop_in_place$LT$std..backtrace_rs..backtrace..libunwind..Bomb$GT$17h9560f791dec6ff8dE', symObjAddr: 0x4040, symBinAddr: 0xA1B0, symSize: 0x50 }
  - { offset: 0xAA4A7, size: 0x8, addend: 0x0, symName: '__ZN4core3ptr66drop_in_place$LT$std..sys..process..unix..common..CStringArray$GT$17heafde724560b8b5aE', symObjAddr: 0x4090, symBinAddr: 0xA200, symSize: 0xA0 }
  - { offset: 0xAA69E, size: 0x8, addend: 0x0, symName: '__ZN4core3ptr70drop_in_place$LT$alloc..vec..Vec$LT$alloc..ffi..c_str..CString$GT$$GT$17h85ed5b094cfdfc5cE', symObjAddr: 0x4130, symBinAddr: 0xA2A0, symSize: 0x80 }
  - { offset: 0xAA860, size: 0x8, addend: 0x0, symName: '__ZN4core3ptr70drop_in_place$LT$std..backtrace_rs..symbolize..gimli..stash..Stash$GT$17h1626e26d6828343fE', symObjAddr: 0x4240, symBinAddr: 0xA320, symSize: 0xE0 }
  - { offset: 0xAAB24, size: 0x8, addend: 0x0, symName: '__ZN4core3ptr71drop_in_place$LT$std..backtrace_rs..symbolize..gimli..macho..Object$GT$17h4466b2e848e8d492E', symObjAddr: 0x4320, symBinAddr: 0xA400, symSize: 0xD0 }
  - { offset: 0xAAE1D, size: 0x8, addend: 0x0, symName: '__ZN4core3ptr71drop_in_place$LT$std..panicking..rust_panic_without_hook..RewrapBox$GT$17h37e2c1d13cb7ca90E', symObjAddr: 0x43F0, symBinAddr: 0xA4D0, symSize: 0x70 }
  - { offset: 0xAAF21, size: 0x8, addend: 0x0, symName: '__ZN4core3ptr72drop_in_place$LT$core..option..Option$LT$object..read..ObjectMap$GT$$GT$17hf4386f2942d2dd29E', symObjAddr: 0x4460, symBinAddr: 0xA540, symSize: 0x60 }
  - { offset: 0xAB0B0, size: 0x8, addend: 0x0, symName: '__ZN4core3ptr73drop_in_place$LT$alloc..vec..Vec$LT$addr2line..line..LineSequence$GT$$GT$17hfabced645c6f23a2E', symObjAddr: 0x44C0, symBinAddr: 0xA5A0, symSize: 0x90 }
  - { offset: 0xAB218, size: 0x8, addend: 0x0, symName: '__ZN4core3ptr73drop_in_place$LT$core..option..Option$LT$std..process..ChildStdin$GT$$GT$17ha1554773be911219E', symObjAddr: 0x4550, symBinAddr: 0xA630, symSize: 0x20 }
  - { offset: 0xAB29F, size: 0x8, addend: 0x0, symName: '__ZN4core3ptr75drop_in_place$LT$core..option..Option$LT$alloc..ffi..c_str..CString$GT$$GT$17hd19b90708d29b619E', symObjAddr: 0x4570, symBinAddr: 0xA650, symSize: 0x30 }
  - { offset: 0xAB33C, size: 0x8, addend: 0x0, symName: '__ZN4core3ptr77drop_in_place$LT$alloc..boxed..Box$LT$$u5b$alloc..string..String$u5d$$GT$$GT$17h4b54aef0a639c34fE', symObjAddr: 0x45A0, symBinAddr: 0xA680, symSize: 0x60 }
  - { offset: 0xAB354, size: 0x8, addend: 0x0, symName: '__ZN4core3ptr77drop_in_place$LT$alloc..boxed..Box$LT$$u5b$alloc..string..String$u5d$$GT$$GT$17h4b54aef0a639c34fE', symObjAddr: 0x45A0, symBinAddr: 0xA680, symSize: 0x60 }
  - { offset: 0xAB46C, size: 0x8, addend: 0x0, symName: '__ZN4core3ptr77drop_in_place$LT$std..panicking..begin_panic_handler..FormatStringPayload$GT$17h645846bb6b11a530E', symObjAddr: 0x4600, symBinAddr: 0xA6E0, symSize: 0x30 }
  - { offset: 0xAB530, size: 0x8, addend: 0x0, symName: '__ZN4core3ptr78drop_in_place$LT$core..result..Result$LT$usize$C$std..io..error..Error$GT$$GT$17h503f105e7f50167eE', symObjAddr: 0x4630, symBinAddr: 0xA710, symSize: 0x20 }
  - { offset: 0xAB544, size: 0x8, addend: 0x0, symName: '__ZN4core3ptr79drop_in_place$LT$std..sync..poison..rwlock..RwLockReadGuard$LT$$LP$$RP$$GT$$GT$17hd02679378778896bE', symObjAddr: 0x4650, symBinAddr: 0xA730, symSize: 0x50 }
  - { offset: 0xAB5E6, size: 0x8, addend: 0x0, symName: '__ZN4core3ptr81drop_in_place$LT$core..result..Result$LT$$LP$$RP$$C$std..io..error..Error$GT$$GT$17hec684621a6921054E', symObjAddr: 0x46A0, symBinAddr: 0xA780, symSize: 0x20 }
  - { offset: 0xAB616, size: 0x8, addend: 0x0, symName: '__ZN4core3ptr82drop_in_place$LT$alloc..sync..ArcInner$LT$std..sys..fs..unix..InnerReadDir$GT$$GT$17h33554634a9c0e5ceE', symObjAddr: 0x46C0, symBinAddr: 0xA7A0, symSize: 0x60 }
  - { offset: 0xAB7CF, size: 0x8, addend: 0x0, symName: '__ZN4core3ptr84drop_in_place$LT$$LP$std..ffi..os_str..OsString$C$std..ffi..os_str..OsString$RP$$GT$17h26658184547629a1E', symObjAddr: 0x4720, symBinAddr: 0xA800, symSize: 0x50 }
  - { offset: 0xAB93C, size: 0x8, addend: 0x0, symName: '__ZN4core3ptr87drop_in_place$LT$core..option..Option$LT$alloc..boxed..Box$LT$$u5b$u32$u5d$$GT$$GT$$GT$17ha944f6be1c5b0021E', symObjAddr: 0x4770, symBinAddr: 0xA850, symSize: 0x30 }
  - { offset: 0xAB9E6, size: 0x8, addend: 0x0, symName: '__ZN4core3ptr87drop_in_place$LT$core..option..Option$LT$std..sys..process..unix..common..Stdio$GT$$GT$17h01eb25022a94c46aE', symObjAddr: 0x47A0, symBinAddr: 0xA880, symSize: 0x20 }
  - { offset: 0xABA72, size: 0x8, addend: 0x0, symName: '__ZN4core3ptr90drop_in_place$LT$std..io..buffered..bufwriter..BufWriter$LT$W$GT$..flush_buf..BufGuard$GT$17h5ad2b20a515b9c19E', symObjAddr: 0x47C0, symBinAddr: 0xA8A0, symSize: 0x60 }
  - { offset: 0xABBEE, size: 0x8, addend: 0x0, symName: '__ZN4core3ptr91drop_in_place$LT$core..result..Result$LT$alloc..string..String$C$std..env..VarError$GT$$GT$17heff21fe132e83d86E', symObjAddr: 0x4820, symBinAddr: 0xA900, symSize: 0x30 }
  - { offset: 0xABCA2, size: 0x8, addend: 0x0, symName: '__ZN4core3ptr91drop_in_place$LT$core..result..Result$LT$std..path..PathBuf$C$std..io..error..Error$GT$$GT$17hde5cada9385b985fE', symObjAddr: 0x4850, symBinAddr: 0xA930, symSize: 0x30 }
  - { offset: 0xABD9D, size: 0x8, addend: 0x0, symName: '__ZN4core3ptr92drop_in_place$LT$core..result..Result$LT$addr2line..line..Lines$C$gimli..read..Error$GT$$GT$17hbc5cfa1d453f6bc3E', symObjAddr: 0x4880, symBinAddr: 0xA960, symSize: 0xE0 }
  - { offset: 0xAC000, size: 0x8, addend: 0x0, symName: '__ZN4core3ptr93drop_in_place$LT$core..option..Option$LT$std..backtrace_rs..symbolize..gimli..Mapping$GT$$GT$17h56c75c6061dca71bE', symObjAddr: 0x4960, symBinAddr: 0xAA40, symSize: 0x70 }
  - { offset: 0xAC094, size: 0x8, addend: 0x0, symName: '__ZN4core3ptr94drop_in_place$LT$core..option..Option$LT$std..sys..process..unix..common..CStringArray$GT$$GT$17hf82b2e8388cbd885E', symObjAddr: 0x49D0, symBinAddr: 0xAAB0, symSize: 0xB0 }
  - { offset: 0xAC2BE, size: 0x8, addend: 0x0, symName: '__ZN4core3ptr95drop_in_place$LT$std..io..buffered..linewriter..LineWriter$LT$std..io..stdio..StdoutRaw$GT$$GT$17ha127befcac2f8cbaE', symObjAddr: 0x4A80, symBinAddr: 0xAB60, symSize: 0x100 }
  - { offset: 0xAFCCF, size: 0x8, addend: 0x0, symName: __ZN4core5slice4sort6shared5pivot11median3_rec17h454d7719c3330cc4E, symObjAddr: 0x4F10, symBinAddr: 0xADE0, symSize: 0xC0 }
  - { offset: 0xAFDE1, size: 0x8, addend: 0x0, symName: __ZN4core5slice4sort6shared5pivot11median3_rec17h47fa0c6b47c16f8fE, symObjAddr: 0x4FD0, symBinAddr: 0xAEA0, symSize: 0x140 }
  - { offset: 0xB002F, size: 0x8, addend: 0x0, symName: __ZN4core5slice4sort6shared5pivot11median3_rec17h4c8292ca5cb35888E, symObjAddr: 0x5110, symBinAddr: 0xAFE0, symSize: 0xC0 }
  - { offset: 0xB0141, size: 0x8, addend: 0x0, symName: __ZN4core5slice4sort6shared5pivot11median3_rec17h81942f12fa1ee6ceE, symObjAddr: 0x51D0, symBinAddr: 0xB0A0, symSize: 0xC0 }
  - { offset: 0xB0253, size: 0x8, addend: 0x0, symName: __ZN4core5slice4sort6shared5pivot11median3_rec17ha9e2055f5d161c62E, symObjAddr: 0x5290, symBinAddr: 0xB160, symSize: 0x110 }
  - { offset: 0xB0370, size: 0x8, addend: 0x0, symName: __ZN4core5slice4sort6shared5pivot11median3_rec17hac957e119ab83ed5E, symObjAddr: 0x53A0, symBinAddr: 0xB270, symSize: 0xC0 }
  - { offset: 0xB0482, size: 0x8, addend: 0x0, symName: __ZN4core5slice4sort6shared5pivot11median3_rec17hd58029c0fb285659E, symObjAddr: 0x5460, symBinAddr: 0xB330, symSize: 0xC0 }
  - { offset: 0xB0596, size: 0x8, addend: 0x0, symName: __ZN4core5slice4sort6shared5pivot11median3_rec17hfbd4fbba31698466E, symObjAddr: 0x5520, symBinAddr: 0xB3F0, symSize: 0xB0 }
  - { offset: 0xB0738, size: 0x8, addend: 0x0, symName: __ZN4core5slice4sort6shared9smallsort12sort4_stable17h0fcdba565f1a7904E, symObjAddr: 0x55D0, symBinAddr: 0xB4A0, symSize: 0x1B0 }
  - { offset: 0xB0920, size: 0x8, addend: 0x0, symName: __ZN4core5slice4sort6shared9smallsort12sort4_stable17hf42bb9fcf6f19020E, symObjAddr: 0x5780, symBinAddr: 0xB650, symSize: 0x1F0 }
  - { offset: 0xB0D5B, size: 0x8, addend: 0x0, symName: __ZN4core5slice4sort6shared9smallsort12sort8_stable17habedeba816b4db4cE, symObjAddr: 0x5970, symBinAddr: 0xB840, symSize: 0x3E0 }
  - { offset: 0xB14C6, size: 0x8, addend: 0x0, symName: __ZN4core5slice4sort6shared9smallsort18small_sort_general17h67ab4545c823d913E, symObjAddr: 0x5D50, symBinAddr: 0xBC20, symSize: 0x530 }
  - { offset: 0xB1A43, size: 0x8, addend: 0x0, symName: __ZN4core5slice4sort6shared9smallsort18small_sort_general17hfa0c03617f58c81bE, symObjAddr: 0x6280, symBinAddr: 0xC150, symSize: 0x630 }
  - { offset: 0xB2283, size: 0x8, addend: 0x0, symName: __ZN4core5slice4sort6shared9smallsort25insertion_sort_shift_left17h11470532ed1bfa27E, symObjAddr: 0x68B0, symBinAddr: 0xC780, symSize: 0xC0 }
  - { offset: 0xB23BE, size: 0x8, addend: 0x0, symName: __ZN4core5slice4sort6shared9smallsort25insertion_sort_shift_left17h15c5bad713c35023E, symObjAddr: 0x6970, symBinAddr: 0xC840, symSize: 0xF0 }
  - { offset: 0xB24E9, size: 0x8, addend: 0x0, symName: __ZN4core5slice4sort6shared9smallsort25insertion_sort_shift_left17h3980d3f6c2f94571E, symObjAddr: 0x6A60, symBinAddr: 0xC930, symSize: 0x120 }
  - { offset: 0xB26C2, size: 0x8, addend: 0x0, symName: __ZN4core5slice4sort6shared9smallsort25insertion_sort_shift_left17hc7e4d5585f65f260E, symObjAddr: 0x6B80, symBinAddr: 0xCA50, symSize: 0xF0 }
  - { offset: 0xB2AB0, size: 0x8, addend: 0x0, symName: __ZN4core5slice4sort6stable14driftsort_main17h1e2707bb51f81e0dE, symObjAddr: 0x6C70, symBinAddr: 0xCB40, symSize: 0x150 }
  - { offset: 0xB2D73, size: 0x8, addend: 0x0, symName: __ZN4core5slice4sort6stable14driftsort_main17h968e7e9735bb1586E, symObjAddr: 0x6DC0, symBinAddr: 0xCC90, symSize: 0x170 }
  - { offset: 0xB2FAE, size: 0x8, addend: 0x0, symName: __ZN4core5slice4sort6stable14driftsort_main17h9d4d3cdf0605ead4E, symObjAddr: 0x6F30, symBinAddr: 0xCE00, symSize: 0x160 }
  - { offset: 0xB32F3, size: 0x8, addend: 0x0, symName: __ZN4core5slice4sort6stable14driftsort_main17hbb6e847dba593c8fE, symObjAddr: 0x7090, symBinAddr: 0xCF60, symSize: 0x150 }
  - { offset: 0xB35B6, size: 0x8, addend: 0x0, symName: __ZN4core5slice4sort6stable14driftsort_main17hc36ce742c9eaca9aE, symObjAddr: 0x71E0, symBinAddr: 0xD0B0, symSize: 0x150 }
  - { offset: 0xB3879, size: 0x8, addend: 0x0, symName: __ZN4core5slice4sort6stable14driftsort_main17he8a74d6549c113fdE, symObjAddr: 0x7330, symBinAddr: 0xD200, symSize: 0x160 }
  - { offset: 0xB3DB1, size: 0x8, addend: 0x0, symName: __ZN4core5slice4sort6stable5drift4sort17h1116f46a3656d702E, symObjAddr: 0x7490, symBinAddr: 0xD360, symSize: 0x6F0 }
  - { offset: 0xB456D, size: 0x8, addend: 0x0, symName: __ZN4core5slice4sort6stable5drift4sort17h54bfaf9d920af92aE, symObjAddr: 0x7B80, symBinAddr: 0xDA50, symSize: 0x690 }
  - { offset: 0xB4D23, size: 0x8, addend: 0x0, symName: __ZN4core5slice4sort6stable5drift4sort17h8cd5883177131405E, symObjAddr: 0x8210, symBinAddr: 0xE0E0, symSize: 0x700 }
  - { offset: 0xB54C9, size: 0x8, addend: 0x0, symName: __ZN4core5slice4sort6stable5drift4sort17h9e72eabd28f223d7E, symObjAddr: 0x8910, symBinAddr: 0xE7E0, symSize: 0x690 }
  - { offset: 0xB5C7F, size: 0x8, addend: 0x0, symName: __ZN4core5slice4sort6stable5drift4sort17hdf77a07ed8505992E, symObjAddr: 0x8FA0, symBinAddr: 0xEE70, symSize: 0x6D0 }
  - { offset: 0xB6425, size: 0x8, addend: 0x0, symName: __ZN4core5slice4sort6stable5drift4sort17hf1d7da335574aa53E, symObjAddr: 0x9670, symBinAddr: 0xF540, symSize: 0x6F0 }
  - { offset: 0xB6E25, size: 0x8, addend: 0x0, symName: __ZN4core5slice4sort6stable9quicksort9quicksort17h206b2c07c5f3a8cbE, symObjAddr: 0x9D60, symBinAddr: 0xFC30, symSize: 0xC10 }
  - { offset: 0xB7BD5, size: 0x8, addend: 0x0, symName: __ZN4core5slice4sort6stable9quicksort9quicksort17h28d76053a918c0deE, symObjAddr: 0xA970, symBinAddr: 0x10840, symSize: 0xD50 }
  - { offset: 0xB89C4, size: 0x8, addend: 0x0, symName: __ZN4core5slice4sort6stable9quicksort9quicksort17h37efba6ee8d9a9c8E, symObjAddr: 0xB6C0, symBinAddr: 0x11590, symSize: 0xB40 }
  - { offset: 0xB9803, size: 0x8, addend: 0x0, symName: __ZN4core5slice4sort6stable9quicksort9quicksort17h6ae685f6d1f75622E, symObjAddr: 0xC200, symBinAddr: 0x120D0, symSize: 0xB60 }
  - { offset: 0xBA0C9, size: 0x8, addend: 0x0, symName: __ZN4core5slice4sort6stable9quicksort9quicksort17h6ccde848e77b8a88E, symObjAddr: 0xCD60, symBinAddr: 0x12C30, symSize: 0xC30 }
  - { offset: 0xBAE69, size: 0x8, addend: 0x0, symName: __ZN4core5slice4sort6stable9quicksort9quicksort17h8b638609f3552246E, symObjAddr: 0xD990, symBinAddr: 0x13860, symSize: 0xB80 }
  - { offset: 0xBC321, size: 0x8, addend: 0x0, symName: __ZN4core5slice4sort8unstable7ipnsort17h6f5c96e594fcf20cE, symObjAddr: 0xE510, symBinAddr: 0x143E0, symSize: 0xE0 }
  - { offset: 0xBC4DD, size: 0x8, addend: 0x0, symName: __ZN4core5slice4sort8unstable7ipnsort17hd0a7d4206ef2edecE, symObjAddr: 0xE5F0, symBinAddr: 0x144C0, symSize: 0x1A0 }
  - { offset: 0xBC7B2, size: 0x8, addend: 0x0, symName: __ZN4core5slice4sort8unstable8heapsort8heapsort17h92a163569b42c3b0E, symObjAddr: 0xE790, symBinAddr: 0x14660, symSize: 0x120 }
  - { offset: 0xBC9FC, size: 0x8, addend: 0x0, symName: __ZN4core5slice4sort8unstable8heapsort8heapsort17hb93f934c493f5e19E, symObjAddr: 0xE8B0, symBinAddr: 0x14780, symSize: 0x1D0 }
  - { offset: 0xBCDB2, size: 0x8, addend: 0x0, symName: __ZN4core5slice4sort8unstable9quicksort9quicksort17h249d50388d018c84E, symObjAddr: 0xEA80, symBinAddr: 0x14950, symSize: 0x570 }
  - { offset: 0xBD65D, size: 0x8, addend: 0x0, symName: __ZN4core5slice4sort8unstable9quicksort9quicksort17hfe9913a27947664dE, symObjAddr: 0xEFF0, symBinAddr: 0x14EC0, symSize: 0x77A }
  - { offset: 0xBE4A9, size: 0x8, addend: 0x0, symName: '__ZN36_$LT$T$u20$as$u20$core..any..Any$GT$7type_id17h3d23934014582d68E', symObjAddr: 0x230, symBinAddr: 0x6440, symSize: 0x20 }
  - { offset: 0xBE4C3, size: 0x8, addend: 0x0, symName: '__ZN36_$LT$T$u20$as$u20$core..any..Any$GT$7type_id17h776807a4649d16e9E', symObjAddr: 0x250, symBinAddr: 0x6460, symSize: 0x20 }
  - { offset: 0xBE4DD, size: 0x8, addend: 0x0, symName: '__ZN36_$LT$T$u20$as$u20$core..any..Any$GT$7type_id17h98053630bc5b4198E', symObjAddr: 0x270, symBinAddr: 0x6480, symSize: 0x1A }
  - { offset: 0xBE5A0, size: 0x8, addend: 0x0, symName: '__ZN41_$LT$bool$u20$as$u20$core..fmt..Debug$GT$3fmt17h48154f55485eb7edE', symObjAddr: 0x2A0, symBinAddr: 0x64A0, symSize: 0x10 }
  - { offset: 0xBE63E, size: 0x8, addend: 0x0, symName: '__ZN4core3fmt3num50_$LT$impl$u20$core..fmt..Debug$u20$for$u20$i32$GT$3fmt17hde838e2a6ffd9d3dE', symObjAddr: 0xF70, symBinAddr: 0x7170, symSize: 0x30 }
  - { offset: 0xBE67C, size: 0x8, addend: 0x0, symName: '__ZN4core3fmt3num50_$LT$impl$u20$core..fmt..Debug$u20$for$u20$u32$GT$3fmt17h7afcd73b4f7c9f2fE', symObjAddr: 0xFD0, symBinAddr: 0x71D0, symSize: 0x30 }
  - { offset: 0xBE6BA, size: 0x8, addend: 0x0, symName: '__ZN4core3fmt3num49_$LT$impl$u20$core..fmt..Debug$u20$for$u20$u8$GT$3fmt17heb8eab6f0c9a49c6E', symObjAddr: 0xF40, symBinAddr: 0x7140, symSize: 0x30 }
  - { offset: 0xBE6F8, size: 0x8, addend: 0x0, symName: '__ZN4core3fmt3num50_$LT$impl$u20$core..fmt..Debug$u20$for$u20$u64$GT$3fmt17ha56e9442e10c46b9E', symObjAddr: 0x1000, symBinAddr: 0x7200, symSize: 0x30 }
  - { offset: 0xBE729, size: 0x8, addend: 0x0, symName: '__ZN4core3fmt3num50_$LT$impl$u20$core..fmt..Debug$u20$for$u20$i64$GT$3fmt17hd23a88438245cde4E', symObjAddr: 0xFA0, symBinAddr: 0x71A0, symSize: 0x30 }
  - { offset: 0xBE760, size: 0x8, addend: 0x0, symName: '__ZN4core3fmt3num52_$LT$impl$u20$core..fmt..Debug$u20$for$u20$usize$GT$3fmt17hca0986cd22699a59E', symObjAddr: 0x1030, symBinAddr: 0x7230, symSize: 0x30 }
  - { offset: 0xBE79F, size: 0x8, addend: 0x0, symName: '__ZN42_$LT$$RF$T$u20$as$u20$core..fmt..Debug$GT$3fmt17h066e423695ecb1b1E', symObjAddr: 0x2B0, symBinAddr: 0x64B0, symSize: 0x30 }
  - { offset: 0xBE7F5, size: 0x8, addend: 0x0, symName: '__ZN42_$LT$$RF$T$u20$as$u20$core..fmt..Debug$GT$3fmt17h12e554dbcc9b9438E', symObjAddr: 0x2E0, symBinAddr: 0x64E0, symSize: 0x60 }
  - { offset: 0xBE84C, size: 0x8, addend: 0x0, symName: '__ZN42_$LT$$RF$T$u20$as$u20$core..fmt..Debug$GT$3fmt17h1741854d168c76d2E', symObjAddr: 0x340, symBinAddr: 0x6540, symSize: 0x20 }
  - { offset: 0xBE87E, size: 0x8, addend: 0x0, symName: '__ZN42_$LT$$RF$T$u20$as$u20$core..fmt..Debug$GT$3fmt17h18650de87fa167b9E', symObjAddr: 0x360, symBinAddr: 0x6560, symSize: 0x20 }
  - { offset: 0xBE8B0, size: 0x8, addend: 0x0, symName: '__ZN42_$LT$$RF$T$u20$as$u20$core..fmt..Debug$GT$3fmt17h1a7d388457f90972E', symObjAddr: 0x380, symBinAddr: 0x6580, symSize: 0x30 }
  - { offset: 0xBE8E2, size: 0x8, addend: 0x0, symName: '__ZN42_$LT$$RF$T$u20$as$u20$core..fmt..Debug$GT$3fmt17h43fa7705d2368ae4E', symObjAddr: 0x3B0, symBinAddr: 0x65B0, symSize: 0x130 }
  - { offset: 0xBE9B2, size: 0x8, addend: 0x0, symName: '__ZN42_$LT$$RF$T$u20$as$u20$core..fmt..Debug$GT$3fmt17h4cb6563b39484891E', symObjAddr: 0x4E0, symBinAddr: 0x66E0, symSize: 0x50 }
  - { offset: 0xBE9E4, size: 0x8, addend: 0x0, symName: '__ZN42_$LT$$RF$T$u20$as$u20$core..fmt..Debug$GT$3fmt17h4d3a1a0ce6524767E', symObjAddr: 0x530, symBinAddr: 0x6730, symSize: 0x130 }
  - { offset: 0xBEA0E, size: 0x8, addend: 0x0, symName: '__ZN42_$LT$$RF$T$u20$as$u20$core..fmt..Debug$GT$3fmt17h517f39eb6d9dae7cE', symObjAddr: 0x660, symBinAddr: 0x6860, symSize: 0x30 }
  - { offset: 0xBEB41, size: 0x8, addend: 0x0, symName: '__ZN42_$LT$$RF$T$u20$as$u20$core..fmt..Debug$GT$3fmt17h5390fd8190673d1bE', symObjAddr: 0x690, symBinAddr: 0x6890, symSize: 0x30 }
  - { offset: 0xBEC92, size: 0x8, addend: 0x0, symName: '__ZN42_$LT$$RF$T$u20$as$u20$core..fmt..Debug$GT$3fmt17h649c30622685c3beE', symObjAddr: 0x6C0, symBinAddr: 0x68C0, symSize: 0x30 }
  - { offset: 0xBED08, size: 0x8, addend: 0x0, symName: '__ZN42_$LT$$RF$T$u20$as$u20$core..fmt..Debug$GT$3fmt17h70b7bb7cb156bc76E', symObjAddr: 0x6F0, symBinAddr: 0x68F0, symSize: 0x30 }
  - { offset: 0xBED3A, size: 0x8, addend: 0x0, symName: '__ZN42_$LT$$RF$T$u20$as$u20$core..fmt..Debug$GT$3fmt17h710f14710c3d436aE', symObjAddr: 0x720, symBinAddr: 0x6920, symSize: 0x10 }
  - { offset: 0xBED55, size: 0x8, addend: 0x0, symName: '__ZN42_$LT$$RF$T$u20$as$u20$core..fmt..Debug$GT$3fmt17h8edf334dbe8a817cE', symObjAddr: 0x730, symBinAddr: 0x6930, symSize: 0x30 }
  - { offset: 0xBED9D, size: 0x8, addend: 0x0, symName: '__ZN42_$LT$$RF$T$u20$as$u20$core..fmt..Debug$GT$3fmt17h8f61a7e24da28474E', symObjAddr: 0x760, symBinAddr: 0x6960, symSize: 0x60 }
  - { offset: 0xBEDCF, size: 0x8, addend: 0x0, symName: '__ZN42_$LT$$RF$T$u20$as$u20$core..fmt..Debug$GT$3fmt17h92fe47fa58db9ccaE', symObjAddr: 0x7C0, symBinAddr: 0x69C0, symSize: 0x60 }
  - { offset: 0xBEE01, size: 0x8, addend: 0x0, symName: '__ZN42_$LT$$RF$T$u20$as$u20$core..fmt..Debug$GT$3fmt17h9c1aeacca00d14e4E', symObjAddr: 0x820, symBinAddr: 0x6A20, symSize: 0x60 }
  - { offset: 0xBEE2C, size: 0x8, addend: 0x0, symName: '__ZN42_$LT$$RF$T$u20$as$u20$core..fmt..Debug$GT$3fmt17hacd6b48947c88b80E', symObjAddr: 0x880, symBinAddr: 0x6A80, symSize: 0x10 }
  - { offset: 0xBEE47, size: 0x8, addend: 0x0, symName: '__ZN42_$LT$$RF$T$u20$as$u20$core..fmt..Debug$GT$3fmt17hb2464400eb06d16eE', symObjAddr: 0x890, symBinAddr: 0x6A90, symSize: 0x30 }
  - { offset: 0xBEE8F, size: 0x8, addend: 0x0, symName: '__ZN42_$LT$$RF$T$u20$as$u20$core..fmt..Debug$GT$3fmt17hb4a64f92208dff23E', symObjAddr: 0x8C0, symBinAddr: 0x6AC0, symSize: 0x30 }
  - { offset: 0xBEEC1, size: 0x8, addend: 0x0, symName: '__ZN42_$LT$$RF$T$u20$as$u20$core..fmt..Debug$GT$3fmt17hb75f04f401fff58cE', symObjAddr: 0x8F0, symBinAddr: 0x6AF0, symSize: 0x80 }
  - { offset: 0xBEF53, size: 0x8, addend: 0x0, symName: '__ZN42_$LT$$RF$T$u20$as$u20$core..fmt..Debug$GT$3fmt17hb7aa8046fec6fbb1E', symObjAddr: 0x970, symBinAddr: 0x6B70, symSize: 0x10 }
  - { offset: 0xBEF6E, size: 0x8, addend: 0x0, symName: '__ZN42_$LT$$RF$T$u20$as$u20$core..fmt..Debug$GT$3fmt17hbb7b658fc712682cE', symObjAddr: 0x980, symBinAddr: 0x6B80, symSize: 0x80 }
  - { offset: 0xBF089, size: 0x8, addend: 0x0, symName: '__ZN42_$LT$$RF$T$u20$as$u20$core..fmt..Debug$GT$3fmt17hc816ba40608c5d53E', symObjAddr: 0xA00, symBinAddr: 0x6C00, symSize: 0x20 }
  - { offset: 0xBF0B2, size: 0x8, addend: 0x0, symName: '__ZN42_$LT$$RF$T$u20$as$u20$core..fmt..Debug$GT$3fmt17hca3f7bc86a0fcb67E', symObjAddr: 0xA20, symBinAddr: 0x6C20, symSize: 0x80 }
  - { offset: 0xBF144, size: 0x8, addend: 0x0, symName: '__ZN42_$LT$$RF$T$u20$as$u20$core..fmt..Debug$GT$3fmt17hcddec0ec76b8946fE', symObjAddr: 0xAA0, symBinAddr: 0x6CA0, symSize: 0x40 }
  - { offset: 0xBF176, size: 0x8, addend: 0x0, symName: '__ZN42_$LT$$RF$T$u20$as$u20$core..fmt..Debug$GT$3fmt17hd3659d913be17e4fE', symObjAddr: 0xAE0, symBinAddr: 0x6CE0, symSize: 0x20 }
  - { offset: 0xBF1A8, size: 0x8, addend: 0x0, symName: '__ZN42_$LT$$RF$T$u20$as$u20$core..fmt..Debug$GT$3fmt17hd3aed7d645e93126E', symObjAddr: 0xB00, symBinAddr: 0x6D00, symSize: 0x20 }
  - { offset: 0xBF1BC, size: 0x8, addend: 0x0, symName: '__ZN42_$LT$$RF$T$u20$as$u20$core..fmt..Debug$GT$3fmt17hd45256f627229beaE', symObjAddr: 0xB20, symBinAddr: 0x6D20, symSize: 0x70 }
  - { offset: 0xBF1EE, size: 0x8, addend: 0x0, symName: '__ZN42_$LT$$RF$T$u20$as$u20$core..fmt..Debug$GT$3fmt17hdc7f71cdff01e01dE', symObjAddr: 0xB90, symBinAddr: 0x6D90, symSize: 0x60 }
  - { offset: 0xBF218, size: 0x8, addend: 0x0, symName: '__ZN42_$LT$$RF$T$u20$as$u20$core..fmt..Debug$GT$3fmt17hec0a18c466f7425bE', symObjAddr: 0xBF0, symBinAddr: 0x6DF0, symSize: 0x50 }
  - { offset: 0xBF289, size: 0x8, addend: 0x0, symName: '__ZN42_$LT$$RF$T$u20$as$u20$core..fmt..Debug$GT$3fmt17hf276b2130645a304E', symObjAddr: 0xC40, symBinAddr: 0x6E40, symSize: 0xA0 }
  - { offset: 0xBF31D, size: 0x8, addend: 0x0, symName: '__ZN42_$LT$$RF$T$u20$as$u20$core..fmt..Debug$GT$3fmt17hf354b8d3ae44e3a0E', symObjAddr: 0xCE0, symBinAddr: 0x6EE0, symSize: 0x60 }
  - { offset: 0xBF34F, size: 0x8, addend: 0x0, symName: '__ZN42_$LT$$RF$T$u20$as$u20$core..fmt..Debug$GT$3fmt17hf9962e4f28e22caeE', symObjAddr: 0xD40, symBinAddr: 0x6F40, symSize: 0x70 }
  - { offset: 0xBF381, size: 0x8, addend: 0x0, symName: '__ZN42_$LT$$RF$T$u20$as$u20$core..fmt..Debug$GT$3fmt17hfb0f7570da116dffE', symObjAddr: 0xDB0, symBinAddr: 0x6FB0, symSize: 0xD0 }
  - { offset: 0xBF3EA, size: 0x8, addend: 0x0, symName: '__ZN45_$LT$$LP$$RP$$u20$as$u20$core..fmt..Debug$GT$3fmt17hd24ddad43734892aE', symObjAddr: 0xF20, symBinAddr: 0x7120, symSize: 0x20 }
  - { offset: 0xBF501, size: 0x8, addend: 0x0, symName: '__ZN50_$LT$$LP$U$C$T$RP$$u20$as$u20$core..fmt..Debug$GT$3fmt17h37eb4ddb11596076E', symObjAddr: 0xF810, symBinAddr: 0x15650, symSize: 0x70 }
  - { offset: 0xBF51C, size: 0x8, addend: 0x0, symName: '__ZN50_$LT$$LP$U$C$T$RP$$u20$as$u20$core..fmt..Debug$GT$3fmt17hd3396a84c807e168E', symObjAddr: 0xF880, symBinAddr: 0x156C0, symSize: 0x70 }
  - { offset: 0xBFA12, size: 0x8, addend: 0x0, symName: '__ZN44_$LT$$RF$T$u20$as$u20$core..fmt..Display$GT$3fmt17h2ac0cccf1797ee4cE', symObjAddr: 0xE80, symBinAddr: 0x7080, symSize: 0x80 }
  - { offset: 0xBFACE, size: 0x8, addend: 0x0, symName: '__ZN44_$LT$$RF$T$u20$as$u20$core..fmt..Display$GT$3fmt17ha394b60fade0e3c8E', symObjAddr: 0xF00, symBinAddr: 0x7100, symSize: 0x20 }
  - { offset: 0xBFB0C, size: 0x8, addend: 0x0, symName: __ZN4core3fmt5Write10write_char17h21982a8afd8f886aE, symObjAddr: 0x1060, symBinAddr: 0x7260, symSize: 0x180 }
  - { offset: 0xBFD11, size: 0x8, addend: 0x0, symName: __ZN4core3fmt5Write10write_char17h3dd6ece1ddac2d1bE, symObjAddr: 0x11E0, symBinAddr: 0x73E0, symSize: 0x180 }
  - { offset: 0xBFF16, size: 0x8, addend: 0x0, symName: __ZN4core3fmt5Write10write_char17h75e7c897d39c66f0E, symObjAddr: 0x1360, symBinAddr: 0x7560, symSize: 0x110 }
  - { offset: 0xBFFB5, size: 0x8, addend: 0x0, symName: __ZN4core3fmt5Write10write_char17hb784cb68f7b06fdfE, symObjAddr: 0x1470, symBinAddr: 0x7670, symSize: 0x160 }
  - { offset: 0xC0196, size: 0x8, addend: 0x0, symName: __ZN4core3fmt5Write10write_char17hcbbd3dfc022485b8E, symObjAddr: 0x15D0, symBinAddr: 0x77D0, symSize: 0x110 }
  - { offset: 0xC0235, size: 0x8, addend: 0x0, symName: __ZN4core3fmt5Write10write_char17hcdc63e67cba637a4E, symObjAddr: 0x16E0, symBinAddr: 0x78E0, symSize: 0x120 }
  - { offset: 0xC040C, size: 0x8, addend: 0x0, symName: __ZN4core3fmt5Write9write_fmt17h35f74f42f8f59cc7E, symObjAddr: 0x1800, symBinAddr: 0x7A00, symSize: 0x20 }
  - { offset: 0xC043C, size: 0x8, addend: 0x0, symName: __ZN4core3fmt5Write9write_fmt17h3e46ccd97cea7499E, symObjAddr: 0x1820, symBinAddr: 0x7A20, symSize: 0x20 }
  - { offset: 0xC046C, size: 0x8, addend: 0x0, symName: __ZN4core3fmt5Write9write_fmt17ha8a80c883f1ec6d2E, symObjAddr: 0x1840, symBinAddr: 0x7A40, symSize: 0x20 }
  - { offset: 0xC049C, size: 0x8, addend: 0x0, symName: __ZN4core3fmt5Write9write_fmt17hc022d0957298281fE, symObjAddr: 0x1860, symBinAddr: 0x7A60, symSize: 0x20 }
  - { offset: 0xC04CC, size: 0x8, addend: 0x0, symName: __ZN4core3fmt5Write9write_fmt17hc74aa1f077aaee0cE, symObjAddr: 0x1880, symBinAddr: 0x7A80, symSize: 0x20 }
  - { offset: 0xC04FC, size: 0x8, addend: 0x0, symName: __ZN4core3fmt5Write9write_fmt17hd1cfb90eec5c5aa3E, symObjAddr: 0x18A0, symBinAddr: 0x7AA0, symSize: 0x20 }
  - { offset: 0xC052C, size: 0x8, addend: 0x0, symName: __ZN4core3fmt5Write9write_fmt17hd9b1210526b428eeE, symObjAddr: 0x18C0, symBinAddr: 0x7AC0, symSize: 0x20 }
  - { offset: 0xC058D, size: 0x8, addend: 0x0, symName: '__ZN50_$LT$$BP$mut$u20$T$u20$as$u20$core..fmt..Debug$GT$3fmt17h8b4da846adf8844bE', symObjAddr: 0xF800, symBinAddr: 0x15640, symSize: 0x10 }
  - { offset: 0xC05DD, size: 0x8, addend: 0x0, symName: '__ZN52_$LT$$RF$mut$u20$T$u20$as$u20$core..fmt..Display$GT$3fmt17h4589e39ab1da480aE', symObjAddr: 0xF8F0, symBinAddr: 0x15730, symSize: 0x20 }
  - { offset: 0xC0635, size: 0x8, addend: 0x0, symName: '__ZN4core3str7pattern13simd_contains28_$u7b$$u7b$closure$u7d$$u7d$17ha607fe5cdc764ee9E', symObjAddr: 0x4B80, symBinAddr: 0x9B850, symSize: 0x100 }
  - { offset: 0xC07BF, size: 0x8, addend: 0x0, symName: '__ZN55_$LT$$RF$str$u20$as$u20$core..str..pattern..Pattern$GT$15is_contained_in17hccd3343bf9e2c948E', symObjAddr: 0xF910, symBinAddr: 0x15750, symSize: 0x830 }
  - { offset: 0xC12BE, size: 0x8, addend: 0x0, symName: '__ZN73_$LT$core..num..nonzero..NonZero$LT$T$GT$$u20$as$u20$core..fmt..Debug$GT$3fmt17h2719bc56a2e4f93dE', symObjAddr: 0x1FED0, symBinAddr: 0x25BB0, symSize: 0x50 }
  - { offset: 0xC1A38, size: 0x8, addend: 0x0, symName: '__ZN70_$LT$core..num..error..TryFromIntError$u20$as$u20$core..fmt..Debug$GT$3fmt17h3b3db143759be263E', symObjAddr: 0x1FE70, symBinAddr: 0x25B50, symSize: 0x40 }
  - { offset: 0xC1A59, size: 0x8, addend: 0x0, symName: '__ZN72_$LT$core..num..error..TryFromIntError$u20$as$u20$core..error..Error$GT$11description17h85d52aa292f559dfE', symObjAddr: 0x1FEB0, symBinAddr: 0x25B90, symSize: 0x20 }
  - { offset: 0xC1CF4, size: 0x8, addend: 0x0, symName: '__ZN4core5array69_$LT$impl$u20$core..fmt..Debug$u20$for$u20$$u5b$T$u3b$$u20$N$u5d$$GT$3fmt17h4a833426ac71675bE', symObjAddr: 0x4D90, symBinAddr: 0xAC60, symSize: 0xF0 }
  - { offset: 0xC2308, size: 0x8, addend: 0x0, symName: __ZN4core5panic12PanicPayload6as_str17h292a89e71f5d58e1E, symObjAddr: 0x4F00, symBinAddr: 0xADD0, symSize: 0x10 }
  - { offset: 0xC3B02, size: 0x8, addend: 0x0, symName: __ZN4core3ops8function2Fn4call17h3ee3e05df55329bdE, symObjAddr: 0x18E0, symBinAddr: 0x7AE0, symSize: 0x10 }
  - { offset: 0xC3B1C, size: 0x8, addend: 0x0, symName: __ZN4core3ops8function2Fn4call17h49e13deca25964e5E, symObjAddr: 0x18F0, symBinAddr: 0x7AF0, symSize: 0xA0 }
  - { offset: 0xC3C38, size: 0x8, addend: 0x0, symName: __ZN4core3ops8function2Fn4call17h4e08b4bb2c5c6da0E, symObjAddr: 0x1990, symBinAddr: 0x7B90, symSize: 0x30 }
  - { offset: 0xC3CDA, size: 0x8, addend: 0x0, symName: __ZN4core3ops8function2Fn4call17h5edb9342beb9dd3cE, symObjAddr: 0x19C0, symBinAddr: 0x7BC0, symSize: 0xC0 }
  - { offset: 0xC3DE0, size: 0x8, addend: 0x0, symName: __ZN4core3ops8function2Fn4call17h798b197727fd6f66E, symObjAddr: 0x1A80, symBinAddr: 0x7C80, symSize: 0xA0 }
  - { offset: 0xC3EFC, size: 0x8, addend: 0x0, symName: __ZN4core3ops8function2Fn4call17h8a0b24415edd095cE, symObjAddr: 0x1B20, symBinAddr: 0x7D20, symSize: 0x30 }
  - { offset: 0xC3F9E, size: 0x8, addend: 0x0, symName: __ZN4core3ops8function2Fn4call17ha4800549a0a85bcdE, symObjAddr: 0x1B50, symBinAddr: 0x7D50, symSize: 0x20 }
  - { offset: 0xC3FB2, size: 0x8, addend: 0x0, symName: __ZN4core3ops8function2Fn4call17hd757791f9e1426f2E, symObjAddr: 0x1B70, symBinAddr: 0x7D70, symSize: 0x20 }
  - { offset: 0xC4028, size: 0x8, addend: 0x0, symName: __ZN4core3ops8function5FnMut8call_mut17he08e70518ed7f9c0E, symObjAddr: 0x1B90, symBinAddr: 0x7D90, symSize: 0x10 }
  - { offset: 0xC408A, size: 0x8, addend: 0x0, symName: '__ZN4core3ops8function6FnOnce40call_once$u7b$$u7b$vtable.shim$u7d$$u7d$17h08ce5753b374ba80E', symObjAddr: 0x1BA0, symBinAddr: 0x7DA0, symSize: 0x10 }
  - { offset: 0xC40C7, size: 0x8, addend: 0x0, symName: '__ZN4core3ops8function6FnOnce40call_once$u7b$$u7b$vtable.shim$u7d$$u7d$17h2252595cfef7572cE', symObjAddr: 0x1BB0, symBinAddr: 0x7DB0, symSize: 0x10 }
  - { offset: 0xC4104, size: 0x8, addend: 0x0, symName: '__ZN4core3ops8function6FnOnce40call_once$u7b$$u7b$vtable.shim$u7d$$u7d$17h33e9c3f849e33541E', symObjAddr: 0x1BC0, symBinAddr: 0x7DC0, symSize: 0x90 }
  - { offset: 0xC4258, size: 0x8, addend: 0x0, symName: '__ZN4core3ops8function6FnOnce40call_once$u7b$$u7b$vtable.shim$u7d$$u7d$17h430105ba243069c6E', symObjAddr: 0x1C50, symBinAddr: 0x7E50, symSize: 0x10 }
  - { offset: 0xC4295, size: 0x8, addend: 0x0, symName: '__ZN4core3ops8function6FnOnce40call_once$u7b$$u7b$vtable.shim$u7d$$u7d$17h4e7e0ab17db9247aE', symObjAddr: 0x1C60, symBinAddr: 0x7E60, symSize: 0x90 }
  - { offset: 0xC4382, size: 0x8, addend: 0x0, symName: '__ZN4core3ops8function6FnOnce40call_once$u7b$$u7b$vtable.shim$u7d$$u7d$17h615eaa5055d1ab93E', symObjAddr: 0x1CF0, symBinAddr: 0x7EF0, symSize: 0x20 }
  - { offset: 0xC43BF, size: 0x8, addend: 0x0, symName: '__ZN4core3ops8function6FnOnce40call_once$u7b$$u7b$vtable.shim$u7d$$u7d$17h616c2af0396d2cd2E', symObjAddr: 0x1D10, symBinAddr: 0x7F10, symSize: 0x10 }
  - { offset: 0xC4412, size: 0x8, addend: 0x0, symName: '__ZN4core3ops8function6FnOnce40call_once$u7b$$u7b$vtable.shim$u7d$$u7d$17h6a9266592426f93fE', symObjAddr: 0x1D20, symBinAddr: 0x7F20, symSize: 0xA0 }
  - { offset: 0xC458F, size: 0x8, addend: 0x0, symName: '__ZN4core3ops8function6FnOnce40call_once$u7b$$u7b$vtable.shim$u7d$$u7d$17h8058ebef885ba658E', symObjAddr: 0x1DC0, symBinAddr: 0x7FC0, symSize: 0xA0 }
  - { offset: 0xC46E8, size: 0x8, addend: 0x0, symName: '__ZN4core3ops8function6FnOnce40call_once$u7b$$u7b$vtable.shim$u7d$$u7d$17hc07fde45c1b6b0d0E', symObjAddr: 0x1E60, symBinAddr: 0x8060, symSize: 0x10 }
  - { offset: 0xC473B, size: 0x8, addend: 0x0, symName: '__ZN4core3ops8function6FnOnce40call_once$u7b$$u7b$vtable.shim$u7d$$u7d$17hc3060ef219ead6ffE', symObjAddr: 0x1E70, symBinAddr: 0x8070, symSize: 0x10 }
  - { offset: 0xC4778, size: 0x8, addend: 0x0, symName: '__ZN4core3ops8function6FnOnce40call_once$u7b$$u7b$vtable.shim$u7d$$u7d$17hd03f222f61c08c4aE', symObjAddr: 0x1E80, symBinAddr: 0x8080, symSize: 0x90 }
  - { offset: 0xC48D7, size: 0x8, addend: 0x0, symName: '__ZN4core3ops8function6FnOnce40call_once$u7b$$u7b$vtable.shim$u7d$$u7d$17hf332aea058aa8054E', symObjAddr: 0x1F10, symBinAddr: 0x8110, symSize: 0x20 }
  - { offset: 0xC4914, size: 0x8, addend: 0x0, symName: '__ZN4core3ops8function6FnOnce40call_once$u7b$$u7b$vtable.shim$u7d$$u7d$17hfd984a4dade61b0fE', symObjAddr: 0x1F30, symBinAddr: 0x8130, symSize: 0x20 }
  - { offset: 0xC8D1A, size: 0x8, addend: 0x0, symName: '__ZN4core4cell4once17OnceCell$LT$T$GT$8try_init17h657114545edf8196E', symObjAddr: 0x4C80, symBinAddr: 0x9B950, symSize: 0x110 }
  - { offset: 0xC9252, size: 0x8, addend: 0x0, symName: __ZN4core5error5Error5cause17h79a62d325998c602E, symObjAddr: 0x4E80, symBinAddr: 0xAD50, symSize: 0x10 }
  - { offset: 0xC926C, size: 0x8, addend: 0x0, symName: __ZN4core5error5Error5cause17hfc223d06f5a4598bE, symObjAddr: 0x4E90, symBinAddr: 0xAD60, symSize: 0x10 }
  - { offset: 0xC9286, size: 0x8, addend: 0x0, symName: __ZN4core5error5Error7provide17h1f7442b882666e03E, symObjAddr: 0x4EA0, symBinAddr: 0xAD70, symSize: 0x10 }
  - { offset: 0xC92A0, size: 0x8, addend: 0x0, symName: __ZN4core5error5Error7provide17he346d925f6f6a558E, symObjAddr: 0x4EB0, symBinAddr: 0xAD80, symSize: 0x10 }
  - { offset: 0xC92BA, size: 0x8, addend: 0x0, symName: __ZN4core5error5Error7type_id17h168c9c7324f0ca79E, symObjAddr: 0x4EC0, symBinAddr: 0xAD90, symSize: 0x20 }
  - { offset: 0xC92D4, size: 0x8, addend: 0x0, symName: __ZN4core5error5Error7type_id17hf8ddadc4a9b7a3dcE, symObjAddr: 0x4EE0, symBinAddr: 0xADB0, symSize: 0x20 }
  - { offset: 0xC9389, size: 0x8, addend: 0x0, symName: __ZN4core9panicking13assert_failed17h3badf49d1f49af42E, symObjAddr: 0xF76A, symBinAddr: 0x9BA6A, symSize: 0x2F }
  - { offset: 0xC93A4, size: 0x8, addend: 0x0, symName: __ZN4core9panicking13assert_failed17hc1bb731e414df6c0E, symObjAddr: 0xF799, symBinAddr: 0x9BA99, symSize: 0x2F }
  - { offset: 0xC93BF, size: 0x8, addend: 0x0, symName: __ZN4core9panicking13assert_failed17hd884100a02fa6db6E, symObjAddr: 0xF7C8, symBinAddr: 0x9BAC8, symSize: 0x38 }
  - { offset: 0xC9CE5, size: 0x8, addend: 0x0, symName: '__ZN3std9panicking41begin_panic$u7b$$u7b$reify.shim$u7d$$u7d$17h511a4dd7df7329b1E', symObjAddr: 0x28A, symBinAddr: 0x9B83A, symSize: 0x16 }
  - { offset: 0xC9D92, size: 0x8, addend: 0x0, symName: __ZN3std9panicking11panic_count8increase17h0892463476d3d165E, symObjAddr: 0x44F40, symBinAddr: 0x49A70, symSize: 0x50 }
  - { offset: 0xC9DAA, size: 0x8, addend: 0x0, symName: __ZN3std9panicking11panic_count8increase17h0892463476d3d165E, symObjAddr: 0x44F40, symBinAddr: 0x49A70, symSize: 0x50 }
  - { offset: 0xC9DC0, size: 0x8, addend: 0x0, symName: __ZN3std9panicking11panic_count8increase17h0892463476d3d165E, symObjAddr: 0x44F40, symBinAddr: 0x49A70, symSize: 0x50 }
  - { offset: 0xC9E80, size: 0x8, addend: 0x0, symName: __ZN3std9panicking11panic_count19finished_panic_hook17hc321a57800b0345aE, symObjAddr: 0x44F90, symBinAddr: 0x49AC0, symSize: 0x20 }
  - { offset: 0xC9F1E, size: 0x8, addend: 0x0, symName: __ZN3std9panicking11panic_count8decrease17hb31d61d2d0a72461E, symObjAddr: 0x44FB0, symBinAddr: 0x49AE0, symSize: 0x30 }
  - { offset: 0xC9FFF, size: 0x8, addend: 0x0, symName: __ZN3std9panicking11panic_count9get_count17h460c2783908771d5E, symObjAddr: 0x44FE0, symBinAddr: 0x49B10, symSize: 0x20 }
  - { offset: 0xCA056, size: 0x8, addend: 0x0, symName: __ZN3std9panicking11panic_count17is_zero_slow_path17h0a45e763c140ca4fE, symObjAddr: 0x45000, symBinAddr: 0x9CCA0, symSize: 0x16 }
  - { offset: 0xCA149, size: 0x8, addend: 0x0, symName: __ZN3std9panicking3try7cleanup17h5c1c8c5525832f86E, symObjAddr: 0x45016, symBinAddr: 0x9CCB6, symSize: 0x3A }
  - { offset: 0xCA288, size: 0x8, addend: 0x0, symName: __RNvCs691rhTbG0Ee_7___rustc17___rust_drop_panic, symObjAddr: 0x444E0, symBinAddr: 0x49010, symSize: 0xD0 }
  - { offset: 0xCA4F1, size: 0x8, addend: 0x0, symName: __RNvCs691rhTbG0Ee_7___rustc24___rust_foreign_exception, symObjAddr: 0x445B0, symBinAddr: 0x490E0, symSize: 0xD0 }
  - { offset: 0xCA768, size: 0x8, addend: 0x0, symName: __ZN3std9panicking8set_hook17h7a9a7be40345c228E, symObjAddr: 0x44680, symBinAddr: 0x491B0, symSize: 0x190 }
  - { offset: 0xCAA45, size: 0x8, addend: 0x0, symName: __ZN3std9panicking9take_hook17h6b3c2d91adf11360E, symObjAddr: 0x44810, symBinAddr: 0x49340, symSize: 0x117 }
  - { offset: 0xCAC20, size: 0x8, addend: 0x0, symName: __ZN3std9panicking12default_hook17hd9c10aab77439366E, symObjAddr: 0x44927, symBinAddr: 0x49457, symSize: 0x1AB }
  - { offset: 0xCAF24, size: 0x8, addend: 0x0, symName: '__ZN3std9panicking12default_hook28_$u7b$$u7b$closure$u7d$$u7d$17h05218cad2d40e027E', symObjAddr: 0x44AD2, symBinAddr: 0x49602, symSize: 0x18E }
  - { offset: 0xCB100, size: 0x8, addend: 0x0, symName: '__ZN3std9panicking12default_hook28_$u7b$$u7b$closure$u7d$$u7d$28_$u7b$$u7b$closure$u7d$$u7d$17hc4a6ec12b16b70b5E', symObjAddr: 0x44C60, symBinAddr: 0x49790, symSize: 0x2E0 }
  - { offset: 0xCB6BE, size: 0x8, addend: 0x0, symName: __RNvCs691rhTbG0Ee_7___rustc17rust_begin_unwind, symObjAddr: 0x45050, symBinAddr: 0x49B30, symSize: 0x30 }
  - { offset: 0xCB743, size: 0x8, addend: 0x0, symName: '__ZN102_$LT$std..panicking..begin_panic_handler..FormatStringPayload$u20$as$u20$core..panic..PanicPayload$GT$8take_box17h9127560a8003fc1bE', symObjAddr: 0x45080, symBinAddr: 0x49B60, symSize: 0x150 }
  - { offset: 0xCB9DD, size: 0x8, addend: 0x0, symName: '__ZN102_$LT$std..panicking..begin_panic_handler..FormatStringPayload$u20$as$u20$core..panic..PanicPayload$GT$3get17h36eb8a93d2e3cabeE', symObjAddr: 0x451D0, symBinAddr: 0x49CB0, symSize: 0xD0 }
  - { offset: 0xCBB25, size: 0x8, addend: 0x0, symName: '__ZN95_$LT$std..panicking..begin_panic_handler..FormatStringPayload$u20$as$u20$core..fmt..Display$GT$3fmt17hc23fc49856978313E', symObjAddr: 0x452A0, symBinAddr: 0x49D80, symSize: 0x70 }
  - { offset: 0xCBC2C, size: 0x8, addend: 0x0, symName: '__ZN99_$LT$std..panicking..begin_panic_handler..StaticStrPayload$u20$as$u20$core..panic..PanicPayload$GT$8take_box17h8e2f868f7b4327e7E', symObjAddr: 0x45310, symBinAddr: 0x49DF0, symSize: 0x50 }
  - { offset: 0xCBCA8, size: 0x8, addend: 0x0, symName: '__ZN99_$LT$std..panicking..begin_panic_handler..StaticStrPayload$u20$as$u20$core..panic..PanicPayload$GT$3get17hf8213f4fce08256aE', symObjAddr: 0x45360, symBinAddr: 0x49E40, symSize: 0x10 }
  - { offset: 0xCBCC3, size: 0x8, addend: 0x0, symName: '__ZN99_$LT$std..panicking..begin_panic_handler..StaticStrPayload$u20$as$u20$core..panic..PanicPayload$GT$6as_str17he130e14fcdf4bbb7E', symObjAddr: 0x45370, symBinAddr: 0x49E50, symSize: 0x10 }
  - { offset: 0xCBCE5, size: 0x8, addend: 0x0, symName: '__ZN92_$LT$std..panicking..begin_panic_handler..StaticStrPayload$u20$as$u20$core..fmt..Display$GT$3fmt17hf0573338b9ce16d6E', symObjAddr: 0x45380, symBinAddr: 0x49E60, symSize: 0x20 }
  - { offset: 0xCBD01, size: 0x8, addend: 0x0, symName: '__ZN3std9panicking19begin_panic_handler28_$u7b$$u7b$closure$u7d$$u7d$17hf868e10834208483E', symObjAddr: 0x453A0, symBinAddr: 0x49E80, symSize: 0xCF }
  - { offset: 0xCBE69, size: 0x8, addend: 0x0, symName: __ZN3std9panicking11begin_panic17hd9c40958c50f04bdE, symObjAddr: 0x4546F, symBinAddr: 0x9CCFF, symSize: 0x21 }
  - { offset: 0xCBE90, size: 0x8, addend: 0x0, symName: '__ZN91_$LT$std..panicking..begin_panic..Payload$LT$A$GT$$u20$as$u20$core..panic..PanicPayload$GT$8take_box17h1285f92e823e5fc4E', symObjAddr: 0x45490, symBinAddr: 0x49F50, symSize: 0x60 }
  - { offset: 0xCBF39, size: 0x8, addend: 0x0, symName: '__ZN91_$LT$std..panicking..begin_panic..Payload$LT$A$GT$$u20$as$u20$core..panic..PanicPayload$GT$3get17hcc96fcbca0739a56E', symObjAddr: 0x454F0, symBinAddr: 0x49FB0, symSize: 0x20 }
  - { offset: 0xCBF5B, size: 0x8, addend: 0x0, symName: '__ZN84_$LT$std..panicking..begin_panic..Payload$LT$A$GT$$u20$as$u20$core..fmt..Display$GT$3fmt17h4af82af489e0985cE', symObjAddr: 0x45510, symBinAddr: 0x49FD0, symSize: 0x20 }
  - { offset: 0xCBF8E, size: 0x8, addend: 0x0, symName: '__ZN3std9panicking11begin_panic28_$u7b$$u7b$closure$u7d$$u7d$17hb043ff71c3997595E', symObjAddr: 0x45530, symBinAddr: 0x49FF0, symSize: 0x40 }
  - { offset: 0xCBFB8, size: 0x8, addend: 0x0, symName: __ZN3std9panicking14payload_as_str17hed832856ae8c1398E, symObjAddr: 0x45570, symBinAddr: 0x4A030, symSize: 0x83 }
  - { offset: 0xCC134, size: 0x8, addend: 0x0, symName: __ZN3std9panicking20rust_panic_with_hook17hb1fd245af5672dcdE, symObjAddr: 0x455F3, symBinAddr: 0x4A0B3, symSize: 0x43D }
  - { offset: 0xCC9E9, size: 0x8, addend: 0x0, symName: __ZN3std9panicking23rust_panic_without_hook17h94e3eb9727cefd26E, symObjAddr: 0x45A30, symBinAddr: 0x9CD20, symSize: 0xB0 }
  - { offset: 0xCCBFA, size: 0x8, addend: 0x0, symName: '__ZN96_$LT$std..panicking..rust_panic_without_hook..RewrapBox$u20$as$u20$core..panic..PanicPayload$GT$8take_box17h9ac35045cbe38f07E', symObjAddr: 0x45AE0, symBinAddr: 0x4A4F0, symSize: 0x20 }
  - { offset: 0xCCC2C, size: 0x8, addend: 0x0, symName: '__ZN96_$LT$std..panicking..rust_panic_without_hook..RewrapBox$u20$as$u20$core..panic..PanicPayload$GT$3get17h499ee50fc3cd6d81E', symObjAddr: 0x45B00, symBinAddr: 0x4A510, symSize: 0x10 }
  - { offset: 0xCCC4E, size: 0x8, addend: 0x0, symName: '__ZN89_$LT$std..panicking..rust_panic_without_hook..RewrapBox$u20$as$u20$core..fmt..Display$GT$3fmt17h6e3b9ce37c6bb24fE', symObjAddr: 0x45B10, symBinAddr: 0x4A520, symSize: 0x20 }
  - { offset: 0xCCC6B, size: 0x8, addend: 0x0, symName: __RNvCs691rhTbG0Ee_7___rustc10rust_panic, symObjAddr: 0x45B30, symBinAddr: 0x9CDD0, symSize: 0x70 }
  - { offset: 0xCCCC6, size: 0x8, addend: 0x0, symName: '__ZN62_$LT$std..process..ChildStderr$u20$as$u20$core..fmt..Debug$GT$3fmt17hacfc22ae0b2de271E', symObjAddr: 0x3DB90, symBinAddr: 0x43240, symSize: 0x30 }
  - { offset: 0xCCCEF, size: 0x8, addend: 0x0, symName: '__ZN62_$LT$std..process..ChildStdout$u20$as$u20$core..fmt..Debug$GT$3fmt17hf34cca4ae81217e3E', symObjAddr: 0x3DAA0, symBinAddr: 0x43150, symSize: 0x30 }
  - { offset: 0xCCD18, size: 0x8, addend: 0x0, symName: '__ZN61_$LT$std..process..ChildStdin$u20$as$u20$core..fmt..Debug$GT$3fmt17h4bc6f30f26c6b75eE', symObjAddr: 0x3DA70, symBinAddr: 0x43120, symSize: 0x30 }
  - { offset: 0xCCD56, size: 0x8, addend: 0x0, symName: '__ZN112_$LT$std..process..Child$u20$as$u20$std..sys_common..IntoInner$LT$std..sys..process..unix..unix..Process$GT$$GT$10into_inner17h0657ea706147759fE', symObjAddr: 0x3D980, symBinAddr: 0x43030, symSize: 0x50 }
  - { offset: 0xCCF2B, size: 0x8, addend: 0x0, symName: '__ZN56_$LT$std..process..Child$u20$as$u20$core..fmt..Debug$GT$3fmt17h78c0488cb640427eE', symObjAddr: 0x3D9D0, symBinAddr: 0x43080, symSize: 0xA0 }
  - { offset: 0xCCF4D, size: 0x8, addend: 0x0, symName: '__ZN59_$LT$std..process..ChildStderr$u20$as$u20$std..io..Read$GT$4read17h09db1370c85f461eE', symObjAddr: 0x3DAD0, symBinAddr: 0x43180, symSize: 0x50 }
  - { offset: 0xCD040, size: 0x8, addend: 0x0, symName: '__ZN59_$LT$std..process..ChildStderr$u20$as$u20$std..io..Read$GT$8read_buf17h4357957a0a2d0aa3E', symObjAddr: 0x3DB20, symBinAddr: 0x431D0, symSize: 0x70 }
  - { offset: 0xCD217, size: 0x8, addend: 0x0, symName: __ZN3std7process7Command9env_clear17hfaf2d52b280360aeE, symObjAddr: 0x3DBC0, symBinAddr: 0x43270, symSize: 0x130 }
  - { offset: 0xCD53C, size: 0x8, addend: 0x0, symName: __ZN3std7process7Command5spawn17h4111448fb1110178E, symObjAddr: 0x3DCF0, symBinAddr: 0x433A0, symSize: 0x60 }
  - { offset: 0xCD56E, size: 0x8, addend: 0x0, symName: __ZN3std7process7Command6output17h988b9396e5ec0101E, symObjAddr: 0x3DD50, symBinAddr: 0x43400, symSize: 0x360 }
  - { offset: 0xCDB6D, size: 0x8, addend: 0x0, symName: __ZN3std7process7Command6status17hbcb19080a18c5767E, symObjAddr: 0x3E0B0, symBinAddr: 0x43760, symSize: 0x100 }
  - { offset: 0xCDE83, size: 0x8, addend: 0x0, symName: __ZN3std7process7Command11get_program17hbac62fef309308baE, symObjAddr: 0x3E1B0, symBinAddr: 0x43860, symSize: 0x20 }
  - { offset: 0xCDECC, size: 0x8, addend: 0x0, symName: __ZN3std7process7Command8get_args17h272c58fc69381808E, symObjAddr: 0x3E1D0, symBinAddr: 0x43880, symSize: 0x30 }
  - { offset: 0xCDF58, size: 0x8, addend: 0x0, symName: __ZN3std7process7Command15get_current_dir17h51e35d725e5b1b67E, symObjAddr: 0x3E200, symBinAddr: 0x438B0, symSize: 0x20 }
  - { offset: 0xCDFB6, size: 0x8, addend: 0x0, symName: __ZN3std7process5Child4kill17h1c6457288090abfaE, symObjAddr: 0x3E650, symBinAddr: 0x43D00, symSize: 0x40 }
  - { offset: 0xCE060, size: 0x8, addend: 0x0, symName: __ZN3std7process5Child4wait17h089b9feb646a2acdE, symObjAddr: 0x3E690, symBinAddr: 0x43D40, symSize: 0xB0 }
  - { offset: 0xCE240, size: 0x8, addend: 0x0, symName: __ZN3std7process5Child8try_wait17hb52708ce080facc5E, symObjAddr: 0x3E740, symBinAddr: 0x43DF0, symSize: 0xB0 }
  - { offset: 0xCE309, size: 0x8, addend: 0x0, symName: __ZN3std7process5Child16wait_with_output17h9a904c0fde3f99b9E, symObjAddr: 0x3E7F0, symBinAddr: 0x43EA0, symSize: 0x320 }
  - { offset: 0xCE9CC, size: 0x8, addend: 0x0, symName: '__ZN58_$LT$std..process..Command$u20$as$u20$core..fmt..Debug$GT$3fmt17ha8dfe417cd304fb3E', symObjAddr: 0x3E220, symBinAddr: 0x438D0, symSize: 0x10 }
  - { offset: 0xCE9EE, size: 0x8, addend: 0x0, symName: '__ZN84_$LT$std..process..CommandArgs$u20$as$u20$core..iter..traits..iterator..Iterator$GT$4next17h15227fd910bf5c95E', symObjAddr: 0x3E230, symBinAddr: 0x438E0, symSize: 0x30 }
  - { offset: 0xCEA0D, size: 0x8, addend: 0x0, symName: '__ZN84_$LT$std..process..CommandArgs$u20$as$u20$core..iter..traits..iterator..Iterator$GT$4next17h15227fd910bf5c95E', symObjAddr: 0x3E230, symBinAddr: 0x438E0, symSize: 0x30 }
  - { offset: 0xCEA23, size: 0x8, addend: 0x0, symName: '__ZN84_$LT$std..process..CommandArgs$u20$as$u20$core..iter..traits..iterator..Iterator$GT$4next17h15227fd910bf5c95E', symObjAddr: 0x3E230, symBinAddr: 0x438E0, symSize: 0x30 }
  - { offset: 0xCEAA6, size: 0x8, addend: 0x0, symName: '__ZN84_$LT$std..process..CommandArgs$u20$as$u20$core..iter..traits..iterator..Iterator$GT$9size_hint17hf8e04432a60f927aE', symObjAddr: 0x3E260, symBinAddr: 0x43910, symSize: 0x30 }
  - { offset: 0xCEB3A, size: 0x8, addend: 0x0, symName: '__ZN95_$LT$std..process..CommandArgs$u20$as$u20$core..iter..traits..exact_size..ExactSizeIterator$GT$3len17h20376fa24e925e4bE', symObjAddr: 0x3E290, symBinAddr: 0x43940, symSize: 0x20 }
  - { offset: 0xCEBCE, size: 0x8, addend: 0x0, symName: '__ZN84_$LT$std..process..CommandEnvs$u20$as$u20$core..iter..traits..iterator..Iterator$GT$4next17h555dd19f43c0aa9cE', symObjAddr: 0x3E2B0, symBinAddr: 0x43960, symSize: 0x50 }
  - { offset: 0xCEC61, size: 0x8, addend: 0x0, symName: '__ZN62_$LT$std..process..CommandEnvs$u20$as$u20$core..fmt..Debug$GT$3fmt17h627158cd84241ff7E', symObjAddr: 0x3E300, symBinAddr: 0x439B0, symSize: 0x50 }
  - { offset: 0xCEC9A, size: 0x8, addend: 0x0, symName: __ZN3std7process6Output7exit_ok17h9e7c77ff71c692a1E, symObjAddr: 0x3E350, symBinAddr: 0x43A00, symSize: 0xA0 }
  - { offset: 0xCEE54, size: 0x8, addend: 0x0, symName: '__ZN57_$LT$std..process..Output$u20$as$u20$core..fmt..Debug$GT$3fmt17h29b5052a9919fe30E', symObjAddr: 0x3E3F0, symBinAddr: 0x43AA0, symSize: 0x100 }
  - { offset: 0xCEF8E, size: 0x8, addend: 0x0, symName: '__ZN56_$LT$std..process..Stdio$u20$as$u20$core..fmt..Debug$GT$3fmt17hfccd904b977dc84aE', symObjAddr: 0x3E4F0, symBinAddr: 0x43BA0, symSize: 0x30 }
  - { offset: 0xCEFB0, size: 0x8, addend: 0x0, symName: '__ZN63_$LT$std..process..ExitStatus$u20$as$u20$core..fmt..Display$GT$3fmt17hcb7deb64136dd296E', symObjAddr: 0x3E520, symBinAddr: 0x43BD0, symSize: 0x10 }
  - { offset: 0xCEFE0, size: 0x8, addend: 0x0, symName: __ZN3std7process15ExitStatusError4code17hc8b22e76e14d83d9E, symObjAddr: 0x3E530, symBinAddr: 0x43BE0, symSize: 0x50 }
  - { offset: 0xCF0D4, size: 0x8, addend: 0x0, symName: __ZN3std7process15ExitStatusError12code_nonzero17ha211a4abf823b203E, symObjAddr: 0x3E580, symBinAddr: 0x43C30, symSize: 0x50 }
  - { offset: 0xCF1D7, size: 0x8, addend: 0x0, symName: '__ZN68_$LT$std..process..ExitStatusError$u20$as$u20$core..fmt..Display$GT$3fmt17h6e64e2eaa98fe760E', symObjAddr: 0x3E5D0, symBinAddr: 0x43C80, symSize: 0x70 }
  - { offset: 0xCF24B, size: 0x8, addend: 0x0, symName: __ZN3std7process8ExitCode12exit_process17hf35b8dccb4acb09dE, symObjAddr: 0x3E640, symBinAddr: 0x43CF0, symSize: 0x10 }
  - { offset: 0xCF2AA, size: 0x8, addend: 0x0, symName: __ZN3std7process4exit17hb76e6bcc0bc947abE, symObjAddr: 0x3EB10, symBinAddr: 0x441C0, symSize: 0x20 }
  - { offset: 0xCF2C5, size: 0x8, addend: 0x0, symName: __ZN3std7process5abort17hce768f3139a59a69E, symObjAddr: 0x3EB30, symBinAddr: 0x9C120, symSize: 0x10 }
  - { offset: 0xCF2E0, size: 0x8, addend: 0x0, symName: __ZN3std7process2id17h40dd25c83d0fc028E, symObjAddr: 0x3EB40, symBinAddr: 0x441E0, symSize: 0x10 }
  - { offset: 0xCF318, size: 0x8, addend: 0x0, symName: '__ZN61_$LT$std..process..ExitStatus$u20$as$u20$core..fmt..Debug$GT$3fmt17h9531389f7d03e45bE', symObjAddr: 0x46A10, symBinAddr: 0x4B3B0, symSize: 0x40 }
  - { offset: 0xCF361, size: 0x8, addend: 0x0, symName: '__ZN78_$LT$std..sys..process..unix..unix..ExitStatus$u20$as$u20$core..fmt..Debug$GT$3fmt17h7960ea01a9a64ba0E', symObjAddr: 0x504A0, symBinAddr: 0x54CE0, symSize: 0x50 }
  - { offset: 0xCF42B, size: 0x8, addend: 0x0, symName: __ZN3std3sys7process4unix4unix7Process4wait17hd91cda23d9f4ca67E, symObjAddr: 0x50410, symBinAddr: 0x54C50, symSize: 0x90 }
  - { offset: 0xCF5E5, size: 0x8, addend: 0x0, symName: '__ZN166_$LT$std..sys..process..unix..unix..$LT$impl$u20$std..sys..process..unix..common..Command$GT$..posix_spawn..PosixSpawnFileActions$u20$as$u20$core..ops..drop..Drop$GT$4drop17hcc45d1160e239decE', symObjAddr: 0x503F0, symBinAddr: 0x54C30, symSize: 0x10 }
  - { offset: 0xCF60E, size: 0x8, addend: 0x0, symName: '__ZN159_$LT$std..sys..process..unix..unix..$LT$impl$u20$std..sys..process..unix..common..Command$GT$..posix_spawn..PosixSpawnattr$u20$as$u20$core..ops..drop..Drop$GT$4drop17h4e1c711d15f7bf48E', symObjAddr: 0x50400, symBinAddr: 0x54C40, symSize: 0x10 }
  - { offset: 0xCF684, size: 0x8, addend: 0x0, symName: '__ZN146_$LT$std..sys..process..unix..unix..$LT$impl$u20$std..sys..process..unix..common..Command$GT$..do_exec..Reset$u20$as$u20$core..ops..drop..Drop$GT$4drop17h14f71799b21dc1ddE', symObjAddr: 0x503D0, symBinAddr: 0x54C10, symSize: 0x20 }
  - { offset: 0xCF6C6, size: 0x8, addend: 0x0, symName: '__ZN80_$LT$std..sys..process..unix..unix..ExitStatus$u20$as$u20$core..fmt..Display$GT$3fmt17h143a044b4b8e5225E', symObjAddr: 0x504F0, symBinAddr: 0x54D30, symSize: 0x250 }
  - { offset: 0xCF872, size: 0x8, addend: 0x0, symName: '__ZN83_$LT$std..sys..process..unix..unix..ExitStatusError$u20$as$u20$core..fmt..Debug$GT$3fmt17h06e2b54ba5a457ccE', symObjAddr: 0x50740, symBinAddr: 0x54F80, symSize: 0x50 }
  - { offset: 0xCF8F3, size: 0x8, addend: 0x0, symName: __ZN3std3sys7process4unix6common7Command3new17h4f5a8b3bf10e8dc9E, symObjAddr: 0x4CF80, symBinAddr: 0x517C0, symSize: 0x300 }
  - { offset: 0xCFEEB, size: 0x8, addend: 0x0, symName: __ZN3std3sys7process4unix6common7Command9set_arg_017hccc8333d318a3d63E, symObjAddr: 0x4D280, symBinAddr: 0x51AC0, symSize: 0x110 }
  - { offset: 0xD02A0, size: 0x8, addend: 0x0, symName: __ZN3std3sys7process4unix6common7Command3arg17h05ee85e1ee1cd5f5E, symObjAddr: 0x4D390, symBinAddr: 0x51BD0, symSize: 0x140 }
  - { offset: 0xD0635, size: 0x8, addend: 0x0, symName: __ZN3std3sys7process4unix6common7Command3cwd17hdc7219f55cbc74c2E, symObjAddr: 0x4D4D0, symBinAddr: 0x51D10, symSize: 0xD0 }
  - { offset: 0xD089C, size: 0x8, addend: 0x0, symName: __ZN3std3sys7process4unix6common7Command8pre_exec17h30cacb3468b89a1dE, symObjAddr: 0x4D5A0, symBinAddr: 0x51DE0, symSize: 0x70 }
  - { offset: 0xD094E, size: 0x8, addend: 0x0, symName: __ZN3std3sys7process4unix6common7Command5stdin17hdff200de64c6be4bE, symObjAddr: 0x4D610, symBinAddr: 0x51E50, symSize: 0x40 }
  - { offset: 0xD09DC, size: 0x8, addend: 0x0, symName: __ZN3std3sys7process4unix6common7Command6stdout17h1f2466947a4df32eE, symObjAddr: 0x4D650, symBinAddr: 0x51E90, symSize: 0x40 }
  - { offset: 0xD0A6A, size: 0x8, addend: 0x0, symName: __ZN3std3sys7process4unix6common7Command6stderr17h3a384e47f0b94cb2E, symObjAddr: 0x4D690, symBinAddr: 0x51ED0, symSize: 0x40 }
  - { offset: 0xD0AF8, size: 0x8, addend: 0x0, symName: __ZN3std3sys7process4unix6common7Command11capture_env17hefa3edc8d111a334E, symObjAddr: 0x4D6D0, symBinAddr: 0x51F10, symSize: 0x1060 }
  - { offset: 0xD29D8, size: 0x8, addend: 0x0, symName: __ZN3std3sys7process4unix6common7Command8setup_io17h2c30271a6da65aaaE, symObjAddr: 0x4E730, symBinAddr: 0x52F70, symSize: 0x2C0 }
  - { offset: 0xD2E96, size: 0x8, addend: 0x0, symName: '__ZN3std3sys7process4unix4unix58_$LT$impl$u20$std..sys..process..unix..common..Command$GT$5spawn17h546ab7d946bad3d4E', symObjAddr: 0x4F4E0, symBinAddr: 0x53D20, symSize: 0xB80 }
  - { offset: 0xD41AD, size: 0x8, addend: 0x0, symName: '__ZN3std3sys7process4unix4unix58_$LT$impl$u20$std..sys..process..unix..common..Command$GT$7do_exec17h5cc2549e11d0a0ecE', symObjAddr: 0x50060, symBinAddr: 0x548A0, symSize: 0x370 }
  - { offset: 0xD4CAB, size: 0x8, addend: 0x0, symName: '__ZN103_$LT$std..sys..process..unix..common..CommandArgs$u20$as$u20$core..iter..traits..iterator..Iterator$GT$4next17h2ffaad625987161cE', symObjAddr: 0x4F3E0, symBinAddr: 0x53C20, symSize: 0x30 }
  - { offset: 0xD4CC3, size: 0x8, addend: 0x0, symName: '__ZN103_$LT$std..sys..process..unix..common..CommandArgs$u20$as$u20$core..iter..traits..iterator..Iterator$GT$4next17h2ffaad625987161cE', symObjAddr: 0x4F3E0, symBinAddr: 0x53C20, symSize: 0x30 }
  - { offset: 0xD4D45, size: 0x8, addend: 0x0, symName: '__ZN103_$LT$std..sys..process..unix..common..CommandArgs$u20$as$u20$core..iter..traits..iterator..Iterator$GT$9size_hint17h73c1543b5732bbdcE', symObjAddr: 0x4F410, symBinAddr: 0x53C50, symSize: 0x30 }
  - { offset: 0xD4DC9, size: 0x8, addend: 0x0, symName: '__ZN114_$LT$std..sys..process..unix..common..CommandArgs$u20$as$u20$core..iter..traits..exact_size..ExactSizeIterator$GT$3len17h15999fab196336e4E', symObjAddr: 0x4F440, symBinAddr: 0x53C80, symSize: 0x20 }
  - { offset: 0xD4EF4, size: 0x8, addend: 0x0, symName: __ZN3std3sys7process4unix6common5Stdio14to_child_stdio17h49bfded735c5c469E, symObjAddr: 0x4E9F0, symBinAddr: 0x53230, symSize: 0x150 }
  - { offset: 0xD5047, size: 0x8, addend: 0x0, symName: '__ZN77_$LT$std..sys..process..unix..common..Command$u20$as$u20$core..fmt..Debug$GT$3fmt17h67760985c6e197d8E', symObjAddr: 0x4EB40, symBinAddr: 0x53380, symSize: 0x850 }
  - { offset: 0xD57C0, size: 0x8, addend: 0x0, symName: '__ZN78_$LT$std..sys..process..unix..common..ExitCode$u20$as$u20$core..fmt..Debug$GT$3fmt17h0dbe52661048e6ddE', symObjAddr: 0x4F390, symBinAddr: 0x53BD0, symSize: 0x50 }
  - { offset: 0xD57E2, size: 0x8, addend: 0x0, symName: '__ZN81_$LT$std..sys..process..unix..common..CommandArgs$u20$as$u20$core..fmt..Debug$GT$3fmt17h974369b8bcaf48a8E', symObjAddr: 0x4F460, symBinAddr: 0x53CA0, symSize: 0x80 }
  - { offset: 0xD58A8, size: 0x8, addend: 0x0, symName: __ZN3std3sys7process3env10CommandEnv3set17h78cea3de147c15a5E, symObjAddr: 0x42C90, symBinAddr: 0x47AE0, symSize: 0x1A0 }
  - { offset: 0xD5E23, size: 0x8, addend: 0x0, symName: __ZN3std3sys7process3env10CommandEnv6remove17h805e06e5dd3eaa21E, symObjAddr: 0x42E30, symBinAddr: 0x47C80, symSize: 0x610 }
  - { offset: 0xD6A40, size: 0x8, addend: 0x0, symName: '__ZN94_$LT$std..sys..process..env..CommandEnvs$u20$as$u20$core..iter..traits..iterator..Iterator$GT$4next17hd78b94d2f52d502cE', symObjAddr: 0x43440, symBinAddr: 0x48290, symSize: 0x50 }
  - { offset: 0xD6AC9, size: 0x8, addend: 0x0, symName: '__ZN71_$LT$std..sys..process..env..CommandEnv$u20$as$u20$core..fmt..Debug$GT$3fmt17h3638b3053b505497E', symObjAddr: 0x42C10, symBinAddr: 0x47A60, symSize: 0x80 }
  - { offset: 0xD6DA7, size: 0x8, addend: 0x0, symName: '__ZN69_$LT$std..sys..os_str..bytes..Slice$u20$as$u20$core..fmt..Display$GT$3fmt17h458e5fae1506aa67E', symObjAddr: 0x4C940, symBinAddr: 0x51180, symSize: 0xC0 }
  - { offset: 0xD6DED, size: 0x8, addend: 0x0, symName: '__ZN67_$LT$std..sys..os_str..bytes..Buf$u20$as$u20$core..fmt..Display$GT$3fmt17h45ec5b8d35ea4563E', symObjAddr: 0x4C870, symBinAddr: 0x510B0, symSize: 0xD0 }
  - { offset: 0xD6EC4, size: 0x8, addend: 0x0, symName: __ZN3std3sys6os_str5bytes5Slice21check_public_boundary9slow_path17h80135d83e8e6ce5fE, symObjAddr: 0x4CA00, symBinAddr: 0x51240, symSize: 0x160 }
  - { offset: 0xD7076, size: 0x8, addend: 0x0, symName: '__ZN72_$LT$std..sys..fs..unix..FilePermissions$u20$as$u20$core..fmt..Debug$GT$3fmt17h823a5706586833e6E', symObjAddr: 0x498D0, symBinAddr: 0x4E110, symSize: 0x60 }
  - { offset: 0xD7124, size: 0x8, addend: 0x0, symName: __ZN3std3sys2fs4unix15remove_dir_impl24remove_dir_all_recursive17h996f08bfb6345090E, symObjAddr: 0x4AFF0, symBinAddr: 0x4F830, symSize: 0x3A0 }
  - { offset: 0xD7B89, size: 0x8, addend: 0x0, symName: __ZN3std3sys2fs4unix4File6open_c17h9025dc9fdaea81d0E, symObjAddr: 0x49E60, symBinAddr: 0x4E6A0, symSize: 0x130 }
  - { offset: 0xD7CAF, size: 0x8, addend: 0x0, symName: __ZN3std3sys2fs4unix4File4read17h064c5b861e2df063E, symObjAddr: 0x49F90, symBinAddr: 0x4E7D0, symSize: 0x50 }
  - { offset: 0xD7DB1, size: 0x8, addend: 0x0, symName: __ZN3std3sys2fs4unix4File13read_vectored17h767b587393d54899E, symObjAddr: 0x49FE0, symBinAddr: 0x4E820, symSize: 0x50 }
  - { offset: 0xD7EB3, size: 0x8, addend: 0x0, symName: __ZN3std3sys2fs4unix4File8read_buf17h9b9099658ec3d172E, symObjAddr: 0x4A030, symBinAddr: 0x4E870, symSize: 0x70 }
  - { offset: 0xD8253, size: 0x8, addend: 0x0, symName: __ZN3std3sys2fs4unix8DirEntry8metadata17hb04d15ebdfb7966cE, symObjAddr: 0x49B90, symBinAddr: 0x4E3D0, symSize: 0x170 }
  - { offset: 0xD8866, size: 0x8, addend: 0x0, symName: '__ZN3std3sys2fs4unix10DirBuilder5mkdir28_$u7b$$u7b$closure$u7d$$u7d$17h34ff45afdd00ca5fE', symObjAddr: 0x4A0A0, symBinAddr: 0x4E8E0, symSize: 0x30 }
  - { offset: 0xD89F6, size: 0x8, addend: 0x0, symName: '__ZN78_$LT$std..sys..fs..unix..copy..FreeOnDrop$u20$as$u20$core..ops..drop..Drop$GT$4drop17h9105c816763a30f3E', symObjAddr: 0x4AB30, symBinAddr: 0x4F370, symSize: 0x10 }
  - { offset: 0xD8A0B, size: 0x8, addend: 0x0, symName: '__ZN3std3sys2fs4unix4copy28_$u7b$$u7b$closure$u7d$$u7d$17h7da172f5845ce949E', symObjAddr: 0x4AB40, symBinAddr: 0x4F380, symSize: 0x50 }
  - { offset: 0xD8B17, size: 0x8, addend: 0x0, symName: '__ZN65_$LT$std..sys..fs..unix..FileType$u20$as$u20$core..fmt..Debug$GT$3fmt17h80076be46260a786E', symObjAddr: 0x49870, symBinAddr: 0x4E0B0, symSize: 0x60 }
  - { offset: 0xD8B39, size: 0x8, addend: 0x0, symName: '__ZN64_$LT$std..sys..fs..unix..ReadDir$u20$as$u20$core..fmt..Debug$GT$3fmt17h7d99643729c6844cE', symObjAddr: 0x49930, symBinAddr: 0x4E170, symSize: 0x30 }
  - { offset: 0xD8CF5, size: 0x8, addend: 0x0, symName: '__ZN86_$LT$std..sys..fs..unix..ReadDir$u20$as$u20$core..iter..traits..iterator..Iterator$GT$4next17he21c517ad0359504E', symObjAddr: 0x49960, symBinAddr: 0x4E1A0, symSize: 0x160 }
  - { offset: 0xD8F76, size: 0x8, addend: 0x0, symName: '__ZN65_$LT$std..sys..fs..unix..Dir$u20$as$u20$core..ops..drop..Drop$GT$4drop17h29b3d8cd432e476eE', symObjAddr: 0x49AC0, symBinAddr: 0x4E300, symSize: 0xD0 }
  - { offset: 0xD907B, size: 0x8, addend: 0x0, symName: '__ZN68_$LT$std..sys..fs..unix..OpenOptions$u20$as$u20$core..fmt..Debug$GT$3fmt17hb9345a9f44a2c61bE', symObjAddr: 0x49D00, symBinAddr: 0x4E540, symSize: 0x160 }
  - { offset: 0xD909D, size: 0x8, addend: 0x0, symName: '__ZN67_$LT$std..sys..fs..unix..DirBuilder$u20$as$u20$core..fmt..Debug$GT$3fmt17h9b80fbbbe72a5b19E', symObjAddr: 0x4A0D0, symBinAddr: 0x4E910, symSize: 0x60 }
  - { offset: 0xD90BF, size: 0x8, addend: 0x0, symName: '__ZN72_$LT$std..sys..fs..unix..File$u20$as$u20$std..os..fd..raw..FromRawFd$GT$11from_raw_fd17hcdc5539476955ae4E', symObjAddr: 0x4A130, symBinAddr: 0x4E970, symSize: 0x30 }
  - { offset: 0xD9162, size: 0x8, addend: 0x0, symName: '__ZN61_$LT$std..sys..fs..unix..File$u20$as$u20$core..fmt..Debug$GT$3fmt17hf97660b4d3bb3a8eE', symObjAddr: 0x4A160, symBinAddr: 0x4E9A0, symSize: 0x270 }
  - { offset: 0xD963C, size: 0x8, addend: 0x0, symName: '__ZN61_$LT$std..sys..fs..unix..Mode$u20$as$u20$core..fmt..Debug$GT$3fmt17ha2312b2767a07f42E', symObjAddr: 0x4A3D0, symBinAddr: 0x4EC10, symSize: 0x2C0 }
  - { offset: 0xD9686, size: 0x8, addend: 0x0, symName: __ZN3std3sys2fs4unix8readlink17hbb1f9152486eb096E, symObjAddr: 0x4A690, symBinAddr: 0x4EED0, symSize: 0x1C0 }
  - { offset: 0xD9AAF, size: 0x8, addend: 0x0, symName: __ZN3std3sys2fs4unix12canonicalize17h6fe11fa36bf13a56E, symObjAddr: 0x4A850, symBinAddr: 0x4F090, symSize: 0xD0 }
  - { offset: 0xD9CC8, size: 0x8, addend: 0x0, symName: '__ZN77_$LT$std..sys..fs..unix..cfm..CachedFileMetadata$u20$as$u20$std..io..Read$GT$4read17hba60beb9b3cd1bf4E', symObjAddr: 0x4A920, symBinAddr: 0x4F160, symSize: 0x50 }
  - { offset: 0xD9E16, size: 0x8, addend: 0x0, symName: '__ZN77_$LT$std..sys..fs..unix..cfm..CachedFileMetadata$u20$as$u20$std..io..Read$GT$13read_vectored17h7a1b8808ec0962b2E', symObjAddr: 0x4A970, symBinAddr: 0x4F1B0, symSize: 0x50 }
  - { offset: 0xD9F64, size: 0x8, addend: 0x0, symName: '__ZN77_$LT$std..sys..fs..unix..cfm..CachedFileMetadata$u20$as$u20$std..io..Read$GT$8read_buf17hfa12a9cc030d0bc6E', symObjAddr: 0x4A9C0, symBinAddr: 0x4F200, symSize: 0x70 }
  - { offset: 0xDA171, size: 0x8, addend: 0x0, symName: '__ZN77_$LT$std..sys..fs..unix..cfm..CachedFileMetadata$u20$as$u20$std..io..Read$GT$11read_to_end17hd95408d31b88b730E', symObjAddr: 0x4AA30, symBinAddr: 0x4F270, symSize: 0x30 }
  - { offset: 0xDA1A3, size: 0x8, addend: 0x0, symName: '__ZN77_$LT$std..sys..fs..unix..cfm..CachedFileMetadata$u20$as$u20$std..io..Read$GT$14read_to_string17hb1323476718ba710E', symObjAddr: 0x4AA60, symBinAddr: 0x4F2A0, symSize: 0x30 }
  - { offset: 0xDA1DC, size: 0x8, addend: 0x0, symName: '__ZN78_$LT$std..sys..fs..unix..cfm..CachedFileMetadata$u20$as$u20$std..io..Write$GT$5write17h06d49e4576005061E', symObjAddr: 0x4AA90, symBinAddr: 0x4F2D0, symSize: 0x50 }
  - { offset: 0xDA300, size: 0x8, addend: 0x0, symName: '__ZN78_$LT$std..sys..fs..unix..cfm..CachedFileMetadata$u20$as$u20$std..io..Write$GT$14write_vectored17h6c2eb228b468e501E', symObjAddr: 0x4AAE0, symBinAddr: 0x4F320, symSize: 0x50 }
  - { offset: 0xDA43A, size: 0x8, addend: 0x0, symName: '__ZN3std3sys2fs4unix5chown28_$u7b$$u7b$closure$u7d$$u7d$17hddd0c5d03f7c38d2E', symObjAddr: 0x4AC50, symBinAddr: 0x4F490, symSize: 0x40 }
  - { offset: 0xDA4CF, size: 0x8, addend: 0x0, symName: __ZN3std3sys2fs4unix5chown17h412dc351ffc5b585E, symObjAddr: 0x4AB90, symBinAddr: 0x4F3D0, symSize: 0xC0 }
  - { offset: 0xDA5FC, size: 0x8, addend: 0x0, symName: __ZN3std3sys2fs4unix6fchown17h5bb662bd01c7c2cbE, symObjAddr: 0x4AC90, symBinAddr: 0x4F4D0, symSize: 0x30 }
  - { offset: 0xDA6AB, size: 0x8, addend: 0x0, symName: '__ZN3std3sys2fs4unix6lchown28_$u7b$$u7b$closure$u7d$$u7d$17h3e5d1e2e9d3acf4cE', symObjAddr: 0x4AD80, symBinAddr: 0x4F5C0, symSize: 0x40 }
  - { offset: 0xDA740, size: 0x8, addend: 0x0, symName: __ZN3std3sys2fs4unix6lchown17hc95b1e2c24ae3baeE, symObjAddr: 0x4ACC0, symBinAddr: 0x4F500, symSize: 0xC0 }
  - { offset: 0xDA881, size: 0x8, addend: 0x0, symName: '__ZN3std3sys2fs4unix6chroot28_$u7b$$u7b$closure$u7d$$u7d$17h4893ce67582cc769E', symObjAddr: 0x4AE70, symBinAddr: 0x4F6B0, symSize: 0x30 }
  - { offset: 0xDA916, size: 0x8, addend: 0x0, symName: __ZN3std3sys2fs4unix6chroot17h3d56f2c319f89ccaE, symObjAddr: 0x4ADC0, symBinAddr: 0x4F600, symSize: 0xB0 }
  - { offset: 0xDAA57, size: 0x8, addend: 0x0, symName: '__ZN3std3sys2fs4unix6mkfifo28_$u7b$$u7b$closure$u7d$$u7d$17h30089ce3e042e0faE', symObjAddr: 0x4AF80, symBinAddr: 0x4F7C0, symSize: 0x70 }
  - { offset: 0xDAB2F, size: 0x8, addend: 0x0, symName: __ZN3std3sys2fs4unix6mkfifo17haeb179baa8b3b51dE, symObjAddr: 0x4AEA0, symBinAddr: 0x4F6E0, symSize: 0xE0 }
  - { offset: 0xDACAA, size: 0x8, addend: 0x0, symName: __ZN3std3sys2fs8read_dir17h9d925a03c52c0f8aE, symObjAddr: 0x41650, symBinAddr: 0x464A0, symSize: 0x210 }
  - { offset: 0xDAFB9, size: 0x8, addend: 0x0, symName: __ZN3std3sys2fs11remove_file17h4a68dac09932166fE, symObjAddr: 0x41860, symBinAddr: 0x466B0, symSize: 0xB0 }
  - { offset: 0xDB120, size: 0x8, addend: 0x0, symName: '__ZN3std3sys2fs6rename28_$u7b$$u7b$closure$u7d$$u7d$28_$u7b$$u7b$closure$u7d$$u7d$17he14bfd2984729942E', symObjAddr: 0x41AF0, symBinAddr: 0x46940, symSize: 0x30 }
  - { offset: 0xDB1C3, size: 0x8, addend: 0x0, symName: '__ZN3std3sys2fs6rename28_$u7b$$u7b$closure$u7d$$u7d$17hc14c87f33a685bd9E', symObjAddr: 0x41A30, symBinAddr: 0x46880, symSize: 0xC0 }
  - { offset: 0xDB2FF, size: 0x8, addend: 0x0, symName: __ZN3std3sys2fs6rename17h1b9b57bfff05a4a5E, symObjAddr: 0x41910, symBinAddr: 0x46760, symSize: 0x120 }
  - { offset: 0xDB4B1, size: 0x8, addend: 0x0, symName: __ZN3std3sys2fs10remove_dir17h799a4968e011b0a5E, symObjAddr: 0x41B20, symBinAddr: 0x46970, symSize: 0xB0 }
  - { offset: 0xDB5F2, size: 0x8, addend: 0x0, symName: __ZN3std3sys2fs14remove_dir_all17hc487ced25121fc74E, symObjAddr: 0x41BD0, symBinAddr: 0x46A20, symSize: 0x130 }
  - { offset: 0xDB79E, size: 0x8, addend: 0x0, symName: __ZN3std3sys2fs9read_link17hc5bb5016d7308e21E, symObjAddr: 0x41D00, symBinAddr: 0x46B50, symSize: 0xA0 }
  - { offset: 0xDB867, size: 0x8, addend: 0x0, symName: '__ZN3std3sys2fs7symlink28_$u7b$$u7b$closure$u7d$$u7d$28_$u7b$$u7b$closure$u7d$$u7d$17h153ffde758bf9599E', symObjAddr: 0x41F80, symBinAddr: 0x46DD0, symSize: 0x30 }
  - { offset: 0xDB90A, size: 0x8, addend: 0x0, symName: '__ZN3std3sys2fs7symlink28_$u7b$$u7b$closure$u7d$$u7d$17h3f8df4c9343c76d6E', symObjAddr: 0x41EC0, symBinAddr: 0x46D10, symSize: 0xC0 }
  - { offset: 0xDBA46, size: 0x8, addend: 0x0, symName: __ZN3std3sys2fs7symlink17h66636bfd31a68a36E, symObjAddr: 0x41DA0, symBinAddr: 0x46BF0, symSize: 0x120 }
  - { offset: 0xDBC1E, size: 0x8, addend: 0x0, symName: '__ZN3std3sys2fs9hard_link28_$u7b$$u7b$closure$u7d$$u7d$28_$u7b$$u7b$closure$u7d$$u7d$17h35e6b242e5efb00aE', symObjAddr: 0x421B0, symBinAddr: 0x47000, symSize: 0x40 }
  - { offset: 0xDBCD1, size: 0x8, addend: 0x0, symName: '__ZN3std3sys2fs9hard_link28_$u7b$$u7b$closure$u7d$$u7d$17h57ff8b83cdf26fa0E', symObjAddr: 0x420E0, symBinAddr: 0x46F30, symSize: 0xD0 }
  - { offset: 0xDBE0D, size: 0x8, addend: 0x0, symName: __ZN3std3sys2fs9hard_link17h68875447e22b351fE, symObjAddr: 0x41FB0, symBinAddr: 0x46E00, symSize: 0x130 }
  - { offset: 0xDBFBF, size: 0x8, addend: 0x0, symName: __ZN3std3sys2fs8metadata17h458bdee476c76237E, symObjAddr: 0x421F0, symBinAddr: 0x47040, symSize: 0x100 }
  - { offset: 0xDC14D, size: 0x8, addend: 0x0, symName: __ZN3std3sys2fs16symlink_metadata17hbfbfda3ed66b7056E, symObjAddr: 0x422F0, symBinAddr: 0x47140, symSize: 0x100 }
  - { offset: 0xDC2EE, size: 0x8, addend: 0x0, symName: '__ZN3std3sys2fs15set_permissions28_$u7b$$u7b$closure$u7d$$u7d$17h167127c249369839E', symObjAddr: 0x424D0, symBinAddr: 0x47320, symSize: 0x60 }
  - { offset: 0xDC3FB, size: 0x8, addend: 0x0, symName: __ZN3std3sys2fs15set_permissions17hc6100e68a45b4d9dE, symObjAddr: 0x423F0, symBinAddr: 0x47240, symSize: 0xE0 }
  - { offset: 0xDC596, size: 0x8, addend: 0x0, symName: __ZN3std3sys2fs12canonicalize17h98a0a7f6993386b1E, symObjAddr: 0x42530, symBinAddr: 0x47380, symSize: 0xA0 }
  - { offset: 0xDC639, size: 0x8, addend: 0x0, symName: __ZN3std3sys2fs4copy17h1a3b0616fa411c78E, symObjAddr: 0x425D0, symBinAddr: 0x47420, symSize: 0x410 }
  - { offset: 0xDD034, size: 0x8, addend: 0x0, symName: __ZN3std3sys2fs6exists17h4f84def34881099aE, symObjAddr: 0x429E0, symBinAddr: 0x47830, symSize: 0x230 }
  - { offset: 0xDD46E, size: 0x8, addend: 0x0, symName: '__ZN65_$LT$std..sys..fd..unix..FileDesc$u20$as$u20$core..fmt..Debug$GT$3fmt17h7e0f88616455af2fE', symObjAddr: 0x49830, symBinAddr: 0x4E070, symSize: 0x40 }
  - { offset: 0xDD53A, size: 0x8, addend: 0x0, symName: __ZN3std3sys2fd4unix8FileDesc4read17h72509a3ced66d456E, symObjAddr: 0x490E0, symBinAddr: 0x4D920, symSize: 0x50 }
  - { offset: 0xDD625, size: 0x8, addend: 0x0, symName: __ZN3std3sys2fd4unix8FileDesc13read_vectored17h346bf8c96f6843e3E, symObjAddr: 0x49130, symBinAddr: 0x4D970, symSize: 0x50 }
  - { offset: 0xDD710, size: 0x8, addend: 0x0, symName: __ZN3std3sys2fd4unix8FileDesc11read_to_end17hf15cd94573448d69E, symObjAddr: 0x49180, symBinAddr: 0x4D9C0, symSize: 0x290 }
  - { offset: 0xDDBDB, size: 0x8, addend: 0x0, symName: __ZN3std3sys2fd4unix8FileDesc7read_at17h977b16280aa0add6E, symObjAddr: 0x49410, symBinAddr: 0x4DC50, symSize: 0x50 }
  - { offset: 0xDDCC6, size: 0x8, addend: 0x0, symName: __ZN3std3sys2fd4unix8FileDesc8read_buf17h098695dd40a96928E, symObjAddr: 0x49460, symBinAddr: 0x4DCA0, symSize: 0x70 }
  - { offset: 0xDDE90, size: 0x8, addend: 0x0, symName: __ZN3std3sys2fd4unix8FileDesc16read_vectored_at17hade12f8cf7044ce5E, symObjAddr: 0x494D0, symBinAddr: 0x4DD10, symSize: 0xE0 }
  - { offset: 0xDE074, size: 0x8, addend: 0x0, symName: __ZN3std3sys2fd4unix8FileDesc5write17h93688e07ddf9007bE, symObjAddr: 0x495B0, symBinAddr: 0x4DDF0, symSize: 0x50 }
  - { offset: 0xDE162, size: 0x8, addend: 0x0, symName: __ZN3std3sys2fd4unix8FileDesc14write_vectored17ha4c1f2a122465af1E, symObjAddr: 0x49600, symBinAddr: 0x4DE40, symSize: 0x50 }
  - { offset: 0xDE250, size: 0x8, addend: 0x0, symName: __ZN3std3sys2fd4unix8FileDesc8write_at17hdf88df40e59d3716E, symObjAddr: 0x49650, symBinAddr: 0x4DE90, symSize: 0x50 }
  - { offset: 0xDE33E, size: 0x8, addend: 0x0, symName: __ZN3std3sys2fd4unix8FileDesc17write_vectored_at17h571862a30e874366E, symObjAddr: 0x496A0, symBinAddr: 0x4DEE0, symSize: 0xE0 }
  - { offset: 0xDE523, size: 0x8, addend: 0x0, symName: __ZN3std3sys2fd4unix8FileDesc11set_cloexec17h8707d4f95d39ef6dE, symObjAddr: 0x49780, symBinAddr: 0x4DFC0, symSize: 0x40 }
  - { offset: 0xDE5EC, size: 0x8, addend: 0x0, symName: __ZN3std3sys2fd4unix8FileDesc15set_nonblocking17he6b3c87c6c212b44E, symObjAddr: 0x497C0, symBinAddr: 0x4E000, symSize: 0x60 }
  - { offset: 0xDE85C, size: 0x8, addend: 0x0, symName: '__ZN73_$LT$std..sys..fd..unix..FileDesc$u20$as$u20$std..os..fd..owned..AsFd$GT$5as_fd17h0d9657de06bff113E', symObjAddr: 0x49820, symBinAddr: 0x4E060, symSize: 0x10 }
  - { offset: 0xDE94E, size: 0x8, addend: 0x0, symName: '__ZN94_$LT$std..sys..pal..unix..os..SplitPaths$u20$as$u20$core..iter..traits..iterator..Iterator$GT$4next17hf2b34a7c72e41231E', symObjAddr: 0x46C30, symBinAddr: 0x4B580, symSize: 0xA0 }
  - { offset: 0xDEAB8, size: 0x8, addend: 0x0, symName: '__ZN78_$LT$std..sys..pal..unix..os..JoinPathsError$u20$as$u20$core..fmt..Display$GT$3fmt17hba923227ebacfa6bE', symObjAddr: 0x46CD0, symBinAddr: 0x4B620, symSize: 0x70 }
  - { offset: 0xDEBDD, size: 0x8, addend: 0x0, symName: '__ZN3std3sys3pal4unix2os5chdir28_$u7b$$u7b$closure$u7d$$u7d$17hb71d1fd0c93a952aE', symObjAddr: 0x46B70, symBinAddr: 0x4B4C0, symSize: 0x30 }
  - { offset: 0xDEBF2, size: 0x8, addend: 0x0, symName: __ZN3std3sys3pal4unix2os5chdir17h8846382bbae803a4E, symObjAddr: 0x46AA0, symBinAddr: 0x4B3F0, symSize: 0xD0 }
  - { offset: 0xDECFA, size: 0x8, addend: 0x0, symName: __ZN3std3sys3pal4unix2os11split_paths13bytes_to_path17h782f20b72c149526E, symObjAddr: 0x46BA0, symBinAddr: 0x4B4F0, symSize: 0x90 }
  - { offset: 0xDEEA9, size: 0x8, addend: 0x0, symName: __ZN3std3sys3pal4unix2os4exit17hed972938b92707e7E, symObjAddr: 0x46D40, symBinAddr: 0x4B690, symSize: 0x10 }
  - { offset: 0xDEF3C, size: 0x8, addend: 0x0, symName: '__ZN81_$LT$std..sys..pal..unix..sync..mutex..Mutex$u20$as$u20$core..ops..drop..Drop$GT$4drop17he7d133fd9be5d81dE', symObjAddr: 0x477F0, symBinAddr: 0x4C040, symSize: 0x10 }
  - { offset: 0xDEF8B, size: 0x8, addend: 0x0, symName: __ZN3std3sys3pal4unix4sync5mutex5Mutex4init17h571826191ba0b436E, symObjAddr: 0x47550, symBinAddr: 0x4BEA0, symSize: 0x160 }
  - { offset: 0xDF010, size: 0x8, addend: 0x0, symName: __ZN3std3sys3pal4unix4sync5mutex5Mutex4lock17h4361a7f527ba7bf4E, symObjAddr: 0x476B0, symBinAddr: 0x4C000, symSize: 0x20 }
  - { offset: 0xDF024, size: 0x8, addend: 0x0, symName: __ZN3std3sys3pal4unix4sync5mutex5Mutex8try_lock17h62e2cb49c6709971E, symObjAddr: 0x477D0, symBinAddr: 0x4C020, symSize: 0x10 }
  - { offset: 0xDF038, size: 0x8, addend: 0x0, symName: __ZN3std3sys3pal4unix4sync5mutex5Mutex6unlock17h8811785d2b4e910cE, symObjAddr: 0x477E0, symBinAddr: 0x4C030, symSize: 0x10 }
  - { offset: 0xDF060, size: 0x8, addend: 0x0, symName: '__ZN85_$LT$std..sys..pal..unix..sync..mutex..AttrGuard$u20$as$u20$core..ops..drop..Drop$GT$4drop17h053cc5835e2adc0aE', symObjAddr: 0x47800, symBinAddr: 0x4C050, symSize: 0x50 }
  - { offset: 0xDF081, size: 0x8, addend: 0x0, symName: __ZN3std3sys3pal4unix4sync5mutex5Mutex4lock4fail17hf7cfa1a55dad4495E, symObjAddr: 0x476D0, symBinAddr: 0x9CE90, symSize: 0x100 }
  - { offset: 0xDF431, size: 0x8, addend: 0x0, symName: __ZN3std3sys3pal4unix14stack_overflow3imp14signal_handler17h4cb72853debf4bc7E, symObjAddr: 0x471A0, symBinAddr: 0x4BAF0, symSize: 0xB0 }
  - { offset: 0xDF544, size: 0x8, addend: 0x0, symName: '__ZN3std3sys3pal4unix14stack_overflow3imp14signal_handler28_$u7b$$u7b$closure$u7d$$u7d$17h1b8841c517f9b1ffE', symObjAddr: 0x47250, symBinAddr: 0x4BBA0, symSize: 0x110 }
  - { offset: 0xDF806, size: 0x8, addend: 0x0, symName: __ZN3std3sys3pal4unix14stack_overflow3imp12make_handler17h31c4680964f28b28E, symObjAddr: 0x47360, symBinAddr: 0x4BCB0, symSize: 0x1F0 }
  - { offset: 0xDFB38, size: 0x8, addend: 0x0, symName: '__ZN86_$LT$std..sys..pal..unix..stack_overflow..Handler$u20$as$u20$core..ops..drop..Drop$GT$4drop17hba61d03151f27371E', symObjAddr: 0x47140, symBinAddr: 0x4BA90, symSize: 0x60 }
  - { offset: 0xDFC2A, size: 0x8, addend: 0x0, symName: __ZN3std3sys3pal4unix6thread6Thread3new17h8be5501ed5553135E, symObjAddr: 0x47850, symBinAddr: 0x4C0A0, symSize: 0x260 }
  - { offset: 0xDFEE8, size: 0x8, addend: 0x0, symName: __ZN3std3sys3pal4unix6thread6Thread8set_name17h6ecb6faa3a65d8c6E, symObjAddr: 0x47BA0, symBinAddr: 0x4C3F0, symSize: 0x80 }
  - { offset: 0xDFFE4, size: 0x8, addend: 0x0, symName: __ZN3std3sys3pal4unix6thread6Thread4join17h30c19fd9c4f6b295E, symObjAddr: 0x47C20, symBinAddr: 0x4C470, symSize: 0x90 }
  - { offset: 0xE005F, size: 0x8, addend: 0x0, symName: __ZN3std3sys3pal4unix6thread6Thread3new12thread_start17h110981749b5ebcd9E, symObjAddr: 0x47AB0, symBinAddr: 0x4C300, symSize: 0xF0 }
  - { offset: 0xE02A1, size: 0x8, addend: 0x0, symName: '__ZN77_$LT$std..sys..pal..unix..thread..Thread$u20$as$u20$core..ops..drop..Drop$GT$4drop17h65a702590918cfcfE', symObjAddr: 0x47CB0, symBinAddr: 0x4C500, symSize: 0x10 }
  - { offset: 0xE0330, size: 0x8, addend: 0x0, symName: __ZN3std3sys3pal4unix4time8Timespec3now17haa36934d050339f2E, symObjAddr: 0x47D40, symBinAddr: 0x4C590, symSize: 0x100 }
  - { offset: 0xE03F8, size: 0x8, addend: 0x0, symName: __ZN3std3sys3pal4unix4time8Timespec12sub_timespec17heedc0ea7cf00c5f4E, symObjAddr: 0x47E40, symBinAddr: 0x4C690, symSize: 0xD0 }
  - { offset: 0xE0525, size: 0x8, addend: 0x0, symName: '__ZN71_$LT$std..sys..pal..unix..time..Instant$u20$as$u20$core..fmt..Debug$GT$3fmt17h124234c8081bc735E', symObjAddr: 0x47F10, symBinAddr: 0x4C760, symSize: 0x80 }
  - { offset: 0xE054D, size: 0x8, addend: 0x0, symName: '__ZN74_$LT$std..sys..pal..unix..time..SystemTime$u20$as$u20$core..fmt..Debug$GT$3fmt17h95aeef9e9188fd27E', symObjAddr: 0x47CC0, symBinAddr: 0x4C510, symSize: 0x80 }
  - { offset: 0xE0746, size: 0x8, addend: 0x0, symName: __ZN3std3sys3pal4unix4pipe8AnonPipe5write17hc9ac79c9233763c1E, symObjAddr: 0x46E60, symBinAddr: 0x4B7B0, symSize: 0x50 }
  - { offset: 0xE0824, size: 0x8, addend: 0x0, symName: __ZN3std3sys3pal4unix4pipe9anon_pipe17he75868b11391d321E, symObjAddr: 0x46D50, symBinAddr: 0x4B6A0, symSize: 0x110 }
  - { offset: 0xE0B7F, size: 0x8, addend: 0x0, symName: __ZN3std3sys3pal4unix4pipe5read217h0ccfa68b3d19542cE, symObjAddr: 0x46EB0, symBinAddr: 0x4B800, symSize: 0x290 }
  - { offset: 0xE1236, size: 0x8, addend: 0x0, symName: '__ZN3std3sys3pal4unix4weak18DlsymWeak$LT$F$GT$10initialize17h1d178c271f7428beE', symObjAddr: 0x46A50, symBinAddr: 0x9CE40, symSize: 0x50 }
  - { offset: 0xE12D4, size: 0x8, addend: 0x0, symName: __ZN3std3sys3pal4unix17decode_error_kind17h4a5af39ecf440e3fE, symObjAddr: 0x47F90, symBinAddr: 0x4C7E0, symSize: 0x250 }
  - { offset: 0xE12EE, size: 0x8, addend: 0x0, symName: __ZN3std3sys3pal4unix14abort_internal17h5cfcfc43769daa18E, symObjAddr: 0x481E0, symBinAddr: 0x9CF90, symSize: 0x10 }
  - { offset: 0xE1494, size: 0x8, addend: 0x0, symName: __ZN3std3sys3pal6common14small_c_string24run_with_cstr_allocating17h39799c6f488768deE, symObjAddr: 0x40500, symBinAddr: 0x9C3E0, symSize: 0xB0 }
  - { offset: 0xE1686, size: 0x8, addend: 0x0, symName: __ZN3std3sys3pal6common14small_c_string24run_with_cstr_allocating17h45042ca0b1c0e79fE, symObjAddr: 0x405B0, symBinAddr: 0x9C490, symSize: 0xC0 }
  - { offset: 0xE1878, size: 0x8, addend: 0x0, symName: __ZN3std3sys3pal6common14small_c_string24run_with_cstr_allocating17h51fe830063eac431E, symObjAddr: 0x40670, symBinAddr: 0x9C550, symSize: 0xC0 }
  - { offset: 0xE1A6A, size: 0x8, addend: 0x0, symName: __ZN3std3sys3pal6common14small_c_string24run_with_cstr_allocating17h7b0e2155e9c19ab2E, symObjAddr: 0x40730, symBinAddr: 0x9C610, symSize: 0xC0 }
  - { offset: 0xE1C5C, size: 0x8, addend: 0x0, symName: __ZN3std3sys3pal6common14small_c_string24run_with_cstr_allocating17haad58ca228f923b3E, symObjAddr: 0x407F0, symBinAddr: 0x9C6D0, symSize: 0xA0 }
  - { offset: 0xE1DDC, size: 0x8, addend: 0x0, symName: __ZN3std3sys3pal6common14small_c_string24run_with_cstr_allocating17hb255653573175b12E, symObjAddr: 0x40890, symBinAddr: 0x9C770, symSize: 0xC0 }
  - { offset: 0xE1FCE, size: 0x8, addend: 0x0, symName: __ZN3std3sys3pal6common14small_c_string24run_with_cstr_allocating17hd5b1abcc0d7593a0E, symObjAddr: 0x40950, symBinAddr: 0x9C830, symSize: 0x90 }
  - { offset: 0xE214E, size: 0x8, addend: 0x0, symName: __ZN3std3sys3pal6common14small_c_string24run_with_cstr_allocating17he658d8c00522b0b0E, symObjAddr: 0x409E0, symBinAddr: 0x9C8C0, symSize: 0xC0 }
  - { offset: 0xE25C5, size: 0x8, addend: 0x0, symName: '__ZN64_$LT$std..sys..stdio..unix..Stderr$u20$as$u20$std..io..Write$GT$5write17hfab304b3941bd1b7E', symObjAddr: 0x50940, symBinAddr: 0x55180, symSize: 0x50 }
  - { offset: 0xE269C, size: 0x8, addend: 0x0, symName: '__ZN64_$LT$std..sys..stdio..unix..Stderr$u20$as$u20$std..io..Write$GT$14write_vectored17h661bee36be4decb0E', symObjAddr: 0x50990, symBinAddr: 0x551D0, symSize: 0x50 }
  - { offset: 0xE2773, size: 0x8, addend: 0x0, symName: '__ZN64_$LT$std..sys..stdio..unix..Stderr$u20$as$u20$std..io..Write$GT$17is_write_vectored17h8a227cad6d099f8bE', symObjAddr: 0x509E0, symBinAddr: 0x55220, symSize: 0x10 }
  - { offset: 0xE278D, size: 0x8, addend: 0x0, symName: '__ZN64_$LT$std..sys..stdio..unix..Stderr$u20$as$u20$std..io..Write$GT$5flush17h16a7f06cd490c500E', symObjAddr: 0x509F0, symBinAddr: 0x55230, symSize: 0x10 }
  - { offset: 0xE27C8, size: 0x8, addend: 0x0, symName: '__ZN64_$LT$std..sys..stdio..unix..Stdout$u20$as$u20$std..io..Write$GT$5write17h683a0b0c269d41f1E', symObjAddr: 0x508A0, symBinAddr: 0x550E0, symSize: 0x50 }
  - { offset: 0xE289F, size: 0x8, addend: 0x0, symName: '__ZN64_$LT$std..sys..stdio..unix..Stdout$u20$as$u20$std..io..Write$GT$14write_vectored17h79514b9c8000c00aE', symObjAddr: 0x508F0, symBinAddr: 0x55130, symSize: 0x50 }
  - { offset: 0xE29A4, size: 0x8, addend: 0x0, symName: '__ZN62_$LT$std..sys..stdio..unix..Stdin$u20$as$u20$std..io..Read$GT$4read17ha5575a968d0c744dE', symObjAddr: 0x50790, symBinAddr: 0x54FD0, symSize: 0x50 }
  - { offset: 0xE2A79, size: 0x8, addend: 0x0, symName: '__ZN62_$LT$std..sys..stdio..unix..Stdin$u20$as$u20$std..io..Read$GT$8read_buf17hf8ed60c8d7508b59E', symObjAddr: 0x507E0, symBinAddr: 0x55020, symSize: 0x70 }
  - { offset: 0xE2C25, size: 0x8, addend: 0x0, symName: '__ZN62_$LT$std..sys..stdio..unix..Stdin$u20$as$u20$std..io..Read$GT$13read_vectored17h8a2b773f3153da3eE', symObjAddr: 0x50850, symBinAddr: 0x55090, symSize: 0x50 }
  - { offset: 0xE2D16, size: 0x8, addend: 0x0, symName: '__ZN3std3sys9backtrace10_print_fmt28_$u7b$$u7b$closure$u7d$$u7d$17hd4efee628bf61ee9E', symObjAddr: 0x40F20, symBinAddr: 0x45D70, symSize: 0x20 }
  - { offset: 0xE2D40, size: 0x8, addend: 0x0, symName: '__ZN3std3sys9backtrace10_print_fmt28_$u7b$$u7b$closure$u7d$$u7d$17ha5294ffef3b880d2E', symObjAddr: 0x40F40, symBinAddr: 0x45D90, symSize: 0x130 }
  - { offset: 0xE2E4C, size: 0x8, addend: 0x0, symName: '__ZN3std3sys9backtrace10_print_fmt28_$u7b$$u7b$closure$u7d$$u7d$28_$u7b$$u7b$closure$u7d$$u7d$17h8f6f5aa4cea8d158E', symObjAddr: 0x41070, symBinAddr: 0x45EC0, symSize: 0x2A0 }
  - { offset: 0xE3068, size: 0x8, addend: 0x0, symName: __ZN3std3sys9backtrace4lock17h090f25376dacd3a6E, symObjAddr: 0x40BC0, symBinAddr: 0x45A10, symSize: 0x80 }
  - { offset: 0xE31AB, size: 0x8, addend: 0x0, symName: __ZN3std3sys9backtrace13BacktraceLock5print17h972ba80fe25d05e0E, symObjAddr: 0x40C40, symBinAddr: 0x45A90, symSize: 0x60 }
  - { offset: 0xE31FC, size: 0x8, addend: 0x0, symName: '__ZN98_$LT$std..sys..backtrace..BacktraceLock..print..DisplayBacktrace$u20$as$u20$core..fmt..Display$GT$3fmt17h9d61884e08d3316cE', symObjAddr: 0x40CA0, symBinAddr: 0x45AF0, symSize: 0x280 }
  - { offset: 0xE3791, size: 0x8, addend: 0x0, symName: __ZN3std3sys9backtrace26__rust_end_short_backtrace17haac0e906ed75717aE, symObjAddr: 0x41310, symBinAddr: 0x46160, symSize: 0x10 }
  - { offset: 0xE37AB, size: 0x8, addend: 0x0, symName: __ZN3std3sys9backtrace26__rust_end_short_backtrace17hf135814932691012E, symObjAddr: 0x41320, symBinAddr: 0x46170, symSize: 0x10 }
  - { offset: 0xE37C5, size: 0x8, addend: 0x0, symName: __ZN3std3sys9backtrace15output_filename17he899bffe58260403E, symObjAddr: 0x41330, symBinAddr: 0x46180, symSize: 0x120 }
  - { offset: 0xE3986, size: 0x8, addend: 0x0, symName: '__ZN3std3sys11personality3gcc14find_eh_action28_$u7b$$u7b$closure$u7d$$u7d$17h82fa62242d726f1fE', symObjAddr: 0x481F0, symBinAddr: 0x4CA30, symSize: 0x10 }
  - { offset: 0xE399A, size: 0x8, addend: 0x0, symName: '__ZN3std3sys11personality3gcc14find_eh_action28_$u7b$$u7b$closure$u7d$$u7d$17h262c4d0a2666d329E', symObjAddr: 0x48200, symBinAddr: 0x4CA40, symSize: 0x10 }
  - { offset: 0xE39CA, size: 0x8, addend: 0x0, symName: _rust_eh_personality, symObjAddr: 0x48210, symBinAddr: 0x4CA50, symSize: 0x710 }
  - { offset: 0xE46EC, size: 0x8, addend: 0x0, symName: '__ZN3std3sys4sync8once_box16OnceBox$LT$T$GT$10initialize17h247f8b796302671dE', symObjAddr: 0x43510, symBinAddr: 0x9C980, symSize: 0x130 }
  - { offset: 0xE488F, size: 0x8, addend: 0x0, symName: '__ZN3std3sys4sync8once_box16OnceBox$LT$T$GT$10initialize17h2ad3ff861f8baf24E', symObjAddr: 0x43640, symBinAddr: 0x9CAB0, symSize: 0xF0 }
  - { offset: 0xE4B65, size: 0x8, addend: 0x0, symName: '__ZN79_$LT$std..sys..sync..mutex..pthread..Mutex$u20$as$u20$core..ops..drop..Drop$GT$4drop17h26b25326553bbea3E', symObjAddr: 0x50BE0, symBinAddr: 0x55420, symSize: 0x50 }
  - { offset: 0xE4D4E, size: 0x8, addend: 0x0, symName: __ZN3std3sys4sync6rwlock5queue6RwLock14lock_contended17h496d821b32905ff5E, symObjAddr: 0x512F0, symBinAddr: 0x9D3E0, symSize: 0x220 }
  - { offset: 0xE5316, size: 0x8, addend: 0x0, symName: __ZN3std3sys4sync6rwlock5queue6RwLock21read_unlock_contended17h0f6306efa9ceea0eE, symObjAddr: 0x51510, symBinAddr: 0x9D600, symSize: 0x50 }
  - { offset: 0xE5496, size: 0x8, addend: 0x0, symName: __ZN3std3sys4sync6rwlock5queue6RwLock16unlock_contended17he865bf0926e5be0fE, symObjAddr: 0x51560, symBinAddr: 0x9D650, symSize: 0x40 }
  - { offset: 0xE557B, size: 0x8, addend: 0x0, symName: __ZN3std3sys4sync6rwlock5queue6RwLock14downgrade_slow17hfd3e00fe10689377E, symObjAddr: 0x515A0, symBinAddr: 0x9D690, symSize: 0xF0 }
  - { offset: 0xE5958, size: 0x8, addend: 0x0, symName: __ZN3std3sys4sync6rwlock5queue6RwLock12unlock_queue17hc69f005db877baa8E, symObjAddr: 0x51690, symBinAddr: 0x556F0, symSize: 0x180 }
  - { offset: 0xE6069, size: 0x8, addend: 0x0, symName: __ZN3std3sys4sync6rwlock5queue10write_lock17h2c0f07f2c6f52f7eE, symObjAddr: 0x51250, symBinAddr: 0x556A0, symSize: 0x20 }
  - { offset: 0xE607D, size: 0x8, addend: 0x0, symName: __ZN3std3sys4sync6rwlock5queue9read_lock17h2623ac58c6ee5fb8E, symObjAddr: 0x51270, symBinAddr: 0x556C0, symSize: 0x30 }
  - { offset: 0xE6097, size: 0x8, addend: 0x0, symName: '__ZN83_$LT$std..sys..sync..rwlock..queue..PanicGuard$u20$as$u20$core..ops..drop..Drop$GT$4drop17hd21b0f336e543337E', symObjAddr: 0x512A0, symBinAddr: 0x9D390, symSize: 0x50 }
  - { offset: 0xE612E, size: 0x8, addend: 0x0, symName: '__ZN88_$LT$std..sys..sync..thread_parking..darwin..Parker$u20$as$u20$core..ops..drop..Drop$GT$4drop17h2cbcfc6e53bfc4b0E', symObjAddr: 0x51830, symBinAddr: 0x55890, symSize: 0x10 }
  - { offset: 0xE617D, size: 0x8, addend: 0x0, symName: __ZN3std3sys4sync14thread_parking6darwin6Parker6unpark17h98c029ea39f1968eE, symObjAddr: 0x51810, symBinAddr: 0x55870, symSize: 0x20 }
  - { offset: 0xE6248, size: 0x8, addend: 0x0, symName: __ZN3std3sys4sync4once5queue4Once4wait17h1400e233572e10e5E, symObjAddr: 0x50C30, symBinAddr: 0x9CFA0, symSize: 0x1E0 }
  - { offset: 0xE6799, size: 0x8, addend: 0x0, symName: __ZN3std3sys4sync4once5queue4Once4call17h4a5391c1d7970527E, symObjAddr: 0x50E10, symBinAddr: 0x9D180, symSize: 0x210 }
  - { offset: 0xE6AA2, size: 0x8, addend: 0x0, symName: '__ZN82_$LT$std..sys..sync..once..queue..WaiterQueue$u20$as$u20$core..ops..drop..Drop$GT$4drop17h5ca9056fabd2d73aE', symObjAddr: 0x51180, symBinAddr: 0x555D0, symSize: 0xD0 }
  - { offset: 0xE6C52, size: 0x8, addend: 0x0, symName: __ZN3std3sys4sync4once5queue4wait17hdccb130ea796dbe2E, symObjAddr: 0x51020, symBinAddr: 0x55470, symSize: 0x160 }
  - { offset: 0xE71B5, size: 0x8, addend: 0x0, symName: __ZN3std3sys4sync7condvar7pthread7Condvar12wait_timeout17h1964ab750aebdb5bE, symObjAddr: 0x50A00, symBinAddr: 0x55240, symSize: 0x1E0 }
  - { offset: 0xE76A4, size: 0x8, addend: 0x0, symName: __ZN3std3sys12thread_local6native5eager7destroy17haf4ef6e2ee39013dE, symObjAddr: 0x51840, symBinAddr: 0x558A0, symSize: 0x60 }
  - { offset: 0xE7845, size: 0x8, addend: 0x0, symName: __ZN3std3sys12thread_local6native5eager7destroy17hc95d87399b14fa3eE, symObjAddr: 0x518A0, symBinAddr: 0x55900, symSize: 0x20 }
  - { offset: 0xE7990, size: 0x8, addend: 0x0, symName: __ZN3std3sys12thread_local5guard5apple6enable9run_dtors17h718b2f039c23d8b4E, symObjAddr: 0x519D0, symBinAddr: 0x55A30, symSize: 0x120 }
  - { offset: 0xE7EC9, size: 0x8, addend: 0x0, symName: '__ZN103_$LT$std..sys..thread_local..abort_on_dtor_unwind..DtorUnwindGuard$u20$as$u20$core..ops..drop..Drop$GT$4drop17h844ff9f454d07dcfE', symObjAddr: 0x43730, symBinAddr: 0x9CBA0, symSize: 0x50 }
  - { offset: 0xE7F25, size: 0x8, addend: 0x0, symName: __ZN3std3sys12thread_local11destructors4list8register17he88adb2df64384a4E, symObjAddr: 0x518C0, symBinAddr: 0x55920, symSize: 0x110 }
  - { offset: 0xE8251, size: 0x8, addend: 0x0, symName: __ZN3std3sys3env4unix13env_read_lock17hb73bde8236f38465E, symObjAddr: 0x48920, symBinAddr: 0x4D160, symSize: 0x280 }
  - { offset: 0xE8983, size: 0x8, addend: 0x0, symName: '__ZN3std3sys3env4unix6getenv28_$u7b$$u7b$closure$u7d$$u7d$17hdd484effb009eba9E', symObjAddr: 0x48BA0, symBinAddr: 0x4D3E0, symSize: 0x140 }
  - { offset: 0xE8BCE, size: 0x8, addend: 0x0, symName: __ZN3std3sys3env4unix6setenv17h1259c7754145e9afE, symObjAddr: 0x48CE0, symBinAddr: 0x4D520, symSize: 0xA0 }
  - { offset: 0xE8C67, size: 0x8, addend: 0x0, symName: '__ZN3std3sys3env4unix6setenv28_$u7b$$u7b$closure$u7d$$u7d$28_$u7b$$u7b$closure$u7d$$u7d$17h14a8ce45205db3c5E', symObjAddr: 0x48EA0, symBinAddr: 0x4D6E0, symSize: 0xA0 }
  - { offset: 0xE8D10, size: 0x8, addend: 0x0, symName: '__ZN3std3sys3env4unix6setenv28_$u7b$$u7b$closure$u7d$$u7d$17h8df5104a62bb93ccE', symObjAddr: 0x48D80, symBinAddr: 0x4D5C0, symSize: 0x120 }
  - { offset: 0xE8E3D, size: 0x8, addend: 0x0, symName: '__ZN3std3sys3env4unix8unsetenv28_$u7b$$u7b$closure$u7d$$u7d$17he896efcb0cb27deaE', symObjAddr: 0x49050, symBinAddr: 0x4D890, symSize: 0x90 }
  - { offset: 0xE8EE6, size: 0x8, addend: 0x0, symName: __ZN3std3sys3env4unix8unsetenv17ha1246d16035da99cE, symObjAddr: 0x48F40, symBinAddr: 0x4D780, symSize: 0x110 }
  - { offset: 0xE9047, size: 0x8, addend: 0x0, symName: '__ZN85_$LT$std..sys..env..common..Env$u20$as$u20$core..iter..traits..iterator..Iterator$GT$4next17h81be53d6ce5663d0E', symObjAddr: 0x415B0, symBinAddr: 0x46400, symSize: 0x60 }
  - { offset: 0xE90C0, size: 0x8, addend: 0x0, symName: '__ZN85_$LT$std..sys..env..common..Env$u20$as$u20$core..iter..traits..iterator..Iterator$GT$9size_hint17hfcceccfaa5996643E', symObjAddr: 0x41610, symBinAddr: 0x46460, symSize: 0x40 }
  - { offset: 0xE9149, size: 0x8, addend: 0x0, symName: '__ZN71_$LT$std..sys..env..common..EnvStrDebug$u20$as$u20$core..fmt..Debug$GT$3fmt17h13d39929825cb131E', symObjAddr: 0x41450, symBinAddr: 0x462A0, symSize: 0xE0 }
  - { offset: 0xE93F0, size: 0x8, addend: 0x0, symName: '__ZN63_$LT$std..sys..env..common..Env$u20$as$u20$core..fmt..Debug$GT$3fmt17h75aa8e1dafee016bE', symObjAddr: 0x41530, symBinAddr: 0x46380, symSize: 0x80 }
  - { offset: 0xE94CB, size: 0x8, addend: 0x0, symName: '__ZN65_$LT$std..sys..args..common..Args$u20$as$u20$core..fmt..Debug$GT$3fmt17h3ced99000fb14e23E', symObjAddr: 0x40B40, symBinAddr: 0x45990, symSize: 0x80 }
  - { offset: 0xE957A, size: 0x8, addend: 0x0, symName: __ZN3std3sys4path4unix8absolute17hcfbbd28cf0834dfbE, symObjAddr: 0x4CB60, symBinAddr: 0x513A0, symSize: 0x420 }
  - { offset: 0xEA042, size: 0x8, addend: 0x0, symName: '__ZN104_$LT$std..sys..net..connection..socket..LookupHost$u20$as$u20$core..iter..traits..iterator..Iterator$GT$4next17hfd9e5fc12f11f48bE', symObjAddr: 0x4B390, symBinAddr: 0x4FBD0, symSize: 0xF0 }
  - { offset: 0xEA139, size: 0x8, addend: 0x0, symName: '__ZN87_$LT$std..sys..net..connection..socket..LookupHost$u20$as$u20$core..ops..drop..Drop$GT$4drop17hcc1e0bba26661e3dE', symObjAddr: 0x4B480, symBinAddr: 0x4FCC0, symSize: 0x10 }
  - { offset: 0xEA162, size: 0x8, addend: 0x0, symName: '__ZN117_$LT$std..sys..net..connection..socket..LookupHost$u20$as$u20$core..convert..TryFrom$LT$$LP$$RF$str$C$u16$RP$$GT$$GT$8try_from17h47fd21f90e9ba518E', symObjAddr: 0x4B640, symBinAddr: 0x4FE80, symSize: 0xB0 }
  - { offset: 0xEA1F0, size: 0x8, addend: 0x0, symName: '__ZN117_$LT$std..sys..net..connection..socket..LookupHost$u20$as$u20$core..convert..TryFrom$LT$$LP$$RF$str$C$u16$RP$$GT$$GT$8try_from28_$u7b$$u7b$closure$u7d$$u7d$17h4eee40ff4146a2edE', symObjAddr: 0x4B6F0, symBinAddr: 0x4FF30, symSize: 0x1C0 }
  - { offset: 0xEA74B, size: 0x8, addend: 0x0, symName: __ZN3std3sys3net10connection6socket9TcpStream7connect17h15d8b7fc7808c67fE, symObjAddr: 0x4B8B0, symBinAddr: 0x500F0, symSize: 0x130 }
  - { offset: 0xEA96A, size: 0x8, addend: 0x0, symName: __ZN3std3sys3net10connection6socket9TcpStream9peer_addr17hd309624ebfd38715E, symObjAddr: 0x4B9E0, symBinAddr: 0x50220, symSize: 0x170 }
  - { offset: 0xEACAD, size: 0x8, addend: 0x0, symName: __ZN3std3sys3net10connection6socket4unix6Socket7new_raw17h59d51f65abbf9e7bE, symObjAddr: 0x4C4F0, symBinAddr: 0x50D30, symSize: 0xB0 }
  - { offset: 0xEADF5, size: 0x8, addend: 0x0, symName: __ZN3std3sys3net10connection6socket4unix6Socket8new_pair17hd9b1ea8a1ae8f3eeE, symObjAddr: 0x4C5A0, symBinAddr: 0x50DE0, symSize: 0x120 }
  - { offset: 0xEB11C, size: 0x8, addend: 0x0, symName: __ZN3std3sys3net10connection6socket4unix6Socket20recv_from_with_flags17hcb9ee478359f1450E, symObjAddr: 0x4C6C0, symBinAddr: 0x50F00, symSize: 0x140 }
  - { offset: 0xEB25E, size: 0x8, addend: 0x0, symName: __ZN3std3sys3net10connection6socket4unix6Socket10take_error17hefb1d748f29d9003E, symObjAddr: 0x4C800, symBinAddr: 0x51040, symSize: 0x70 }
  - { offset: 0xEB49C, size: 0x8, addend: 0x0, symName: __ZN3std3sys3net10connection6socket11TcpListener4bind17h3441d4acc27e1922E, symObjAddr: 0x4BD40, symBinAddr: 0x50580, symSize: 0x150 }
  - { offset: 0xEB706, size: 0x8, addend: 0x0, symName: __ZN3std3sys3net10connection6socket11TcpListener11socket_addr17hc12e163f11a32c9cE, symObjAddr: 0x4BE90, symBinAddr: 0x506D0, symSize: 0x170 }
  - { offset: 0xEB9C7, size: 0x8, addend: 0x0, symName: __ZN3std3sys3net10connection6socket9UdpSocket4bind17he98e3106fa9ffaeeE, symObjAddr: 0x4C140, symBinAddr: 0x50980, symSize: 0x110 }
  - { offset: 0xEBC16, size: 0x8, addend: 0x0, symName: __ZN3std3sys3net10connection6socket9UdpSocket7send_to17hf633b6eca0fd7294E, symObjAddr: 0x4C250, symBinAddr: 0x50A90, symSize: 0xA0 }
  - { offset: 0xEBC35, size: 0x8, addend: 0x0, symName: __ZN3std3sys3net10connection6socket9UdpSocket7send_to17hf633b6eca0fd7294E, symObjAddr: 0x4C250, symBinAddr: 0x50A90, symSize: 0xA0 }
  - { offset: 0xEBDE6, size: 0x8, addend: 0x0, symName: __ZN3std3sys3net10connection6socket9UdpSocket7connect17h83080f5a96c5cf1eE, symObjAddr: 0x4C2F0, symBinAddr: 0x50B30, symSize: 0xC0 }
  - { offset: 0xEC059, size: 0x8, addend: 0x0, symName: '__ZN103_$LT$std..sys..net..connection..socket..LookupHost$u20$as$u20$core..convert..TryFrom$LT$$RF$str$GT$$GT$8try_from17hde7a77e4aa80f580E', symObjAddr: 0x4B490, symBinAddr: 0x4FCD0, symSize: 0x1B0 }
  - { offset: 0xEC30B, size: 0x8, addend: 0x0, symName: '__ZN81_$LT$std..sys..net..connection..socket..TcpStream$u20$as$u20$core..fmt..Debug$GT$3fmt17h1f9bc372f76dcb72E', symObjAddr: 0x4BB50, symBinAddr: 0x50390, symSize: 0x1F0 }
  - { offset: 0xEC8BB, size: 0x8, addend: 0x0, symName: '__ZN83_$LT$std..sys..net..connection..socket..TcpListener$u20$as$u20$core..fmt..Debug$GT$3fmt17h1dc44ff57444a210E', symObjAddr: 0x4C000, symBinAddr: 0x50840, symSize: 0x140 }
  - { offset: 0xECB88, size: 0x8, addend: 0x0, symName: '__ZN81_$LT$std..sys..net..connection..socket..UdpSocket$u20$as$u20$core..fmt..Debug$GT$3fmt17h9e064c251e0bf511E', symObjAddr: 0x4C3B0, symBinAddr: 0x50BF0, symSize: 0x140 }
  - { offset: 0xECE6C, size: 0x8, addend: 0x0, symName: __ZN3std3sys6random19hashmap_random_keys17h6bcaa8f4726e8413E, symObjAddr: 0x43490, symBinAddr: 0x482E0, symSize: 0x80 }
  - { offset: 0xECF83, size: 0x8, addend: 0x0, symName: __ZN3std3sys5alloc16realloc_fallback17h99c0323b1f384db2E, symObjAddr: 0x40AA0, symBinAddr: 0x458F0, symSize: 0xA0 }
  - { offset: 0xED1A6, size: 0x8, addend: 0x0, symName: __ZN3std4path4Path11is_absolute17h102c6f350feb4602E, symObjAddr: 0x3C250, symBinAddr: 0x41900, symSize: 0x20 }
  - { offset: 0xED242, size: 0x8, addend: 0x0, symName: __ZN3std4path4Path6parent17h90fed921f987e9a7E, symObjAddr: 0x3C270, symBinAddr: 0x41920, symSize: 0x70 }
  - { offset: 0xED25A, size: 0x8, addend: 0x0, symName: __ZN3std4path4Path6parent17h90fed921f987e9a7E, symObjAddr: 0x3C270, symBinAddr: 0x41920, symSize: 0x70 }
  - { offset: 0xED270, size: 0x8, addend: 0x0, symName: __ZN3std4path4Path6parent17h90fed921f987e9a7E, symObjAddr: 0x3C270, symBinAddr: 0x41920, symSize: 0x70 }
  - { offset: 0xED2C8, size: 0x8, addend: 0x0, symName: __ZN3std4path4Path9file_name17hf068241586adb604E, symObjAddr: 0x3C2E0, symBinAddr: 0x41990, symSize: 0x60 }
  - { offset: 0xED2E0, size: 0x8, addend: 0x0, symName: __ZN3std4path4Path9file_name17hf068241586adb604E, symObjAddr: 0x3C2E0, symBinAddr: 0x41990, symSize: 0x60 }
  - { offset: 0xED2F6, size: 0x8, addend: 0x0, symName: __ZN3std4path4Path9file_name17hf068241586adb604E, symObjAddr: 0x3C2E0, symBinAddr: 0x41990, symSize: 0x60 }
  - { offset: 0xED337, size: 0x8, addend: 0x0, symName: __ZN3std4path4Path13_strip_prefix17h5e6013ef6b3666deE, symObjAddr: 0x3C340, symBinAddr: 0x419F0, symSize: 0x3C0 }
  - { offset: 0xED452, size: 0x8, addend: 0x0, symName: __ZN3std4path4Path12_starts_with17h1c818a99715ba809E, symObjAddr: 0x3C700, symBinAddr: 0x41DB0, symSize: 0x280 }
  - { offset: 0xED556, size: 0x8, addend: 0x0, symName: __ZN3std4path4Path10_ends_with17h4b671a19ce3a5ac6E, symObjAddr: 0x3C980, symBinAddr: 0x42030, symSize: 0x280 }
  - { offset: 0xED6C2, size: 0x8, addend: 0x0, symName: __ZN3std4path4Path9file_stem17h1f10499274bf9cbaE, symObjAddr: 0x3CC00, symBinAddr: 0x422B0, symSize: 0xC0 }
  - { offset: 0xED6DA, size: 0x8, addend: 0x0, symName: __ZN3std4path4Path9file_stem17h1f10499274bf9cbaE, symObjAddr: 0x3CC00, symBinAddr: 0x422B0, symSize: 0xC0 }
  - { offset: 0xED6F0, size: 0x8, addend: 0x0, symName: __ZN3std4path4Path9file_stem17h1f10499274bf9cbaE, symObjAddr: 0x3CC00, symBinAddr: 0x422B0, symSize: 0xC0 }
  - { offset: 0xED706, size: 0x8, addend: 0x0, symName: __ZN3std4path4Path9file_stem17h1f10499274bf9cbaE, symObjAddr: 0x3CC00, symBinAddr: 0x422B0, symSize: 0xC0 }
  - { offset: 0xED93B, size: 0x8, addend: 0x0, symName: __ZN3std4path4Path11file_prefix17h410ed84c40b23933E, symObjAddr: 0x3CCC0, symBinAddr: 0x42370, symSize: 0x110 }
  - { offset: 0xEDB4A, size: 0x8, addend: 0x0, symName: __ZN3std4path4Path9extension17h9fbfe8baceee02ffE, symObjAddr: 0x3CDD0, symBinAddr: 0x42480, symSize: 0xC0 }
  - { offset: 0xEDB62, size: 0x8, addend: 0x0, symName: __ZN3std4path4Path9extension17h9fbfe8baceee02ffE, symObjAddr: 0x3CDD0, symBinAddr: 0x42480, symSize: 0xC0 }
  - { offset: 0xEDB78, size: 0x8, addend: 0x0, symName: __ZN3std4path4Path9extension17h9fbfe8baceee02ffE, symObjAddr: 0x3CDD0, symBinAddr: 0x42480, symSize: 0xC0 }
  - { offset: 0xEDB8E, size: 0x8, addend: 0x0, symName: __ZN3std4path4Path9extension17h9fbfe8baceee02ffE, symObjAddr: 0x3CDD0, symBinAddr: 0x42480, symSize: 0xC0 }
  - { offset: 0xEDE41, size: 0x8, addend: 0x0, symName: __ZN3std4path4Path5_join17h7e239ca7f6661148E, symObjAddr: 0x3CE90, symBinAddr: 0x42540, symSize: 0x1A0 }
  - { offset: 0xEE43B, size: 0x8, addend: 0x0, symName: __ZN3std4path4Path15_with_file_name17he47e6d0e3b9451e3E, symObjAddr: 0x3D030, symBinAddr: 0x426E0, symSize: 0xF0 }
  - { offset: 0xEE6CB, size: 0x8, addend: 0x0, symName: __ZN3std4path4Path15_with_extension17h06a479dac2240c7dE, symObjAddr: 0x3D120, symBinAddr: 0x427D0, symSize: 0x200 }
  - { offset: 0xEECC6, size: 0x8, addend: 0x0, symName: __ZN3std4path4Path10components17h2e08c9676f0704c2E, symObjAddr: 0x3D320, symBinAddr: 0x429D0, symSize: 0x30 }
  - { offset: 0xEED08, size: 0x8, addend: 0x0, symName: __ZN3std4path4Path7is_file17h67e00a3d7da3ca19E, symObjAddr: 0x3D350, symBinAddr: 0x42A00, symSize: 0x1E0 }
  - { offset: 0xEF182, size: 0x8, addend: 0x0, symName: __ZN3std4path4Path6is_dir17hd995b563cabc8f1bE, symObjAddr: 0x3D530, symBinAddr: 0x42BE0, symSize: 0x1E0 }
  - { offset: 0xEF5FC, size: 0x8, addend: 0x0, symName: __ZN3std4path4Path10is_symlink17hcc57c4ff5c6d146bE, symObjAddr: 0x3D710, symBinAddr: 0x42DC0, symSize: 0x1E0 }
  - { offset: 0xEFC67, size: 0x8, addend: 0x0, symName: '__ZN58_$LT$std..path..Components$u20$as$u20$core..fmt..Debug$GT$3fmt17hbdd770c3e12850c9E', symObjAddr: 0x3A310, symBinAddr: 0x3F9C0, symSize: 0x60 }
  - { offset: 0xEFC8E, size: 0x8, addend: 0x0, symName: '__ZN112_$LT$$LT$std..path..Components$u20$as$u20$core..fmt..Debug$GT$..fmt..DebugHelper$u20$as$u20$core..fmt..Debug$GT$3fmt17hb18aff53fe8f267fE', symObjAddr: 0x3A370, symBinAddr: 0x3FA20, symSize: 0x130 }
  - { offset: 0xEFD76, size: 0x8, addend: 0x0, symName: __ZN3std4path10Components15len_before_body17hc1f27214fe884090E, symObjAddr: 0x3A4A0, symBinAddr: 0x3FB50, symSize: 0x170 }
  - { offset: 0xEFD8E, size: 0x8, addend: 0x0, symName: __ZN3std4path10Components15len_before_body17hc1f27214fe884090E, symObjAddr: 0x3A4A0, symBinAddr: 0x3FB50, symSize: 0x170 }
  - { offset: 0xEFDA4, size: 0x8, addend: 0x0, symName: __ZN3std4path10Components15len_before_body17hc1f27214fe884090E, symObjAddr: 0x3A4A0, symBinAddr: 0x3FB50, symSize: 0x170 }
  - { offset: 0xEFFBB, size: 0x8, addend: 0x0, symName: __ZN3std4path10Components7as_path17hf9df88bb21787358E, symObjAddr: 0x3A610, symBinAddr: 0x3FCC0, symSize: 0x3D0 }
  - { offset: 0xF02DC, size: 0x8, addend: 0x0, symName: __ZN3std4path10Components25parse_next_component_back17ha67dba0a5f427f60E, symObjAddr: 0x3A9E0, symBinAddr: 0x40090, symSize: 0xF0 }
  - { offset: 0xF052C, size: 0x8, addend: 0x0, symName: '__ZN52_$LT$std..path..Iter$u20$as$u20$core..fmt..Debug$GT$3fmt17he1e3a01718f9102aE', symObjAddr: 0x3AAD0, symBinAddr: 0x40180, symSize: 0x60 }
  - { offset: 0xF056A, size: 0x8, addend: 0x0, symName: '__ZN106_$LT$$LT$std..path..Iter$u20$as$u20$core..fmt..Debug$GT$..fmt..DebugHelper$u20$as$u20$core..fmt..Debug$GT$3fmt17h05ea22f7658e980fE', symObjAddr: 0x3AB30, symBinAddr: 0x401E0, symSize: 0x150 }
  - { offset: 0xF065D, size: 0x8, addend: 0x0, symName: '__ZN80_$LT$std..path..Components$u20$as$u20$core..iter..traits..iterator..Iterator$GT$4next17ha4db224aed264796E', symObjAddr: 0x3AC80, symBinAddr: 0x40330, symSize: 0x400 }
  - { offset: 0xF0A84, size: 0x8, addend: 0x0, symName: '__ZN95_$LT$std..path..Components$u20$as$u20$core..iter..traits..double_ended..DoubleEndedIterator$GT$9next_back17h6fe07a66c895d882E', symObjAddr: 0x3B080, symBinAddr: 0x40730, symSize: 0x430 }
  - { offset: 0xF0C9C, size: 0x8, addend: 0x0, symName: __ZN3std4path18compare_components17h765cbba02495da65E, symObjAddr: 0x3B4B0, symBinAddr: 0x40B60, symSize: 0x3A0 }
  - { offset: 0xF1108, size: 0x8, addend: 0x0, symName: __ZN3std4path7PathBuf5_push17h52a92702b17281b9E, symObjAddr: 0x3B850, symBinAddr: 0x40F00, symSize: 0xE0 }
  - { offset: 0xF14BE, size: 0x8, addend: 0x0, symName: __ZN3std4path7PathBuf3pop17he96cb3dce74c7146E, symObjAddr: 0x3B930, symBinAddr: 0x40FE0, symSize: 0xC0 }
  - { offset: 0xF1715, size: 0x8, addend: 0x0, symName: __ZN3std4path7PathBuf14_set_file_name17h78c09fc9105f4182E, symObjAddr: 0x3B9F0, symBinAddr: 0x410A0, symSize: 0x130 }
  - { offset: 0xF1C74, size: 0x8, addend: 0x0, symName: __ZN3std4path7PathBuf14_set_extension17h91d7126d33521ce1E, symObjAddr: 0x3BB20, symBinAddr: 0x411D0, symSize: 0x350 }
  - { offset: 0xF2506, size: 0x8, addend: 0x0, symName: __ZN3std4path7PathBuf14_add_extension17hb544ee5925af9dc1E, symObjAddr: 0x3BE70, symBinAddr: 0x41520, symSize: 0x2B0 }
  - { offset: 0xF2BFC, size: 0x8, addend: 0x0, symName: '__ZN3std4path117_$LT$impl$u20$core..convert..From$LT$$RF$std..path..Path$GT$$u20$for$u20$alloc..boxed..Box$LT$std..path..Path$GT$$GT$4from17h390c0549ef75205dE', symObjAddr: 0x3C120, symBinAddr: 0x417D0, symSize: 0x80 }
  - { offset: 0xF2D7A, size: 0x8, addend: 0x0, symName: '__ZN3std4path125_$LT$impl$u20$core..convert..From$LT$$RF$mut$u20$std..path..Path$GT$$u20$for$u20$alloc..boxed..Box$LT$std..path..Path$GT$$GT$4from17h57a2ad28ef58870aE', symObjAddr: 0x3C1A0, symBinAddr: 0x41850, symSize: 0x80 }
  - { offset: 0xF2F0E, size: 0x8, addend: 0x0, symName: '__ZN52_$LT$std..path..Path$u20$as$u20$core..fmt..Debug$GT$3fmt17h218c0a6e5d0e6560E', symObjAddr: 0x3D8F0, symBinAddr: 0x42FA0, symSize: 0x30 }
  - { offset: 0xF2F6D, size: 0x8, addend: 0x0, symName: '__ZN55_$LT$std..path..PathBuf$u20$as$u20$core..fmt..Debug$GT$3fmt17h83afa3a684a01feeE', symObjAddr: 0x3C220, symBinAddr: 0x418D0, symSize: 0x30 }
  - { offset: 0xF3124, size: 0x8, addend: 0x0, symName: '__ZN55_$LT$std..path..Display$u20$as$u20$core..fmt..Debug$GT$3fmt17h43543076802deda3E', symObjAddr: 0x3D920, symBinAddr: 0x42FD0, symSize: 0x30 }
  - { offset: 0xF31B8, size: 0x8, addend: 0x0, symName: '__ZN57_$LT$std..path..Display$u20$as$u20$core..fmt..Display$GT$3fmt17h63b01ce56c901aefE', symObjAddr: 0x3D950, symBinAddr: 0x43000, symSize: 0x10 }
  - { offset: 0xF31E1, size: 0x8, addend: 0x0, symName: '__ZN66_$LT$std..path..StripPrefixError$u20$as$u20$core..fmt..Display$GT$3fmt17ha12a4b2ae915a82bE', symObjAddr: 0x3D960, symBinAddr: 0x43010, symSize: 0x20 }
  - { offset: 0xF322C, size: 0x8, addend: 0x0, symName: '__ZN61_$LT$std..path..Component$u20$as$u20$core..cmp..PartialEq$GT$2eq17h70dfdd2c8db1bf89E', symObjAddr: 0x46860, symBinAddr: 0x4B200, symSize: 0xE0 }
  - { offset: 0xF32EE, size: 0x8, addend: 0x0, symName: '__ZN57_$LT$std..path..Component$u20$as$u20$core..fmt..Debug$GT$3fmt17h26bc117c218aad7cE', symObjAddr: 0x46940, symBinAddr: 0x4B2E0, symSize: 0xD0 }
  - { offset: 0xF356C, size: 0x8, addend: 0x0, symName: __ZN3std3ffi6os_str8OsString17into_boxed_os_str17h4fe677f0218c00e7E, symObjAddr: 0x2B750, symBinAddr: 0x31130, symSize: 0x90 }
  - { offset: 0xF379D, size: 0x8, addend: 0x0, symName: __ZN3std3ffi6os_str5OsStr14into_os_string17h228141e65908a3b6E, symObjAddr: 0x2B850, symBinAddr: 0x31230, symSize: 0x20 }
  - { offset: 0xF37B8, size: 0x8, addend: 0x0, symName: __ZN3std3ffi6os_str5OsStr18to_ascii_lowercase17h7fbd288e08481fbfE, symObjAddr: 0x2B870, symBinAddr: 0x31250, symSize: 0x1D0 }
  - { offset: 0xF399B, size: 0x8, addend: 0x0, symName: __ZN3std3ffi6os_str5OsStr18to_ascii_uppercase17hc7bc1eb51c0c6e87E, symObjAddr: 0x2BA40, symBinAddr: 0x31420, symSize: 0x1D0 }
  - { offset: 0xF3C50, size: 0x8, addend: 0x0, symName: '__ZN63_$LT$std..ffi..os_str..OsString$u20$as$u20$core..fmt..Write$GT$9write_str17h309087166c5fe8e6E', symObjAddr: 0x2B7E0, symBinAddr: 0x311C0, symSize: 0x70 }
  - { offset: 0xF3D98, size: 0x8, addend: 0x0, symName: '__ZN3std3ffi6os_str95_$LT$impl$u20$core..convert..TryFrom$LT$$RF$std..ffi..os_str..OsStr$GT$$u20$for$u20$$RF$str$GT$8try_from17hb9639b767f280a53E', symObjAddr: 0x2BC10, symBinAddr: 0x315F0, symSize: 0x20 }
  - { offset: 0xF3DD1, size: 0x8, addend: 0x0, symName: '__ZN62_$LT$std..ffi..os_str..Display$u20$as$u20$core..fmt..Debug$GT$3fmt17ha406841ca9b7a53bE', symObjAddr: 0x2BC30, symBinAddr: 0x31610, symSize: 0x30 }
  - { offset: 0xF3E55, size: 0x8, addend: 0x0, symName: '__ZN64_$LT$std..ffi..os_str..Display$u20$as$u20$core..fmt..Display$GT$3fmt17ha5315fcbfd193b61E', symObjAddr: 0x2BC60, symBinAddr: 0x31640, symSize: 0xD0 }
  - { offset: 0xF404C, size: 0x8, addend: 0x0, symName: '__ZN64_$LT$std..os..fd..owned..OwnedFd$u20$as$u20$core..fmt..Debug$GT$3fmt17h32b8683355155899E', symObjAddr: 0x3A040, symBinAddr: 0x3F700, symSize: 0x60 }
  - { offset: 0xF4074, size: 0x8, addend: 0x0, symName: '__ZN67_$LT$std..os..fd..owned..BorrowedFd$u20$as$u20$core..fmt..Debug$GT$3fmt17h3f28cbb897d89064E', symObjAddr: 0x39FE0, symBinAddr: 0x3F6A0, symSize: 0x60 }
  - { offset: 0xF40B0, size: 0x8, addend: 0x0, symName: __ZN3std2os2fd5owned10BorrowedFd18try_clone_to_owned17h50abdfeb0a6d500bE, symObjAddr: 0x39F90, symBinAddr: 0x3F650, symSize: 0x50 }
  - { offset: 0xF4182, size: 0x8, addend: 0x0, symName: __ZN3std2os2fd5owned7OwnedFd9try_clone17h73f91864facefecdE, symObjAddr: 0x39F40, symBinAddr: 0x3F600, symSize: 0x50 }
  - { offset: 0xF43DD, size: 0x8, addend: 0x0, symName: '__ZN70_$LT$std..io..pipe..PipeReader$u20$as$u20$std..os..fd..owned..AsFd$GT$5as_fd17h4ed74e63e4e7a5eeE', symObjAddr: 0x3A0A0, symBinAddr: 0x3F760, symSize: 0x10 }
  - { offset: 0xF4490, size: 0x8, addend: 0x0, symName: '__ZN60_$LT$std..fs..File$u20$as$u20$std..os..unix..fs..FileExt$GT$7read_at17h691db095a1c2f986E', symObjAddr: 0x37FB0, symBinAddr: 0x3D670, symSize: 0x50 }
  - { offset: 0xF4584, size: 0x8, addend: 0x0, symName: '__ZN60_$LT$std..fs..File$u20$as$u20$std..os..unix..fs..FileExt$GT$16read_vectored_at17he1489609a682eb2bE', symObjAddr: 0x38000, symBinAddr: 0x3D6C0, symSize: 0x10 }
  - { offset: 0xF45B6, size: 0x8, addend: 0x0, symName: '__ZN60_$LT$std..fs..File$u20$as$u20$std..os..unix..fs..FileExt$GT$8write_at17h102940001a7ef0c4E', symObjAddr: 0x38010, symBinAddr: 0x3D6D0, symSize: 0x50 }
  - { offset: 0xF46AC, size: 0x8, addend: 0x0, symName: '__ZN60_$LT$std..fs..File$u20$as$u20$std..os..unix..fs..FileExt$GT$17write_vectored_at17h5a585feab0a4bb1bE', symObjAddr: 0x38060, symBinAddr: 0x3D720, symSize: 0x10 }
  - { offset: 0xF46E5, size: 0x8, addend: 0x0, symName: '__ZN69_$LT$std..fs..DirEntry$u20$as$u20$std..os..unix..fs..DirEntryExt2$GT$13file_name_ref17h717e3b330c9e4f2cE', symObjAddr: 0x38070, symBinAddr: 0x3D730, symSize: 0x10 }
  - { offset: 0xF4751, size: 0x8, addend: 0x0, symName: __ZN3std2os4unix3net4addr11sockaddr_un17h9cd1ad5457ded29cE, symObjAddr: 0x38080, symBinAddr: 0x3D740, symSize: 0xF0 }
  - { offset: 0xF4847, size: 0x8, addend: 0x0, symName: __ZN3std2os4unix3net4addr10SocketAddr10is_unnamed17hf3bedcb8529d16faE, symObjAddr: 0x38170, symBinAddr: 0x3D830, symSize: 0x40 }
  - { offset: 0xF489A, size: 0x8, addend: 0x0, symName: __ZN3std2os4unix3net4addr10SocketAddr11as_pathname17h85c40b70c25a15adE, symObjAddr: 0x381B0, symBinAddr: 0x3D870, symSize: 0x40 }
  - { offset: 0xF494F, size: 0x8, addend: 0x0, symName: '__ZN73_$LT$std..os..unix..net..addr..SocketAddr$u20$as$u20$core..fmt..Debug$GT$3fmt17h97b37dccca5c21bdE', symObjAddr: 0x381F0, symBinAddr: 0x3D8B0, symSize: 0xC0 }
  - { offset: 0xF4A1E, size: 0x8, addend: 0x0, symName: __ZN3std2os4unix3net8datagram12UnixDatagram9bind_addr17h539a4c0c93b7f88aE, symObjAddr: 0x38640, symBinAddr: 0x3DD00, symSize: 0xA0 }
  - { offset: 0xF4B6F, size: 0x8, addend: 0x0, symName: __ZN3std2os4unix3net8datagram12UnixDatagram7unbound17ha1d64914eb585abcE, symObjAddr: 0x386E0, symBinAddr: 0x3DDA0, symSize: 0x50 }
  - { offset: 0xF4BA7, size: 0x8, addend: 0x0, symName: __ZN3std2os4unix3net8datagram12UnixDatagram4pair17h0b6beba68a0ae875E, symObjAddr: 0x38730, symBinAddr: 0x3DDF0, symSize: 0x50 }
  - { offset: 0xF4BE5, size: 0x8, addend: 0x0, symName: __ZN3std2os4unix3net8datagram12UnixDatagram12connect_addr17h27340109b674dc15E, symObjAddr: 0x38780, symBinAddr: 0x3DE40, symSize: 0x30 }
  - { offset: 0xF4CCF, size: 0x8, addend: 0x0, symName: __ZN3std2os4unix3net8datagram12UnixDatagram9recv_from17hc23bedfe84c566b3E, symObjAddr: 0x387B0, symBinAddr: 0x3DE70, symSize: 0x130 }
  - { offset: 0xF4E67, size: 0x8, addend: 0x0, symName: __ZN3std2os4unix3net8datagram12UnixDatagram4recv17h43ba82e95ca51cd5E, symObjAddr: 0x388E0, symBinAddr: 0x3DFA0, symSize: 0x30 }
  - { offset: 0xF4F20, size: 0x8, addend: 0x0, symName: __ZN3std2os4unix3net8datagram12UnixDatagram12send_to_addr17h61bbeb14f04757abE, symObjAddr: 0x38910, symBinAddr: 0x3DFD0, symSize: 0x50 }
  - { offset: 0xF4FFF, size: 0x8, addend: 0x0, symName: __ZN3std2os4unix3net8datagram12UnixDatagram4send17h07fba42de107667aE, symObjAddr: 0x38960, symBinAddr: 0x3E020, symSize: 0x50 }
  - { offset: 0xF50F5, size: 0x8, addend: 0x0, symName: __ZN3std2os4unix3net8datagram12UnixDatagram9peek_from17hd84a2f809ed0c51dE, symObjAddr: 0x389B0, symBinAddr: 0x3E070, symSize: 0x140 }
  - { offset: 0xF52E2, size: 0x8, addend: 0x0, symName: '__ZN79_$LT$std..os..unix..net..datagram..UnixDatagram$u20$as$u20$core..fmt..Debug$GT$3fmt17h6bf8fb3170eace87E', symObjAddr: 0x382B0, symBinAddr: 0x3D970, symSize: 0x390 }
  - { offset: 0xF5A18, size: 0x8, addend: 0x0, symName: __ZN3std2os4unix3net8listener12UnixListener9bind_addr17haabb55671242509eE, symObjAddr: 0x38D00, symBinAddr: 0x3E3C0, symSize: 0xB0 }
  - { offset: 0xF5B8B, size: 0x8, addend: 0x0, symName: __ZN3std2os4unix3net8listener12UnixListener6accept17h0b98eaaf3d45aa93E, symObjAddr: 0x38DB0, symBinAddr: 0x3E470, symSize: 0x170 }
  - { offset: 0xF5E76, size: 0x8, addend: 0x0, symName: '__ZN79_$LT$std..os..unix..net..listener..UnixListener$u20$as$u20$core..fmt..Debug$GT$3fmt17hd5e3352035fa77eaE', symObjAddr: 0x38AF0, symBinAddr: 0x3E1B0, symSize: 0x210 }
  - { offset: 0xF61DE, size: 0x8, addend: 0x0, symName: '__ZN97_$LT$std..os..unix..net..listener..Incoming$u20$as$u20$core..iter..traits..iterator..Iterator$GT$4next17h22c4f43c016308d2E', symObjAddr: 0x38F20, symBinAddr: 0x3E5E0, symSize: 0x40 }
  - { offset: 0xF6238, size: 0x8, addend: 0x0, symName: __ZN3std2os4unix3net6stream10UnixStream12connect_addr17hafb9bd4f56bf60a8E, symObjAddr: 0x392F0, symBinAddr: 0x3E9B0, symSize: 0xA0 }
  - { offset: 0xF6364, size: 0x8, addend: 0x0, symName: __ZN3std2os4unix3net6stream10UnixStream4pair17h0f58e4d9b41cf82bE, symObjAddr: 0x39390, symBinAddr: 0x3EA50, symSize: 0x50 }
  - { offset: 0xF63A2, size: 0x8, addend: 0x0, symName: __ZN3std2os4unix3net6stream10UnixStream10local_addr17h2a738f2ec911559aE, symObjAddr: 0x393E0, symBinAddr: 0x3EAA0, symSize: 0xC0 }
  - { offset: 0xF64C7, size: 0x8, addend: 0x0, symName: __ZN3std2os4unix3net6stream10UnixStream9peer_addr17hc9fbfeed483836b4E, symObjAddr: 0x394A0, symBinAddr: 0x3EB60, symSize: 0xC0 }
  - { offset: 0xF65EC, size: 0x8, addend: 0x0, symName: __ZN3std2os4unix3net6stream10UnixStream9peer_cred17hc01f236c7ca62f60E, symObjAddr: 0x39560, symBinAddr: 0x3EC20, symSize: 0xB0 }
  - { offset: 0xF666D, size: 0x8, addend: 0x0, symName: __ZN3std2os4unix3net6stream10UnixStream16set_read_timeout17h46998491b816532cE, symObjAddr: 0x39610, symBinAddr: 0x3ECD0, symSize: 0xB0 }
  - { offset: 0xF6733, size: 0x8, addend: 0x0, symName: __ZN3std2os4unix3net6stream10UnixStream17set_write_timeout17h0a447b1a11d30750E, symObjAddr: 0x396C0, symBinAddr: 0x3ED80, symSize: 0xB0 }
  - { offset: 0xF67F9, size: 0x8, addend: 0x0, symName: __ZN3std2os4unix3net6stream10UnixStream12read_timeout17hbd28d12ef9e1fccfE, symObjAddr: 0x39770, symBinAddr: 0x3EE30, symSize: 0xD0 }
  - { offset: 0xF695B, size: 0x8, addend: 0x0, symName: __ZN3std2os4unix3net6stream10UnixStream13write_timeout17h42cd1414762518b7E, symObjAddr: 0x39840, symBinAddr: 0x3EF00, symSize: 0xD0 }
  - { offset: 0xF6ABD, size: 0x8, addend: 0x0, symName: __ZN3std2os4unix3net6stream10UnixStream15set_nonblocking17h335b808cd2535347E, symObjAddr: 0x39910, symBinAddr: 0x3EFD0, symSize: 0x40 }
  - { offset: 0xF6B77, size: 0x8, addend: 0x0, symName: __ZN3std2os4unix3net6stream10UnixStream10take_error17haa5c024b5884b92eE, symObjAddr: 0x39950, symBinAddr: 0x3F010, symSize: 0x80 }
  - { offset: 0xF6C9F, size: 0x8, addend: 0x0, symName: __ZN3std2os4unix3net6stream10UnixStream8shutdown17hc9a2ad31583e1eb2E, symObjAddr: 0x399D0, symBinAddr: 0x3F090, symSize: 0x30 }
  - { offset: 0xF6D49, size: 0x8, addend: 0x0, symName: __ZN3std2os4unix3net6stream10UnixStream4peek17hed06002d49322393E, symObjAddr: 0x39A00, symBinAddr: 0x3F0C0, symSize: 0x40 }
  - { offset: 0xF6E38, size: 0x8, addend: 0x0, symName: '__ZN75_$LT$std..os..unix..net..stream..UnixStream$u20$as$u20$core..fmt..Debug$GT$3fmt17hfd43d00eb5dc398fE', symObjAddr: 0x38F60, symBinAddr: 0x3E620, symSize: 0x390 }
  - { offset: 0xF7551, size: 0x8, addend: 0x0, symName: '__ZN76_$LT$$RF$std..os..unix..net..stream..UnixStream$u20$as$u20$std..io..Read$GT$8read_buf17haff86526f88cbb8eE', symObjAddr: 0x39B20, symBinAddr: 0x3F1E0, symSize: 0x60 }
  - { offset: 0xF76EC, size: 0x8, addend: 0x0, symName: '__ZN72_$LT$std..os..unix..net..stream..UnixStream$u20$as$u20$std..io..Read$GT$4read17hd9df643c6a25f299E', symObjAddr: 0x39A40, symBinAddr: 0x3F100, symSize: 0x30 }
  - { offset: 0xF77B4, size: 0x8, addend: 0x0, symName: '__ZN72_$LT$std..os..unix..net..stream..UnixStream$u20$as$u20$std..io..Read$GT$8read_buf17h96509d4105ecbefdE', symObjAddr: 0x39A70, symBinAddr: 0x3F130, symSize: 0x60 }
  - { offset: 0xF795E, size: 0x8, addend: 0x0, symName: '__ZN72_$LT$std..os..unix..net..stream..UnixStream$u20$as$u20$std..io..Read$GT$13read_vectored17h31a49a53a327b70dE', symObjAddr: 0x39AD0, symBinAddr: 0x3F190, symSize: 0x50 }
  - { offset: 0xF7A93, size: 0x8, addend: 0x0, symName: '__ZN76_$LT$std..process..Command$u20$as$u20$std..os..unix..process..CommandExt$GT$6groups17h3fff23841ee8c34dE', symObjAddr: 0x39B80, symBinAddr: 0x3F240, symSize: 0xE0 }
  - { offset: 0xF7C70, size: 0x8, addend: 0x0, symName: '__ZN76_$LT$std..process..Command$u20$as$u20$std..os..unix..process..CommandExt$GT$4exec17h00b8419bd64c913dE', symObjAddr: 0x39C60, symBinAddr: 0x3F320, symSize: 0x290 }
  - { offset: 0xF8300, size: 0x8, addend: 0x0, symName: '__ZN87_$LT$std..process..ExitStatusError$u20$as$u20$std..os..unix..process..ExitStatusExt$GT$8from_raw17hfb291541b66352e4E', symObjAddr: 0x39EF0, symBinAddr: 0x3F5B0, symSize: 0x40 }
  - { offset: 0xF831F, size: 0x8, addend: 0x0, symName: '__ZN87_$LT$std..process..ExitStatusError$u20$as$u20$std..os..unix..process..ExitStatusExt$GT$8from_raw17hfb291541b66352e4E', symObjAddr: 0x39EF0, symBinAddr: 0x3F5B0, symSize: 0x40 }
  - { offset: 0xF8335, size: 0x8, addend: 0x0, symName: '__ZN87_$LT$std..process..ExitStatusError$u20$as$u20$std..os..unix..process..ExitStatusExt$GT$8from_raw17hfb291541b66352e4E', symObjAddr: 0x39EF0, symBinAddr: 0x3F5B0, symSize: 0x40 }
  - { offset: 0xF834B, size: 0x8, addend: 0x0, symName: '__ZN87_$LT$std..process..ExitStatusError$u20$as$u20$std..os..unix..process..ExitStatusExt$GT$8from_raw17hfb291541b66352e4E', symObjAddr: 0x39EF0, symBinAddr: 0x3F5B0, symSize: 0x40 }
  - { offset: 0xF8361, size: 0x8, addend: 0x0, symName: '__ZN87_$LT$std..process..ExitStatusError$u20$as$u20$std..os..unix..process..ExitStatusExt$GT$8from_raw17hfb291541b66352e4E', symObjAddr: 0x39EF0, symBinAddr: 0x3F5B0, symSize: 0x40 }
  - { offset: 0xF8386, size: 0x8, addend: 0x0, symName: __ZN3std2os4unix7process9parent_id17hf2ef61abbab45f9bE, symObjAddr: 0x39F30, symBinAddr: 0x3F5F0, symSize: 0x10 }
  - { offset: 0xF8483, size: 0x8, addend: 0x0, symName: __ZN3std2io5error5Error3new17h9c075d4f0cc0d533E, symObjAddr: 0x2F160, symBinAddr: 0x34910, symSize: 0x80 }
  - { offset: 0xF8551, size: 0x8, addend: 0x0, symName: __ZN3std2io5error5Error3new17hfd066bab6f73534eE, symObjAddr: 0x2F1E0, symBinAddr: 0x34990, symSize: 0x140 }
  - { offset: 0xF88EE, size: 0x8, addend: 0x0, symName: __ZN3std2io5error5Error4_new17h426e77d47d74087fE, symObjAddr: 0x2F320, symBinAddr: 0x34AD0, symSize: 0x80 }
  - { offset: 0xF8C3F, size: 0x8, addend: 0x0, symName: __ZN3std2io5error14repr_bitpacked4Repr3new17hb31b6efecead33ecE, symObjAddr: 0x2F030, symBinAddr: 0x347E0, symSize: 0x60 }
  - { offset: 0xF8E21, size: 0x8, addend: 0x0, symName: __ZN3std2io5error14repr_bitpacked11decode_repr17h0d915ea822e3bb84E, symObjAddr: 0x2F090, symBinAddr: 0x34840, symSize: 0x60 }
  - { offset: 0xF8E8E, size: 0x8, addend: 0x0, symName: '__ZN58_$LT$std..io..error..Error$u20$as$u20$core..fmt..Debug$GT$3fmt17h6d60307e7a704e46E', symObjAddr: 0x2F0F0, symBinAddr: 0x348A0, symSize: 0x10 }
  - { offset: 0xF8EF1, size: 0x8, addend: 0x0, symName: '__ZN96_$LT$std..io..error..Error$u20$as$u20$core..convert..From$LT$alloc..ffi..c_str..NulError$GT$$GT$4from17heeda989280439a39E', symObjAddr: 0x2F100, symBinAddr: 0x348B0, symSize: 0x30 }
  - { offset: 0xF8F0F, size: 0x8, addend: 0x0, symName: '__ZN96_$LT$std..io..error..Error$u20$as$u20$core..convert..From$LT$alloc..ffi..c_str..NulError$GT$$GT$4from17heeda989280439a39E', symObjAddr: 0x2F100, symBinAddr: 0x348B0, symSize: 0x30 }
  - { offset: 0xF8F24, size: 0x8, addend: 0x0, symName: '__ZN96_$LT$std..io..error..Error$u20$as$u20$core..convert..From$LT$alloc..ffi..c_str..NulError$GT$$GT$4from17heeda989280439a39E', symObjAddr: 0x2F100, symBinAddr: 0x348B0, symSize: 0x30 }
  - { offset: 0xF8FC5, size: 0x8, addend: 0x0, symName: '__ZN64_$LT$std..io..error..ErrorKind$u20$as$u20$core..fmt..Display$GT$3fmt17hb5492a7002110fc3E', symObjAddr: 0x2F130, symBinAddr: 0x348E0, symSize: 0x30 }
  - { offset: 0xF9012, size: 0x8, addend: 0x0, symName: '__ZN3std2io5error83_$LT$impl$u20$core..fmt..Debug$u20$for$u20$std..io..error..repr_bitpacked..Repr$GT$3fmt17hb62ddd5583f2b2b5E', symObjAddr: 0x2F3A0, symBinAddr: 0x34B50, symSize: 0x300 }
  - { offset: 0xF927B, size: 0x8, addend: 0x0, symName: '__ZN60_$LT$std..io..error..Error$u20$as$u20$core..fmt..Display$GT$3fmt17hebadd270ab1d1ef4E', symObjAddr: 0x2F6A0, symBinAddr: 0x34E50, symSize: 0x280 }
  - { offset: 0xF94F9, size: 0x8, addend: 0x0, symName: '__ZN60_$LT$std..io..error..Error$u20$as$u20$core..error..Error$GT$11description17h77f2d7fadfc571bbE', symObjAddr: 0x2F920, symBinAddr: 0x350D0, symSize: 0xA0 }
  - { offset: 0xF9599, size: 0x8, addend: 0x0, symName: '__ZN60_$LT$std..io..error..Error$u20$as$u20$core..error..Error$GT$5cause17ha70717fdc3ccfbdaE', symObjAddr: 0x2F9C0, symBinAddr: 0x35170, symSize: 0x30 }
  - { offset: 0xF95B8, size: 0x8, addend: 0x0, symName: '__ZN60_$LT$std..io..error..Error$u20$as$u20$core..error..Error$GT$5cause17ha70717fdc3ccfbdaE', symObjAddr: 0x2F9C0, symBinAddr: 0x35170, symSize: 0x30 }
  - { offset: 0xF95E1, size: 0x8, addend: 0x0, symName: '__ZN60_$LT$std..io..error..Error$u20$as$u20$core..error..Error$GT$6source17h13369f5b2da36469E', symObjAddr: 0x2F9F0, symBinAddr: 0x351A0, symSize: 0x30 }
  - { offset: 0xF9600, size: 0x8, addend: 0x0, symName: '__ZN60_$LT$std..io..error..Error$u20$as$u20$core..error..Error$GT$6source17h13369f5b2da36469E', symObjAddr: 0x2F9F0, symBinAddr: 0x351A0, symSize: 0x30 }
  - { offset: 0xF9630, size: 0x8, addend: 0x0, symName: '__ZN62_$LT$std..io..error..ErrorKind$u20$as$u20$core..fmt..Debug$GT$3fmt17heed5156acc6b7de8E', symObjAddr: 0x46830, symBinAddr: 0x4B1D0, symSize: 0x30 }
  - { offset: 0xF96C2, size: 0x8, addend: 0x0, symName: __ZN3std2io5Write9write_all17hc57d30971545ec12E, symObjAddr: 0x35A10, symBinAddr: 0x3B0D0, symSize: 0xA0 }
  - { offset: 0xF982E, size: 0x8, addend: 0x0, symName: __ZN3std2io5Write18write_all_vectored17h11a053baeddc31c5E, symObjAddr: 0x35AB0, symBinAddr: 0x3B170, symSize: 0x1D0 }
  - { offset: 0xF9B3C, size: 0x8, addend: 0x0, symName: __ZN3std2io5Write9write_fmt17h030baf42c1235e5aE, symObjAddr: 0x35C80, symBinAddr: 0x3B340, symSize: 0x130 }
  - { offset: 0xF9E38, size: 0x8, addend: 0x0, symName: __ZN3std2io5Write9write_fmt17h3b684f9f31679e8cE, symObjAddr: 0x35DB0, symBinAddr: 0x3B470, symSize: 0x130 }
  - { offset: 0xFA134, size: 0x8, addend: 0x0, symName: __ZN3std2io5Write9write_fmt17h8dd7e3932392f4beE, symObjAddr: 0x35EE0, symBinAddr: 0x3B5A0, symSize: 0x130 }
  - { offset: 0xFA491, size: 0x8, addend: 0x0, symName: '__ZN81_$LT$std..io..default_write_fmt..Adapter$LT$T$GT$$u20$as$u20$core..fmt..Write$GT$9write_str17h14539e0e6e5b5b6eE', symObjAddr: 0x35630, symBinAddr: 0x3ACF0, symSize: 0x70 }
  - { offset: 0xFA58B, size: 0x8, addend: 0x0, symName: '__ZN81_$LT$std..io..default_write_fmt..Adapter$LT$T$GT$$u20$as$u20$core..fmt..Write$GT$9write_str17h1f217e4eea580370E', symObjAddr: 0x356A0, symBinAddr: 0x3AD60, symSize: 0xD0 }
  - { offset: 0xFA71C, size: 0x8, addend: 0x0, symName: '__ZN81_$LT$std..io..default_write_fmt..Adapter$LT$T$GT$$u20$as$u20$core..fmt..Write$GT$9write_str17h23c99f6b77d82d4bE', symObjAddr: 0x35770, symBinAddr: 0x3AE30, symSize: 0x50 }
  - { offset: 0xFA747, size: 0x8, addend: 0x0, symName: '__ZN81_$LT$std..io..default_write_fmt..Adapter$LT$T$GT$$u20$as$u20$core..fmt..Write$GT$9write_str17h6569248c33205744E', symObjAddr: 0x357C0, symBinAddr: 0x3AE80, symSize: 0x50 }
  - { offset: 0xFA772, size: 0x8, addend: 0x0, symName: '__ZN81_$LT$std..io..default_write_fmt..Adapter$LT$T$GT$$u20$as$u20$core..fmt..Write$GT$9write_str17hbed791e6c4796f13E', symObjAddr: 0x35810, symBinAddr: 0x3AED0, symSize: 0xD0 }
  - { offset: 0xFA903, size: 0x8, addend: 0x0, symName: '__ZN81_$LT$std..io..default_write_fmt..Adapter$LT$T$GT$$u20$as$u20$core..fmt..Write$GT$9write_str17he63ae9aba82bc90bE', symObjAddr: 0x358E0, symBinAddr: 0x3AFA0, symSize: 0xA0 }
  - { offset: 0xFAAFA, size: 0x8, addend: 0x0, symName: '__ZN3std2io5impls74_$LT$impl$u20$std..io..Write$u20$for$u20$alloc..vec..Vec$LT$u8$C$A$GT$$GT$5write17hb7d05411ea0a77ebE', symObjAddr: 0x2FA20, symBinAddr: 0x351D0, symSize: 0x70 }
  - { offset: 0xFABEC, size: 0x8, addend: 0x0, symName: '__ZN3std2io5impls74_$LT$impl$u20$std..io..Write$u20$for$u20$alloc..vec..Vec$LT$u8$C$A$GT$$GT$14write_vectored17haf417a379e4b39b4E', symObjAddr: 0x2FA90, symBinAddr: 0x35240, symSize: 0x180 }
  - { offset: 0xFAE1A, size: 0x8, addend: 0x0, symName: '__ZN3std2io5impls74_$LT$impl$u20$std..io..Write$u20$for$u20$alloc..vec..Vec$LT$u8$C$A$GT$$GT$17is_write_vectored17h932cd9ca1c4a8540E', symObjAddr: 0x2FC10, symBinAddr: 0x353C0, symSize: 0x10 }
  - { offset: 0xFAE35, size: 0x8, addend: 0x0, symName: '__ZN3std2io5impls74_$LT$impl$u20$std..io..Write$u20$for$u20$alloc..vec..Vec$LT$u8$C$A$GT$$GT$9write_all17ha189a55e0e562318E', symObjAddr: 0x2FC20, symBinAddr: 0x353D0, symSize: 0x70 }
  - { offset: 0xFAF2E, size: 0x8, addend: 0x0, symName: '__ZN3std2io5impls74_$LT$impl$u20$std..io..Write$u20$for$u20$alloc..vec..Vec$LT$u8$C$A$GT$$GT$18write_all_vectored17h833074b945d495b2E', symObjAddr: 0x2FC90, symBinAddr: 0x35440, symSize: 0x170 }
  - { offset: 0xFAF5B, size: 0x8, addend: 0x0, symName: '__ZN3std2io5impls74_$LT$impl$u20$std..io..Write$u20$for$u20$alloc..vec..Vec$LT$u8$C$A$GT$$GT$18write_all_vectored17h833074b945d495b2E', symObjAddr: 0x2FC90, symBinAddr: 0x35440, symSize: 0x170 }
  - { offset: 0xFAF71, size: 0x8, addend: 0x0, symName: '__ZN3std2io5impls74_$LT$impl$u20$std..io..Write$u20$for$u20$alloc..vec..Vec$LT$u8$C$A$GT$$GT$18write_all_vectored17h833074b945d495b2E', symObjAddr: 0x2FC90, symBinAddr: 0x35440, symSize: 0x170 }
  - { offset: 0xFAF87, size: 0x8, addend: 0x0, symName: '__ZN3std2io5impls74_$LT$impl$u20$std..io..Write$u20$for$u20$alloc..vec..Vec$LT$u8$C$A$GT$$GT$18write_all_vectored17h833074b945d495b2E', symObjAddr: 0x2FC90, symBinAddr: 0x35440, symSize: 0x170 }
  - { offset: 0xFAF9C, size: 0x8, addend: 0x0, symName: '__ZN3std2io5impls74_$LT$impl$u20$std..io..Write$u20$for$u20$alloc..vec..Vec$LT$u8$C$A$GT$$GT$18write_all_vectored17h833074b945d495b2E', symObjAddr: 0x2FC90, symBinAddr: 0x35440, symSize: 0x170 }
  - { offset: 0xFAFB1, size: 0x8, addend: 0x0, symName: '__ZN3std2io5impls74_$LT$impl$u20$std..io..Write$u20$for$u20$alloc..vec..Vec$LT$u8$C$A$GT$$GT$18write_all_vectored17h833074b945d495b2E', symObjAddr: 0x2FC90, symBinAddr: 0x35440, symSize: 0x170 }
  - { offset: 0xFB192, size: 0x8, addend: 0x0, symName: '__ZN3std2io5impls74_$LT$impl$u20$std..io..Write$u20$for$u20$alloc..vec..Vec$LT$u8$C$A$GT$$GT$5flush17h4d772bbfb3b861aaE', symObjAddr: 0x2FE00, symBinAddr: 0x355B0, symSize: 0x10 }
  - { offset: 0xFB266, size: 0x8, addend: 0x0, symName: '__ZN58_$LT$std..io..stdio..StdinRaw$u20$as$u20$std..io..Read$GT$4read17h38add4f4d080efe1E', symObjAddr: 0x300D0, symBinAddr: 0x35880, symSize: 0x80 }
  - { offset: 0xFB366, size: 0x8, addend: 0x0, symName: '__ZN58_$LT$std..io..stdio..StdinRaw$u20$as$u20$std..io..Read$GT$8read_buf17h8f6234a0d2899061E', symObjAddr: 0x30150, symBinAddr: 0x35900, symSize: 0x90 }
  - { offset: 0xFB545, size: 0x8, addend: 0x0, symName: '__ZN58_$LT$std..io..stdio..StdinRaw$u20$as$u20$std..io..Read$GT$13read_vectored17hfd03668319aa8c17E', symObjAddr: 0x301E0, symBinAddr: 0x35990, symSize: 0x80 }
  - { offset: 0xFB645, size: 0x8, addend: 0x0, symName: '__ZN58_$LT$std..io..stdio..StdinRaw$u20$as$u20$std..io..Read$GT$10read_exact17hb2af2a049a1a258eE', symObjAddr: 0x30260, symBinAddr: 0x35A10, symSize: 0xF0 }
  - { offset: 0xFB7E7, size: 0x8, addend: 0x0, symName: '__ZN58_$LT$std..io..stdio..StdinRaw$u20$as$u20$std..io..Read$GT$14read_buf_exact17h24f4cf46e0c2eb00E', symObjAddr: 0x30350, symBinAddr: 0x35B00, symSize: 0xF0 }
  - { offset: 0xFBA42, size: 0x8, addend: 0x0, symName: '__ZN58_$LT$std..io..stdio..StdinRaw$u20$as$u20$std..io..Read$GT$11read_to_end17h6ed05927f90c16a9E', symObjAddr: 0x30440, symBinAddr: 0x35BF0, symSize: 0x40 }
  - { offset: 0xFBA81, size: 0x8, addend: 0x0, symName: '__ZN58_$LT$std..io..stdio..StdinRaw$u20$as$u20$std..io..Read$GT$14read_to_string17h685d07e9500cf493E', symObjAddr: 0x30480, symBinAddr: 0x35C30, symSize: 0xE0 }
  - { offset: 0xFBD15, size: 0x8, addend: 0x0, symName: '__ZN60_$LT$std..io..stdio..StdoutRaw$u20$as$u20$std..io..Write$GT$5write17h7f4dadab4b12e03eE', symObjAddr: 0x30560, symBinAddr: 0x35D10, symSize: 0x80 }
  - { offset: 0xFBE17, size: 0x8, addend: 0x0, symName: '__ZN60_$LT$std..io..stdio..StdoutRaw$u20$as$u20$std..io..Write$GT$14write_vectored17he4800c8c7e910846E', symObjAddr: 0x305E0, symBinAddr: 0x35D90, symSize: 0x110 }
  - { offset: 0xFBFC7, size: 0x8, addend: 0x0, symName: '__ZN60_$LT$std..io..stdio..StdoutRaw$u20$as$u20$std..io..Write$GT$9write_all17h2007d866db38ec4fE', symObjAddr: 0x306F0, symBinAddr: 0x35EA0, symSize: 0xE0 }
  - { offset: 0xFC156, size: 0x8, addend: 0x0, symName: '__ZN60_$LT$std..io..stdio..StdoutRaw$u20$as$u20$std..io..Write$GT$18write_all_vectored17h77fed8b72ce043aeE', symObjAddr: 0x307D0, symBinAddr: 0x35F80, symSize: 0x1F0 }
  - { offset: 0xFC3FE, size: 0x8, addend: 0x0, symName: '__ZN60_$LT$std..io..stdio..StdoutRaw$u20$as$u20$std..io..Write$GT$9write_fmt17h39e57e75e15ff36dE', symObjAddr: 0x309C0, symBinAddr: 0x36170, symSize: 0x150 }
  - { offset: 0xFC7A5, size: 0x8, addend: 0x0, symName: '__ZN60_$LT$std..io..stdio..StderrRaw$u20$as$u20$std..io..Write$GT$5write17hb1d5e3b4c5eb17dcE', symObjAddr: 0x30B10, symBinAddr: 0x362C0, symSize: 0x80 }
  - { offset: 0xFC8BB, size: 0x8, addend: 0x0, symName: '__ZN60_$LT$std..io..stdio..StderrRaw$u20$as$u20$std..io..Write$GT$14write_vectored17hea984beadd2cce75E', symObjAddr: 0x30B90, symBinAddr: 0x36340, symSize: 0x110 }
  - { offset: 0xFCA6B, size: 0x8, addend: 0x0, symName: '__ZN60_$LT$std..io..stdio..StderrRaw$u20$as$u20$std..io..Write$GT$5flush17hf4193e59a2e30cceE', symObjAddr: 0x30CA0, symBinAddr: 0x36450, symSize: 0x10 }
  - { offset: 0xFCA85, size: 0x8, addend: 0x0, symName: '__ZN60_$LT$std..io..stdio..StderrRaw$u20$as$u20$std..io..Write$GT$9write_all17h7d81cf280601e72aE', symObjAddr: 0x30CB0, symBinAddr: 0x36460, symSize: 0xE0 }
  - { offset: 0xFCC14, size: 0x8, addend: 0x0, symName: '__ZN60_$LT$std..io..stdio..StderrRaw$u20$as$u20$std..io..Write$GT$18write_all_vectored17h679649f414db8929E', symObjAddr: 0x30D90, symBinAddr: 0x36540, symSize: 0x30 }
  - { offset: 0xFCC3E, size: 0x8, addend: 0x0, symName: '__ZN60_$LT$std..io..stdio..StderrRaw$u20$as$u20$std..io..Write$GT$9write_fmt17h9d37c8d97ee1fb2cE', symObjAddr: 0x30DC0, symBinAddr: 0x36570, symSize: 0x30 }
  - { offset: 0xFCCD7, size: 0x8, addend: 0x0, symName: __ZN3std2io5stdio5stdin17h5f6ba5129cd12b39E, symObjAddr: 0x30DF0, symBinAddr: 0x365A0, symSize: 0x30 }
  - { offset: 0xFCD12, size: 0x8, addend: 0x0, symName: __ZN3std2io5stdio5stdin17h5f6ba5129cd12b39E, symObjAddr: 0x30DF0, symBinAddr: 0x365A0, symSize: 0x30 }
  - { offset: 0xFCD28, size: 0x8, addend: 0x0, symName: __ZN3std2io5stdio5stdin17h5f6ba5129cd12b39E, symObjAddr: 0x30DF0, symBinAddr: 0x365A0, symSize: 0x30 }
  - { offset: 0xFCD3D, size: 0x8, addend: 0x0, symName: __ZN3std2io5stdio5stdin17h5f6ba5129cd12b39E, symObjAddr: 0x30DF0, symBinAddr: 0x365A0, symSize: 0x30 }
  - { offset: 0xFCD53, size: 0x8, addend: 0x0, symName: __ZN3std2io5stdio5stdin17h5f6ba5129cd12b39E, symObjAddr: 0x30DF0, symBinAddr: 0x365A0, symSize: 0x30 }
  - { offset: 0xFCD69, size: 0x8, addend: 0x0, symName: __ZN3std2io5stdio5stdin17h5f6ba5129cd12b39E, symObjAddr: 0x30DF0, symBinAddr: 0x365A0, symSize: 0x30 }
  - { offset: 0xFCD7E, size: 0x8, addend: 0x0, symName: __ZN3std2io5stdio5stdin17h5f6ba5129cd12b39E, symObjAddr: 0x30DF0, symBinAddr: 0x365A0, symSize: 0x30 }
  - { offset: 0xFCD9E, size: 0x8, addend: 0x0, symName: __ZN3std2io5stdio5Stdin4lock17h49a2001393fdc2d0E, symObjAddr: 0x30E20, symBinAddr: 0x365D0, symSize: 0x60 }
  - { offset: 0xFCF02, size: 0x8, addend: 0x0, symName: __ZN3std2io5stdio5Stdin9read_line17hea9c9bd40fa94180E, symObjAddr: 0x30E80, symBinAddr: 0x36630, symSize: 0x170 }
  - { offset: 0xFD3B9, size: 0x8, addend: 0x0, symName: __ZN3std2io5stdio5Stdin5lines17h71e940024b04e130E, symObjAddr: 0x30FF0, symBinAddr: 0x367A0, symSize: 0x60 }
  - { offset: 0xFD53A, size: 0x8, addend: 0x0, symName: '__ZN62_$LT$std..io..stdio..StdinLock$u20$as$u20$std..io..BufRead$GT$8fill_buf17hf6193699cbca4208E', symObjAddr: 0x32550, symBinAddr: 0x37D00, symSize: 0xD0 }
  - { offset: 0xFD786, size: 0x8, addend: 0x0, symName: '__ZN62_$LT$std..io..stdio..StdinLock$u20$as$u20$std..io..BufRead$GT$7consume17h15529d990f22c46dE', symObjAddr: 0x32620, symBinAddr: 0x37DD0, symSize: 0x20 }
  - { offset: 0xFD812, size: 0x8, addend: 0x0, symName: '__ZN62_$LT$std..io..stdio..StdinLock$u20$as$u20$std..io..BufRead$GT$10read_until17hc0f4b3b5265973ffE', symObjAddr: 0x32640, symBinAddr: 0x37DF0, symSize: 0x20 }
  - { offset: 0xFD871, size: 0x8, addend: 0x0, symName: '__ZN62_$LT$std..io..stdio..StdinLock$u20$as$u20$std..io..BufRead$GT$9read_line17h72e88bf778cefdc7E', symObjAddr: 0x32660, symBinAddr: 0x37E10, symSize: 0xC0 }
  - { offset: 0xFDA9A, size: 0x8, addend: 0x0, symName: '__ZN58_$LT$std..io..stdio..Stdin$u20$as$u20$core..fmt..Debug$GT$3fmt17h85bb3f2303eb1b45E', symObjAddr: 0x31050, symBinAddr: 0x36800, symSize: 0x30 }
  - { offset: 0xFDAE6, size: 0x8, addend: 0x0, symName: '__ZN59_$LT$std..io..stdio..StdinLock$u20$as$u20$std..io..Read$GT$4read17h2134884b87fb6219E', symObjAddr: 0x31CA0, symBinAddr: 0x37450, symSize: 0x20 }
  - { offset: 0xFDB28, size: 0x8, addend: 0x0, symName: '__ZN59_$LT$std..io..stdio..StdinLock$u20$as$u20$std..io..Read$GT$8read_buf17h1b2624fed6ea600cE', symObjAddr: 0x31CC0, symBinAddr: 0x37470, symSize: 0x20 }
  - { offset: 0xFDB6A, size: 0x8, addend: 0x0, symName: '__ZN59_$LT$std..io..stdio..StdinLock$u20$as$u20$std..io..Read$GT$13read_vectored17he1a701c6ce461bdfE', symObjAddr: 0x31CE0, symBinAddr: 0x37490, symSize: 0x2C0 }
  - { offset: 0xFE0F0, size: 0x8, addend: 0x0, symName: '__ZN59_$LT$std..io..stdio..StdinLock$u20$as$u20$std..io..Read$GT$11read_to_end17h8c319541bca3b088E', symObjAddr: 0x31FA0, symBinAddr: 0x37750, symSize: 0x20 }
  - { offset: 0xFE132, size: 0x8, addend: 0x0, symName: '__ZN59_$LT$std..io..stdio..StdinLock$u20$as$u20$std..io..Read$GT$14read_to_string17h45a954534e52dfc0E', symObjAddr: 0x31FC0, symBinAddr: 0x37770, symSize: 0x1C0 }
  - { offset: 0xFE6A1, size: 0x8, addend: 0x0, symName: '__ZN59_$LT$std..io..stdio..StdinLock$u20$as$u20$std..io..Read$GT$10read_exact17h9eaebe970b514a59E', symObjAddr: 0x32180, symBinAddr: 0x37930, symSize: 0x200 }
  - { offset: 0xFEABF, size: 0x8, addend: 0x0, symName: '__ZN59_$LT$std..io..stdio..StdinLock$u20$as$u20$std..io..Read$GT$14read_buf_exact17h1e835d6eddf5020dE', symObjAddr: 0x32380, symBinAddr: 0x37B30, symSize: 0x1D0 }
  - { offset: 0xFEFA9, size: 0x8, addend: 0x0, symName: '__ZN55_$LT$std..io..stdio..Stdin$u20$as$u20$std..io..Read$GT$4read17h050975a55f2ec74aE', symObjAddr: 0x31080, symBinAddr: 0x36830, symSize: 0xF0 }
  - { offset: 0xFF248, size: 0x8, addend: 0x0, symName: '__ZN55_$LT$std..io..stdio..Stdin$u20$as$u20$std..io..Read$GT$8read_buf17h2cfc8fbcbf7b28b4E', symObjAddr: 0x31170, symBinAddr: 0x36920, symSize: 0xE0 }
  - { offset: 0xFF4E7, size: 0x8, addend: 0x0, symName: '__ZN55_$LT$std..io..stdio..Stdin$u20$as$u20$std..io..Read$GT$13read_vectored17hd3e9bd4d964e98baE', symObjAddr: 0x31250, symBinAddr: 0x36A00, symSize: 0xD0 }
  - { offset: 0xFF782, size: 0x8, addend: 0x0, symName: '__ZN55_$LT$std..io..stdio..Stdin$u20$as$u20$std..io..Read$GT$11read_to_end17h32f487eda04c42a9E', symObjAddr: 0x31320, symBinAddr: 0x36AD0, symSize: 0xD0 }
  - { offset: 0xFFA61, size: 0x8, addend: 0x0, symName: '__ZN55_$LT$std..io..stdio..Stdin$u20$as$u20$std..io..Read$GT$14read_to_string17h0ab98785cefe4275E', symObjAddr: 0x313F0, symBinAddr: 0x36BA0, symSize: 0xE0 }
  - { offset: 0xFFCFC, size: 0x8, addend: 0x0, symName: '__ZN55_$LT$std..io..stdio..Stdin$u20$as$u20$std..io..Read$GT$10read_exact17he99a2e7b64d755e7E', symObjAddr: 0x314D0, symBinAddr: 0x36C80, symSize: 0xE0 }
  - { offset: 0xFFF97, size: 0x8, addend: 0x0, symName: '__ZN55_$LT$std..io..stdio..Stdin$u20$as$u20$std..io..Read$GT$14read_buf_exact17hdfc0154b33c02376E', symObjAddr: 0x315B0, symBinAddr: 0x36D60, symSize: 0xE0 }
  - { offset: 0x100239, size: 0x8, addend: 0x0, symName: '__ZN59_$LT$$RF$std..io..stdio..Stdin$u20$as$u20$std..io..Read$GT$4read17hb5ffc233f8149395E', symObjAddr: 0x31690, symBinAddr: 0x36E40, symSize: 0xF0 }
  - { offset: 0x1004D8, size: 0x8, addend: 0x0, symName: '__ZN59_$LT$$RF$std..io..stdio..Stdin$u20$as$u20$std..io..Read$GT$8read_buf17hbaf4174c156f6b17E', symObjAddr: 0x31780, symBinAddr: 0x36F30, symSize: 0xE0 }
  - { offset: 0x100777, size: 0x8, addend: 0x0, symName: '__ZN59_$LT$$RF$std..io..stdio..Stdin$u20$as$u20$std..io..Read$GT$13read_vectored17h5f5ff5ec45d0f183E', symObjAddr: 0x31860, symBinAddr: 0x37010, symSize: 0xD0 }
  - { offset: 0x100A12, size: 0x8, addend: 0x0, symName: '__ZN59_$LT$$RF$std..io..stdio..Stdin$u20$as$u20$std..io..Read$GT$11read_to_end17h54b14629f8be5c60E', symObjAddr: 0x31930, symBinAddr: 0x370E0, symSize: 0xD0 }
  - { offset: 0x100CF1, size: 0x8, addend: 0x0, symName: '__ZN59_$LT$$RF$std..io..stdio..Stdin$u20$as$u20$std..io..Read$GT$14read_to_string17h07bc8076a01fa2feE', symObjAddr: 0x31A00, symBinAddr: 0x371B0, symSize: 0xE0 }
  - { offset: 0x100F8C, size: 0x8, addend: 0x0, symName: '__ZN59_$LT$$RF$std..io..stdio..Stdin$u20$as$u20$std..io..Read$GT$10read_exact17h38638ab9c1bbb948E', symObjAddr: 0x31AE0, symBinAddr: 0x37290, symSize: 0xE0 }
  - { offset: 0x101227, size: 0x8, addend: 0x0, symName: '__ZN59_$LT$$RF$std..io..stdio..Stdin$u20$as$u20$std..io..Read$GT$14read_buf_exact17h0c579117f8f7fcdaE', symObjAddr: 0x31BC0, symBinAddr: 0x37370, symSize: 0xE0 }
  - { offset: 0x1014C9, size: 0x8, addend: 0x0, symName: '__ZN62_$LT$std..io..stdio..StdinLock$u20$as$u20$core..fmt..Debug$GT$3fmt17h91109ce70d9abf19E', symObjAddr: 0x32720, symBinAddr: 0x37ED0, symSize: 0x30 }
  - { offset: 0x1014E5, size: 0x8, addend: 0x0, symName: __ZN3std2io5stdio6stdout17h166069a4ee43e41cE, symObjAddr: 0x32750, symBinAddr: 0x37F00, symSize: 0x30 }
  - { offset: 0x101519, size: 0x8, addend: 0x0, symName: __ZN3std2io5stdio6stdout17h166069a4ee43e41cE, symObjAddr: 0x32750, symBinAddr: 0x37F00, symSize: 0x30 }
  - { offset: 0x10152F, size: 0x8, addend: 0x0, symName: __ZN3std2io5stdio6stdout17h166069a4ee43e41cE, symObjAddr: 0x32750, symBinAddr: 0x37F00, symSize: 0x30 }
  - { offset: 0x101544, size: 0x8, addend: 0x0, symName: __ZN3std2io5stdio6stdout17h166069a4ee43e41cE, symObjAddr: 0x32750, symBinAddr: 0x37F00, symSize: 0x30 }
  - { offset: 0x10155A, size: 0x8, addend: 0x0, symName: __ZN3std2io5stdio6stdout17h166069a4ee43e41cE, symObjAddr: 0x32750, symBinAddr: 0x37F00, symSize: 0x30 }
  - { offset: 0x101570, size: 0x8, addend: 0x0, symName: __ZN3std2io5stdio6stdout17h166069a4ee43e41cE, symObjAddr: 0x32750, symBinAddr: 0x37F00, symSize: 0x30 }
  - { offset: 0x101585, size: 0x8, addend: 0x0, symName: __ZN3std2io5stdio6stdout17h166069a4ee43e41cE, symObjAddr: 0x32750, symBinAddr: 0x37F00, symSize: 0x30 }
  - { offset: 0x1015A5, size: 0x8, addend: 0x0, symName: '__ZN59_$LT$std..io..stdio..Stdout$u20$as$u20$core..fmt..Debug$GT$3fmt17hb5ad324068e2e500E', symObjAddr: 0x32780, symBinAddr: 0x37F30, symSize: 0x30 }
  - { offset: 0x1015F1, size: 0x8, addend: 0x0, symName: '__ZN61_$LT$$RF$std..io..stdio..Stdout$u20$as$u20$std..io..Write$GT$5write17h0f653de7308c30b7E', symObjAddr: 0x32990, symBinAddr: 0x38140, symSize: 0x80 }
  - { offset: 0x1017F2, size: 0x8, addend: 0x0, symName: '__ZN61_$LT$$RF$std..io..stdio..Stdout$u20$as$u20$std..io..Write$GT$14write_vectored17h91ca7579c7ebb150E', symObjAddr: 0x32A10, symBinAddr: 0x381C0, symSize: 0xB0 }
  - { offset: 0x101BC8, size: 0x8, addend: 0x0, symName: '__ZN61_$LT$$RF$std..io..stdio..Stdout$u20$as$u20$std..io..Write$GT$5flush17h654a37983170398fE', symObjAddr: 0x32AC0, symBinAddr: 0x38270, symSize: 0x90 }
  - { offset: 0x101F9C, size: 0x8, addend: 0x0, symName: '__ZN61_$LT$$RF$std..io..stdio..Stdout$u20$as$u20$std..io..Write$GT$9write_all17h39e01101f9a501c1E', symObjAddr: 0x32B50, symBinAddr: 0x38300, symSize: 0x80 }
  - { offset: 0x10219D, size: 0x8, addend: 0x0, symName: '__ZN61_$LT$$RF$std..io..stdio..Stdout$u20$as$u20$std..io..Write$GT$18write_all_vectored17hf46a92d02845ec62E', symObjAddr: 0x32BD0, symBinAddr: 0x38380, symSize: 0x80 }
  - { offset: 0x10239E, size: 0x8, addend: 0x0, symName: '__ZN61_$LT$$RF$std..io..stdio..Stdout$u20$as$u20$std..io..Write$GT$9write_fmt17h54610fbce91aba3bE', symObjAddr: 0x32C50, symBinAddr: 0x38400, symSize: 0x180 }
  - { offset: 0x10285C, size: 0x8, addend: 0x0, symName: '__ZN57_$LT$std..io..stdio..Stdout$u20$as$u20$std..io..Write$GT$5write17h03f07e75cd0875a7E', symObjAddr: 0x327B0, symBinAddr: 0x37F60, symSize: 0x80 }
  - { offset: 0x102A73, size: 0x8, addend: 0x0, symName: '__ZN57_$LT$std..io..stdio..Stdout$u20$as$u20$std..io..Write$GT$14write_vectored17h49c38b70750fb7a4E', symObjAddr: 0x32830, symBinAddr: 0x37FE0, symSize: 0x20 }
  - { offset: 0x102A8E, size: 0x8, addend: 0x0, symName: '__ZN57_$LT$std..io..stdio..Stdout$u20$as$u20$std..io..Write$GT$5flush17h626dd3e801b74546E', symObjAddr: 0x32850, symBinAddr: 0x38000, symSize: 0x20 }
  - { offset: 0x102AA9, size: 0x8, addend: 0x0, symName: '__ZN57_$LT$std..io..stdio..Stdout$u20$as$u20$std..io..Write$GT$9write_all17h76d24e11ef66b44eE', symObjAddr: 0x32870, symBinAddr: 0x38020, symSize: 0x80 }
  - { offset: 0x102CC0, size: 0x8, addend: 0x0, symName: '__ZN57_$LT$std..io..stdio..Stdout$u20$as$u20$std..io..Write$GT$18write_all_vectored17h9f1546049757a471E', symObjAddr: 0x328F0, symBinAddr: 0x380A0, symSize: 0x80 }
  - { offset: 0x102ED7, size: 0x8, addend: 0x0, symName: '__ZN57_$LT$std..io..stdio..Stdout$u20$as$u20$std..io..Write$GT$9write_fmt17h51eb512ed9dee269E', symObjAddr: 0x32970, symBinAddr: 0x38120, symSize: 0x20 }
  - { offset: 0x102F1C, size: 0x8, addend: 0x0, symName: '__ZN61_$LT$std..io..stdio..StdoutLock$u20$as$u20$std..io..Write$GT$5write17h97da4bc14ccb563dE', symObjAddr: 0x32DD0, symBinAddr: 0x38580, symSize: 0x250 }
  - { offset: 0x1035D3, size: 0x8, addend: 0x0, symName: '__ZN61_$LT$std..io..stdio..StdoutLock$u20$as$u20$std..io..Write$GT$14write_vectored17h218cce9826df21a9E', symObjAddr: 0x33020, symBinAddr: 0x387D0, symSize: 0x50 }
  - { offset: 0x1037BD, size: 0x8, addend: 0x0, symName: '__ZN61_$LT$std..io..stdio..StdoutLock$u20$as$u20$std..io..Write$GT$5flush17h32630dcb0d567c71E', symObjAddr: 0x33070, symBinAddr: 0x38820, symSize: 0x50 }
  - { offset: 0x1039BD, size: 0x8, addend: 0x0, symName: '__ZN61_$LT$std..io..stdio..StdoutLock$u20$as$u20$std..io..Write$GT$9write_all17hef74ded50d3a19d8E', symObjAddr: 0x330C0, symBinAddr: 0x38870, symSize: 0x280 }
  - { offset: 0x104103, size: 0x8, addend: 0x0, symName: '__ZN61_$LT$std..io..stdio..StdoutLock$u20$as$u20$std..io..Write$GT$18write_all_vectored17h321ba3732992864bE', symObjAddr: 0x33340, symBinAddr: 0x38AF0, symSize: 0x360 }
  - { offset: 0x10472B, size: 0x8, addend: 0x0, symName: '__ZN63_$LT$std..io..stdio..StdoutLock$u20$as$u20$core..fmt..Debug$GT$3fmt17ha902e9381243f698E', symObjAddr: 0x336A0, symBinAddr: 0x38E50, symSize: 0x30 }
  - { offset: 0x10474D, size: 0x8, addend: 0x0, symName: __ZN3std2io5stdio6Stderr4lock17ha64da8d698fc5bbcE, symObjAddr: 0x336D0, symBinAddr: 0x38E80, symSize: 0xD0 }
  - { offset: 0x104A13, size: 0x8, addend: 0x0, symName: '__ZN59_$LT$std..io..stdio..Stderr$u20$as$u20$core..fmt..Debug$GT$3fmt17h7a3bef8abeb6c802E', symObjAddr: 0x337A0, symBinAddr: 0x38F50, symSize: 0x30 }
  - { offset: 0x104A35, size: 0x8, addend: 0x0, symName: '__ZN57_$LT$std..io..stdio..Stderr$u20$as$u20$std..io..Write$GT$5write17h8f4e2fa87292bc57E', symObjAddr: 0x337D0, symBinAddr: 0x38F80, symSize: 0x20 }
  - { offset: 0x104A50, size: 0x8, addend: 0x0, symName: '__ZN57_$LT$std..io..stdio..Stderr$u20$as$u20$std..io..Write$GT$14write_vectored17h1a77ab8ef507a170E', symObjAddr: 0x337F0, symBinAddr: 0x38FA0, symSize: 0x20 }
  - { offset: 0x104A6B, size: 0x8, addend: 0x0, symName: '__ZN57_$LT$std..io..stdio..Stderr$u20$as$u20$std..io..Write$GT$5flush17h7378d19ef40c0691E', symObjAddr: 0x33810, symBinAddr: 0x38FC0, symSize: 0x60 }
  - { offset: 0x104CCD, size: 0x8, addend: 0x0, symName: '__ZN57_$LT$std..io..stdio..Stderr$u20$as$u20$std..io..Write$GT$9write_all17hc254c8b5c18012baE', symObjAddr: 0x33870, symBinAddr: 0x39020, symSize: 0x80 }
  - { offset: 0x104EE4, size: 0x8, addend: 0x0, symName: '__ZN57_$LT$std..io..stdio..Stderr$u20$as$u20$std..io..Write$GT$18write_all_vectored17h78482effb818dc1dE', symObjAddr: 0x338F0, symBinAddr: 0x390A0, symSize: 0x20 }
  - { offset: 0x104EFF, size: 0x8, addend: 0x0, symName: '__ZN57_$LT$std..io..stdio..Stderr$u20$as$u20$std..io..Write$GT$9write_fmt17hda0818b762e8c121E', symObjAddr: 0x33910, symBinAddr: 0x390C0, symSize: 0x20 }
  - { offset: 0x104F44, size: 0x8, addend: 0x0, symName: '__ZN61_$LT$$RF$std..io..stdio..Stderr$u20$as$u20$std..io..Write$GT$5write17hab20cabe774e9211E', symObjAddr: 0x33930, symBinAddr: 0x390E0, symSize: 0x100 }
  - { offset: 0x105301, size: 0x8, addend: 0x0, symName: '__ZN61_$LT$$RF$std..io..stdio..Stderr$u20$as$u20$std..io..Write$GT$14write_vectored17h887f21feda65712dE', symObjAddr: 0x33A30, symBinAddr: 0x391E0, symSize: 0x180 }
  - { offset: 0x1057E4, size: 0x8, addend: 0x0, symName: '__ZN61_$LT$$RF$std..io..stdio..Stderr$u20$as$u20$std..io..Write$GT$5flush17h94dfbbcefc8af19eE', symObjAddr: 0x33BB0, symBinAddr: 0x39360, symSize: 0x70 }
  - { offset: 0x105A30, size: 0x8, addend: 0x0, symName: '__ZN61_$LT$$RF$std..io..stdio..Stderr$u20$as$u20$std..io..Write$GT$9write_all17h7ecb7c135afcd112E', symObjAddr: 0x33C20, symBinAddr: 0x393D0, symSize: 0x80 }
  - { offset: 0x105C31, size: 0x8, addend: 0x0, symName: '__ZN61_$LT$$RF$std..io..stdio..Stderr$u20$as$u20$std..io..Write$GT$18write_all_vectored17h6d17c788b7310cb6E', symObjAddr: 0x33CA0, symBinAddr: 0x39450, symSize: 0xC0 }
  - { offset: 0x105FFF, size: 0x8, addend: 0x0, symName: '__ZN61_$LT$$RF$std..io..stdio..Stderr$u20$as$u20$std..io..Write$GT$9write_fmt17h1ed2d0a19ceaeebfE', symObjAddr: 0x33D60, symBinAddr: 0x39510, symSize: 0x180 }
  - { offset: 0x1064F5, size: 0x8, addend: 0x0, symName: '__ZN61_$LT$std..io..stdio..StderrLock$u20$as$u20$std..io..Write$GT$5write17h02a2ed27451cdec4E', symObjAddr: 0x33EE0, symBinAddr: 0x39690, symSize: 0xB0 }
  - { offset: 0x10671E, size: 0x8, addend: 0x0, symName: '__ZN61_$LT$std..io..stdio..StderrLock$u20$as$u20$std..io..Write$GT$14write_vectored17h014c997e4a6a98b4E', symObjAddr: 0x33F90, symBinAddr: 0x39740, symSize: 0x130 }
  - { offset: 0x106A15, size: 0x8, addend: 0x0, symName: '__ZN61_$LT$std..io..stdio..StderrLock$u20$as$u20$std..io..Write$GT$5flush17he84f20a26419ee0cE', symObjAddr: 0x340C0, symBinAddr: 0x39870, symSize: 0x20 }
  - { offset: 0x106A2D, size: 0x8, addend: 0x0, symName: '__ZN61_$LT$std..io..stdio..StderrLock$u20$as$u20$std..io..Write$GT$5flush17he84f20a26419ee0cE', symObjAddr: 0x340C0, symBinAddr: 0x39870, symSize: 0x20 }
  - { offset: 0x106A7C, size: 0x8, addend: 0x0, symName: '__ZN61_$LT$std..io..stdio..StderrLock$u20$as$u20$std..io..Write$GT$9write_all17h2b37ad45193d6a60E', symObjAddr: 0x340E0, symBinAddr: 0x39890, symSize: 0x120 }
  - { offset: 0x106DC8, size: 0x8, addend: 0x0, symName: '__ZN61_$LT$std..io..stdio..StderrLock$u20$as$u20$std..io..Write$GT$18write_all_vectored17he18e1a4769a338b9E', symObjAddr: 0x34200, symBinAddr: 0x399B0, symSize: 0x70 }
  - { offset: 0x106FB9, size: 0x8, addend: 0x0, symName: '__ZN63_$LT$std..io..stdio..StderrLock$u20$as$u20$core..fmt..Debug$GT$3fmt17hd5d76683264b3aacE', symObjAddr: 0x34270, symBinAddr: 0x39A20, symSize: 0x30 }
  - { offset: 0x107013, size: 0x8, addend: 0x0, symName: __ZN3std2io5stdio18set_output_capture17h82864a5bf745d4feE, symObjAddr: 0x342A0, symBinAddr: 0x39A50, symSize: 0xE0 }
  - { offset: 0x1072C9, size: 0x8, addend: 0x0, symName: __ZN3std2io5stdio22try_set_output_capture17h4ae2bf7edffa05bdE, symObjAddr: 0x34380, symBinAddr: 0x39B30, symSize: 0xD0 }
  - { offset: 0x10757D, size: 0x8, addend: 0x0, symName: __ZN3std2io5stdio31print_to_buffer_if_capture_used17hc511f6a9cf2a5ae5E, symObjAddr: 0x34450, symBinAddr: 0x39C00, symSize: 0x240 }
  - { offset: 0x107CF4, size: 0x8, addend: 0x0, symName: __ZN3std2io5stdio23attempt_print_to_stderr17hdc2678590b1410e3E, symObjAddr: 0x34690, symBinAddr: 0x39E40, symSize: 0xD0 }
  - { offset: 0x107FB9, size: 0x8, addend: 0x0, symName: __ZN3std2io5stdio6_print17he0f862ba596fd365E, symObjAddr: 0x34760, symBinAddr: 0x39F10, symSize: 0xF0 }
  - { offset: 0x1080D3, size: 0x8, addend: 0x0, symName: __ZN3std2io5stdio7_eprint17hda20596181be9bcdE, symObjAddr: 0x34850, symBinAddr: 0x3A000, symSize: 0xE0 }
  - { offset: 0x108159, size: 0x8, addend: 0x0, symName: '__ZN3std2io8buffered9bufwriter18BufWriter$LT$W$GT$9flush_buf17h40ac3182d9df5cb8E', symObjAddr: 0x2E520, symBinAddr: 0x33F00, symSize: 0x250 }
  - { offset: 0x108803, size: 0x8, addend: 0x0, symName: '__ZN3std2io8buffered9bufwriter18BufWriter$LT$W$GT$10write_cold17h3cf51f35df34cde9E', symObjAddr: 0x2E800, symBinAddr: 0x9BEE0, symSize: 0xF0 }
  - { offset: 0x108A57, size: 0x8, addend: 0x0, symName: '__ZN3std2io8buffered9bufwriter18BufWriter$LT$W$GT$14write_all_cold17hd7a949f347692cfeE', symObjAddr: 0x2E8F0, symBinAddr: 0x9BFD0, symSize: 0x140 }
  - { offset: 0x108DB2, size: 0x8, addend: 0x0, symName: '__ZN111_$LT$std..io..buffered..bufwriter..BufWriter$LT$W$GT$..flush_buf..BufGuard$u20$as$u20$core..ops..drop..Drop$GT$4drop17ha59932829d5957b6E', symObjAddr: 0x2E7A0, symBinAddr: 0x34180, symSize: 0x60 }
  - { offset: 0x108F3F, size: 0x8, addend: 0x0, symName: '__ZN3std2io8buffered9bufwriter18BufWriter$LT$W$GT$9flush_buf8BufGuard9remaining17h90f0bcb92dd7a52dE', symObjAddr: 0x2E770, symBinAddr: 0x34150, symSize: 0x30 }
  - { offset: 0x109024, size: 0x8, addend: 0x0, symName: '__ZN83_$LT$std..io..buffered..bufwriter..WriterPanicked$u20$as$u20$core..fmt..Display$GT$3fmt17ha7a84395700bf5aeE', symObjAddr: 0x2EA30, symBinAddr: 0x341E0, symSize: 0x60 }
  - { offset: 0x109074, size: 0x8, addend: 0x0, symName: '__ZN81_$LT$std..io..buffered..bufwriter..WriterPanicked$u20$as$u20$core..fmt..Debug$GT$3fmt17h881099f668401764E', symObjAddr: 0x2EA90, symBinAddr: 0x34240, symSize: 0xB0 }
  - { offset: 0x10920A, size: 0x8, addend: 0x0, symName: __ZN3std2io8buffered9bufreader6buffer6Buffer9backshift17h482d58015b945f7aE, symObjAddr: 0x2DFD0, symBinAddr: 0x339B0, symSize: 0x50 }
  - { offset: 0x10947F, size: 0x8, addend: 0x0, symName: '__ZN82_$LT$std..io..buffered..bufreader..BufReader$LT$R$GT$$u20$as$u20$std..io..Read$GT$4read17h8452f841d9b6d95bE', symObjAddr: 0x2E020, symBinAddr: 0x33A00, symSize: 0x1C0 }
  - { offset: 0x10985E, size: 0x8, addend: 0x0, symName: '__ZN82_$LT$std..io..buffered..bufreader..BufReader$LT$R$GT$$u20$as$u20$std..io..Read$GT$8read_buf17h25c45156a71af282E', symObjAddr: 0x2E1E0, symBinAddr: 0x33BC0, symSize: 0x1D0 }
  - { offset: 0x109EB5, size: 0x8, addend: 0x0, symName: '__ZN82_$LT$std..io..buffered..bufreader..BufReader$LT$R$GT$$u20$as$u20$std..io..Read$GT$11read_to_end17hdef0eb9f8c73a70fE', symObjAddr: 0x2E3B0, symBinAddr: 0x33D90, symSize: 0x170 }
  - { offset: 0x10A2BD, size: 0x8, addend: 0x0, symName: '__ZN93_$LT$std..io..buffered..linewritershim..LineWriterShim$LT$W$GT$$u20$as$u20$std..io..Write$GT$14write_vectored17h5087af811c62e57aE', symObjAddr: 0x2EB40, symBinAddr: 0x342F0, symSize: 0x4D0 }
  - { offset: 0x10AD2B, size: 0x8, addend: 0x0, symName: '__ZN79_$LT$alloc..vec..Vec$LT$u8$GT$$u20$as$u20$std..io..copy..BufferedWriterSpec$GT$11buffer_size17h3efa7ac07d290b21E', symObjAddr: 0x2F010, symBinAddr: 0x347C0, symSize: 0x20 }
  - { offset: 0x10ADC6, size: 0x8, addend: 0x0, symName: __ZN3std2io4pipe10PipeReader9try_clone17hb48fe4f2cad23eb2E, symObjAddr: 0x2FE10, symBinAddr: 0x355C0, symSize: 0x50 }
  - { offset: 0x10AED8, size: 0x8, addend: 0x0, symName: '__ZN63_$LT$$RF$std..io..pipe..PipeReader$u20$as$u20$std..io..Read$GT$4read17hc2741c4fa98cf702E', symObjAddr: 0x2FE60, symBinAddr: 0x35610, symSize: 0x50 }
  - { offset: 0x10AFDF, size: 0x8, addend: 0x0, symName: '__ZN63_$LT$$RF$std..io..pipe..PipeReader$u20$as$u20$std..io..Read$GT$13read_vectored17h5e1ed2efa8edca33E', symObjAddr: 0x2FEB0, symBinAddr: 0x35660, symSize: 0x50 }
  - { offset: 0x10B0E6, size: 0x8, addend: 0x0, symName: '__ZN63_$LT$$RF$std..io..pipe..PipeReader$u20$as$u20$std..io..Read$GT$11read_to_end17hbf6dc4a7bc422958E', symObjAddr: 0x2FF00, symBinAddr: 0x356B0, symSize: 0x10 }
  - { offset: 0x10B100, size: 0x8, addend: 0x0, symName: '__ZN63_$LT$$RF$std..io..pipe..PipeReader$u20$as$u20$std..io..Read$GT$8read_buf17h4430ac6a3ef2b884E', symObjAddr: 0x2FF10, symBinAddr: 0x356C0, symSize: 0x70 }
  - { offset: 0x10B2E5, size: 0x8, addend: 0x0, symName: '__ZN59_$LT$std..io..pipe..PipeReader$u20$as$u20$std..io..Read$GT$11read_to_end17h17cdef806ec3f7f6E', symObjAddr: 0x2FF80, symBinAddr: 0x35730, symSize: 0x10 }
  - { offset: 0x10B306, size: 0x8, addend: 0x0, symName: '__ZN64_$LT$$RF$std..io..pipe..PipeWriter$u20$as$u20$std..io..Write$GT$5write17he3b4de3d05c05702E', symObjAddr: 0x2FF90, symBinAddr: 0x35740, symSize: 0x50 }
  - { offset: 0x10B410, size: 0x8, addend: 0x0, symName: '__ZN64_$LT$$RF$std..io..pipe..PipeWriter$u20$as$u20$std..io..Write$GT$14write_vectored17h97934928c75933eeE', symObjAddr: 0x2FFE0, symBinAddr: 0x35790, symSize: 0x50 }
  - { offset: 0x10B523, size: 0x8, addend: 0x0, symName: '__ZN60_$LT$std..io..pipe..PipeWriter$u20$as$u20$std..io..Write$GT$5write17h8185c43b66898362E', symObjAddr: 0x30030, symBinAddr: 0x357E0, symSize: 0x50 }
  - { offset: 0x10B62F, size: 0x8, addend: 0x0, symName: '__ZN60_$LT$std..io..pipe..PipeWriter$u20$as$u20$std..io..Write$GT$14write_vectored17hb51e881077d1358cE', symObjAddr: 0x30080, symBinAddr: 0x35830, symSize: 0x50 }
  - { offset: 0x10B853, size: 0x8, addend: 0x0, symName: '__ZN58_$LT$std..io..util..Repeat$u20$as$u20$core..fmt..Debug$GT$3fmt17hf667bdab299f5d46E', symObjAddr: 0x34930, symBinAddr: 0x3A0E0, symSize: 0x30 }
  - { offset: 0x10B8A0, size: 0x8, addend: 0x0, symName: __ZN3std2io19default_read_to_end16small_probe_read17habcb3c26651e90d2E, symObjAddr: 0x35270, symBinAddr: 0x3AA20, symSize: 0xF0 }
  - { offset: 0x10BAAD, size: 0x8, addend: 0x0, symName: __ZN3std2io19default_read_to_end16small_probe_read17hcd9a34af01d9628eE, symObjAddr: 0x35360, symBinAddr: 0x3AB10, symSize: 0xF0 }
  - { offset: 0x10BCE8, size: 0x8, addend: 0x0, symName: __ZN3std2io19default_read_to_end16small_probe_read17hf6cc2c7e569214b7E, symObjAddr: 0x35540, symBinAddr: 0x3AC00, symSize: 0xF0 }
  - { offset: 0x10BEF5, size: 0x8, addend: 0x0, symName: __ZN3std2io19default_read_to_end17h7773dbaf105f4c2cE, symObjAddr: 0x34960, symBinAddr: 0x3A110, symSize: 0x310 }
  - { offset: 0x10C45A, size: 0x8, addend: 0x0, symName: __ZN3std2io19default_read_to_end17hd74f25db00ba41c6E, symObjAddr: 0x34C70, symBinAddr: 0x3A420, symSize: 0x310 }
  - { offset: 0x10C9CE, size: 0x8, addend: 0x0, symName: __ZN3std2io19default_read_to_end17hddbed13f62cbc7daE, symObjAddr: 0x34F80, symBinAddr: 0x3A730, symSize: 0x2F0 }
  - { offset: 0x10CF29, size: 0x8, addend: 0x0, symName: __ZN3std2io10IoSliceMut10into_slice17ha11b0b0fda5c3d22E, symObjAddr: 0x35980, symBinAddr: 0x3B040, symSize: 0x10 }
  - { offset: 0x10CF4B, size: 0x8, addend: 0x0, symName: '__ZN53_$LT$std..io..IoSlice$u20$as$u20$core..fmt..Debug$GT$3fmt17h216d741a06373be4E', symObjAddr: 0x35990, symBinAddr: 0x3B050, symSize: 0x80 }
  - { offset: 0x10D007, size: 0x8, addend: 0x0, symName: __ZN3std2io10read_until17hc74463da42b779f6E, symObjAddr: 0x36010, symBinAddr: 0x3B6D0, symSize: 0x400 }
  - { offset: 0x10D787, size: 0x8, addend: 0x0, symName: '__ZN3std4sync6poison4once4Once15call_once_force28_$u7b$$u7b$closure$u7d$$u7d$17h644fb25dc65166ddE', symObjAddr: 0x3F310, symBinAddr: 0x44850, symSize: 0x90 }
  - { offset: 0x10D8B7, size: 0x8, addend: 0x0, symName: '__ZN3std4sync6poison4once4Once15call_once_force28_$u7b$$u7b$closure$u7d$$u7d$17h6839f40e53008834E', symObjAddr: 0x3F3A0, symBinAddr: 0x448E0, symSize: 0x90 }
  - { offset: 0x10D975, size: 0x8, addend: 0x0, symName: '__ZN3std4sync6poison4once4Once15call_once_force28_$u7b$$u7b$closure$u7d$$u7d$17h90f7b43e33cf8d03E', symObjAddr: 0x3F430, symBinAddr: 0x44970, symSize: 0xA0 }
  - { offset: 0x10DACA, size: 0x8, addend: 0x0, symName: '__ZN3std4sync6poison4once4Once9call_once28_$u7b$$u7b$closure$u7d$$u7d$17h1918750d73e255bbE', symObjAddr: 0x3EE80, symBinAddr: 0x443C0, symSize: 0x200 }
  - { offset: 0x10DE27, size: 0x8, addend: 0x0, symName: '__ZN3std4sync6poison4once4Once9call_once28_$u7b$$u7b$closure$u7d$$u7d$17hadd7c0d0dd132007E', symObjAddr: 0x3F080, symBinAddr: 0x445C0, symSize: 0x290 }
  - { offset: 0x10E61E, size: 0x8, addend: 0x0, symName: __ZN3std4sync6poison4once4Once4wait17h7cafe98b8e047115E, symObjAddr: 0x3F4D0, symBinAddr: 0x44A10, symSize: 0x20 }
  - { offset: 0x10E67D, size: 0x8, addend: 0x0, symName: __ZN3std4sync6poison4once4Once10wait_force17h0cf8673a30e9fe68E, symObjAddr: 0x3F4F0, symBinAddr: 0x44A30, symSize: 0x30 }
  - { offset: 0x10E70A, size: 0x8, addend: 0x0, symName: '__ZN66_$LT$std..sync..poison..once..Once$u20$as$u20$core..fmt..Debug$GT$3fmt17h8d557062ffb0f747E', symObjAddr: 0x3F520, symBinAddr: 0x44A60, symSize: 0x30 }
  - { offset: 0x10E741, size: 0x8, addend: 0x0, symName: '__ZN71_$LT$std..sync..poison..once..OnceState$u20$as$u20$core..fmt..Debug$GT$3fmt17hb7148f86a467116fE', symObjAddr: 0x3F550, symBinAddr: 0x44A90, symSize: 0x60 }
  - { offset: 0x10E9C0, size: 0x8, addend: 0x0, symName: '__ZN3std4sync6poison6rwlock15RwLock$LT$T$GT$5write17h450f8aefab44bd02E', symObjAddr: 0x3F5B0, symBinAddr: 0x44AF0, symSize: 0x250 }
  - { offset: 0x10F0D6, size: 0x8, addend: 0x0, symName: '__ZN3std4sync6poison6rwlock15RwLock$LT$T$GT$5write17hea65b00e5fae85fdE', symObjAddr: 0x3F800, symBinAddr: 0x44D40, symSize: 0x250 }
  - { offset: 0x10F84E, size: 0x8, addend: 0x0, symName: __ZN3std4sync6poison7condvar7Condvar10notify_one17hb22c170d1cf89b69E, symObjAddr: 0x3EDF0, symBinAddr: 0x44330, symSize: 0x30 }
  - { offset: 0x10F903, size: 0x8, addend: 0x0, symName: __ZN3std4sync6poison7condvar7Condvar10notify_all17hbbcff332ca3b3698E, symObjAddr: 0x3EE20, symBinAddr: 0x44360, symSize: 0x30 }
  - { offset: 0x10F9E0, size: 0x8, addend: 0x0, symName: '__ZN72_$LT$std..sync..poison..condvar..Condvar$u20$as$u20$core..fmt..Debug$GT$3fmt17hc53fe4b78be035c2E', symObjAddr: 0x3EE50, symBinAddr: 0x44390, symSize: 0x30 }
  - { offset: 0x10FA1F, size: 0x8, addend: 0x0, symName: '__ZN76_$LT$std..sync..poison..PoisonError$LT$T$GT$$u20$as$u20$core..fmt..Debug$GT$3fmt17hcac2f7de5834c9deE', symObjAddr: 0x3FA50, symBinAddr: 0x44F90, symSize: 0x30 }
  - { offset: 0x10FB3A, size: 0x8, addend: 0x0, symName: '__ZN3std4sync9once_lock17OnceLock$LT$T$GT$10initialize17h4d44292ebd6bdd16E', symObjAddr: 0x3FDD3, symBinAddr: 0x9C2D3, symSize: 0x56 }
  - { offset: 0x10FB67, size: 0x8, addend: 0x0, symName: '__ZN3std4sync9once_lock17OnceLock$LT$T$GT$10initialize17h4d44292ebd6bdd16E', symObjAddr: 0x3FDD3, symBinAddr: 0x9C2D3, symSize: 0x56 }
  - { offset: 0x10FB7C, size: 0x8, addend: 0x0, symName: '__ZN3std4sync9once_lock17OnceLock$LT$T$GT$10initialize17h4d44292ebd6bdd16E', symObjAddr: 0x3FDD3, symBinAddr: 0x9C2D3, symSize: 0x56 }
  - { offset: 0x10FB91, size: 0x8, addend: 0x0, symName: '__ZN3std4sync9once_lock17OnceLock$LT$T$GT$10initialize17h4d44292ebd6bdd16E', symObjAddr: 0x3FDD3, symBinAddr: 0x9C2D3, symSize: 0x56 }
  - { offset: 0x10FBA7, size: 0x8, addend: 0x0, symName: '__ZN3std4sync9once_lock17OnceLock$LT$T$GT$10initialize17hd06bc999316b8e4cE', symObjAddr: 0x3FE29, symBinAddr: 0x9C329, symSize: 0x5A }
  - { offset: 0x10FBD4, size: 0x8, addend: 0x0, symName: '__ZN3std4sync9once_lock17OnceLock$LT$T$GT$10initialize17hd06bc999316b8e4cE', symObjAddr: 0x3FE29, symBinAddr: 0x9C329, symSize: 0x5A }
  - { offset: 0x10FBE9, size: 0x8, addend: 0x0, symName: '__ZN3std4sync9once_lock17OnceLock$LT$T$GT$10initialize17hd06bc999316b8e4cE', symObjAddr: 0x3FE29, symBinAddr: 0x9C329, symSize: 0x5A }
  - { offset: 0x10FBFE, size: 0x8, addend: 0x0, symName: '__ZN3std4sync9once_lock17OnceLock$LT$T$GT$10initialize17hd06bc999316b8e4cE', symObjAddr: 0x3FE29, symBinAddr: 0x9C329, symSize: 0x5A }
  - { offset: 0x10FC14, size: 0x8, addend: 0x0, symName: '__ZN3std4sync9once_lock17OnceLock$LT$T$GT$10initialize17he358d20e91850a4aE', symObjAddr: 0x3FE83, symBinAddr: 0x9C383, symSize: 0x5D }
  - { offset: 0x10FC41, size: 0x8, addend: 0x0, symName: '__ZN3std4sync9once_lock17OnceLock$LT$T$GT$10initialize17he358d20e91850a4aE', symObjAddr: 0x3FE83, symBinAddr: 0x9C383, symSize: 0x5D }
  - { offset: 0x10FC56, size: 0x8, addend: 0x0, symName: '__ZN3std4sync9once_lock17OnceLock$LT$T$GT$10initialize17he358d20e91850a4aE', symObjAddr: 0x3FE83, symBinAddr: 0x9C383, symSize: 0x5D }
  - { offset: 0x10FC6B, size: 0x8, addend: 0x0, symName: '__ZN3std4sync9once_lock17OnceLock$LT$T$GT$10initialize17he358d20e91850a4aE', symObjAddr: 0x3FE83, symBinAddr: 0x9C383, symSize: 0x5D }
  - { offset: 0x10FE61, size: 0x8, addend: 0x0, symName: __ZN3std4sync9lazy_lock14panic_poisoned17h73347b593303d2daE, symObjAddr: 0x3FD90, symBinAddr: 0x9C290, symSize: 0x43 }
  - { offset: 0x10FEA6, size: 0x8, addend: 0x0, symName: __ZN3std4sync4mpmc7context7Context3new17hb143b188f675f9aaE, symObjAddr: 0x3EBC0, symBinAddr: 0x9C130, symSize: 0x160 }
  - { offset: 0x1101CA, size: 0x8, addend: 0x0, symName: '__ZN69_$LT$std..sync..mpmc..zero..ZeroToken$u20$as$u20$core..fmt..Debug$GT$3fmt17h8c4f4c7793837472E', symObjAddr: 0x3ED20, symBinAddr: 0x44260, symSize: 0x50 }
  - { offset: 0x110217, size: 0x8, addend: 0x0, symName: '__ZN65_$LT$std..sync..mpsc..RecvError$u20$as$u20$core..fmt..Display$GT$3fmt17hbccd9927dc16c43dE', symObjAddr: 0x3ED70, symBinAddr: 0x442B0, symSize: 0x20 }
  - { offset: 0x110239, size: 0x8, addend: 0x0, symName: '__ZN68_$LT$std..sync..mpsc..TryRecvError$u20$as$u20$core..fmt..Display$GT$3fmt17h0d3314e2052a5825E', symObjAddr: 0x3ED90, symBinAddr: 0x442D0, symSize: 0x30 }
  - { offset: 0x11025B, size: 0x8, addend: 0x0, symName: '__ZN72_$LT$std..sync..mpsc..RecvTimeoutError$u20$as$u20$core..fmt..Display$GT$3fmt17h3063b0ba5be6b79bE', symObjAddr: 0x3EDC0, symBinAddr: 0x44300, symSize: 0x30 }
  - { offset: 0x110284, size: 0x8, addend: 0x0, symName: '__ZN64_$LT$std..sync..barrier..Barrier$u20$as$u20$core..fmt..Debug$GT$3fmt17h2a98c414fae5d01eE', symObjAddr: 0x3FA80, symBinAddr: 0x44FC0, symSize: 0x30 }
  - { offset: 0x1102C0, size: 0x8, addend: 0x0, symName: __ZN3std4sync7barrier7Barrier4wait17he5294daface4c37dE, symObjAddr: 0x3FAB0, symBinAddr: 0x44FF0, symSize: 0x280 }
  - { offset: 0x110815, size: 0x8, addend: 0x0, symName: '__ZN74_$LT$std..sync..barrier..BarrierWaitResult$u20$as$u20$core..fmt..Debug$GT$3fmt17hf921d8e607802cf5E', symObjAddr: 0x3FD30, symBinAddr: 0x45270, symSize: 0x60 }
  - { offset: 0x110885, size: 0x8, addend: 0x0, symName: '__ZN64_$LT$std..backtrace..Backtrace$u20$as$u20$core..fmt..Display$GT$3fmt17h5d322e72ac3ebcfaE', symObjAddr: 0x29B50, symBinAddr: 0x2F530, symSize: 0x560 }
  - { offset: 0x1111F4, size: 0x8, addend: 0x0, symName: '__ZN62_$LT$std..backtrace..Backtrace$u20$as$u20$core..fmt..Debug$GT$3fmt17h8066124140eaf355E', symObjAddr: 0x28F60, symBinAddr: 0x2E940, symSize: 0x1B0 }
  - { offset: 0x111448, size: 0x8, addend: 0x0, symName: '__ZN67_$LT$std..backtrace..BacktraceFrame$u20$as$u20$core..fmt..Debug$GT$3fmt17h88366646d1bb8c07E', symObjAddr: 0x29110, symBinAddr: 0x2EAF0, symSize: 0x90 }
  - { offset: 0x1114BD, size: 0x8, addend: 0x0, symName: '__ZN68_$LT$std..backtrace..BacktraceSymbol$u20$as$u20$core..fmt..Debug$GT$3fmt17hd6e59b8dcaed86a5E', symObjAddr: 0x291A0, symBinAddr: 0x2EB80, symSize: 0x2F0 }
  - { offset: 0x1116C8, size: 0x8, addend: 0x0, symName: '__ZN64_$LT$std..backtrace..BytesOrWide$u20$as$u20$core..fmt..Debug$GT$3fmt17hb77e1114024e1d09E', symObjAddr: 0x29490, symBinAddr: 0x2EE70, symSize: 0x120 }
  - { offset: 0x111A0D, size: 0x8, addend: 0x0, symName: __ZN3std9backtrace9Backtrace7capture17hecc8210d37c0a7caE, symObjAddr: 0x295B0, symBinAddr: 0x2EF90, symSize: 0x220 }
  - { offset: 0x111EA4, size: 0x8, addend: 0x0, symName: __ZN3std9backtrace9Backtrace13force_capture17hd5ad8a432ef3b860E, symObjAddr: 0x297D0, symBinAddr: 0x2F1B0, symSize: 0x20 }
  - { offset: 0x111EBF, size: 0x8, addend: 0x0, symName: __ZN3std9backtrace9Backtrace6create17h96fa9a48bb318041E, symObjAddr: 0x297F0, symBinAddr: 0x2F1D0, symSize: 0x190 }
  - { offset: 0x112247, size: 0x8, addend: 0x0, symName: __ZN3std9backtrace9Backtrace6frames17h5ae6b1a0adea894dE, symObjAddr: 0x29AE0, symBinAddr: 0x2F4C0, symSize: 0x70 }
  - { offset: 0x112337, size: 0x8, addend: 0x0, symName: '__ZN3std9backtrace9Backtrace6create28_$u7b$$u7b$closure$u7d$$u7d$17hdaa22d0630686063E', symObjAddr: 0x29980, symBinAddr: 0x2F360, symSize: 0x160 }
  - { offset: 0x11250D, size: 0x8, addend: 0x0, symName: '__ZN3std9backtrace6helper12lazy_resolve28_$u7b$$u7b$closure$u7d$$u7d$28_$u7b$$u7b$closure$u7d$$u7d$17h62f13df950eec870E', symObjAddr: 0x465C0, symBinAddr: 0x4AF60, symSize: 0x230 }
  - { offset: 0x1129A8, size: 0x8, addend: 0x0, symName: '__ZN89_$LT$std..backtrace_rs..symbolize..gimli..mmap..Mmap$u20$as$u20$core..ops..drop..Drop$GT$4drop17ha575b71bcf2ccbd6E', symObjAddr: 0x58440, symBinAddr: 0x5C460, symSize: 0x20 }
  - { offset: 0x1129D7, size: 0x8, addend: 0x0, symName: '__ZN91_$LT$std..backtrace_rs..symbolize..gimli..mmap..Mmap$u20$as$u20$core..ops..deref..Deref$GT$5deref17h098e3d066cb40b15E', symObjAddr: 0x58430, symBinAddr: 0x5C450, symSize: 0x10 }
  - { offset: 0x112AC5, size: 0x8, addend: 0x0, symName: __ZN3std12backtrace_rs9symbolize5gimli7Context3new17h4657e0661bc97f13E, symObjAddr: 0x51C34, symBinAddr: 0x55C54, symSize: 0x2F8C }
  - { offset: 0x116B61, size: 0x8, addend: 0x0, symName: __ZN3std12backtrace_rs9symbolize5gimli7Context11find_frames17h49111c2044bca4b2E, symObjAddr: 0x54BC0, symBinAddr: 0x58BE0, symSize: 0x3E0 }
  - { offset: 0x116FC9, size: 0x8, addend: 0x0, symName: __ZN3std12backtrace_rs9symbolize5gimli5macho6Object5parse17hbf81947b401a8097E, symObjAddr: 0x585F0, symBinAddr: 0x5C610, symSize: 0xF20 }
  - { offset: 0x119044, size: 0x8, addend: 0x0, symName: __ZN3std12backtrace_rs9symbolize5gimli5macho6Object7section17ha8561f019458fe51E, symObjAddr: 0x59510, symBinAddr: 0x5D530, symSize: 0x169 }
  - { offset: 0x1194B0, size: 0x8, addend: 0x0, symName: __ZN3std12backtrace_rs9symbolize5gimli5macho11find_header17hc4751075e4be546aE, symObjAddr: 0x58460, symBinAddr: 0x5C480, symSize: 0x190 }
  - { offset: 0x119D16, size: 0x8, addend: 0x0, symName: __ZN3std12backtrace_rs9symbolize5gimli4mmap17h0b3aada75375d4c5E, symObjAddr: 0x54FA0, symBinAddr: 0x58FC0, symSize: 0x1B0 }
  - { offset: 0x11A3F4, size: 0x8, addend: 0x0, symName: __ZN3std12backtrace_rs9symbolize5gimli7resolve17h56f3007a9a984cadE, symObjAddr: 0x55150, symBinAddr: 0x59170, symSize: 0x32E0 }
  - { offset: 0x120FF8, size: 0x8, addend: 0x0, symName: __ZN3std12backtrace_rs9symbolize6Symbol4name17h968ea4a6e9a71e4dE, symObjAddr: 0x45C70, symBinAddr: 0x4A610, symSize: 0x110 }
  - { offset: 0x1210A2, size: 0x8, addend: 0x0, symName: __ZN3std12backtrace_rs9symbolize6Symbol12filename_raw17hb232319b74e0f26eE, symObjAddr: 0x45D80, symBinAddr: 0x4A720, symSize: 0x40 }
  - { offset: 0x121118, size: 0x8, addend: 0x0, symName: '__ZN73_$LT$std..backtrace_rs..symbolize..Symbol$u20$as$u20$core..fmt..Debug$GT$3fmt17h11f2f8aa3178f470E', symObjAddr: 0x45DC0, symBinAddr: 0x4A760, symSize: 0xF0 }
  - { offset: 0x121191, size: 0x8, addend: 0x0, symName: '__ZN79_$LT$std..backtrace_rs..symbolize..SymbolName$u20$as$u20$core..fmt..Display$GT$3fmt17h576e5befc762f1b5E', symObjAddr: 0x45EB0, symBinAddr: 0x4A850, symSize: 0xE0 }
  - { offset: 0x12127C, size: 0x8, addend: 0x0, symName: '__ZN77_$LT$std..backtrace_rs..symbolize..SymbolName$u20$as$u20$core..fmt..Debug$GT$3fmt17h35dcd378c815a6ccE', symObjAddr: 0x45F90, symBinAddr: 0x4A930, symSize: 0xE0 }
  - { offset: 0x1213A2, size: 0x8, addend: 0x0, symName: '__ZN87_$LT$std..backtrace_rs..backtrace..libunwind..Bomb$u20$as$u20$core..ops..drop..Drop$GT$4drop17h38e9d137b3b3b673E', symObjAddr: 0x51BA0, symBinAddr: 0x55BC0, symSize: 0x50 }
  - { offset: 0x12141B, size: 0x8, addend: 0x0, symName: '__ZN85_$LT$std..backtrace_rs..backtrace..libunwind..Frame$u20$as$u20$core..clone..Clone$GT$5clone17h0b3da9ab32e27c9cE', symObjAddr: 0x51B30, symBinAddr: 0x55B50, symSize: 0x70 }
  - { offset: 0x121481, size: 0x8, addend: 0x0, symName: __ZN3std12backtrace_rs9backtrace9libunwind5trace8trace_fn17h5537ddf38bb1e514E, symObjAddr: 0x51BF0, symBinAddr: 0x55C10, symSize: 0x44 }
  - { offset: 0x121508, size: 0x8, addend: 0x0, symName: '__ZN72_$LT$std..backtrace_rs..backtrace..Frame$u20$as$u20$core..fmt..Debug$GT$3fmt17h37c4e931b7e1dda4E', symObjAddr: 0x45BA0, symBinAddr: 0x4A540, symSize: 0xD0 }
  - { offset: 0x12160E, size: 0x8, addend: 0x0, symName: __ZN3std12backtrace_rs5print17BacktraceFrameFmt21print_raw_with_column17h07d72e694145267cE, symObjAddr: 0x46070, symBinAddr: 0x4AA10, symSize: 0x340 }
  - { offset: 0x121745, size: 0x8, addend: 0x0, symName: __ZN3std12backtrace_rs5print17BacktraceFrameFmt14print_fileline17hcd90da2d45218cb3E, symObjAddr: 0x463B0, symBinAddr: 0x4AD50, symSize: 0x1D0 }
  - { offset: 0x12190F, size: 0x8, addend: 0x0, symName: __ZN3std6thread7current11set_current17h7c67caf58a77017dE, symObjAddr: 0x27AF0, symBinAddr: 0x2D730, symSize: 0x80 }
  - { offset: 0x121AFF, size: 0x8, addend: 0x0, symName: __ZN3std6thread7current16try_with_current17h072d283d613c849aE, symObjAddr: 0x27B70, symBinAddr: 0x2D7B0, symSize: 0x70 }
  - { offset: 0x121C2A, size: 0x8, addend: 0x0, symName: __ZN3std6thread7current18current_or_unnamed17h87569aa7b905e4a1E, symObjAddr: 0x27BE0, symBinAddr: 0x2D820, symSize: 0xB0 }
  - { offset: 0x121E07, size: 0x8, addend: 0x0, symName: __ZN3std6thread7current7current17h2ab9a211f9e04d47E, symObjAddr: 0x27C90, symBinAddr: 0x2D8D0, symSize: 0x30 }
  - { offset: 0x121EA0, size: 0x8, addend: 0x0, symName: __ZN3std6thread7current12init_current17h062077e00860a194E, symObjAddr: 0x27CC0, symBinAddr: 0x9BC80, symSize: 0x160 }
  - { offset: 0x122252, size: 0x8, addend: 0x0, symName: __ZN3std6thread8ThreadId3new17h9c9838c702a08863E, symObjAddr: 0x28A10, symBinAddr: 0x2E440, symSize: 0x40 }
  - { offset: 0x12226A, size: 0x8, addend: 0x0, symName: __ZN3std6thread8ThreadId3new17h9c9838c702a08863E, symObjAddr: 0x28A10, symBinAddr: 0x2E440, symSize: 0x40 }
  - { offset: 0x122280, size: 0x8, addend: 0x0, symName: __ZN3std6thread8ThreadId3new17h9c9838c702a08863E, symObjAddr: 0x28A10, symBinAddr: 0x2E440, symSize: 0x40 }
  - { offset: 0x122452, size: 0x8, addend: 0x0, symName: '__ZN68_$LT$std..thread..local..AccessError$u20$as$u20$core..fmt..Debug$GT$3fmt17he953d47e39f0346dE', symObjAddr: 0x28420, symBinAddr: 0x2DF00, symSize: 0x30 }
  - { offset: 0x122473, size: 0x8, addend: 0x0, symName: '__ZN70_$LT$std..thread..local..AccessError$u20$as$u20$core..fmt..Display$GT$3fmt17h70c61d400fbc7ed3E', symObjAddr: 0x28450, symBinAddr: 0x2DF30, symSize: 0x20 }
  - { offset: 0x12248E, size: 0x8, addend: 0x0, symName: __ZN3std6thread5local18panic_access_error17h6a8d27d8152261efE, symObjAddr: 0x28470, symBinAddr: 0x9BDE0, symSize: 0x60 }
  - { offset: 0x1224EF, size: 0x8, addend: 0x0, symName: __ZN3std6thread6scoped9ScopeData29increment_num_running_threads17h02d9fc22a9803976E, symObjAddr: 0x279A0, symBinAddr: 0x2D630, symSize: 0x20 }
  - { offset: 0x12250D, size: 0x8, addend: 0x0, symName: __ZN3std6thread6scoped9ScopeData29increment_num_running_threads17h02d9fc22a9803976E, symObjAddr: 0x279A0, symBinAddr: 0x2D630, symSize: 0x20 }
  - { offset: 0x122522, size: 0x8, addend: 0x0, symName: __ZN3std6thread6scoped9ScopeData29increment_num_running_threads17h02d9fc22a9803976E, symObjAddr: 0x279A0, symBinAddr: 0x2D630, symSize: 0x20 }
  - { offset: 0x122536, size: 0x8, addend: 0x0, symName: __ZN3std6thread6scoped9ScopeData8overflow17h2dbfe2b1e27ebc6fE, symObjAddr: 0x279C0, symBinAddr: 0x9BC30, symSize: 0x50 }
  - { offset: 0x122566, size: 0x8, addend: 0x0, symName: __ZN3std6thread6scoped9ScopeData29decrement_num_running_threads17h5327b2df72918039E, symObjAddr: 0x27A10, symBinAddr: 0x2D650, symSize: 0x30 }
  - { offset: 0x122684, size: 0x8, addend: 0x0, symName: '__ZN63_$LT$std..thread..scoped..Scope$u20$as$u20$core..fmt..Debug$GT$3fmt17hb9f9ee9976faecfbE', symObjAddr: 0x27A40, symBinAddr: 0x2D680, symSize: 0xB0 }
  - { offset: 0x12279A, size: 0x8, addend: 0x0, symName: __ZN3std6thread6Thread3new17h7409aca2059b2499E, symObjAddr: 0x28BA0, symBinAddr: 0x2E580, symSize: 0x150 }
  - { offset: 0x122AAD, size: 0x8, addend: 0x0, symName: __ZN3std6thread6Thread4park17hc76e890540e42097E, symObjAddr: 0x28CF0, symBinAddr: 0x2E6D0, symSize: 0x40 }
  - { offset: 0x122B8C, size: 0x8, addend: 0x0, symName: __ZN3std6thread6Thread12park_timeout17h0c087dfa33b2c504E, symObjAddr: 0x28D30, symBinAddr: 0x2E710, symSize: 0x90 }
  - { offset: 0x122CAC, size: 0x8, addend: 0x0, symName: __ZN3std6thread6Thread4name17hf014553d1df3c564E, symObjAddr: 0x28DC0, symBinAddr: 0x2E7A0, symSize: 0x40 }
  - { offset: 0x122DFE, size: 0x8, addend: 0x0, symName: __ZN3std6thread6Thread8from_raw17h33d2513ff5011822E, symObjAddr: 0x28E00, symBinAddr: 0x2E7E0, symSize: 0x10 }
  - { offset: 0x122E6E, size: 0x8, addend: 0x0, symName: __ZN3std6thread6Thread5cname17h0f1bbffce1688ba4E, symObjAddr: 0x28E10, symBinAddr: 0x2E7F0, symSize: 0x40 }
  - { offset: 0x1230BF, size: 0x8, addend: 0x0, symName: '__ZN118_$LT$std..thread..thread_name_string..ThreadNameString$u20$as$u20$core..convert..From$LT$alloc..string..String$GT$$GT$4from17he03af7f43b67a99fE', symObjAddr: 0x28AA0, symBinAddr: 0x2E480, symSize: 0x100 }
  - { offset: 0x1232D7, size: 0x8, addend: 0x0, symName: '__ZN76_$LT$std..thread..spawnhook..SpawnHooks$u20$as$u20$core..ops..drop..Drop$GT$4drop17h023183d5a3c3b124E', symObjAddr: 0x27E20, symBinAddr: 0x2D900, symSize: 0xE0 }
  - { offset: 0x123658, size: 0x8, addend: 0x0, symName: __ZN3std6thread9spawnhook15run_spawn_hooks17hc59188b867ae9982E, symObjAddr: 0x27F00, symBinAddr: 0x2D9E0, symSize: 0x2E0 }
  - { offset: 0x123C62, size: 0x8, addend: 0x0, symName: __ZN3std6thread9spawnhook15ChildSpawnHooks3run17h0efce7cb506f67c6E, symObjAddr: 0x281E0, symBinAddr: 0x2DCC0, symSize: 0x240 }
  - { offset: 0x12434D, size: 0x8, addend: 0x0, symName: __ZN3std6thread7Builder4name17h3ef7ab7d1a369cceE, symObjAddr: 0x284D0, symBinAddr: 0x2DF50, symSize: 0xA0 }
  - { offset: 0x124419, size: 0x8, addend: 0x0, symName: __ZN3std6thread9yield_now17hff79a00c192fc30fE, symObjAddr: 0x28570, symBinAddr: 0x2DFF0, symSize: 0x10 }
  - { offset: 0x124459, size: 0x8, addend: 0x0, symName: __ZN3std6thread8sleep_ms17hc2512b16604335caE, symObjAddr: 0x28580, symBinAddr: 0x2E000, symSize: 0xD0 }
  - { offset: 0x1244E4, size: 0x8, addend: 0x0, symName: __ZN3std6thread5sleep17h59c0c1691efcc0efE, symObjAddr: 0x28650, symBinAddr: 0x2E0D0, symSize: 0xC0 }
  - { offset: 0x12454B, size: 0x8, addend: 0x0, symName: __ZN3std6thread11sleep_until17h885dca401b625643E, symObjAddr: 0x28710, symBinAddr: 0x2E190, symSize: 0xE0 }
  - { offset: 0x124628, size: 0x8, addend: 0x0, symName: '__ZN65_$LT$std..thread..PanicGuard$u20$as$u20$core..ops..drop..Drop$GT$4drop17haf9d32fdb9c6b73eE', symObjAddr: 0x287F0, symBinAddr: 0x9BE40, symSize: 0x50 }
  - { offset: 0x12465B, size: 0x8, addend: 0x0, symName: __ZN3std6thread4park17h72ea0e8d616c6babE, symObjAddr: 0x28840, symBinAddr: 0x2E270, symSize: 0xA0 }
  - { offset: 0x124827, size: 0x8, addend: 0x0, symName: __ZN3std6thread15park_timeout_ms17h823e8afe04bc3051E, symObjAddr: 0x288E0, symBinAddr: 0x2E310, symSize: 0x30 }
  - { offset: 0x124859, size: 0x8, addend: 0x0, symName: __ZN3std6thread12park_timeout17h9f29628179a27066E, symObjAddr: 0x28910, symBinAddr: 0x2E340, symSize: 0x100 }
  - { offset: 0x124A72, size: 0x8, addend: 0x0, symName: __ZN3std6thread8ThreadId3new9exhausted17h93673a16a10c0468E, symObjAddr: 0x28A50, symBinAddr: 0x9BE90, symSize: 0x50 }
  - { offset: 0x124AAC, size: 0x8, addend: 0x0, symName: '__ZN56_$LT$std..thread..Thread$u20$as$u20$core..fmt..Debug$GT$3fmt17h4b92266edba634aeE', symObjAddr: 0x28E50, symBinAddr: 0x2E830, symSize: 0xC0 }
  - { offset: 0x124C34, size: 0x8, addend: 0x0, symName: __ZN3std6thread21available_parallelism17he1f69ed69e21309bE, symObjAddr: 0x28F10, symBinAddr: 0x2E8F0, symSize: 0x50 }
  - { offset: 0x124CF7, size: 0x8, addend: 0x0, symName: '__ZN58_$LT$std..thread..ThreadId$u20$as$u20$core..fmt..Debug$GT$3fmt17h935c966c5f267b3fE', symObjAddr: 0x46580, symBinAddr: 0x4AF20, symSize: 0x40 }
  - { offset: 0x124D28, size: 0x8, addend: 0x0, symName: __ZN3std2rt15handle_rt_panic17h598c0ac465bf5803E, symObjAddr: 0x272E0, symBinAddr: 0x9BBE0, symSize: 0x50 }
  - { offset: 0x124D5A, size: 0x8, addend: 0x0, symName: __ZN3std2rt7cleanup17hc4e451d200d38b55E, symObjAddr: 0x27330, symBinAddr: 0x2CFC0, symSize: 0x50 }
  - { offset: 0x124D7F, size: 0x8, addend: 0x0, symName: __ZN3std2rt7cleanup17hc4e451d200d38b55E, symObjAddr: 0x27330, symBinAddr: 0x2CFC0, symSize: 0x50 }
  - { offset: 0x124D94, size: 0x8, addend: 0x0, symName: __ZN3std2rt7cleanup17hc4e451d200d38b55E, symObjAddr: 0x27330, symBinAddr: 0x2CFC0, symSize: 0x50 }
  - { offset: 0x124DA9, size: 0x8, addend: 0x0, symName: __ZN3std2rt7cleanup17hc4e451d200d38b55E, symObjAddr: 0x27330, symBinAddr: 0x2CFC0, symSize: 0x50 }
  - { offset: 0x124E22, size: 0x8, addend: 0x0, symName: __ZN3std2rt19lang_start_internal17ha8dd1a9b824efcdaE, symObjAddr: 0x27380, symBinAddr: 0x2D010, symSize: 0x620 }
  - { offset: 0x125A38, size: 0x8, addend: 0x0, symName: '__ZN64_$LT$std..panic..PanicHookInfo$u20$as$u20$core..fmt..Display$GT$3fmt17h5e69cea522bbe04bE', symObjAddr: 0x3A0B0, symBinAddr: 0x3F770, symSize: 0x150 }
  - { offset: 0x125D07, size: 0x8, addend: 0x0, symName: __ZN3std5panic13resume_unwind17h0b3828d79b810db3E, symObjAddr: 0x3A200, symBinAddr: 0x9C110, symSize: 0x10 }
  - { offset: 0x125D22, size: 0x8, addend: 0x0, symName: __ZN3std5panic12always_abort17hb67e46d88a694bd8E, symObjAddr: 0x3A210, symBinAddr: 0x3F8C0, symSize: 0x20 }
  - { offset: 0x125D9E, size: 0x8, addend: 0x0, symName: __ZN3std5panic19set_backtrace_style17he95290a4b26ffba7E, symObjAddr: 0x3A230, symBinAddr: 0x3F8E0, symSize: 0x10 }
  - { offset: 0x125DFD, size: 0x8, addend: 0x0, symName: __ZN3std5panic19get_backtrace_style17h69e410f488807a78E, symObjAddr: 0x3A240, symBinAddr: 0x3F8F0, symSize: 0xD0 }
  - { offset: 0x125E1C, size: 0x8, addend: 0x0, symName: __ZN3std5panic19get_backtrace_style17h69e410f488807a78E, symObjAddr: 0x3A240, symBinAddr: 0x3F8F0, symSize: 0xD0 }
  - { offset: 0x125E32, size: 0x8, addend: 0x0, symName: __ZN3std5panic19get_backtrace_style17h69e410f488807a78E, symObjAddr: 0x3A240, symBinAddr: 0x3F8F0, symSize: 0xD0 }
  - { offset: 0x1260E7, size: 0x8, addend: 0x0, symName: __ZN3std4time7Instant3now17h8098ce3e0834c4feE, symObjAddr: 0x3FEE0, symBinAddr: 0x452D0, symSize: 0x10 }
  - { offset: 0x126112, size: 0x8, addend: 0x0, symName: __ZN3std4time7Instant14duration_since17hea9e87b83a4824b2E, symObjAddr: 0x3FEF0, symBinAddr: 0x452E0, symSize: 0x40 }
  - { offset: 0x12616A, size: 0x8, addend: 0x0, symName: __ZN3std4time7Instant22checked_duration_since17hf32990611787b28aE, symObjAddr: 0x3FF30, symBinAddr: 0x45320, symSize: 0x40 }
  - { offset: 0x1261AC, size: 0x8, addend: 0x0, symName: __ZN3std4time7Instant7elapsed17h83a1c4fe5296b293E, symObjAddr: 0x3FF70, symBinAddr: 0x45360, symSize: 0x60 }
  - { offset: 0x126290, size: 0x8, addend: 0x0, symName: '__ZN60_$LT$std..time..Instant$u20$as$u20$core..ops..arith..Sub$GT$3sub17h53ee577d0a8cc33cE', symObjAddr: 0x40120, symBinAddr: 0x45510, symSize: 0x40 }
  - { offset: 0x126306, size: 0x8, addend: 0x0, symName: '__ZN88_$LT$std..time..Instant$u20$as$u20$core..ops..arith..Add$LT$core..time..Duration$GT$$GT$3add17h25889d346720ec26E', symObjAddr: 0x3FFD0, symBinAddr: 0x453C0, symSize: 0x50 }
  - { offset: 0x12631E, size: 0x8, addend: 0x0, symName: '__ZN88_$LT$std..time..Instant$u20$as$u20$core..ops..arith..Add$LT$core..time..Duration$GT$$GT$3add17h25889d346720ec26E', symObjAddr: 0x3FFD0, symBinAddr: 0x453C0, symSize: 0x50 }
  - { offset: 0x126334, size: 0x8, addend: 0x0, symName: '__ZN88_$LT$std..time..Instant$u20$as$u20$core..ops..arith..Add$LT$core..time..Duration$GT$$GT$3add17h25889d346720ec26E', symObjAddr: 0x3FFD0, symBinAddr: 0x453C0, symSize: 0x50 }
  - { offset: 0x12634A, size: 0x8, addend: 0x0, symName: '__ZN88_$LT$std..time..Instant$u20$as$u20$core..ops..arith..Add$LT$core..time..Duration$GT$$GT$3add17h25889d346720ec26E', symObjAddr: 0x3FFD0, symBinAddr: 0x453C0, symSize: 0x50 }
  - { offset: 0x126360, size: 0x8, addend: 0x0, symName: '__ZN88_$LT$std..time..Instant$u20$as$u20$core..ops..arith..Add$LT$core..time..Duration$GT$$GT$3add17h25889d346720ec26E', symObjAddr: 0x3FFD0, symBinAddr: 0x453C0, symSize: 0x50 }
  - { offset: 0x126375, size: 0x8, addend: 0x0, symName: '__ZN88_$LT$std..time..Instant$u20$as$u20$core..ops..arith..Add$LT$core..time..Duration$GT$$GT$3add17h25889d346720ec26E', symObjAddr: 0x3FFD0, symBinAddr: 0x453C0, symSize: 0x50 }
  - { offset: 0x12638B, size: 0x8, addend: 0x0, symName: '__ZN88_$LT$std..time..Instant$u20$as$u20$core..ops..arith..Add$LT$core..time..Duration$GT$$GT$3add17h25889d346720ec26E', symObjAddr: 0x3FFD0, symBinAddr: 0x453C0, symSize: 0x50 }
  - { offset: 0x126426, size: 0x8, addend: 0x0, symName: '__ZN94_$LT$std..time..Instant$u20$as$u20$core..ops..arith..AddAssign$LT$core..time..Duration$GT$$GT$10add_assign17hb3c7015c942a16a6E', symObjAddr: 0x40020, symBinAddr: 0x45410, symSize: 0x50 }
  - { offset: 0x12654E, size: 0x8, addend: 0x0, symName: '__ZN88_$LT$std..time..Instant$u20$as$u20$core..ops..arith..Sub$LT$core..time..Duration$GT$$GT$3sub17h668374fa06333069E', symObjAddr: 0x40070, symBinAddr: 0x45460, symSize: 0x50 }
  - { offset: 0x126590, size: 0x8, addend: 0x0, symName: '__ZN88_$LT$std..time..Instant$u20$as$u20$core..ops..arith..Sub$LT$core..time..Duration$GT$$GT$3sub17h668374fa06333069E', symObjAddr: 0x40070, symBinAddr: 0x45460, symSize: 0x50 }
  - { offset: 0x1265A5, size: 0x8, addend: 0x0, symName: '__ZN88_$LT$std..time..Instant$u20$as$u20$core..ops..arith..Sub$LT$core..time..Duration$GT$$GT$3sub17h668374fa06333069E', symObjAddr: 0x40070, symBinAddr: 0x45460, symSize: 0x50 }
  - { offset: 0x1265BB, size: 0x8, addend: 0x0, symName: '__ZN88_$LT$std..time..Instant$u20$as$u20$core..ops..arith..Sub$LT$core..time..Duration$GT$$GT$3sub17h668374fa06333069E', symObjAddr: 0x40070, symBinAddr: 0x45460, symSize: 0x50 }
  - { offset: 0x126656, size: 0x8, addend: 0x0, symName: '__ZN94_$LT$std..time..Instant$u20$as$u20$core..ops..arith..SubAssign$LT$core..time..Duration$GT$$GT$10sub_assign17hf60512f68b0b82c9E', symObjAddr: 0x400C0, symBinAddr: 0x454B0, symSize: 0x60 }
  - { offset: 0x126766, size: 0x8, addend: 0x0, symName: '__ZN55_$LT$std..time..Instant$u20$as$u20$core..fmt..Debug$GT$3fmt17h5da942d3ac61c605E', symObjAddr: 0x40160, symBinAddr: 0x45550, symSize: 0x80 }
  - { offset: 0x12679F, size: 0x8, addend: 0x0, symName: __ZN3std4time10SystemTime3now17h563d5a7f551879c7E, symObjAddr: 0x401E0, symBinAddr: 0x455D0, symSize: 0x10 }
  - { offset: 0x1267CA, size: 0x8, addend: 0x0, symName: __ZN3std4time10SystemTime14duration_since17h30291fe00c26ee75E, symObjAddr: 0x401F0, symBinAddr: 0x455E0, symSize: 0x40 }
  - { offset: 0x126827, size: 0x8, addend: 0x0, symName: __ZN3std4time10SystemTime7elapsed17h835f9ffcf6f5c078E, symObjAddr: 0x40230, symBinAddr: 0x45620, symSize: 0x60 }
  - { offset: 0x1268B3, size: 0x8, addend: 0x0, symName: __ZN3std4time10SystemTime11checked_add17h27533a47e42a2336E, symObjAddr: 0x40290, symBinAddr: 0x45680, symSize: 0x40 }
  - { offset: 0x126990, size: 0x8, addend: 0x0, symName: __ZN3std4time10SystemTime11checked_sub17h57ae9f0146319830E, symObjAddr: 0x402D0, symBinAddr: 0x456C0, symSize: 0x40 }
  - { offset: 0x126A80, size: 0x8, addend: 0x0, symName: '__ZN91_$LT$std..time..SystemTime$u20$as$u20$core..ops..arith..Add$LT$core..time..Duration$GT$$GT$3add17hbf3201ef576f64fbE', symObjAddr: 0x40310, symBinAddr: 0x45700, symSize: 0x50 }
  - { offset: 0x126A98, size: 0x8, addend: 0x0, symName: '__ZN91_$LT$std..time..SystemTime$u20$as$u20$core..ops..arith..Add$LT$core..time..Duration$GT$$GT$3add17hbf3201ef576f64fbE', symObjAddr: 0x40310, symBinAddr: 0x45700, symSize: 0x50 }
  - { offset: 0x126AAE, size: 0x8, addend: 0x0, symName: '__ZN91_$LT$std..time..SystemTime$u20$as$u20$core..ops..arith..Add$LT$core..time..Duration$GT$$GT$3add17hbf3201ef576f64fbE', symObjAddr: 0x40310, symBinAddr: 0x45700, symSize: 0x50 }
  - { offset: 0x126AC4, size: 0x8, addend: 0x0, symName: '__ZN91_$LT$std..time..SystemTime$u20$as$u20$core..ops..arith..Add$LT$core..time..Duration$GT$$GT$3add17hbf3201ef576f64fbE', symObjAddr: 0x40310, symBinAddr: 0x45700, symSize: 0x50 }
  - { offset: 0x126AD9, size: 0x8, addend: 0x0, symName: '__ZN91_$LT$std..time..SystemTime$u20$as$u20$core..ops..arith..Add$LT$core..time..Duration$GT$$GT$3add17hbf3201ef576f64fbE', symObjAddr: 0x40310, symBinAddr: 0x45700, symSize: 0x50 }
  - { offset: 0x126AEE, size: 0x8, addend: 0x0, symName: '__ZN91_$LT$std..time..SystemTime$u20$as$u20$core..ops..arith..Add$LT$core..time..Duration$GT$$GT$3add17hbf3201ef576f64fbE', symObjAddr: 0x40310, symBinAddr: 0x45700, symSize: 0x50 }
  - { offset: 0x126B04, size: 0x8, addend: 0x0, symName: '__ZN91_$LT$std..time..SystemTime$u20$as$u20$core..ops..arith..Add$LT$core..time..Duration$GT$$GT$3add17hbf3201ef576f64fbE', symObjAddr: 0x40310, symBinAddr: 0x45700, symSize: 0x50 }
  - { offset: 0x126B9F, size: 0x8, addend: 0x0, symName: '__ZN97_$LT$std..time..SystemTime$u20$as$u20$core..ops..arith..AddAssign$LT$core..time..Duration$GT$$GT$10add_assign17h3fef6f0c6836bfecE', symObjAddr: 0x40360, symBinAddr: 0x45750, symSize: 0x50 }
  - { offset: 0x126CC6, size: 0x8, addend: 0x0, symName: '__ZN91_$LT$std..time..SystemTime$u20$as$u20$core..ops..arith..Sub$LT$core..time..Duration$GT$$GT$3sub17hd7ccbd47385d69f4E', symObjAddr: 0x403B0, symBinAddr: 0x457A0, symSize: 0x50 }
  - { offset: 0x126D07, size: 0x8, addend: 0x0, symName: '__ZN91_$LT$std..time..SystemTime$u20$as$u20$core..ops..arith..Sub$LT$core..time..Duration$GT$$GT$3sub17hd7ccbd47385d69f4E', symObjAddr: 0x403B0, symBinAddr: 0x457A0, symSize: 0x50 }
  - { offset: 0x126D1C, size: 0x8, addend: 0x0, symName: '__ZN91_$LT$std..time..SystemTime$u20$as$u20$core..ops..arith..Sub$LT$core..time..Duration$GT$$GT$3sub17hd7ccbd47385d69f4E', symObjAddr: 0x403B0, symBinAddr: 0x457A0, symSize: 0x50 }
  - { offset: 0x126D32, size: 0x8, addend: 0x0, symName: '__ZN91_$LT$std..time..SystemTime$u20$as$u20$core..ops..arith..Sub$LT$core..time..Duration$GT$$GT$3sub17hd7ccbd47385d69f4E', symObjAddr: 0x403B0, symBinAddr: 0x457A0, symSize: 0x50 }
  - { offset: 0x126DCD, size: 0x8, addend: 0x0, symName: '__ZN97_$LT$std..time..SystemTime$u20$as$u20$core..ops..arith..SubAssign$LT$core..time..Duration$GT$$GT$10sub_assign17h4ecbd6cc37ae5cfeE', symObjAddr: 0x40400, symBinAddr: 0x457F0, symSize: 0x60 }
  - { offset: 0x126EDC, size: 0x8, addend: 0x0, symName: '__ZN58_$LT$std..time..SystemTime$u20$as$u20$core..fmt..Debug$GT$3fmt17h0906fbfdc97daa72E', symObjAddr: 0x40460, symBinAddr: 0x45850, symSize: 0x80 }
  - { offset: 0x126F15, size: 0x8, addend: 0x0, symName: '__ZN65_$LT$std..time..SystemTimeError$u20$as$u20$core..fmt..Display$GT$3fmt17h9e7e29e37830fa3fE', symObjAddr: 0x404E0, symBinAddr: 0x458D0, symSize: 0x20 }
  - { offset: 0x126F77, size: 0x8, addend: 0x0, symName: __ZN3std3env11current_dir17h307eae62f49871c7E, symObjAddr: 0x2A0B0, symBinAddr: 0x2FA90, symSize: 0x1C0 }
  - { offset: 0x1273E3, size: 0x8, addend: 0x0, symName: __ZN3std3env4vars17h34c94643ebfd06f0E, symObjAddr: 0x2A270, symBinAddr: 0x2FC50, symSize: 0x20 }
  - { offset: 0x1273FD, size: 0x8, addend: 0x0, symName: __ZN3std3env7vars_os17heb45b54edd3c5f68E, symObjAddr: 0x2A290, symBinAddr: 0x2FC70, symSize: 0x3C0 }
  - { offset: 0x127B48, size: 0x8, addend: 0x0, symName: '__ZN75_$LT$std..env..VarsOs$u20$as$u20$core..iter..traits..iterator..Iterator$GT$4next17h920792739ea95564E', symObjAddr: 0x2A8F0, symBinAddr: 0x302D0, symSize: 0x60 }
  - { offset: 0x127BCF, size: 0x8, addend: 0x0, symName: '__ZN75_$LT$std..env..VarsOs$u20$as$u20$core..iter..traits..iterator..Iterator$GT$9size_hint17h8395adb45762cdebE', symObjAddr: 0x2A950, symBinAddr: 0x30330, symSize: 0x40 }
  - { offset: 0x127C6E, size: 0x8, addend: 0x0, symName: '__ZN73_$LT$std..env..Vars$u20$as$u20$core..iter..traits..iterator..Iterator$GT$4next17h40148b74f59aaf9bE', symObjAddr: 0x2A650, symBinAddr: 0x30030, symSize: 0x1E0 }
  - { offset: 0x1281CE, size: 0x8, addend: 0x0, symName: '__ZN73_$LT$std..env..Vars$u20$as$u20$core..iter..traits..iterator..Iterator$GT$9size_hint17h52d7c95799d50fa9E', symObjAddr: 0x2A830, symBinAddr: 0x30210, symSize: 0x40 }
  - { offset: 0x128275, size: 0x8, addend: 0x0, symName: '__ZN51_$LT$std..env..Vars$u20$as$u20$core..fmt..Debug$GT$3fmt17hb3a1c82c786471f3E', symObjAddr: 0x2A870, symBinAddr: 0x30250, symSize: 0x80 }
  - { offset: 0x128332, size: 0x8, addend: 0x0, symName: '__ZN53_$LT$std..env..VarsOs$u20$as$u20$core..fmt..Debug$GT$3fmt17h737083ff52bd43c8E', symObjAddr: 0x2A990, symBinAddr: 0x30370, symSize: 0x60 }
  - { offset: 0x12834D, size: 0x8, addend: 0x0, symName: __ZN3std3env4_var17he90bf2c3c573837eE, symObjAddr: 0x2A9F0, symBinAddr: 0x303D0, symSize: 0xA0 }
  - { offset: 0x128455, size: 0x8, addend: 0x0, symName: __ZN3std3env7_var_os17h5fb1eb7580ea39eaE, symObjAddr: 0x2AA90, symBinAddr: 0x30470, symSize: 0x170 }
  - { offset: 0x12873F, size: 0x8, addend: 0x0, symName: '__ZN57_$LT$std..env..VarError$u20$as$u20$core..fmt..Display$GT$3fmt17he4ef9e778efa8f2dE', symObjAddr: 0x2AC00, symBinAddr: 0x305E0, symSize: 0x80 }
  - { offset: 0x1287A5, size: 0x8, addend: 0x0, symName: '__ZN79_$LT$std..env..SplitPaths$u20$as$u20$core..iter..traits..iterator..Iterator$GT$4next17h5062b5eb2b564dd5E', symObjAddr: 0x2AC80, symBinAddr: 0x30660, symSize: 0xA0 }
  - { offset: 0x128918, size: 0x8, addend: 0x0, symName: '__ZN57_$LT$std..env..SplitPaths$u20$as$u20$core..fmt..Debug$GT$3fmt17hbe70f1d30f262b48E', symObjAddr: 0x2AD20, symBinAddr: 0x30700, symSize: 0x30 }
  - { offset: 0x12893A, size: 0x8, addend: 0x0, symName: '__ZN63_$LT$std..env..JoinPathsError$u20$as$u20$core..fmt..Display$GT$3fmt17ha7cab44bfa0d1c02E', symObjAddr: 0x2AD50, symBinAddr: 0x30730, symSize: 0x70 }
  - { offset: 0x1289BC, size: 0x8, addend: 0x0, symName: __ZN3std3env8home_dir17ha1b28063a6a3cdccE, symObjAddr: 0x2ADC0, symBinAddr: 0x307A0, symSize: 0x1D0 }
  - { offset: 0x128DA5, size: 0x8, addend: 0x0, symName: __ZN3std3env8temp_dir17hd0c8d5cb61786c06E, symObjAddr: 0x2AF90, symBinAddr: 0x30970, symSize: 0x200 }
  - { offset: 0x129253, size: 0x8, addend: 0x0, symName: __ZN3std3env11current_exe17h058f656174c9db19E, symObjAddr: 0x2B190, symBinAddr: 0x30B70, symSize: 0xF0 }
  - { offset: 0x12944F, size: 0x8, addend: 0x0, symName: __ZN3std3env4args17h8b2ae799000b4801E, symObjAddr: 0x2B280, symBinAddr: 0x30C60, symSize: 0x20 }
  - { offset: 0x12946A, size: 0x8, addend: 0x0, symName: __ZN3std3env7args_os17hb8178142d00b274eE, symObjAddr: 0x2B2A0, symBinAddr: 0x30C80, symSize: 0x230 }
  - { offset: 0x12999E, size: 0x8, addend: 0x0, symName: '__ZN73_$LT$std..env..Args$u20$as$u20$core..iter..traits..iterator..Iterator$GT$4next17hd6a78e490cae3a5dE', symObjAddr: 0x2B4D0, symBinAddr: 0x30EB0, symSize: 0xE0 }
  - { offset: 0x129C29, size: 0x8, addend: 0x0, symName: '__ZN88_$LT$std..env..Args$u20$as$u20$core..iter..traits..double_ended..DoubleEndedIterator$GT$9next_back17h94171caaae30d4eaE', symObjAddr: 0x2B5B0, symBinAddr: 0x30F90, symSize: 0xE0 }
  - { offset: 0x129E76, size: 0x8, addend: 0x0, symName: '__ZN51_$LT$std..env..Args$u20$as$u20$core..fmt..Debug$GT$3fmt17h3171f738be496bfeE', symObjAddr: 0x2B690, symBinAddr: 0x31070, symSize: 0x60 }
  - { offset: 0x129E98, size: 0x8, addend: 0x0, symName: '__ZN53_$LT$std..env..ArgsOs$u20$as$u20$core..fmt..Debug$GT$3fmt17hbc4fa140ffe79e7eE', symObjAddr: 0x2B6F0, symBinAddr: 0x310D0, symSize: 0x60 }
  - { offset: 0x129F23, size: 0x8, addend: 0x0, symName: __ZN3std2fs11OpenOptions5_open17h78bb62a80f647c98E, symObjAddr: 0x2D0C0, symBinAddr: 0x32AA0, symSize: 0x1D0 }
  - { offset: 0x12A15F, size: 0x8, addend: 0x0, symName: __ZN3std2fs4File8sync_all17h28eab6f78fa81e6cE, symObjAddr: 0x2C300, symBinAddr: 0x31CE0, symSize: 0x50 }
  - { offset: 0x12A28A, size: 0x8, addend: 0x0, symName: __ZN3std2fs4File4lock17he9aaf8da1f4e1c04E, symObjAddr: 0x2C350, symBinAddr: 0x31D30, symSize: 0x30 }
  - { offset: 0x12A334, size: 0x8, addend: 0x0, symName: __ZN3std2fs4File11lock_shared17h076ea44e13e89b67E, symObjAddr: 0x2C380, symBinAddr: 0x31D60, symSize: 0x30 }
  - { offset: 0x12A3DE, size: 0x8, addend: 0x0, symName: __ZN3std2fs4File8try_lock17hacc7ba0de8be423fE, symObjAddr: 0x2C3B0, symBinAddr: 0x31D90, symSize: 0x50 }
  - { offset: 0x12A49E, size: 0x8, addend: 0x0, symName: __ZN3std2fs4File15try_lock_shared17hc75142e2341d4807E, symObjAddr: 0x2C400, symBinAddr: 0x31DE0, symSize: 0x50 }
  - { offset: 0x12A55E, size: 0x8, addend: 0x0, symName: __ZN3std2fs4File6unlock17h6ef980d57de98dc9E, symObjAddr: 0x2C450, symBinAddr: 0x31E30, symSize: 0x30 }
  - { offset: 0x12A608, size: 0x8, addend: 0x0, symName: __ZN3std2fs4File7set_len17h14d0e60dfbbf5aa0E, symObjAddr: 0x2C480, symBinAddr: 0x31E60, symSize: 0x70 }
  - { offset: 0x12A76E, size: 0x8, addend: 0x0, symName: __ZN3std2fs4File8metadata17hd2518c0da0b97312E, symObjAddr: 0x2C4F0, symBinAddr: 0x31ED0, symSize: 0xA0 }
  - { offset: 0x12A87A, size: 0x8, addend: 0x0, symName: __ZN3std2fs4File9try_clone17h237ce7d7f7523992E, symObjAddr: 0x2C590, symBinAddr: 0x31F70, symSize: 0x50 }
  - { offset: 0x12A966, size: 0x8, addend: 0x0, symName: __ZN3std2fs4File15set_permissions17h7cbc34da1b96ae8dE, symObjAddr: 0x2C5E0, symBinAddr: 0x31FC0, symSize: 0x60 }
  - { offset: 0x12AA73, size: 0x8, addend: 0x0, symName: __ZN3std2fs4File9set_times17h1a97b96d6ebd1933E, symObjAddr: 0x2C640, symBinAddr: 0x32020, symSize: 0xF0 }
  - { offset: 0x12AC19, size: 0x8, addend: 0x0, symName: __ZN3std2fs4read5inner17h02c8c71781e43671E, symObjAddr: 0x2BD30, symBinAddr: 0x31710, symSize: 0x200 }
  - { offset: 0x12B07B, size: 0x8, addend: 0x0, symName: __ZN3std2fs14read_to_string5inner17h596f835251533f27E, symObjAddr: 0x2BF30, symBinAddr: 0x31910, symSize: 0x250 }
  - { offset: 0x12B64C, size: 0x8, addend: 0x0, symName: '__ZN52_$LT$$RF$std..fs..File$u20$as$u20$std..io..Write$GT$5write17h2882ea1e72257e46E', symObjAddr: 0x2CA40, symBinAddr: 0x32420, symSize: 0x50 }
  - { offset: 0x12B73B, size: 0x8, addend: 0x0, symName: '__ZN52_$LT$$RF$std..fs..File$u20$as$u20$std..io..Write$GT$14write_vectored17h6e4ce99e27c412c4E', symObjAddr: 0x2CA90, symBinAddr: 0x32470, symSize: 0x50 }
  - { offset: 0x12B84D, size: 0x8, addend: 0x0, symName: '__ZN48_$LT$std..fs..File$u20$as$u20$std..io..Write$GT$5write17h02ee90fc06e352f2E', symObjAddr: 0x2CCD0, symBinAddr: 0x326B0, symSize: 0x50 }
  - { offset: 0x12B953, size: 0x8, addend: 0x0, symName: '__ZN48_$LT$std..fs..File$u20$as$u20$std..io..Write$GT$14write_vectored17hebd81abe1263f617E', symObjAddr: 0x2CD20, symBinAddr: 0x32700, symSize: 0x50 }
  - { offset: 0x12BA6E, size: 0x8, addend: 0x0, symName: __ZN3std2fs5write5inner17hb45399620fb9b51dE, symObjAddr: 0x2C180, symBinAddr: 0x31B60, symSize: 0x110 }
  - { offset: 0x12BDD2, size: 0x8, addend: 0x0, symName: '__ZN58_$LT$std..fs..TryLockError$u20$as$u20$core..fmt..Debug$GT$3fmt17he8d4370ddabcc855E', symObjAddr: 0x2C290, symBinAddr: 0x31C70, symSize: 0x30 }
  - { offset: 0x12BE0B, size: 0x8, addend: 0x0, symName: '__ZN60_$LT$std..fs..TryLockError$u20$as$u20$core..fmt..Display$GT$3fmt17ha94ea6509c2af9d5E', symObjAddr: 0x2C2C0, symBinAddr: 0x31CA0, symSize: 0x40 }
  - { offset: 0x12BE2D, size: 0x8, addend: 0x0, symName: '__ZN50_$LT$std..fs..File$u20$as$u20$core..fmt..Debug$GT$3fmt17h26f15f115ef19d41E', symObjAddr: 0x2C730, symBinAddr: 0x32110, symSize: 0x10 }
  - { offset: 0x12BE6B, size: 0x8, addend: 0x0, symName: '__ZN51_$LT$$RF$std..fs..File$u20$as$u20$std..io..Seek$GT$4seek17he28b8b7be0f6f40dE', symObjAddr: 0x2CAE0, symBinAddr: 0x324C0, symSize: 0x50 }
  - { offset: 0x12BF16, size: 0x8, addend: 0x0, symName: '__ZN51_$LT$$RF$std..fs..File$u20$as$u20$std..io..Seek$GT$15stream_position17h0de98125dc0169e7E', symObjAddr: 0x2CB30, symBinAddr: 0x32510, symSize: 0x50 }
  - { offset: 0x12BFED, size: 0x8, addend: 0x0, symName: '__ZN51_$LT$$RF$std..fs..File$u20$as$u20$std..io..Read$GT$11read_to_end17h220c17a6350f60ddE', symObjAddr: 0x2C740, symBinAddr: 0x32120, symSize: 0x180 }
  - { offset: 0x12C326, size: 0x8, addend: 0x0, symName: '__ZN51_$LT$$RF$std..fs..File$u20$as$u20$std..io..Read$GT$14read_to_string17h0b0eec409f7f20cbE', symObjAddr: 0x2C8C0, symBinAddr: 0x322A0, symSize: 0x180 }
  - { offset: 0x12C704, size: 0x8, addend: 0x0, symName: '__ZN47_$LT$std..fs..File$u20$as$u20$std..io..Read$GT$4read17hdbe79bc5d027c073E', symObjAddr: 0x2CB80, symBinAddr: 0x32560, symSize: 0x50 }
  - { offset: 0x12C834, size: 0x8, addend: 0x0, symName: '__ZN47_$LT$std..fs..File$u20$as$u20$std..io..Read$GT$13read_vectored17hc4796cb562b7461eE', symObjAddr: 0x2CBD0, symBinAddr: 0x325B0, symSize: 0x50 }
  - { offset: 0x12C964, size: 0x8, addend: 0x0, symName: '__ZN47_$LT$std..fs..File$u20$as$u20$std..io..Read$GT$8read_buf17h64f8f006e6860d9aE', symObjAddr: 0x2CC20, symBinAddr: 0x32600, symSize: 0x70 }
  - { offset: 0x12CB5B, size: 0x8, addend: 0x0, symName: '__ZN47_$LT$std..fs..File$u20$as$u20$std..io..Read$GT$11read_to_end17h4fbe393f6ce0b5eaE', symObjAddr: 0x2CC90, symBinAddr: 0x32670, symSize: 0x20 }
  - { offset: 0x12CB6F, size: 0x8, addend: 0x0, symName: '__ZN47_$LT$std..fs..File$u20$as$u20$std..io..Read$GT$14read_to_string17h774f359ba3abca39E', symObjAddr: 0x2CCB0, symBinAddr: 0x32690, symSize: 0x20 }
  - { offset: 0x12CBD0, size: 0x8, addend: 0x0, symName: '__ZN47_$LT$std..fs..File$u20$as$u20$std..io..Seek$GT$4seek17h67d622062d317024E', symObjAddr: 0x2CD70, symBinAddr: 0x32750, symSize: 0x50 }
  - { offset: 0x12CC99, size: 0x8, addend: 0x0, symName: '__ZN47_$LT$std..fs..File$u20$as$u20$std..io..Seek$GT$15stream_position17h12bf56fb77828b13E', symObjAddr: 0x2CDC0, symBinAddr: 0x327A0, symSize: 0x50 }
  - { offset: 0x12CD80, size: 0x8, addend: 0x0, symName: '__ZN3std2fs81_$LT$impl$u20$std..io..Read$u20$for$u20$alloc..sync..Arc$LT$std..fs..File$GT$$GT$4read17h1110b6b19f8bd47fE', symObjAddr: 0x2CE10, symBinAddr: 0x327F0, symSize: 0x50 }
  - { offset: 0x12CEFB, size: 0x8, addend: 0x0, symName: '__ZN3std2fs81_$LT$impl$u20$std..io..Read$u20$for$u20$alloc..sync..Arc$LT$std..fs..File$GT$$GT$13read_vectored17hca61808d52a9b8a3E', symObjAddr: 0x2CE60, symBinAddr: 0x32840, symSize: 0x50 }
  - { offset: 0x12D076, size: 0x8, addend: 0x0, symName: '__ZN3std2fs81_$LT$impl$u20$std..io..Read$u20$for$u20$alloc..sync..Arc$LT$std..fs..File$GT$$GT$8read_buf17h63668b4a0e430c7bE', symObjAddr: 0x2CEB0, symBinAddr: 0x32890, symSize: 0x70 }
  - { offset: 0x12D2B8, size: 0x8, addend: 0x0, symName: '__ZN3std2fs81_$LT$impl$u20$std..io..Read$u20$for$u20$alloc..sync..Arc$LT$std..fs..File$GT$$GT$11read_to_end17h69e42879ab8dbd01E', symObjAddr: 0x2CF20, symBinAddr: 0x32900, symSize: 0x30 }
  - { offset: 0x12D318, size: 0x8, addend: 0x0, symName: '__ZN3std2fs81_$LT$impl$u20$std..io..Read$u20$for$u20$alloc..sync..Arc$LT$std..fs..File$GT$$GT$14read_to_string17h7ff2e239fef8edb6E', symObjAddr: 0x2CF50, symBinAddr: 0x32930, symSize: 0x30 }
  - { offset: 0x12D37F, size: 0x8, addend: 0x0, symName: '__ZN3std2fs82_$LT$impl$u20$std..io..Write$u20$for$u20$alloc..sync..Arc$LT$std..fs..File$GT$$GT$5write17h227e5175728240e8E', symObjAddr: 0x2CF80, symBinAddr: 0x32960, symSize: 0x50 }
  - { offset: 0x12D4D0, size: 0x8, addend: 0x0, symName: '__ZN3std2fs82_$LT$impl$u20$std..io..Write$u20$for$u20$alloc..sync..Arc$LT$std..fs..File$GT$$GT$14write_vectored17h19e908e55e5079f7E', symObjAddr: 0x2CFD0, symBinAddr: 0x329B0, symSize: 0x50 }
  - { offset: 0x12D628, size: 0x8, addend: 0x0, symName: '__ZN3std2fs81_$LT$impl$u20$std..io..Seek$u20$for$u20$alloc..sync..Arc$LT$std..fs..File$GT$$GT$4seek17h0e42cbd295b604c5E', symObjAddr: 0x2D020, symBinAddr: 0x32A00, symSize: 0x50 }
  - { offset: 0x12D735, size: 0x8, addend: 0x0, symName: '__ZN3std2fs81_$LT$impl$u20$std..io..Seek$u20$for$u20$alloc..sync..Arc$LT$std..fs..File$GT$$GT$15stream_position17h486d20ea7b539111E', symObjAddr: 0x2D070, symBinAddr: 0x32A50, symSize: 0x50 }
  - { offset: 0x12D860, size: 0x8, addend: 0x0, symName: __ZN3std2fs8Metadata8modified17hd744ac4ed56f25feE, symObjAddr: 0x2D290, symBinAddr: 0x32C70, symSize: 0x70 }
  - { offset: 0x12D8C3, size: 0x8, addend: 0x0, symName: __ZN3std2fs8Metadata8accessed17h24b494594bc140b3E, symObjAddr: 0x2D300, symBinAddr: 0x32CE0, symSize: 0x70 }
  - { offset: 0x12D926, size: 0x8, addend: 0x0, symName: __ZN3std2fs8Metadata7created17ha426efc12e878cdaE, symObjAddr: 0x2D370, symBinAddr: 0x32D50, symSize: 0x70 }
  - { offset: 0x12DA0E, size: 0x8, addend: 0x0, symName: '__ZN54_$LT$std..fs..Metadata$u20$as$u20$core..fmt..Debug$GT$3fmt17hc2e0264f16261d4cE', symObjAddr: 0x2D3E0, symBinAddr: 0x32DC0, symSize: 0x1E0 }
  - { offset: 0x12DBE9, size: 0x8, addend: 0x0, symName: '__ZN54_$LT$std..fs..FileType$u20$as$u20$core..fmt..Debug$GT$3fmt17h0660b685c4b1231cE', symObjAddr: 0x2D5C0, symBinAddr: 0x32FA0, symSize: 0xC0 }
  - { offset: 0x12DD04, size: 0x8, addend: 0x0, symName: '__ZN75_$LT$std..fs..ReadDir$u20$as$u20$core..iter..traits..iterator..Iterator$GT$4next17hc1c9f5dac3f9b9daE', symObjAddr: 0x2D680, symBinAddr: 0x33060, symSize: 0x90 }
  - { offset: 0x12DD62, size: 0x8, addend: 0x0, symName: __ZN3std2fs8DirEntry4path17h80291695625ae846E, symObjAddr: 0x2D710, symBinAddr: 0x330F0, symSize: 0x30 }
  - { offset: 0x12DF11, size: 0x8, addend: 0x0, symName: __ZN3std2fs8DirEntry8metadata17h3c093034d90499d0E, symObjAddr: 0x2D740, symBinAddr: 0x33120, symSize: 0x60 }
  - { offset: 0x12DF43, size: 0x8, addend: 0x0, symName: __ZN3std2fs8DirEntry9file_type17h3425e7a024adc451E, symObjAddr: 0x2D7A0, symBinAddr: 0x33180, symSize: 0x80 }
  - { offset: 0x12DF8A, size: 0x8, addend: 0x0, symName: __ZN3std2fs8DirEntry9file_name17h95f3165d73182e69E, symObjAddr: 0x2D820, symBinAddr: 0x33200, symSize: 0x80 }
  - { offset: 0x12E10B, size: 0x8, addend: 0x0, symName: '__ZN54_$LT$std..fs..DirEntry$u20$as$u20$core..fmt..Debug$GT$3fmt17hd3306bf1bf45c563E', symObjAddr: 0x2D8A0, symBinAddr: 0x33280, symSize: 0xB0 }
  - { offset: 0x12E457, size: 0x8, addend: 0x0, symName: __ZN3std2fs10DirBuilder7_create17h1cc36a1e16d5a272E, symObjAddr: 0x2D950, symBinAddr: 0x33330, symSize: 0xC0 }
  - { offset: 0x12E593, size: 0x8, addend: 0x0, symName: __ZN3std2fs10DirBuilder14create_dir_all17h1efa2b4205379d15E, symObjAddr: 0x2DA10, symBinAddr: 0x333F0, symSize: 0x590 }
  - { offset: 0x12EDE7, size: 0x8, addend: 0x0, symName: '__ZN57_$LT$std..fs..Permissions$u20$as$u20$core..fmt..Debug$GT$3fmt17haa6ae0ac99598cf8E', symObjAddr: 0x467F0, symBinAddr: 0x4B190, symSize: 0x40 }
  - { offset: 0x12EE23, size: 0x8, addend: 0x0, symName: '__ZN67_$LT$std..hash..random..RandomState$u20$as$u20$core..fmt..Debug$GT$3fmt17ha8552cc38bd6b925E', symObjAddr: 0x2DFA0, symBinAddr: 0x33980, symSize: 0x30 }
  - { offset: 0x12EE60, size: 0x8, addend: 0x0, symName: __ZN3std3net11socket_addr19resolve_socket_addr17h436f488d8b0d9159E, symObjAddr: 0x36410, symBinAddr: 0x3BAD0, symSize: 0x360 }
  - { offset: 0x12F34F, size: 0x8, addend: 0x0, symName: '__ZN78_$LT$$LP$$RF$str$C$u16$RP$$u20$as$u20$std..net..socket_addr..ToSocketAddrs$GT$15to_socket_addrs17h89ecc7aed7291380E', symObjAddr: 0x36770, symBinAddr: 0x3BE30, symSize: 0x220 }
  - { offset: 0x12F520, size: 0x8, addend: 0x0, symName: '__ZN92_$LT$$LP$alloc..string..String$C$u16$RP$$u20$as$u20$std..net..socket_addr..ToSocketAddrs$GT$15to_socket_addrs17h0145845c4b0ad0b1E', symObjAddr: 0x36990, symBinAddr: 0x3C050, symSize: 0x40 }
  - { offset: 0x12F5E1, size: 0x8, addend: 0x0, symName: '__ZN60_$LT$str$u20$as$u20$std..net..socket_addr..ToSocketAddrs$GT$15to_socket_addrs17h2a0b088641731a41E', symObjAddr: 0x369D0, symBinAddr: 0x3C090, symSize: 0xF0 }
  - { offset: 0x12F6CC, size: 0x8, addend: 0x0, symName: '__ZN78_$LT$alloc..string..String$u20$as$u20$std..net..socket_addr..ToSocketAddrs$GT$15to_socket_addrs17hb3eb739192f3be1aE', symObjAddr: 0x36AC0, symBinAddr: 0x3C180, symSize: 0x30 }
  - { offset: 0x12F796, size: 0x8, addend: 0x0, symName: __ZN3std3net3tcp9TcpStream15connect_timeout17h3da66ea39b3b7f11E, symObjAddr: 0x36AF0, symBinAddr: 0x3C1B0, symSize: 0x4C0 }
  - { offset: 0x130070, size: 0x8, addend: 0x0, symName: __ZN3std3net3tcp9TcpStream9peer_addr17h9e76d1bb374a63cbE, symObjAddr: 0x36FB0, symBinAddr: 0x3C670, symSize: 0x20 }
  - { offset: 0x13008A, size: 0x8, addend: 0x0, symName: __ZN3std3net3tcp9TcpStream12read_timeout17hf85bfbefab2b53cbE, symObjAddr: 0x36FD0, symBinAddr: 0x3C690, symSize: 0xD0 }
  - { offset: 0x1301FB, size: 0x8, addend: 0x0, symName: __ZN3std3net3tcp9TcpStream13write_timeout17h42856d5a778365fcE, symObjAddr: 0x370A0, symBinAddr: 0x3C760, symSize: 0xD0 }
  - { offset: 0x13036C, size: 0x8, addend: 0x0, symName: __ZN3std3net3tcp9TcpStream10set_linger17h21751cc81a56ada4E, symObjAddr: 0x37170, symBinAddr: 0x3C830, symSize: 0x60 }
  - { offset: 0x13047F, size: 0x8, addend: 0x0, symName: __ZN3std3net3tcp9TcpStream6linger17h9dad6b74e8f8ae6dE, symObjAddr: 0x371D0, symBinAddr: 0x3C890, symSize: 0x80 }
  - { offset: 0x1305A7, size: 0x8, addend: 0x0, symName: __ZN3std3net3tcp9TcpStream11set_nodelay17h9c8dd3b544e3e7f0E, symObjAddr: 0x37250, symBinAddr: 0x3C910, symSize: 0x50 }
  - { offset: 0x13066E, size: 0x8, addend: 0x0, symName: __ZN3std3net3tcp9TcpStream7nodelay17h218a8110ccd94e72E, symObjAddr: 0x372A0, symBinAddr: 0x3C960, symSize: 0x70 }
  - { offset: 0x1307A6, size: 0x8, addend: 0x0, symName: '__ZN58_$LT$std..net..tcp..TcpStream$u20$as$u20$std..io..Read$GT$8read_buf17h6f03d80ad6cf1b5cE', symObjAddr: 0x37310, symBinAddr: 0x3C9D0, symSize: 0x60 }
  - { offset: 0x130950, size: 0x8, addend: 0x0, symName: '__ZN58_$LT$std..net..tcp..TcpStream$u20$as$u20$std..io..Read$GT$13read_vectored17hd128a46827377141E', symObjAddr: 0x37370, symBinAddr: 0x3CA30, symSize: 0x50 }
  - { offset: 0x130A62, size: 0x8, addend: 0x0, symName: '__ZN59_$LT$std..net..tcp..TcpStream$u20$as$u20$std..io..Write$GT$14write_vectored17h53476ddd584b6d72E', symObjAddr: 0x373C0, symBinAddr: 0x3CA80, symSize: 0x50 }
  - { offset: 0x130B76, size: 0x8, addend: 0x0, symName: '__ZN62_$LT$$RF$std..net..tcp..TcpStream$u20$as$u20$std..io..Read$GT$4read17hebe1b2990128e2b3E', symObjAddr: 0x37410, symBinAddr: 0x3CAD0, symSize: 0x40 }
  - { offset: 0x130C3E, size: 0x8, addend: 0x0, symName: '__ZN62_$LT$$RF$std..net..tcp..TcpStream$u20$as$u20$std..io..Read$GT$8read_buf17hfb9d33d1bd517a95E', symObjAddr: 0x37450, symBinAddr: 0x3CB10, symSize: 0x60 }
  - { offset: 0x130DE8, size: 0x8, addend: 0x0, symName: '__ZN62_$LT$$RF$std..net..tcp..TcpStream$u20$as$u20$std..io..Read$GT$13read_vectored17h91f9bee7969639e6E', symObjAddr: 0x374B0, symBinAddr: 0x3CB70, symSize: 0x50 }
  - { offset: 0x130EFA, size: 0x8, addend: 0x0, symName: '__ZN63_$LT$$RF$std..net..tcp..TcpStream$u20$as$u20$std..io..Write$GT$5write17h5fccac152c6b6343E', symObjAddr: 0x37500, symBinAddr: 0x3CBC0, symSize: 0x40 }
  - { offset: 0x130FB3, size: 0x8, addend: 0x0, symName: '__ZN61_$LT$std..net..tcp..TcpStream$u20$as$u20$core..fmt..Debug$GT$3fmt17h16fb1360a60ed901E', symObjAddr: 0x37540, symBinAddr: 0x3CC00, symSize: 0x10 }
  - { offset: 0x130FD5, size: 0x8, addend: 0x0, symName: __ZN3std3net3tcp11TcpListener10local_addr17h15c7bb0bc32ef0f2E, symObjAddr: 0x37550, symBinAddr: 0x3CC10, symSize: 0x20 }
  - { offset: 0x130FF0, size: 0x8, addend: 0x0, symName: __ZN3std3net3tcp11TcpListener9try_clone17h4051f6e01b30c25dE, symObjAddr: 0x37570, symBinAddr: 0x3CC30, symSize: 0x50 }
  - { offset: 0x1310E2, size: 0x8, addend: 0x0, symName: __ZN3std3net3tcp11TcpListener6accept17hf5730f146a80b585E, symObjAddr: 0x375C0, symBinAddr: 0x3CC80, symSize: 0x1B0 }
  - { offset: 0x131426, size: 0x8, addend: 0x0, symName: __ZN3std3net3tcp11TcpListener7set_ttl17h17f01c386f60a34fE, symObjAddr: 0x37770, symBinAddr: 0x3CE30, symSize: 0x50 }
  - { offset: 0x1314F6, size: 0x8, addend: 0x0, symName: __ZN3std3net3tcp11TcpListener3ttl17hdaa641e696c0429aE, symObjAddr: 0x377C0, symBinAddr: 0x3CE80, symSize: 0x70 }
  - { offset: 0x131610, size: 0x8, addend: 0x0, symName: __ZN3std3net3tcp11TcpListener11set_only_v617h8fa3aacc19217915E, symObjAddr: 0x37830, symBinAddr: 0x3CEF0, symSize: 0x50 }
  - { offset: 0x1316C8, size: 0x8, addend: 0x0, symName: __ZN3std3net3tcp11TcpListener7only_v617h95d4e809a91771eaE, symObjAddr: 0x37880, symBinAddr: 0x3CF40, symSize: 0x70 }
  - { offset: 0x1317E9, size: 0x8, addend: 0x0, symName: '__ZN82_$LT$std..net..tcp..Incoming$u20$as$u20$core..iter..traits..iterator..Iterator$GT$4next17hb5f46f13dd3e0eb0E', symObjAddr: 0x378F0, symBinAddr: 0x3CFB0, symSize: 0x40 }
  - { offset: 0x131822, size: 0x8, addend: 0x0, symName: '__ZN86_$LT$std..net..tcp..IntoIncoming$u20$as$u20$core..iter..traits..iterator..Iterator$GT$4next17he36139bb3dbb01ebE', symObjAddr: 0x37930, symBinAddr: 0x3CFF0, symSize: 0x30 }
  - { offset: 0x13185B, size: 0x8, addend: 0x0, symName: '__ZN63_$LT$std..net..tcp..TcpListener$u20$as$u20$core..fmt..Debug$GT$3fmt17hd317822fe9f08fa6E', symObjAddr: 0x37960, symBinAddr: 0x3D020, symSize: 0x10 }
  - { offset: 0x131884, size: 0x8, addend: 0x0, symName: __ZN3std3net3udp9UdpSocket9recv_from17ha01e6582fc76802eE, symObjAddr: 0x37970, symBinAddr: 0x3D030, symSize: 0x20 }
  - { offset: 0x1318CB, size: 0x8, addend: 0x0, symName: __ZN3std3net3udp9UdpSocket9peek_from17heebcdd758331673fE, symObjAddr: 0x37990, symBinAddr: 0x3D050, symSize: 0x20 }
  - { offset: 0x131912, size: 0x8, addend: 0x0, symName: __ZN3std3net3udp9UdpSocket9peer_addr17h6a789e6c667ed177E, symObjAddr: 0x379B0, symBinAddr: 0x3D070, symSize: 0x160 }
  - { offset: 0x131ADF, size: 0x8, addend: 0x0, symName: __ZN3std3net3udp9UdpSocket13set_broadcast17h8ca46424647015fbE, symObjAddr: 0x37B10, symBinAddr: 0x3D1D0, symSize: 0x50 }
  - { offset: 0x131B97, size: 0x8, addend: 0x0, symName: __ZN3std3net3udp9UdpSocket9broadcast17h4c8201395f9e306dE, symObjAddr: 0x37B60, symBinAddr: 0x3D220, symSize: 0x70 }
  - { offset: 0x131CB1, size: 0x8, addend: 0x0, symName: __ZN3std3net3udp9UdpSocket21set_multicast_loop_v417h9f8d98a1253eeb21E, symObjAddr: 0x37BD0, symBinAddr: 0x3D290, symSize: 0x50 }
  - { offset: 0x131D81, size: 0x8, addend: 0x0, symName: __ZN3std3net3udp9UdpSocket17multicast_loop_v417hcfd559e175cf038dE, symObjAddr: 0x37C20, symBinAddr: 0x3D2E0, symSize: 0x60 }
  - { offset: 0x131E9B, size: 0x8, addend: 0x0, symName: __ZN3std3net3udp9UdpSocket20set_multicast_ttl_v417h5e3d1a9aa635f742E, symObjAddr: 0x37C80, symBinAddr: 0x3D340, symSize: 0x50 }
  - { offset: 0x131F6B, size: 0x8, addend: 0x0, symName: __ZN3std3net3udp9UdpSocket16multicast_ttl_v417hc33356bcf173fcaeE, symObjAddr: 0x37CD0, symBinAddr: 0x3D390, symSize: 0x70 }
  - { offset: 0x132085, size: 0x8, addend: 0x0, symName: __ZN3std3net3udp9UdpSocket21set_multicast_loop_v617h1f429b57b98694d7E, symObjAddr: 0x37D40, symBinAddr: 0x3D400, symSize: 0x50 }
  - { offset: 0x13213D, size: 0x8, addend: 0x0, symName: __ZN3std3net3udp9UdpSocket17multicast_loop_v617h4c4e76924856eeeeE, symObjAddr: 0x37D90, symBinAddr: 0x3D450, symSize: 0x70 }
  - { offset: 0x132257, size: 0x8, addend: 0x0, symName: __ZN3std3net3udp9UdpSocket17join_multicast_v417hc441abb929106f2eE, symObjAddr: 0x37E00, symBinAddr: 0x3D4C0, symSize: 0x50 }
  - { offset: 0x132327, size: 0x8, addend: 0x0, symName: __ZN3std3net3udp9UdpSocket17join_multicast_v617haaff3ec8dc9eeb99E, symObjAddr: 0x37E50, symBinAddr: 0x3D510, symSize: 0x60 }
  - { offset: 0x1323F5, size: 0x8, addend: 0x0, symName: __ZN3std3net3udp9UdpSocket18leave_multicast_v417h4d00cb9ad2efb769E, symObjAddr: 0x37EB0, symBinAddr: 0x3D570, symSize: 0x50 }
  - { offset: 0x1324C5, size: 0x8, addend: 0x0, symName: __ZN3std3net3udp9UdpSocket18leave_multicast_v617ha9789cf3e8e8f07cE, symObjAddr: 0x37F00, symBinAddr: 0x3D5C0, symSize: 0x60 }
  - { offset: 0x132593, size: 0x8, addend: 0x0, symName: __ZN3std3net3udp9UdpSocket4send17hb4bdb2ab698d9ea2E, symObjAddr: 0x37F60, symBinAddr: 0x3D620, symSize: 0x40 }
  - { offset: 0x13264C, size: 0x8, addend: 0x0, symName: '__ZN61_$LT$std..net..udp..UdpSocket$u20$as$u20$core..fmt..Debug$GT$3fmt17he6eb6ba563c48e75E', symObjAddr: 0x37FA0, symBinAddr: 0x3D660, symSize: 0x10 }
  - { offset: 0x132676, size: 0x8, addend: 0x0, symName: '__ZN79_$LT$std..random..DefaultRandomSource$u20$as$u20$core..random..RandomSource$GT$10fill_bytes17hae38eaea93b168b0E', symObjAddr: 0x3EB50, symBinAddr: 0x441F0, symSize: 0x70 }
  - { offset: 0x1326C7, size: 0x8, addend: 0x0, symName: '__ZN91_$LT$std..sys_common..wstr..WStrUnits$u20$as$u20$core..iter..traits..iterator..Iterator$GT$4next17h840fd33c79e59f1bE', symObjAddr: 0x43780, symBinAddr: 0x48360, symSize: 0x20 }
  - { offset: 0x132751, size: 0x8, addend: 0x0, symName: __ZN3std10sys_common4wtf87Wtf8Buf25push_code_point_unchecked17h64a0328d7ed42cf9E, symObjAddr: 0x437E0, symBinAddr: 0x483C0, symSize: 0x110 }
  - { offset: 0x132897, size: 0x8, addend: 0x0, symName: '__ZN74_$LT$std..sys_common..wtf8..Wtf8Buf$u20$as$u20$core..ops..deref..Deref$GT$5deref17hbc01b5efc5278c17E', symObjAddr: 0x437A0, symBinAddr: 0x48380, symSize: 0x10 }
  - { offset: 0x13295B, size: 0x8, addend: 0x0, symName: '__ZN69_$LT$std..sys_common..wtf8..Wtf8Buf$u20$as$u20$core..fmt..Display$GT$3fmt17h89029f9edb3a269aE', symObjAddr: 0x437B0, symBinAddr: 0x48390, symSize: 0x30 }
  - { offset: 0x1329B9, size: 0x8, addend: 0x0, symName: '__ZN64_$LT$std..sys_common..wtf8..Wtf8$u20$as$u20$core..fmt..Debug$GT$3fmt17hdf14e09e67da93efE', symObjAddr: 0x438F0, symBinAddr: 0x484D0, symSize: 0x220 }
  - { offset: 0x132CCC, size: 0x8, addend: 0x0, symName: '__ZN64_$LT$std..sys_common..wtf8..Wtf8$u20$as$u20$core..fmt..Debug$GT$3fmt17write_str_escaped17hb9482185513de7feE', symObjAddr: 0x43B10, symBinAddr: 0x486F0, symSize: 0x430 }
  - { offset: 0x133090, size: 0x8, addend: 0x0, symName: '__ZN66_$LT$std..sys_common..wtf8..Wtf8$u20$as$u20$core..fmt..Display$GT$3fmt17h421247d79aa72c4dE', symObjAddr: 0x43F40, symBinAddr: 0x48B20, symSize: 0x1B0 }
  - { offset: 0x133313, size: 0x8, addend: 0x0, symName: __ZN3std10sys_common4wtf816slice_error_fail17hc69a0340f46f1528E, symObjAddr: 0x440F0, symBinAddr: 0x9CBF0, symSize: 0xB0 }
  - { offset: 0x13335E, size: 0x8, addend: 0x0, symName: __ZN3std5alloc20set_alloc_error_hook17h3ceb312e9790ebf2E, symObjAddr: 0x441A0, symBinAddr: 0x48CD0, symSize: 0x10 }
  - { offset: 0x1333A9, size: 0x8, addend: 0x0, symName: __ZN3std5alloc21take_alloc_error_hook17h70c767339a35f8b8E, symObjAddr: 0x441B0, symBinAddr: 0x48CE0, symSize: 0x20 }
  - { offset: 0x1333F4, size: 0x8, addend: 0x0, symName: __ZN3std5alloc24default_alloc_error_hook17hbea780716e59bb68E, symObjAddr: 0x441D0, symBinAddr: 0x48D00, symSize: 0x160 }
  - { offset: 0x1336AB, size: 0x8, addend: 0x0, symName: __RNvCs691rhTbG0Ee_7___rustc11___rdl_alloc, symObjAddr: 0x44330, symBinAddr: 0x48E60, symSize: 0x70 }
  - { offset: 0x13372F, size: 0x8, addend: 0x0, symName: __RNvCs691rhTbG0Ee_7___rustc13___rdl_dealloc, symObjAddr: 0x443A0, symBinAddr: 0x48ED0, symSize: 0x10 }
  - { offset: 0x133763, size: 0x8, addend: 0x0, symName: __RNvCs691rhTbG0Ee_7___rustc13___rdl_realloc, symObjAddr: 0x443B0, symBinAddr: 0x48EE0, symSize: 0xA0 }
  - { offset: 0x133842, size: 0x8, addend: 0x0, symName: __RNvCs691rhTbG0Ee_7___rustc18___rdl_alloc_zeroed, symObjAddr: 0x44450, symBinAddr: 0x48F80, symSize: 0x90 }
  - { offset: 0x1338EA, size: 0x8, addend: 0x0, symName: __ZN3std5alloc8rust_oom17h71c48800e751eaa7E, symObjAddr: 0x51AF0, symBinAddr: 0x9D780, symSize: 0x20 }
  - { offset: 0x13393B, size: 0x8, addend: 0x0, symName: __RNvCs691rhTbG0Ee_7___rustc8___rg_oom, symObjAddr: 0x51B10, symBinAddr: 0x9D7A0, symSize: 0x20 }
  - { offset: 0x133A81, size: 0x8, addend: 0x0, symName: '__ZN9addr2line8function17Function$LT$R$GT$14parse_children17h44f43a3cd539b08aE', symObjAddr: 0x25D90, symBinAddr: 0x2BA70, symSize: 0x13A0 }
  - { offset: 0x1350E8, size: 0x8, addend: 0x0, symName: __ZN9addr2line8function10name_entry17hade4fcdcb10e3d65E, symObjAddr: 0x25950, symBinAddr: 0x2B630, symSize: 0x440 }
  - { offset: 0x13557A, size: 0x8, addend: 0x0, symName: __ZN9addr2line8function9name_attr17he927a26401250d17E, symObjAddr: 0x27130, symBinAddr: 0x2CE10, symSize: 0x1B0 }
  - { offset: 0x1357FF, size: 0x8, addend: 0x0, symName: '__ZN9addr2line4unit16ResUnit$LT$R$GT$25find_function_or_location17h5f54ecd0120113c4E', symObjAddr: 0x23150, symBinAddr: 0x28E30, symSize: 0x540 }
  - { offset: 0x135CC5, size: 0x8, addend: 0x0, symName: '__ZN9addr2line4unit16ResUnit$LT$R$GT$25find_function_or_location28_$u7b$$u7b$closure$u7d$$u7d$17h8e66e12e3402d9ccE', symObjAddr: 0x23690, symBinAddr: 0x29370, symSize: 0x1A50 }
  - { offset: 0x13863E, size: 0x8, addend: 0x0, symName: '__ZN9addr2line16Context$LT$R$GT$9find_unit17h1aae905577b6de99E', symObjAddr: 0x20130, symBinAddr: 0x25E10, symSize: 0x150 }
  - { offset: 0x13884F, size: 0x8, addend: 0x0, symName: __ZN9addr2line4line11render_file17hd2a303e5252a6e9eE, symObjAddr: 0x20280, symBinAddr: 0x25F60, symSize: 0x6C0 }
  - { offset: 0x13924F, size: 0x8, addend: 0x0, symName: __ZN9addr2line4line9LazyLines6borrow17hee0632b0c8c56a5dE, symObjAddr: 0x20940, symBinAddr: 0x26620, symSize: 0x2810 }
  - { offset: 0x13C7F5, size: 0x8, addend: 0x0, symName: '__ZN9addr2line6lookup30LoopingLookup$LT$T$C$L$C$F$GT$10new_lookup17h986d476295a73101E', symObjAddr: 0x25420, symBinAddr: 0x2B100, symSize: 0x530 }
  - { offset: 0x13CD8B, size: 0x8, addend: 0x0, symName: '__ZN9addr2line5frame18FrameIter$LT$R$GT$4next17heff8b86dc02cfafbE', symObjAddr: 0x250E0, symBinAddr: 0x2ADC0, symSize: 0x340 }
  - { offset: 0x13D275, size: 0x8, addend: 0x0, symName: '__ZN5gimli4read4unit32AttributeValue$LT$R$C$Offset$GT$11udata_value17h23fd7a6cda28467bE', symObjAddr: 0x1A550, symBinAddr: 0x20230, symSize: 0x80 }
  - { offset: 0x13D2D0, size: 0x8, addend: 0x0, symName: __ZN5gimli4read4unit15parse_attribute17hddcfb988349595eaE, symObjAddr: 0x17960, symBinAddr: 0x1D640, symSize: 0x1960 }
  - { offset: 0x140CE4, size: 0x8, addend: 0x0, symName: __ZN5gimli4read4unit15skip_attributes17h14b84f3b032b7126E, symObjAddr: 0x192C0, symBinAddr: 0x1EFA0, symSize: 0x7A0 }
  - { offset: 0x1417DA, size: 0x8, addend: 0x0, symName: '__ZN5gimli4read4unit18Attribute$LT$R$GT$5value17hd2a604d0c08e407aE', symObjAddr: 0x19A60, symBinAddr: 0x1F740, symSize: 0x7C0 }
  - { offset: 0x141D80, size: 0x8, addend: 0x0, symName: '__ZN5gimli4read4unit22EntriesCursor$LT$R$GT$10next_entry17h92a74a95259c78ceE', symObjAddr: 0x1A220, symBinAddr: 0x1FF00, symSize: 0x330 }
  - { offset: 0x142319, size: 0x8, addend: 0x0, symName: '__ZN5gimli4read4unit33DebugInfoUnitHeadersIter$LT$R$GT$4next17h43bb9109885b03f2E', symObjAddr: 0x1A5D0, symBinAddr: 0x202B0, symSize: 0x660 }
  - { offset: 0x14359E, size: 0x8, addend: 0x0, symName: '__ZN90_$LT$gimli..read..unit..AttributeValue$LT$R$C$Offset$GT$$u20$as$u20$core..clone..Clone$GT$5clone17h55baf823f6da72cbE', symObjAddr: 0x1FF20, symBinAddr: 0x25C00, symSize: 0x120 }
  - { offset: 0x143804, size: 0x8, addend: 0x0, symName: __ZN5gimli4read6reader6Reader11read_offset17h0da21f3fd8f86bffE, symObjAddr: 0x1E070, symBinAddr: 0x23D50, symSize: 0xB0 }
  - { offset: 0x143A87, size: 0x8, addend: 0x0, symName: __ZN5gimli4read6reader6Reader12read_uleb12817h39edb3b73442895eE, symObjAddr: 0x1E120, symBinAddr: 0x23E00, symSize: 0xB0 }
  - { offset: 0x143B3D, size: 0x8, addend: 0x0, symName: __ZN5gimli4read6reader6Reader17read_sized_offset17hf3916239449e0eecE, symObjAddr: 0x1E1D0, symBinAddr: 0x23EB0, symSize: 0x130 }
  - { offset: 0x14401C, size: 0x8, addend: 0x0, symName: __ZN5gimli4read4line13parse_file_v517h48d61e606b19f577E, symObjAddr: 0x16420, symBinAddr: 0x1C100, symSize: 0x350 }
  - { offset: 0x1441A6, size: 0x8, addend: 0x0, symName: __ZN5gimli4read4line15FileEntryFormat5parse17hff5127f4a526bff8E, symObjAddr: 0x16770, symBinAddr: 0x1C450, symSize: 0x3B0 }
  - { offset: 0x1449E8, size: 0x8, addend: 0x0, symName: __ZN5gimli4read4line15parse_attribute17h44034da0e32917dfE, symObjAddr: 0x16B20, symBinAddr: 0x1C800, symSize: 0xAD0 }
  - { offset: 0x14673A, size: 0x8, addend: 0x0, symName: __ZN5gimli4read4line18parse_directory_v517h4e169f9e950a8a3bE, symObjAddr: 0x175F0, symBinAddr: 0x1D2D0, symSize: 0x110 }
  - { offset: 0x1467BB, size: 0x8, addend: 0x0, symName: '__ZN5gimli4read4line27FileEntry$LT$R$C$Offset$GT$5parse17h09cd1a087e713b28E', symObjAddr: 0x17700, symBinAddr: 0x1D3E0, symSize: 0x260 }
  - { offset: 0x146F13, size: 0x8, addend: 0x0, symName: '__ZN5gimli4read5dwarf14Dwarf$LT$R$GT$11attr_string17h23c7a8488e0b88beE', symObjAddr: 0x1D470, symBinAddr: 0x23150, symSize: 0x210 }
  - { offset: 0x14788E, size: 0x8, addend: 0x0, symName: '__ZN5gimli4read5dwarf13Unit$LT$R$GT$3new17h58cc2dbec35695ebE', symObjAddr: 0x1AC30, symBinAddr: 0x20910, symSize: 0x2840 }
  - { offset: 0x14B327, size: 0x8, addend: 0x0, symName: '__ZN5gimli4read5index18UnitIndex$LT$R$GT$5parse17h447f3774dfa645e6E', symObjAddr: 0x1D680, symBinAddr: 0x23360, symSize: 0x9F0 }
  - { offset: 0x14B345, size: 0x8, addend: 0x0, symName: '__ZN5gimli4read5index18UnitIndex$LT$R$GT$5parse17h447f3774dfa645e6E', symObjAddr: 0x1D680, symBinAddr: 0x23360, symSize: 0x9F0 }
  - { offset: 0x14B35A, size: 0x8, addend: 0x0, symName: '__ZN5gimli4read5index18UnitIndex$LT$R$GT$5parse17h447f3774dfa645e6E', symObjAddr: 0x1D680, symBinAddr: 0x23360, symSize: 0x9F0 }
  - { offset: 0x14B901, size: 0x8, addend: 0x0, symName: '__ZN5gimli4read7aranges30ArangeHeader$LT$R$C$Offset$GT$5parse17h8e96c660c1dba8ddE', symObjAddr: 0x1E300, symBinAddr: 0x23FE0, symSize: 0x2A0 }
  - { offset: 0x14C24F, size: 0x8, addend: 0x0, symName: '__ZN5gimli4read8rnglists20RngListIter$LT$R$GT$4next17hd10c0a563ea5e19fE', symObjAddr: 0x1E5A0, symBinAddr: 0x24280, symSize: 0x1040 }
  - { offset: 0x14F2B1, size: 0x8, addend: 0x0, symName: __ZN6object4read7archive13ArchiveMember5parse17h5b296422e917313aE, symObjAddr: 0x1FA60, symBinAddr: 0x25740, symSize: 0x370 }
  - { offset: 0x14FA7B, size: 0x8, addend: 0x0, symName: __ZN6object4read7archive23parse_bsd_extended_name17h40e48b7212be31c0E, symObjAddr: 0x1FDD0, symBinAddr: 0x25AB0, symSize: 0xA0 }
  - { offset: 0x1502AD, size: 0x8, addend: 0x0, symName: '__ZN4core3ptr49drop_in_place$LT$panic_unwind..imp..Exception$GT$17h78a47b10934acbe4E', symObjAddr: 0x0, symBinAddr: 0x5D6A0, symSize: 0x70 }
  - { offset: 0x1502D5, size: 0x8, addend: 0x0, symName: '__ZN4core3ptr49drop_in_place$LT$panic_unwind..imp..Exception$GT$17h78a47b10934acbe4E', symObjAddr: 0x0, symBinAddr: 0x5D6A0, symSize: 0x70 }
  - { offset: 0x1503E7, size: 0x8, addend: 0x0, symName: '__ZN4core3ptr74drop_in_place$LT$alloc..boxed..Box$LT$panic_unwind..imp..Exception$GT$$GT$17h736bfe9ec86e97d6E', symObjAddr: 0x70, symBinAddr: 0x5D710, symSize: 0x90 }
  - { offset: 0x1506B5, size: 0x8, addend: 0x0, symName: __ZN12panic_unwind3imp5panic17exception_cleanup17h748c052c0251d0abE, symObjAddr: 0x200, symBinAddr: 0x5D8A0, symSize: 0x16 }
  - { offset: 0x1506D1, size: 0x8, addend: 0x0, symName: __RNvCs691rhTbG0Ee_7___rustc20___rust_panic_cleanup, symObjAddr: 0x100, symBinAddr: 0x5D7A0, symSize: 0x50 }
  - { offset: 0x150752, size: 0x8, addend: 0x0, symName: __RNvCs691rhTbG0Ee_7___rustc18___rust_start_panic, symObjAddr: 0x150, symBinAddr: 0x5D7F0, symSize: 0xB0 }
  - { offset: 0x150817, size: 0x8, addend: 0x0, symName: '__ZN42_$LT$$RF$T$u20$as$u20$core..fmt..Debug$GT$3fmt17h0c4968a6e55b8f75E', symObjAddr: 0x0, symBinAddr: 0x60FE0, symSize: 0x20 }
  - { offset: 0x150837, size: 0x8, addend: 0x0, symName: '__ZN42_$LT$$RF$T$u20$as$u20$core..fmt..Debug$GT$3fmt17h0c4968a6e55b8f75E', symObjAddr: 0x0, symBinAddr: 0x60FE0, symSize: 0x20 }
  - { offset: 0x150852, size: 0x8, addend: 0x0, symName: '__ZN42_$LT$$RF$T$u20$as$u20$core..fmt..Debug$GT$3fmt17h48c15999625b84dbE', symObjAddr: 0x20, symBinAddr: 0x61000, symSize: 0x30 }
  - { offset: 0x1508DE, size: 0x8, addend: 0x0, symName: '__ZN4core3fmt3num49_$LT$impl$u20$core..fmt..Debug$u20$for$u20$u8$GT$3fmt17heb8eab6f0c9a49c6E', symObjAddr: 0x50, symBinAddr: 0x61030, symSize: 0x30 }
  - { offset: 0x15159C, size: 0x8, addend: 0x0, symName: __ZN6memchr4arch3all6memchr3One4iter17h7f16772427dfc181E, symObjAddr: 0x80, symBinAddr: 0x61060, symSize: 0x20 }
  - { offset: 0x151646, size: 0x8, addend: 0x0, symName: __ZN6memchr4arch3all6memchr3Two4iter17h49c95e0c255a4fe6E, symObjAddr: 0xA0, symBinAddr: 0x61080, symSize: 0x20 }
  - { offset: 0x1516AD, size: 0x8, addend: 0x0, symName: __ZN6memchr4arch3all6memchr5Three4iter17h446ad477a7e0b362E, symObjAddr: 0xC0, symBinAddr: 0x610A0, symSize: 0x20 }
  - { offset: 0x15174A, size: 0x8, addend: 0x0, symName: '__ZN125_$LT$memchr..arch..all..packedpair..DefaultFrequencyRank$u20$as$u20$memchr..arch..all..packedpair..HeuristicFrequencyRank$GT$4rank17h6f07504c251ea6c0E', symObjAddr: 0xE0, symBinAddr: 0x610C0, symSize: 0x20 }
  - { offset: 0x151849, size: 0x8, addend: 0x0, symName: __ZN6memchr4arch3all9rabinkarp12is_equal_raw17hf1ba2fbaefc1b7d4E, symObjAddr: 0x100, symBinAddr: 0x9D870, symSize: 0x60 }
  - { offset: 0x151A8E, size: 0x8, addend: 0x0, symName: '__ZN73_$LT$memchr..arch..all..rabinkarp..Finder$u20$as$u20$core..fmt..Debug$GT$3fmt17h4fe52e764d5653f3E', symObjAddr: 0x2D20, symBinAddr: 0x63CA0, symSize: 0x70 }
  - { offset: 0x151AAF, size: 0x8, addend: 0x0, symName: '__ZN71_$LT$memchr..arch..all..rabinkarp..Hash$u20$as$u20$core..fmt..Debug$GT$3fmt17h774b492974f4e89aE', symObjAddr: 0x2D90, symBinAddr: 0x63D10, symSize: 0x40 }
  - { offset: 0x151AF2, size: 0x8, addend: 0x0, symName: __ZN6memchr4arch3all6twoway5Shift7forward17hbe0525758c8fb3d3E, symObjAddr: 0x160, symBinAddr: 0x610E0, symSize: 0x100 }
  - { offset: 0x151CBD, size: 0x8, addend: 0x0, symName: __ZN6memchr4arch3all6twoway5Shift7reverse17h33f9533d3a2d7fdfE, symObjAddr: 0x260, symBinAddr: 0x611E0, symSize: 0x110 }
  - { offset: 0x151EA3, size: 0x8, addend: 0x0, symName: __ZN6memchr4arch3all6twoway6Suffix7forward17hd532b423f897474eE, symObjAddr: 0x370, symBinAddr: 0x612F0, symSize: 0x140 }
  - { offset: 0x151ECD, size: 0x8, addend: 0x0, symName: __ZN6memchr4arch3all6twoway6Suffix7reverse17h37264fa677fe9355E, symObjAddr: 0x4B0, symBinAddr: 0x61430, symSize: 0x150 }
  - { offset: 0x151F14, size: 0x8, addend: 0x0, symName: __ZN6memchr4arch3all6twoway18ApproximateByteSet3new17hb8e6e7a73f4747aaE, symObjAddr: 0x600, symBinAddr: 0x61580, symSize: 0x120 }
  - { offset: 0x15200F, size: 0x8, addend: 0x0, symName: __ZN6memchr4arch6x86_644avx210packedpair6Finder9find_impl17h542661a00bc12d40E, symObjAddr: 0x720, symBinAddr: 0x616A0, symSize: 0x700 }
  - { offset: 0x152B29, size: 0x8, addend: 0x0, symName: __ZN6memchr4arch6x86_644avx210packedpair6Finder19find_prefilter_impl17hfff62c7b8f04e0afE, symObjAddr: 0xE20, symBinAddr: 0x61DA0, symSize: 0x1D0 }
  - { offset: 0x153106, size: 0x8, addend: 0x0, symName: __ZN6memchr4arch6x86_646memchr10memchr_raw9find_sse217hc2fa513bed421091E, symObjAddr: 0x2DD0, symBinAddr: 0x63D50, symSize: 0x1B0 }
  - { offset: 0x1536CF, size: 0x8, addend: 0x0, symName: __ZN6memchr4arch6x86_646memchr10memchr_raw6detect17h2de3bdbf186549b6E, symObjAddr: 0x2F80, symBinAddr: 0x63F00, symSize: 0x1C0 }
  - { offset: 0x153CD2, size: 0x8, addend: 0x0, symName: __ZN6memchr4arch6x86_646memchr11memrchr_raw9find_sse217hf2a9f6b0ca8b5016E, symObjAddr: 0x3140, symBinAddr: 0x640C0, symSize: 0x1D0 }
  - { offset: 0x1542B1, size: 0x8, addend: 0x0, symName: __ZN6memchr4arch6x86_646memchr11memrchr_raw6detect17hc154715b1d68a3c1E, symObjAddr: 0x3310, symBinAddr: 0x64290, symSize: 0x1E0 }
  - { offset: 0x1548CA, size: 0x8, addend: 0x0, symName: __ZN6memchr4arch6x86_646memchr11memchr2_raw9find_sse217h7b37c525d3c7476dE, symObjAddr: 0x34F0, symBinAddr: 0x64470, symSize: 0x1A0 }
  - { offset: 0x154F7A, size: 0x8, addend: 0x0, symName: __ZN6memchr4arch6x86_646memchr11memchr2_raw6detect17h354d6d5d4bfa8bfeE, symObjAddr: 0x3690, symBinAddr: 0x64610, symSize: 0x1A0 }
  - { offset: 0x155664, size: 0x8, addend: 0x0, symName: __ZN6memchr4arch6x86_646memchr12memrchr2_raw9find_sse217ha280309c242e968aE, symObjAddr: 0x3830, symBinAddr: 0x647B0, symSize: 0x1D0 }
  - { offset: 0x155E03, size: 0x8, addend: 0x0, symName: __ZN6memchr4arch6x86_646memchr12memrchr2_raw6detect17hd837a2691f324a40E, symObjAddr: 0x3A00, symBinAddr: 0x64980, symSize: 0x1E0 }
  - { offset: 0x1565DC, size: 0x8, addend: 0x0, symName: __ZN6memchr4arch6x86_646memchr11memchr3_raw9find_sse217h59e4485d6e023f59E, symObjAddr: 0x3BE0, symBinAddr: 0x64B60, symSize: 0x200 }
  - { offset: 0x156E18, size: 0x8, addend: 0x0, symName: __ZN6memchr4arch6x86_646memchr11memchr3_raw6detect17h65165389b1c10219E, symObjAddr: 0x3DE0, symBinAddr: 0x64D60, symSize: 0x210 }
  - { offset: 0x15768E, size: 0x8, addend: 0x0, symName: __ZN6memchr4arch6x86_646memchr12memrchr3_raw9find_sse217h2bc9e6ba3c120f74E, symObjAddr: 0x3FF0, symBinAddr: 0x64F70, symSize: 0x230 }
  - { offset: 0x157FB9, size: 0x8, addend: 0x0, symName: __ZN6memchr4arch6x86_646memchr12memrchr3_raw6detect17h40ca92da07f2863aE, symObjAddr: 0x4220, symBinAddr: 0x651A0, symSize: 0x240 }
  - { offset: 0x15891E, size: 0x8, addend: 0x0, symName: __ZN6memchr4arch6x86_646memchr9count_raw9find_sse217h578071b79548c85cE, symObjAddr: 0x4460, symBinAddr: 0x653E0, symSize: 0x3E0 }
  - { offset: 0x158C02, size: 0x8, addend: 0x0, symName: __ZN6memchr4arch6x86_646memchr9count_raw6detect17hbf2783cba38e62a2E, symObjAddr: 0x4840, symBinAddr: 0x657C0, symSize: 0x3E9 }
  - { offset: 0x158C20, size: 0x8, addend: 0x0, symName: __ZN6memchr4arch6x86_646memchr9count_raw6detect17hbf2783cba38e62a2E, symObjAddr: 0x4840, symBinAddr: 0x657C0, symSize: 0x3E9 }
  - { offset: 0x158C35, size: 0x8, addend: 0x0, symName: __ZN6memchr4arch6x86_646memchr9count_raw6detect17hbf2783cba38e62a2E, symObjAddr: 0x4840, symBinAddr: 0x657C0, symSize: 0x3E9 }
  - { offset: 0x159250, size: 0x8, addend: 0x0, symName: '__ZN71_$LT$memchr..memmem..searcher..Searcher$u20$as$u20$core..fmt..Debug$GT$3fmt17hfde1251bb90a31c2E', symObjAddr: 0xFF0, symBinAddr: 0x61F70, symSize: 0xB0 }
  - { offset: 0x15926B, size: 0x8, addend: 0x0, symName: __ZN6memchr6memmem8searcher22searcher_kind_one_byte17h30f2a51aef38e6dfE, symObjAddr: 0x10A0, symBinAddr: 0x62020, symSize: 0x40 }
  - { offset: 0x15937C, size: 0x8, addend: 0x0, symName: __ZN6memchr6memmem8searcher21searcher_kind_two_way17hd1bcb2a9fc98c17fE, symObjAddr: 0x10E0, symBinAddr: 0x62060, symSize: 0x400 }
  - { offset: 0x1596DE, size: 0x8, addend: 0x0, symName: __ZN6memchr6memmem8searcher36searcher_kind_two_way_with_prefilter17h3181e9e239bcad00E, symObjAddr: 0x14E0, symBinAddr: 0x62460, symSize: 0x660 }
  - { offset: 0x159C19, size: 0x8, addend: 0x0, symName: __ZN6memchr6memmem8searcher18searcher_kind_sse217h40fca8c1a63ee320E, symObjAddr: 0x1B40, symBinAddr: 0x62AC0, symSize: 0x4A0 }
  - { offset: 0x15A400, size: 0x8, addend: 0x0, symName: __ZN6memchr6memmem8searcher18searcher_kind_avx217h97693b611fb46659E, symObjAddr: 0x1FE0, symBinAddr: 0x62F60, symSize: 0x110 }
  - { offset: 0x15A5E3, size: 0x8, addend: 0x0, symName: '__ZN72_$LT$memchr..memmem..searcher..Prefilter$u20$as$u20$core..fmt..Debug$GT$3fmt17hf82dd5005b6a4feaE', symObjAddr: 0x20F0, symBinAddr: 0x63070, symSize: 0xD0 }
  - { offset: 0x15A5FF, size: 0x8, addend: 0x0, symName: __ZN6memchr6memmem8searcher23prefilter_kind_fallback17h842e7f40fc778328E, symObjAddr: 0x21C0, symBinAddr: 0x63140, symSize: 0xC0 }
  - { offset: 0x15A86B, size: 0x8, addend: 0x0, symName: __ZN6memchr6memmem8searcher19prefilter_kind_sse217h488066a9f7c7dec2E, symObjAddr: 0x2280, symBinAddr: 0x63200, symSize: 0x290 }
  - { offset: 0x15AEE3, size: 0x8, addend: 0x0, symName: __ZN6memchr6memmem8searcher19prefilter_kind_avx217hb0cb9eb26709da21E, symObjAddr: 0x2510, symBinAddr: 0x63490, symSize: 0x1F0 }
  - { offset: 0x15B199, size: 0x8, addend: 0x0, symName: '__ZN83_$LT$memchr..memmem..FindIter$u20$as$u20$core..iter..traits..iterator..Iterator$GT$4next17h43a0c548d7a33968E', symObjAddr: 0x2700, symBinAddr: 0x63680, symSize: 0x80 }
  - { offset: 0x15B25E, size: 0x8, addend: 0x0, symName: '__ZN83_$LT$memchr..memmem..FindIter$u20$as$u20$core..iter..traits..iterator..Iterator$GT$9size_hint17heb9fe3746594130eE', symObjAddr: 0x2780, symBinAddr: 0x63700, symSize: 0x70 }
  - { offset: 0x15B347, size: 0x8, addend: 0x0, symName: '__ZN86_$LT$memchr..memmem..FindRevIter$u20$as$u20$core..iter..traits..iterator..Iterator$GT$4next17hb98b78ca1d8bbfc5E', symObjAddr: 0x27F0, symBinAddr: 0x63770, symSize: 0x530 }
  - { offset: 0x15B7F9, size: 0x8, addend: 0x0, symName: '__ZN42_$LT$$RF$T$u20$as$u20$core..fmt..Debug$GT$3fmt17h6b5aa3628c0eb73cE', symObjAddr: 0x0, symBinAddr: 0x79F30, symSize: 0x20 }
  - { offset: 0x15B819, size: 0x8, addend: 0x0, symName: '__ZN42_$LT$$RF$T$u20$as$u20$core..fmt..Debug$GT$3fmt17h6b5aa3628c0eb73cE', symObjAddr: 0x0, symBinAddr: 0x79F30, symSize: 0x20 }
  - { offset: 0x15B834, size: 0x8, addend: 0x0, symName: '__ZN42_$LT$$RF$T$u20$as$u20$core..fmt..Debug$GT$3fmt17hd5b48e0fc14617baE', symObjAddr: 0x20, symBinAddr: 0x79F50, symSize: 0x60 }
  - { offset: 0x15B85E, size: 0x8, addend: 0x0, symName: '__ZN42_$LT$$RF$T$u20$as$u20$core..fmt..Debug$GT$3fmt17hdb098137d4239d95E', symObjAddr: 0x80, symBinAddr: 0x79FB0, symSize: 0x30 }
  - { offset: 0x15B906, size: 0x8, addend: 0x0, symName: __ZN4core3fmt5Write9write_fmt17h83ffcb002c8be4e6E, symObjAddr: 0xB0, symBinAddr: 0x79FE0, symSize: 0x20 }
  - { offset: 0x15B94A, size: 0x8, addend: 0x0, symName: '__ZN53_$LT$core..fmt..Error$u20$as$u20$core..fmt..Debug$GT$3fmt17h9121eae43e98820eE', symObjAddr: 0x4B0, symBinAddr: 0x7A3B0, symSize: 0x20 }
  - { offset: 0x15BA96, size: 0x8, addend: 0x0, symName: '__ZN4core3ptr238drop_in_place$LT$alloc..boxed..convert..$LT$impl$u20$core..convert..From$LT$alloc..string..String$GT$$u20$for$u20$alloc..boxed..Box$LT$dyn$u20$core..error..Error$u2b$core..marker..Sync$u2b$core..marker..Send$GT$$GT$..from..StringError$GT$17hda43a8c9480be527E', symObjAddr: 0xD0, symBinAddr: 0x7A000, symSize: 0x20 }
  - { offset: 0x15BB41, size: 0x8, addend: 0x0, symName: '__ZN4core3ptr42drop_in_place$LT$alloc..string..String$GT$17h22634843e4c0cbb8E', symObjAddr: 0xF0, symBinAddr: 0x7A020, symSize: 0x20 }
  - { offset: 0x15C145, size: 0x8, addend: 0x0, symName: __ZN4core4iter6traits8iterator8Iterator7collect17hc6f0c9e2c2ecd09bE, symObjAddr: 0x110, symBinAddr: 0x7A040, symSize: 0x330 }
  - { offset: 0x15CC98, size: 0x8, addend: 0x0, symName: __ZN4core5error5Error5cause17he181bcc81c5e34beE, symObjAddr: 0x440, symBinAddr: 0x7A370, symSize: 0x10 }
  - { offset: 0x15CCB2, size: 0x8, addend: 0x0, symName: __ZN4core5error5Error7provide17hb54246ed8b5b3d1bE, symObjAddr: 0x450, symBinAddr: 0x7A380, symSize: 0x10 }
  - { offset: 0x15CCCC, size: 0x8, addend: 0x0, symName: __ZN4core5error5Error7type_id17hd39136914bf36637E, symObjAddr: 0x460, symBinAddr: 0x7A390, symSize: 0x1A }
  - { offset: 0x15CCEE, size: 0x8, addend: 0x0, symName: __ZN4core9panicking13assert_failed17head0b4ea33e4a869E, symObjAddr: 0x47A, symBinAddr: 0x9D97A, symSize: 0x36 }
  - { offset: 0x15CD1C, size: 0x8, addend: 0x0, symName: '__ZN69_$LT$core..alloc..layout..LayoutError$u20$as$u20$core..fmt..Debug$GT$3fmt17ha9cf59b434857f9dE', symObjAddr: 0x4D0, symBinAddr: 0x7A3D0, symSize: 0x20 }
  - { offset: 0x15CEE7, size: 0x8, addend: 0x0, symName: '__ZN5alloc3ffi5c_str40_$LT$impl$u20$core..ffi..c_str..CStr$GT$15to_string_lossy17h5f0c8c27c8ec9fd2E', symObjAddr: 0x1C90, symBinAddr: 0x7B8E0, symSize: 0x20 }
  - { offset: 0x15CF19, size: 0x8, addend: 0x0, symName: '__ZN5alloc3ffi5c_str40_$LT$impl$u20$core..ffi..c_str..CStr$GT$13into_c_string17ha785223a3975e788E', symObjAddr: 0x1CB0, symBinAddr: 0x7B900, symSize: 0x10 }
  - { offset: 0x15D453, size: 0x8, addend: 0x0, symName: '__ZN5alloc7raw_vec19RawVec$LT$T$C$A$GT$8grow_one17h48f3b89387571658E', symObjAddr: 0x530, symBinAddr: 0x7A3F0, symSize: 0xA0 }
  - { offset: 0x15D6B3, size: 0x8, addend: 0x0, symName: __ZN5alloc7raw_vec17capacity_overflow17h435566b9df58ee48E, symObjAddr: 0x4F0, symBinAddr: 0x9D9B0, symSize: 0x40 }
  - { offset: 0x15D6FD, size: 0x8, addend: 0x0, symName: '__ZN5alloc7raw_vec20RawVecInner$LT$A$GT$7reserve21do_reserve_and_handle17h6956b6b4629a3408E', symObjAddr: 0x5D0, symBinAddr: 0x9D9F0, symSize: 0xB0 }
  - { offset: 0x15D856, size: 0x8, addend: 0x0, symName: __ZN5alloc7raw_vec11finish_grow17ha1c372e9acc7037cE, symObjAddr: 0x680, symBinAddr: 0x9DAA0, symSize: 0x74 }
  - { offset: 0x15D8D1, size: 0x8, addend: 0x0, symName: __ZN5alloc7raw_vec12handle_error17h0492369c9f2bc4f3E, symObjAddr: 0x6F4, symBinAddr: 0x9DB14, symSize: 0x16 }
  - { offset: 0x15D9DD, size: 0x8, addend: 0x0, symName: __ZN5alloc5alloc18handle_alloc_error8ct_error17h5c02acadc400a794E, symObjAddr: 0x720, symBinAddr: 0x9DB40, symSize: 0x50 }
  - { offset: 0x15DA10, size: 0x8, addend: 0x0, symName: __ZN5alloc5alloc18handle_alloc_error17h3b60dcc78a40e9e2E, symObjAddr: 0x70A, symBinAddr: 0x9DB2A, symSize: 0x16 }
  - { offset: 0x15DA48, size: 0x8, addend: 0x0, symName: __RNvCs691rhTbG0Ee_7___rustc9___rdl_oom, symObjAddr: 0x770, symBinAddr: 0x9DB90, symSize: 0xC0 }
  - { offset: 0x15DBA8, size: 0x8, addend: 0x0, symName: __ZN5alloc6string6String15from_utf8_lossy17hbe4419d2c4a6767bE, symObjAddr: 0x3480, symBinAddr: 0x7D0D0, symSize: 0x270 }
  - { offset: 0x15E26B, size: 0x8, addend: 0x0, symName: __ZN5alloc6string6String21from_utf8_lossy_owned17h4edd692189723f99E, symObjAddr: 0x36F0, symBinAddr: 0x7D340, symSize: 0xB0 }
  - { offset: 0x15E472, size: 0x8, addend: 0x0, symName: __ZN5alloc6string6String10from_utf1617h0a44c0d6e6877ceaE, symObjAddr: 0x37A0, symBinAddr: 0x7D3F0, symSize: 0x2F0 }
  - { offset: 0x15E94D, size: 0x8, addend: 0x0, symName: __ZN5alloc6string6String12from_utf16le17h10469832f32beab1E, symObjAddr: 0x3A90, symBinAddr: 0x7D6E0, symSize: 0x500 }
  - { offset: 0x15EDFF, size: 0x8, addend: 0x0, symName: __ZN5alloc6string6String18from_utf16le_lossy17h19dda9990059fe73E, symObjAddr: 0x3F90, symBinAddr: 0x7DBE0, symSize: 0x480 }
  - { offset: 0x15F7A2, size: 0x8, addend: 0x0, symName: __ZN5alloc6string6String12from_utf16be17h4eef3595c1fb5418E, symObjAddr: 0x4410, symBinAddr: 0x7E060, symSize: 0x4F0 }
  - { offset: 0x15FBFD, size: 0x8, addend: 0x0, symName: __ZN5alloc6string6String18from_utf16be_lossy17h372051dfe1ec063dE, symObjAddr: 0x4900, symBinAddr: 0x7E550, symSize: 0x390 }
  - { offset: 0x160283, size: 0x8, addend: 0x0, symName: __ZN5alloc6string6String11try_reserve17h6e5a7574b6e39dc9E, symObjAddr: 0x4C90, symBinAddr: 0x7E8E0, symSize: 0xD0 }
  - { offset: 0x1602DA, size: 0x8, addend: 0x0, symName: __ZN5alloc6string6String11try_reserve17h6e5a7574b6e39dc9E, symObjAddr: 0x4C90, symBinAddr: 0x7E8E0, symSize: 0xD0 }
  - { offset: 0x160441, size: 0x8, addend: 0x0, symName: __ZN5alloc6string6String17try_reserve_exact17h92998d8ca63820b3E, symObjAddr: 0x4D60, symBinAddr: 0x7E9B0, symSize: 0xB0 }
  - { offset: 0x1607AB, size: 0x8, addend: 0x0, symName: '__ZN98_$LT$alloc..string..String$u20$as$u20$core..convert..From$LT$alloc..borrow..Cow$LT$str$GT$$GT$$GT$4from17h8354699eaaaa53ddE', symObjAddr: 0x5210, symBinAddr: 0x7EE60, symSize: 0xB0 }
  - { offset: 0x160984, size: 0x8, addend: 0x0, symName: __ZN5alloc6string13FromUtf8Error8as_bytes17h000bae56999fe7e7E, symObjAddr: 0x4E10, symBinAddr: 0x7EA60, symSize: 0x10 }
  - { offset: 0x160A40, size: 0x8, addend: 0x0, symName: __ZN5alloc6string13FromUtf8Error15into_utf8_lossy17h3675a0e03204d47bE, symObjAddr: 0x4E20, symBinAddr: 0x7EA70, symSize: 0x200 }
  - { offset: 0x161112, size: 0x8, addend: 0x0, symName: '__ZN67_$LT$alloc..string..FromUtf8Error$u20$as$u20$core..fmt..Display$GT$3fmt17h5ebd3e6951dee108E', symObjAddr: 0x5020, symBinAddr: 0x7EC70, symSize: 0x10 }
  - { offset: 0x161134, size: 0x8, addend: 0x0, symName: '__ZN68_$LT$alloc..string..FromUtf16Error$u20$as$u20$core..fmt..Display$GT$3fmt17he1f1b29d6436e0edE', symObjAddr: 0x5030, symBinAddr: 0x7EC80, symSize: 0x20 }
  - { offset: 0x161156, size: 0x8, addend: 0x0, symName: '__ZN60_$LT$alloc..string..String$u20$as$u20$core..clone..Clone$GT$5clone17h8b99bb2d2ccc6ae7E', symObjAddr: 0x5050, symBinAddr: 0x7ECA0, symSize: 0x90 }
  - { offset: 0x1612D9, size: 0x8, addend: 0x0, symName: '__ZN60_$LT$alloc..string..String$u20$as$u20$core..clone..Clone$GT$10clone_from17h5a9c064ec8b680e7E', symObjAddr: 0x50E0, symBinAddr: 0x7ED30, symSize: 0x70 }
  - { offset: 0x1613F6, size: 0x8, addend: 0x0, symName: '__ZN73_$LT$$RF$alloc..string..String$u20$as$u20$core..str..pattern..Pattern$GT$13into_searcher17haafbd067edbb7193E', symObjAddr: 0x5150, symBinAddr: 0x7EDA0, symSize: 0x30 }
  - { offset: 0x1614CF, size: 0x8, addend: 0x0, symName: '__ZN5alloc6string107_$LT$impl$u20$core..convert..From$LT$alloc..string..String$GT$$u20$for$u20$alloc..boxed..Box$LT$str$GT$$GT$4from17h770bd81c9a001cffE', symObjAddr: 0x5180, symBinAddr: 0x7EDD0, symSize: 0x90 }
  - { offset: 0x161662, size: 0x8, addend: 0x0, symName: '__ZN97_$LT$alloc..string..String$u20$as$u20$core..convert..TryFrom$LT$alloc..vec..Vec$LT$u8$GT$$GT$$GT$8try_from17hc4c7e880a5611e37E', symObjAddr: 0x52C0, symBinAddr: 0x7EF10, symSize: 0xC0 }
  - { offset: 0x1617BC, size: 0x8, addend: 0x0, symName: '__ZN58_$LT$alloc..string..String$u20$as$u20$core..fmt..Write$GT$9write_str17h2a487f279c3e8f7fE', symObjAddr: 0x5380, symBinAddr: 0x7EFD0, symSize: 0x60 }
  - { offset: 0x1618BD, size: 0x8, addend: 0x0, symName: '__ZN58_$LT$alloc..string..String$u20$as$u20$core..fmt..Write$GT$10write_char17h1bc49a5d0385c8c3E', symObjAddr: 0x53E0, symBinAddr: 0x7F030, symSize: 0x130 }
  - { offset: 0x161A71, size: 0x8, addend: 0x0, symName: '__ZN61_$LT$alloc..string..IntoChars$u20$as$u20$core..fmt..Debug$GT$3fmt17h336a641ffe27fa44E', symObjAddr: 0x5510, symBinAddr: 0x7F160, symSize: 0x60 }
  - { offset: 0x161B55, size: 0x8, addend: 0x0, symName: __ZN5alloc6string5Drain6as_str17h05dcb5cb7280fb25E, symObjAddr: 0x5640, symBinAddr: 0x7F290, symSize: 0x10 }
  - { offset: 0x161BF7, size: 0x8, addend: 0x0, symName: '__ZN57_$LT$alloc..string..Drain$u20$as$u20$core..fmt..Debug$GT$3fmt17hbae619c17bd97768E', symObjAddr: 0x5570, symBinAddr: 0x7F1C0, symSize: 0x60 }
  - { offset: 0x161CB7, size: 0x8, addend: 0x0, symName: '__ZN62_$LT$alloc..string..Drain$u20$as$u20$core..ops..drop..Drop$GT$4drop17h7ac763189e30039aE', symObjAddr: 0x55D0, symBinAddr: 0x7F220, symSize: 0x70 }
  - { offset: 0x161DF7, size: 0x8, addend: 0x0, symName: '__ZN72_$LT$alloc..string..Drain$u20$as$u20$core..convert..AsRef$LT$str$GT$$GT$6as_ref17h4a5e1be6f937f96aE', symObjAddr: 0x5650, symBinAddr: 0x7F2A0, symSize: 0x10 }
  - { offset: 0x161EB7, size: 0x8, addend: 0x0, symName: '__ZN79_$LT$alloc..string..Drain$u20$as$u20$core..iter..traits..iterator..Iterator$GT$9size_hint17h18fff1707f918af1E', symObjAddr: 0x5660, symBinAddr: 0x7F2B0, symSize: 0x30 }
  - { offset: 0x162422, size: 0x8, addend: 0x0, symName: '__ZN5alloc3vec16Vec$LT$T$C$A$GT$11swap_remove13assert_failed17h200d3896fc3ac477E', symObjAddr: 0x56F6, symBinAddr: 0x9DC66, symSize: 0x5F }
  - { offset: 0x162454, size: 0x8, addend: 0x0, symName: '__ZN5alloc3vec16Vec$LT$T$C$A$GT$6insert13assert_failed17h64dd4fb199e13a89E', symObjAddr: 0x5755, symBinAddr: 0x9DCC5, symSize: 0x5F }
  - { offset: 0x162486, size: 0x8, addend: 0x0, symName: '__ZN5alloc3vec16Vec$LT$T$C$A$GT$6remove13assert_failed17h070fe5d3a07bc079E', symObjAddr: 0x57B4, symBinAddr: 0x9DD24, symSize: 0x5F }
  - { offset: 0x1624B8, size: 0x8, addend: 0x0, symName: '__ZN5alloc3vec16Vec$LT$T$C$A$GT$9split_off13assert_failed17h677100fe1eb92506E', symObjAddr: 0x5813, symBinAddr: 0x9DD83, symSize: 0x6D }
  - { offset: 0x162500, size: 0x8, addend: 0x0, symName: '__ZN80_$LT$alloc..vec..Vec$LT$u8$GT$$u20$as$u20$core..convert..From$LT$$RF$str$GT$$GT$4from17hc30bf02515ecf86bE', symObjAddr: 0x5880, symBinAddr: 0x7F350, symSize: 0x8B }
  - { offset: 0x1626D4, size: 0x8, addend: 0x0, symName: '__ZN88_$LT$alloc..collections..btree..map..UnorderedKeyError$u20$as$u20$core..fmt..Display$GT$3fmt17h0b08c43c2745b566E', symObjAddr: 0x1120, symBinAddr: 0x7AD80, symSize: 0x20 }
  - { offset: 0x16271A, size: 0x8, addend: 0x0, symName: '__ZN93_$LT$alloc..collections..btree..mem..replace..PanicGuard$u20$as$u20$core..ops..drop..Drop$GT$4drop17h2040e5207e2eac71E', symObjAddr: 0x1140, symBinAddr: 0x9DC50, symSize: 0x10 }
  - { offset: 0x16273E, size: 0x8, addend: 0x0, symName: '__ZN74_$LT$alloc..collections..TryReserveError$u20$as$u20$core..fmt..Display$GT$3fmt17hc54e4e7aa4acb7b5E', symObjAddr: 0x1150, symBinAddr: 0x7ADA0, symSize: 0x60 }
  - { offset: 0x1627C2, size: 0x8, addend: 0x0, symName: '__ZN92_$LT$alloc..borrow..Cow$LT$str$GT$$u20$as$u20$core..ops..arith..AddAssign$LT$$RF$str$GT$$GT$10add_assign17hefc6b43dfb66aa88E', symObjAddr: 0x830, symBinAddr: 0x7A490, symSize: 0x230 }
  - { offset: 0x162DF1, size: 0x8, addend: 0x0, symName: '__ZN77_$LT$alloc..borrow..Cow$LT$str$GT$$u20$as$u20$core..ops..arith..AddAssign$GT$10add_assign17hf4306a8405947b5cE', symObjAddr: 0xA60, symBinAddr: 0x7A6C0, symSize: 0x2A0 }
  - { offset: 0x163759, size: 0x8, addend: 0x0, symName: '__ZN5alloc3str21_$LT$impl$u20$str$GT$12to_lowercase17hb163a290ed14a391E', symObjAddr: 0x1EF0, symBinAddr: 0x7BB40, symSize: 0xCF0 }
  - { offset: 0x164871, size: 0x8, addend: 0x0, symName: '__ZN5alloc3str21_$LT$impl$u20$str$GT$12to_uppercase17he0ac9397985633b1E', symObjAddr: 0x2BE0, symBinAddr: 0x7C830, symSize: 0x8A0 }
  - { offset: 0x165431, size: 0x8, addend: 0x0, symName: '__ZN256_$LT$alloc..boxed..convert..$LT$impl$u20$core..convert..From$LT$alloc..string..String$GT$$u20$for$u20$alloc..boxed..Box$LT$dyn$u20$core..error..Error$u2b$core..marker..Sync$u2b$core..marker..Send$GT$$GT$..from..StringError$u20$as$u20$core..error..Error$GT$11description17h66b9530bb9dc0263E', symObjAddr: 0xD00, symBinAddr: 0x7A960, symSize: 0x10 }
  - { offset: 0x1654F4, size: 0x8, addend: 0x0, symName: '__ZN256_$LT$alloc..boxed..convert..$LT$impl$u20$core..convert..From$LT$alloc..string..String$GT$$u20$for$u20$alloc..boxed..Box$LT$dyn$u20$core..error..Error$u2b$core..marker..Sync$u2b$core..marker..Send$GT$$GT$..from..StringError$u20$as$u20$core..fmt..Display$GT$3fmt17hc5863f54445b0ec1E', symObjAddr: 0xD10, symBinAddr: 0x7A970, symSize: 0x20 }
  - { offset: 0x1655CE, size: 0x8, addend: 0x0, symName: '__ZN254_$LT$alloc..boxed..convert..$LT$impl$u20$core..convert..From$LT$alloc..string..String$GT$$u20$for$u20$alloc..boxed..Box$LT$dyn$u20$core..error..Error$u2b$core..marker..Sync$u2b$core..marker..Send$GT$$GT$..from..StringError$u20$as$u20$core..fmt..Debug$GT$3fmt17he302062d498d4bd9E', symObjAddr: 0xD30, symBinAddr: 0x7A990, symSize: 0x20 }
  - { offset: 0x1656C6, size: 0x8, addend: 0x0, symName: '__ZN5alloc5boxed7convert130_$LT$impl$u20$core..convert..From$LT$alloc..string..String$GT$$u20$for$u20$alloc..boxed..Box$LT$dyn$u20$core..error..Error$GT$$GT$4from17h3436882aeb039340E', symObjAddr: 0xD50, symBinAddr: 0x7A9B0, symSize: 0x90 }
  - { offset: 0x165842, size: 0x8, addend: 0x0, symName: '__ZN5alloc5boxed7convert116_$LT$impl$u20$core..convert..From$LT$$RF$str$GT$$u20$for$u20$alloc..boxed..Box$LT$dyn$u20$core..error..Error$GT$$GT$4from17he84c07f8c273907aE', symObjAddr: 0xDE0, symBinAddr: 0x7AA40, symSize: 0xE0 }
  - { offset: 0x165B51, size: 0x8, addend: 0x0, symName: '__ZN5alloc5boxed7convert184_$LT$impl$u20$core..convert..From$LT$alloc..borrow..Cow$LT$str$GT$$GT$$u20$for$u20$alloc..boxed..Box$LT$dyn$u20$core..error..Error$u2b$core..marker..Sync$u2b$core..marker..Send$GT$$GT$4from17h9190bd79badb6244E', symObjAddr: 0xEC0, symBinAddr: 0x7AB20, symSize: 0xF0 }
  - { offset: 0x165E68, size: 0x8, addend: 0x0, symName: '__ZN5alloc5boxed7convert138_$LT$impl$u20$core..convert..From$LT$alloc..borrow..Cow$LT$str$GT$$GT$$u20$for$u20$alloc..boxed..Box$LT$dyn$u20$core..error..Error$GT$$GT$4from17h3e978dee70ee3e63E', symObjAddr: 0xFB0, symBinAddr: 0x7AC10, symSize: 0xF0 }
  - { offset: 0x166209, size: 0x8, addend: 0x0, symName: '__ZN67_$LT$alloc..boxed..Box$LT$str$GT$$u20$as$u20$core..clone..Clone$GT$5clone17hdb808211d5bf0ee8E', symObjAddr: 0x10A0, symBinAddr: 0x7AD00, symSize: 0x80 }
  - { offset: 0x166376, size: 0x8, addend: 0x0, symName: __ZN5alloc3ffi5c_str19FromVecWithNulError8as_bytes17hde7ab40f3003d09cE, symObjAddr: 0x11B0, symBinAddr: 0x7AE00, symSize: 0x10 }
  - { offset: 0x166451, size: 0x8, addend: 0x0, symName: '__ZN72_$LT$$RF$str$u20$as$u20$alloc..ffi..c_str..CString..new..SpecNewImpl$GT$13spec_new_impl17h14bb0b571a7bba9bE', symObjAddr: 0x11C0, symBinAddr: 0x7AE10, symSize: 0x140 }
  - { offset: 0x1666F1, size: 0x8, addend: 0x0, symName: '__ZN89_$LT$$RF$mut$u20$$u5b$u8$u5d$$u20$as$u20$alloc..ffi..c_str..CString..new..SpecNewImpl$GT$13spec_new_impl17h488b0dce11f87b23E', symObjAddr: 0x1300, symBinAddr: 0x7AF50, symSize: 0x140 }
  - { offset: 0x1669A8, size: 0x8, addend: 0x0, symName: __ZN5alloc3ffi5c_str7CString18from_vec_unchecked17h16f5f22503f0f061E, symObjAddr: 0x1440, symBinAddr: 0x7B090, symSize: 0x30 }
  - { offset: 0x1669C3, size: 0x8, addend: 0x0, symName: __ZN5alloc3ffi5c_str7CString19_from_vec_unchecked17hf19502b25d77c99dE, symObjAddr: 0x1470, symBinAddr: 0x7B0C0, symSize: 0x130 }
  - { offset: 0x166D5B, size: 0x8, addend: 0x0, symName: __ZN5alloc3ffi5c_str7CString8from_raw17hfa9899823670bc5aE, symObjAddr: 0x15A0, symBinAddr: 0x7B1F0, symSize: 0x20 }
  - { offset: 0x166D84, size: 0x8, addend: 0x0, symName: __ZN5alloc3ffi5c_str7CString11into_string17h2b0b78822816cd9bE, symObjAddr: 0x15C0, symBinAddr: 0x7B210, symSize: 0xF0 }
  - { offset: 0x166EA0, size: 0x8, addend: 0x0, symName: __ZN5alloc3ffi5c_str7CString10into_bytes17h6faac74ee0868726E, symObjAddr: 0x16B0, symBinAddr: 0x7B300, symSize: 0x30 }
  - { offset: 0x166ECB, size: 0x8, addend: 0x0, symName: __ZN5alloc3ffi5c_str7CString19into_bytes_with_nul17h4f24bdd8b317193aE, symObjAddr: 0x16E0, symBinAddr: 0x7B330, symSize: 0x20 }
  - { offset: 0x166F22, size: 0x8, addend: 0x0, symName: __ZN5alloc3ffi5c_str7CString27from_vec_with_nul_unchecked17hafd4be205ec26285E, symObjAddr: 0x1700, symBinAddr: 0x7B350, symSize: 0x90 }
  - { offset: 0x1670AE, size: 0x8, addend: 0x0, symName: __ZN5alloc3ffi5c_str7CString17from_vec_with_nul17h2b526fbda0ee08c4E, symObjAddr: 0x1790, symBinAddr: 0x7B3E0, symSize: 0x130 }
  - { offset: 0x167303, size: 0x8, addend: 0x0, symName: '__ZN63_$LT$alloc..ffi..c_str..CString$u20$as$u20$core..fmt..Debug$GT$3fmt17h94d69dad966831acE', symObjAddr: 0x18C0, symBinAddr: 0x7B510, symSize: 0x20 }
  - { offset: 0x167361, size: 0x8, addend: 0x0, symName: '__ZN5alloc3ffi5c_str75_$LT$impl$u20$alloc..borrow..ToOwned$u20$for$u20$core..ffi..c_str..CStr$GT$10clone_into17hc9821d26f29a9b2fE', symObjAddr: 0x1AF0, symBinAddr: 0x7B740, symSize: 0x120 }
  - { offset: 0x16770E, size: 0x8, addend: 0x0, symName: '__ZN69_$LT$alloc..ffi..c_str..CString$u20$as$u20$core..default..Default$GT$7default17h78222831fa28b6ddE', symObjAddr: 0x18E0, symBinAddr: 0x7B530, symSize: 0x40 }
  - { offset: 0x167820, size: 0x8, addend: 0x0, symName: '__ZN5alloc3ffi5c_str131_$LT$impl$u20$core..convert..From$LT$$RF$core..ffi..c_str..CStr$GT$$u20$for$u20$alloc..boxed..Box$LT$core..ffi..c_str..CStr$GT$$GT$4from17h17510cbf4c31d554E', symObjAddr: 0x1920, symBinAddr: 0x7B570, symSize: 0x80 }
  - { offset: 0x167971, size: 0x8, addend: 0x0, symName: '__ZN5alloc3ffi5c_str100_$LT$impl$u20$core..default..Default$u20$for$u20$alloc..boxed..Box$LT$core..ffi..c_str..CStr$GT$$GT$7default17h9d333be8b5e90a9bE', symObjAddr: 0x19A0, symBinAddr: 0x7B5F0, symSize: 0x40 }
  - { offset: 0x167A19, size: 0x8, addend: 0x0, symName: '__ZN66_$LT$alloc..ffi..c_str..NulError$u20$as$u20$core..fmt..Display$GT$3fmt17h6f8d4650b29904c8E', symObjAddr: 0x19E0, symBinAddr: 0x7B630, symSize: 0x60 }
  - { offset: 0x167A95, size: 0x8, addend: 0x0, symName: '__ZN77_$LT$alloc..ffi..c_str..FromVecWithNulError$u20$as$u20$core..fmt..Display$GT$3fmt17ha1b8ce31b8da21aeE', symObjAddr: 0x1A40, symBinAddr: 0x7B690, symSize: 0x90 }
  - { offset: 0x167AFB, size: 0x8, addend: 0x0, symName: '__ZN73_$LT$alloc..ffi..c_str..IntoStringError$u20$as$u20$core..fmt..Display$GT$3fmt17he11972eb1d0af118E', symObjAddr: 0x1AD0, symBinAddr: 0x7B720, symSize: 0x20 }
  - { offset: 0x167B1D, size: 0x8, addend: 0x0, symName: '__ZN100_$LT$alloc..ffi..c_str..CString$u20$as$u20$core..convert..From$LT$$RF$core..ffi..c_str..CStr$GT$$GT$4from17he431b2ae7471179dE', symObjAddr: 0x1C10, symBinAddr: 0x7B860, symSize: 0x80 }
  - { offset: 0x167C94, size: 0x8, addend: 0x0, symName: __ZN5alloc3fmt6format12format_inner17h1708949360b26f9eE, symObjAddr: 0x1CC0, symBinAddr: 0x7B910, symSize: 0x1C0 }
  - { offset: 0x167F71, size: 0x8, addend: 0x0, symName: __ZN5alloc2rc32rc_inner_layout_for_value_layout17h5469a3989815a501E, symObjAddr: 0x1E80, symBinAddr: 0x7BAD0, symSize: 0x70 }
  - { offset: 0x167F90, size: 0x8, addend: 0x0, symName: __ZN5alloc2rc32rc_inner_layout_for_value_layout17h5469a3989815a501E, symObjAddr: 0x1E80, symBinAddr: 0x7BAD0, symSize: 0x70 }
  - { offset: 0x167FA6, size: 0x8, addend: 0x0, symName: __ZN5alloc2rc32rc_inner_layout_for_value_layout17h5469a3989815a501E, symObjAddr: 0x1E80, symBinAddr: 0x7BAD0, symSize: 0x70 }
  - { offset: 0x168046, size: 0x8, addend: 0x0, symName: __ZN5alloc4sync32arcinner_layout_for_value_layout17h715b24ba25c43c6aE, symObjAddr: 0x5690, symBinAddr: 0x7F2E0, symSize: 0x66 }
  - { offset: 0x168065, size: 0x8, addend: 0x0, symName: __ZN5alloc4sync32arcinner_layout_for_value_layout17h715b24ba25c43c6aE, symObjAddr: 0x5690, symBinAddr: 0x7F2E0, symSize: 0x66 }
  - { offset: 0x16807B, size: 0x8, addend: 0x0, symName: __ZN5alloc4sync32arcinner_layout_for_value_layout17h715b24ba25c43c6aE, symObjAddr: 0x5690, symBinAddr: 0x7F2E0, symSize: 0x66 }
  - { offset: 0x168134, size: 0x8, addend: 0x0, symName: __ZN4core3num7dec2flt11decimal_seq10DecimalSeq4trim17ha5140375e1d8e2daE, symObjAddr: 0x0, symBinAddr: 0x7F3E0, symSize: 0x50 }
  - { offset: 0x168160, size: 0x8, addend: 0x0, symName: __ZN4core3num7dec2flt11decimal_seq10DecimalSeq4trim17ha5140375e1d8e2daE, symObjAddr: 0x0, symBinAddr: 0x7F3E0, symSize: 0x50 }
  - { offset: 0x168174, size: 0x8, addend: 0x0, symName: __ZN4core3num7dec2flt11decimal_seq10DecimalSeq5round17h7a7a2e93af39aa86E, symObjAddr: 0x50, symBinAddr: 0x7F430, symSize: 0x110 }
  - { offset: 0x1681C2, size: 0x8, addend: 0x0, symName: __ZN4core3num7dec2flt11decimal_seq10DecimalSeq10left_shift17hbd7ec637a96aa1e6E, symObjAddr: 0x160, symBinAddr: 0x7F540, symSize: 0x230 }
  - { offset: 0x16827C, size: 0x8, addend: 0x0, symName: __ZN4core3num7dec2flt11decimal_seq10DecimalSeq11right_shift17h51ebfd2be8918d9bE, symObjAddr: 0x390, symBinAddr: 0x7F770, symSize: 0x200 }
  - { offset: 0x168310, size: 0x8, addend: 0x0, symName: __ZN4core3num7dec2flt11decimal_seq17parse_decimal_seq17h7a1f754950a298d4E, symObjAddr: 0x590, symBinAddr: 0x7F970, symSize: 0x3C0 }
  - { offset: 0x168758, size: 0x8, addend: 0x0, symName: '__ZN59_$LT$f32$u20$as$u20$core..num..dec2flt..float..RawFloat$GT$15pow10_fast_path17hf1e38c85d7d6c48eE', symObjAddr: 0x950, symBinAddr: 0x7FD30, symSize: 0x20 }
  - { offset: 0x1687B4, size: 0x8, addend: 0x0, symName: '__ZN59_$LT$f64$u20$as$u20$core..num..dec2flt..float..RawFloat$GT$15pow10_fast_path17h34ad3d63bc5c307eE', symObjAddr: 0x970, symBinAddr: 0x7FD50, symSize: 0x20 }
  - { offset: 0x168886, size: 0x8, addend: 0x0, symName: __ZN4core3num7dec2flt6lemire13compute_float17hd3a40dc97b74387eE, symObjAddr: 0x990, symBinAddr: 0x7FD70, symSize: 0x190 }
  - { offset: 0x168943, size: 0x8, addend: 0x0, symName: __ZN4core3num7dec2flt6lemire13compute_float17hf7387fe071ee48d2E, symObjAddr: 0xB20, symBinAddr: 0x7FF00, symSize: 0x170 }
  - { offset: 0x1689F3, size: 0x8, addend: 0x0, symName: __ZN4core3num7dec2flt6lemire22compute_product_approx17he9f030e601b552e1E, symObjAddr: 0xC90, symBinAddr: 0x80070, symSize: 0x80 }
  - { offset: 0x168AB7, size: 0x8, addend: 0x0, symName: __ZN4core3num7dec2flt5parse12parse_number17h913156520cf39866E, symObjAddr: 0xD10, symBinAddr: 0x800F0, symSize: 0x4C0 }
  - { offset: 0x1690D3, size: 0x8, addend: 0x0, symName: '__ZN74_$LT$core..num..dec2flt..ParseFloatError$u20$as$u20$core..fmt..Display$GT$3fmt17hf574b2b3e920259cE', symObjAddr: 0x11D0, symBinAddr: 0x805B0, symSize: 0x40 }
  - { offset: 0x1691DF, size: 0x8, addend: 0x0, symName: '__ZN4core3num7dec2flt60_$LT$impl$u20$core..str..traits..FromStr$u20$for$u20$f32$GT$8from_str17h84462a39f89fe9a5E', symObjAddr: 0x15260, symBinAddr: 0x93A10, symSize: 0x510 }
  - { offset: 0x169417, size: 0x8, addend: 0x0, symName: '__ZN4core3num7dec2flt60_$LT$impl$u20$core..str..traits..FromStr$u20$for$u20$f64$GT$8from_str17h5352b5b24bea837fE', symObjAddr: 0x15770, symBinAddr: 0x93F20, symSize: 0x550 }
  - { offset: 0x169A92, size: 0x8, addend: 0x0, symName: __ZN4core3num9diy_float2Fp3mul17h3e6874b42d034445E, symObjAddr: 0x1210, symBinAddr: 0x805F0, symSize: 0x20 }
  - { offset: 0x169AD3, size: 0x8, addend: 0x0, symName: __ZN4core3num9diy_float2Fp9normalize17hb2c9c278f33e6f20E, symObjAddr: 0x1230, symBinAddr: 0x80610, symSize: 0x20 }
  - { offset: 0x169AFD, size: 0x8, addend: 0x0, symName: __ZN4core3num9diy_float2Fp12normalize_to17h1830cbee25dd0cf7E, symObjAddr: 0x1250, symBinAddr: 0x80630, symSize: 0x70 }
  - { offset: 0x169B46, size: 0x8, addend: 0x0, symName: __ZN4core3num7flt2dec9estimator23estimate_scaling_factor17h8238940728044cbcE, symObjAddr: 0x12C0, symBinAddr: 0x806A0, symSize: 0x40 }
  - { offset: 0x169B8A, size: 0x8, addend: 0x0, symName: __ZN4core3num7flt2dec8strategy6dragon9mul_pow1017hbe8d9253427ed3e7E, symObjAddr: 0x1300, symBinAddr: 0x806E0, symSize: 0x280 }
  - { offset: 0x169E2A, size: 0x8, addend: 0x0, symName: __ZN4core3num7flt2dec8strategy6dragon15format_shortest17hed2117cc07b0fd4bE, symObjAddr: 0x1580, symBinAddr: 0x80960, symSize: 0xD00 }
  - { offset: 0x16B7CF, size: 0x8, addend: 0x0, symName: __ZN4core3num7flt2dec8strategy6dragon12format_exact17h43617a8599a16ab0E, symObjAddr: 0x2280, symBinAddr: 0x81660, symSize: 0xAF0 }
  - { offset: 0x16CEAB, size: 0x8, addend: 0x0, symName: __ZN4core3num7flt2dec8strategy5grisu12cached_power17h9339befa15a7a892E, symObjAddr: 0x2D70, symBinAddr: 0x82150, symSize: 0x70 }
  - { offset: 0x16CEEE, size: 0x8, addend: 0x0, symName: __ZN4core3num7flt2dec8strategy5grisu19format_shortest_opt17h4e4909f75beb242aE, symObjAddr: 0x2DE0, symBinAddr: 0x821C0, symSize: 0x690 }
  - { offset: 0x16D0AC, size: 0x8, addend: 0x0, symName: __ZN4core3num7flt2dec8strategy5grisu15format_shortest17h28c1e74672277217E, symObjAddr: 0x3470, symBinAddr: 0x82850, symSize: 0x70 }
  - { offset: 0x16D0C0, size: 0x8, addend: 0x0, symName: __ZN4core3num7flt2dec8strategy5grisu16format_exact_opt17h0d0787b1af40d553E, symObjAddr: 0x34E0, symBinAddr: 0x828C0, symSize: 0x3E0 }
  - { offset: 0x16D165, size: 0x8, addend: 0x0, symName: __ZN4core3num7flt2dec8strategy5grisu16format_exact_opt14possibly_round17h9a3694a0fb6f71b3E, symObjAddr: 0x38C0, symBinAddr: 0x82CA0, symSize: 0x1C0 }
  - { offset: 0x16D315, size: 0x8, addend: 0x0, symName: __ZN4core3num7flt2dec8strategy5grisu12format_exact17h385cc563e017b25fE, symObjAddr: 0x3A80, symBinAddr: 0x82E60, symSize: 0x70 }
  - { offset: 0x16D368, size: 0x8, addend: 0x0, symName: __ZN4core3num7flt2dec8round_up17hf76277bb1211e548E, symObjAddr: 0x3AF0, symBinAddr: 0x82ED0, symSize: 0xA0 }
  - { offset: 0x16D447, size: 0x8, addend: 0x0, symName: __ZN4core3num7flt2dec17digits_to_dec_str17hd0869e1143fe2842E, symObjAddr: 0x3B90, symBinAddr: 0x82F70, symSize: 0x170 }
  - { offset: 0x16D4E8, size: 0x8, addend: 0x0, symName: __ZN4core3num7flt2dec17digits_to_exp_str17hde2b77467d8a2daeE, symObjAddr: 0x3D00, symBinAddr: 0x830E0, symSize: 0x170 }
  - { offset: 0x16D74E, size: 0x8, addend: 0x0, symName: __ZN4core3num6bignum8Big32x408from_u6417h65ba0e859a611049E, symObjAddr: 0x12BD0, symBinAddr: 0x91380, symSize: 0x60 }
  - { offset: 0x16D762, size: 0x8, addend: 0x0, symName: __ZN4core3num6bignum8Big32x406digits17h5156049c5c4eb641E, symObjAddr: 0x12C30, symBinAddr: 0x913E0, symSize: 0x30 }
  - { offset: 0x16D7B0, size: 0x8, addend: 0x0, symName: __ZN4core3num6bignum8Big32x407get_bit17h2e052b9059522d2bE, symObjAddr: 0x12C60, symBinAddr: 0x91410, symSize: 0x40 }
  - { offset: 0x16D7C4, size: 0x8, addend: 0x0, symName: __ZN4core3num6bignum8Big32x407is_zero17hb70a9436196b6f23E, symObjAddr: 0x12CA0, symBinAddr: 0x91450, symSize: 0x50 }
  - { offset: 0x16D868, size: 0x8, addend: 0x0, symName: __ZN4core3num6bignum8Big32x4010bit_length17h4f488e8d4fde1f93E, symObjAddr: 0x12CF0, symBinAddr: 0x914A0, symSize: 0x80 }
  - { offset: 0x16D957, size: 0x8, addend: 0x0, symName: __ZN4core3num6bignum8Big32x403add17ha51c5acfce8c2959E, symObjAddr: 0x12D70, symBinAddr: 0x91520, symSize: 0xA0 }
  - { offset: 0x16D9FA, size: 0x8, addend: 0x0, symName: __ZN4core3num6bignum8Big32x409add_small17he2975c19eede23c1E, symObjAddr: 0x12E10, symBinAddr: 0x915C0, symSize: 0x60 }
  - { offset: 0x16DA14, size: 0x8, addend: 0x0, symName: __ZN4core3num6bignum8Big32x403sub17h76de1770b442c7a4E, symObjAddr: 0x12E70, symBinAddr: 0x91620, symSize: 0x90 }
  - { offset: 0x16DAB7, size: 0x8, addend: 0x0, symName: __ZN4core3num6bignum8Big32x409mul_small17hfb13cc7cfa1bf0e0E, symObjAddr: 0x12F00, symBinAddr: 0x916B0, symSize: 0xA0 }
  - { offset: 0x16DB4C, size: 0x8, addend: 0x0, symName: __ZN4core3num6bignum8Big32x408mul_pow217h72566a4b56a40becE, symObjAddr: 0x12FA0, symBinAddr: 0x91750, symSize: 0x4B0 }
  - { offset: 0x16DC0A, size: 0x8, addend: 0x0, symName: __ZN4core3num6bignum8Big32x408mul_pow517hcb3aea9535855036E, symObjAddr: 0x13450, symBinAddr: 0x91C00, symSize: 0x200 }
  - { offset: 0x16DE52, size: 0x8, addend: 0x0, symName: __ZN4core3num6bignum8Big32x4010mul_digits17h85e99a2738f1b0bbE, symObjAddr: 0x13650, symBinAddr: 0x91E00, symSize: 0x340 }
  - { offset: 0x16E155, size: 0x8, addend: 0x0, symName: __ZN4core3num6bignum8Big32x4013div_rem_small17h49532031368729d0E, symObjAddr: 0x13990, symBinAddr: 0x92140, symSize: 0x90 }
  - { offset: 0x16E1FF, size: 0x8, addend: 0x0, symName: __ZN4core3num6bignum8Big32x407div_rem17h47c25fd37f4a0f7dE, symObjAddr: 0x13A20, symBinAddr: 0x921D0, symSize: 0x270 }
  - { offset: 0x16E6AE, size: 0x8, addend: 0x0, symName: '__ZN62_$LT$core..num..bignum..Big32x40$u20$as$u20$core..cmp..Ord$GT$3cmp17hc3746557f5c08a31E', symObjAddr: 0x13D20, symBinAddr: 0x924D0, symSize: 0x70 }
  - { offset: 0x16E8B1, size: 0x8, addend: 0x0, symName: '__ZN69_$LT$core..num..bignum..Big32x40$u20$as$u20$core..cmp..PartialOrd$GT$11partial_cmp17h7f914ecd9c646b7eE', symObjAddr: 0x13CB0, symBinAddr: 0x92460, symSize: 0x70 }
  - { offset: 0x16EAC2, size: 0x8, addend: 0x0, symName: '__ZN50_$LT$u32$u20$as$u20$core..num..bignum..FullOps$GT$12full_div_rem17h47408dd3df15a387E', symObjAddr: 0x12BA0, symBinAddr: 0x91350, symSize: 0x30 }
  - { offset: 0x16EB2E, size: 0x8, addend: 0x0, symName: '__ZN49_$LT$u8$u20$as$u20$core..num..bignum..FullOps$GT$12full_div_rem17hcdc6a1ff64dd8b4bE', symObjAddr: 0x12B40, symBinAddr: 0x912F0, symSize: 0x30 }
  - { offset: 0x16EB63, size: 0x8, addend: 0x0, symName: '__ZN50_$LT$u16$u20$as$u20$core..num..bignum..FullOps$GT$12full_div_rem17he4a485ffcc4886aeE', symObjAddr: 0x12B70, symBinAddr: 0x91320, symSize: 0x30 }
  - { offset: 0x16EB84, size: 0x8, addend: 0x0, symName: '__ZN68_$LT$core..num..bignum..Big32x40$u20$as$u20$core..cmp..PartialEq$GT$2eq17hcabe1f4b59871e0dE', symObjAddr: 0x13C90, symBinAddr: 0x92440, symSize: 0x20 }
  - { offset: 0x16EBD3, size: 0x8, addend: 0x0, symName: '__ZN64_$LT$core..num..bignum..Big32x40$u20$as$u20$core..fmt..Debug$GT$3fmt17h86e4dfc21ae26aabE', symObjAddr: 0x13D90, symBinAddr: 0x92540, symSize: 0x170 }
  - { offset: 0x16ECC5, size: 0x8, addend: 0x0, symName: __ZN4core3num6bignum5tests6Big8x38from_u6417h1f2939fcba13017aE, symObjAddr: 0x13F00, symBinAddr: 0x926B0, symSize: 0x80 }
  - { offset: 0x16ECDF, size: 0x8, addend: 0x0, symName: __ZN4core3num6bignum5tests6Big8x36digits17h9a5c988ff702fdceE, symObjAddr: 0x13F80, symBinAddr: 0x92730, symSize: 0x30 }
  - { offset: 0x16ED2D, size: 0x8, addend: 0x0, symName: __ZN4core3num6bignum5tests6Big8x37get_bit17h6991bc51b7668e11E, symObjAddr: 0x13FB0, symBinAddr: 0x92760, symSize: 0x40 }
  - { offset: 0x16ED4E, size: 0x8, addend: 0x0, symName: __ZN4core3num6bignum5tests6Big8x37is_zero17h6aac5dc0fad161e5E, symObjAddr: 0x13FF0, symBinAddr: 0x927A0, symSize: 0x70 }
  - { offset: 0x16EDE2, size: 0x8, addend: 0x0, symName: __ZN4core3num6bignum5tests6Big8x310bit_length17he121a005bff13d79E, symObjAddr: 0x14060, symBinAddr: 0x92810, symSize: 0xA0 }
  - { offset: 0x16EEB1, size: 0x8, addend: 0x0, symName: __ZN4core3num6bignum5tests6Big8x33add17h37c4033d30e04168E, symObjAddr: 0x14100, symBinAddr: 0x928B0, symSize: 0xA0 }
  - { offset: 0x16EF5A, size: 0x8, addend: 0x0, symName: __ZN4core3num6bignum5tests6Big8x39add_small17h3ec380108980457aE, symObjAddr: 0x141A0, symBinAddr: 0x92950, symSize: 0x50 }
  - { offset: 0x16EF74, size: 0x8, addend: 0x0, symName: __ZN4core3num6bignum5tests6Big8x33sub17hd4a2b69e1a7ed4b6E, symObjAddr: 0x141F0, symBinAddr: 0x929A0, symSize: 0x90 }
  - { offset: 0x16F017, size: 0x8, addend: 0x0, symName: __ZN4core3num6bignum5tests6Big8x39mul_small17h0d12481e5308e28bE, symObjAddr: 0x14280, symBinAddr: 0x92A30, symSize: 0xC0 }
  - { offset: 0x16F09C, size: 0x8, addend: 0x0, symName: __ZN4core3num6bignum5tests6Big8x38mul_pow217hdd40626400e81ca5E, symObjAddr: 0x14340, symBinAddr: 0x92AF0, symSize: 0x2D0 }
  - { offset: 0x16F17F, size: 0x8, addend: 0x0, symName: __ZN4core3num6bignum5tests6Big8x38mul_pow517h6e0c60deec66e7b6E, symObjAddr: 0x14610, symBinAddr: 0x92DC0, symSize: 0x1E0 }
  - { offset: 0x16F363, size: 0x8, addend: 0x0, symName: __ZN4core3num6bignum5tests6Big8x310mul_digits17h05b4397d821a8d20E, symObjAddr: 0x147F0, symBinAddr: 0x92FA0, symSize: 0x410 }
  - { offset: 0x16F62A, size: 0x8, addend: 0x0, symName: __ZN4core3num6bignum5tests6Big8x313div_rem_small17h5ada774643482493E, symObjAddr: 0x14C00, symBinAddr: 0x933B0, symSize: 0xB0 }
  - { offset: 0x16F726, size: 0x8, addend: 0x0, symName: __ZN4core3num6bignum5tests6Big8x37div_rem17h2dc7f2356cd93a54E, symObjAddr: 0x14CB0, symBinAddr: 0x93460, symSize: 0x310 }
  - { offset: 0x16FB6E, size: 0x8, addend: 0x0, symName: '__ZN67_$LT$core..num..bignum..tests..Big8x3$u20$as$u20$core..cmp..Ord$GT$3cmp17h311a30dcecc1c185E', symObjAddr: 0x15070, symBinAddr: 0x93820, symSize: 0x90 }
  - { offset: 0x16FD01, size: 0x8, addend: 0x0, symName: '__ZN74_$LT$core..num..bignum..tests..Big8x3$u20$as$u20$core..cmp..PartialOrd$GT$11partial_cmp17h277bca667d5bb473E', symObjAddr: 0x14FE0, symBinAddr: 0x93790, symSize: 0x90 }
  - { offset: 0x16FE95, size: 0x8, addend: 0x0, symName: '__ZN73_$LT$core..num..bignum..tests..Big8x3$u20$as$u20$core..cmp..PartialEq$GT$2eq17h3fb1fab4f94e8644E', symObjAddr: 0x14FC0, symBinAddr: 0x93770, symSize: 0x20 }
  - { offset: 0x16FEE4, size: 0x8, addend: 0x0, symName: '__ZN69_$LT$core..num..bignum..tests..Big8x3$u20$as$u20$core..fmt..Debug$GT$3fmt17h082f190700420a18E', symObjAddr: 0x15100, symBinAddr: 0x938B0, symSize: 0x160 }
  - { offset: 0x1700AF, size: 0x8, addend: 0x0, symName: __ZN4core3num3fmt4Part5write17h0cd74cebb0245512E, symObjAddr: 0x3E70, symBinAddr: 0x83250, symSize: 0x1B0 }
  - { offset: 0x170232, size: 0x8, addend: 0x0, symName: __ZN4core3num3fmt9Formatted3len17h32e6b9cea1b15944E, symObjAddr: 0x4020, symBinAddr: 0x83400, symSize: 0xA0 }
  - { offset: 0x17026F, size: 0x8, addend: 0x0, symName: __ZN4core3num3fmt9Formatted5write17h1a1884d29e245a78E, symObjAddr: 0x40C0, symBinAddr: 0x834A0, symSize: 0xB0 }
  - { offset: 0x17038B, size: 0x8, addend: 0x0, symName: '__ZN72_$LT$core..num..error..TryFromIntError$u20$as$u20$core..fmt..Display$GT$3fmt17h529442d8d8a0476dE', symObjAddr: 0x4170, symBinAddr: 0x83550, symSize: 0x20 }
  - { offset: 0x1703D6, size: 0x8, addend: 0x0, symName: '__ZN70_$LT$core..num..error..ParseIntError$u20$as$u20$core..fmt..Display$GT$3fmt17ha351b89d085411fbE', symObjAddr: 0x4190, symBinAddr: 0x83570, symSize: 0x30 }
  - { offset: 0x170423, size: 0x8, addend: 0x0, symName: __ZN4core3num9int_log1030panic_for_nonpositive_argument17h8ebf2543fe41af10E, symObjAddr: 0x41C0, symBinAddr: 0x9DDF0, symSize: 0x40 }
  - { offset: 0x17049B, size: 0x8, addend: 0x0, symName: __ZN4core3num8int_sqrt27panic_for_negative_argument17h446b9580480375c1E, symObjAddr: 0x4200, symBinAddr: 0x9DE30, symSize: 0x40 }
  - { offset: 0x1704D4, size: 0x8, addend: 0x0, symName: __ZN4core3num14overflow_panic3add17h1e06ee073f252e0cE, symObjAddr: 0x4240, symBinAddr: 0x9DE70, symSize: 0x40 }
  - { offset: 0x170504, size: 0x8, addend: 0x0, symName: __ZN4core3num14overflow_panic3sub17hefb85a4430222c8dE, symObjAddr: 0x4280, symBinAddr: 0x9DEB0, symSize: 0x40 }
  - { offset: 0x170534, size: 0x8, addend: 0x0, symName: __ZN4core3num14overflow_panic3mul17h6a2bdedce76ba1f1E, symObjAddr: 0x42C0, symBinAddr: 0x9DEF0, symSize: 0x40 }
  - { offset: 0x170564, size: 0x8, addend: 0x0, symName: __ZN4core3num14overflow_panic3div17hfd55d3690fa7a5c1E, symObjAddr: 0x4300, symBinAddr: 0x9DF30, symSize: 0x40 }
  - { offset: 0x170594, size: 0x8, addend: 0x0, symName: __ZN4core3num14overflow_panic3rem17h174d8c0a98b3211cE, symObjAddr: 0x4340, symBinAddr: 0x9DF70, symSize: 0x40 }
  - { offset: 0x1705C4, size: 0x8, addend: 0x0, symName: __ZN4core3num14overflow_panic3neg17hc08e7e5570d5bd10E, symObjAddr: 0x4380, symBinAddr: 0x9DFB0, symSize: 0x40 }
  - { offset: 0x1705F4, size: 0x8, addend: 0x0, symName: __ZN4core3num14overflow_panic3shr17h7f216c6c7b2be39fE, symObjAddr: 0x43C0, symBinAddr: 0x9DFF0, symSize: 0x40 }
  - { offset: 0x170624, size: 0x8, addend: 0x0, symName: __ZN4core3num14overflow_panic3shl17h10efdb81ac5e5f2aE, symObjAddr: 0x4400, symBinAddr: 0x9E030, symSize: 0x40 }
  - { offset: 0x17066E, size: 0x8, addend: 0x0, symName: __ZN4core3num22from_ascii_radix_panic8do_panic7runtime17hb612b7852b901edeE, symObjAddr: 0x176D0, symBinAddr: 0x9EA30, symSize: 0x60 }
  - { offset: 0x1706A2, size: 0x8, addend: 0x0, symName: __ZN4core3num22from_ascii_radix_panic17ha104ab21018f1a7dE, symObjAddr: 0x4440, symBinAddr: 0x9E070, symSize: 0x10 }
  - { offset: 0x170756, size: 0x8, addend: 0x0, symName: '__ZN73_$LT$core..num..nonzero..NonZero$LT$T$GT$$u20$as$u20$core..fmt..Debug$GT$3fmt17hc4c72b2fb55a3eb9E', symObjAddr: 0x15CC0, symBinAddr: 0x94470, symSize: 0xE0 }
  - { offset: 0x1708E2, size: 0x8, addend: 0x0, symName: '__ZN84_$LT$core..num..nonzero..NonZero$LT$u8$GT$$u20$as$u20$core..str..traits..FromStr$GT$8from_str17h890c1f0a30457d93E', symObjAddr: 0x15DA0, symBinAddr: 0x94550, symSize: 0xE0 }
  - { offset: 0x1709B7, size: 0x8, addend: 0x0, symName: '__ZN85_$LT$core..num..nonzero..NonZero$LT$u16$GT$$u20$as$u20$core..str..traits..FromStr$GT$8from_str17h50824e84ee4496a6E', symObjAddr: 0x15E80, symBinAddr: 0x94630, symSize: 0xF0 }
  - { offset: 0x170A9C, size: 0x8, addend: 0x0, symName: '__ZN85_$LT$core..num..nonzero..NonZero$LT$u32$GT$$u20$as$u20$core..str..traits..FromStr$GT$8from_str17hfc4b1ab9c06e429aE', symObjAddr: 0x15F70, symBinAddr: 0x94720, symSize: 0x110 }
  - { offset: 0x170B95, size: 0x8, addend: 0x0, symName: '__ZN85_$LT$core..num..nonzero..NonZero$LT$u64$GT$$u20$as$u20$core..str..traits..FromStr$GT$8from_str17he3f822540e4ddc33E', symObjAddr: 0x16080, symBinAddr: 0x94830, symSize: 0xF0 }
  - { offset: 0x170C70, size: 0x8, addend: 0x0, symName: '__ZN86_$LT$core..num..nonzero..NonZero$LT$u128$GT$$u20$as$u20$core..str..traits..FromStr$GT$8from_str17ha28ea0e560ac7f97E', symObjAddr: 0x16170, symBinAddr: 0x94920, symSize: 0x130 }
  - { offset: 0x170D62, size: 0x8, addend: 0x0, symName: '__ZN84_$LT$core..num..nonzero..NonZero$LT$i8$GT$$u20$as$u20$core..str..traits..FromStr$GT$8from_str17h752c0bb20c0748f7E', symObjAddr: 0x162A0, symBinAddr: 0x94A50, symSize: 0x160 }
  - { offset: 0x170EB7, size: 0x8, addend: 0x0, symName: '__ZN85_$LT$core..num..nonzero..NonZero$LT$i16$GT$$u20$as$u20$core..str..traits..FromStr$GT$8from_str17h3299f3d6f1ca1df6E', symObjAddr: 0x16400, symBinAddr: 0x94BB0, symSize: 0x1F0 }
  - { offset: 0x17101C, size: 0x8, addend: 0x0, symName: '__ZN85_$LT$core..num..nonzero..NonZero$LT$i32$GT$$u20$as$u20$core..str..traits..FromStr$GT$8from_str17hac4ff77baaf81aeeE', symObjAddr: 0x165F0, symBinAddr: 0x94DA0, symSize: 0x1E0 }
  - { offset: 0x171181, size: 0x8, addend: 0x0, symName: '__ZN85_$LT$core..num..nonzero..NonZero$LT$i64$GT$$u20$as$u20$core..str..traits..FromStr$GT$8from_str17hc5f8081d76dec8a8E', symObjAddr: 0x167D0, symBinAddr: 0x94F80, symSize: 0x190 }
  - { offset: 0x1712FC, size: 0x8, addend: 0x0, symName: '__ZN86_$LT$core..num..nonzero..NonZero$LT$i128$GT$$u20$as$u20$core..str..traits..FromStr$GT$8from_str17h42805b16449175b2E', symObjAddr: 0x16960, symBinAddr: 0x95110, symSize: 0x240 }
  - { offset: 0x171BB0, size: 0x8, addend: 0x0, symName: '__ZN72_$LT$core..num..niche_types..Nanoseconds$u20$as$u20$core..fmt..Debug$GT$3fmt17he2fc2a4f2fd5d6faE', symObjAddr: 0x16BA0, symBinAddr: 0x95350, symSize: 0xE0 }
  - { offset: 0x171D3C, size: 0x8, addend: 0x0, symName: '__ZN75_$LT$core..num..niche_types..NonZeroU8Inner$u20$as$u20$core..fmt..Debug$GT$3fmt17h8fdfac369de6665cE', symObjAddr: 0x16C80, symBinAddr: 0x95430, symSize: 0x10 }
  - { offset: 0x171D5D, size: 0x8, addend: 0x0, symName: '__ZN76_$LT$core..num..niche_types..NonZeroU16Inner$u20$as$u20$core..fmt..Debug$GT$3fmt17hd6d5b9de8485839eE', symObjAddr: 0x16C90, symBinAddr: 0x95440, symSize: 0x10 }
  - { offset: 0x171D7E, size: 0x8, addend: 0x0, symName: '__ZN76_$LT$core..num..niche_types..NonZeroU32Inner$u20$as$u20$core..fmt..Debug$GT$3fmt17he019a32820324e81E', symObjAddr: 0x16CA0, symBinAddr: 0x95450, symSize: 0xE0 }
  - { offset: 0x171F0A, size: 0x8, addend: 0x0, symName: '__ZN76_$LT$core..num..niche_types..NonZeroU64Inner$u20$as$u20$core..fmt..Debug$GT$3fmt17h8ae0138bbc9dbb6bE', symObjAddr: 0x16D80, symBinAddr: 0x95530, symSize: 0xE0 }
  - { offset: 0x172096, size: 0x8, addend: 0x0, symName: '__ZN77_$LT$core..num..niche_types..NonZeroU128Inner$u20$as$u20$core..fmt..Debug$GT$3fmt17h40b0c005e11fa70fE', symObjAddr: 0x16E60, symBinAddr: 0x95610, symSize: 0x20 }
  - { offset: 0x1720B7, size: 0x8, addend: 0x0, symName: '__ZN75_$LT$core..num..niche_types..NonZeroI8Inner$u20$as$u20$core..fmt..Debug$GT$3fmt17h3f85276009590114E', symObjAddr: 0x16E80, symBinAddr: 0x95630, symSize: 0x10 }
  - { offset: 0x1720EC, size: 0x8, addend: 0x0, symName: '__ZN76_$LT$core..num..niche_types..NonZeroI16Inner$u20$as$u20$core..fmt..Debug$GT$3fmt17hd9db67844eb413feE', symObjAddr: 0x16E90, symBinAddr: 0x95640, symSize: 0xE0 }
  - { offset: 0x172270, size: 0x8, addend: 0x0, symName: '__ZN76_$LT$core..num..niche_types..NonZeroI32Inner$u20$as$u20$core..fmt..Debug$GT$3fmt17h6a44e3a01b21cb8aE', symObjAddr: 0x16F70, symBinAddr: 0x95720, symSize: 0xF0 }
  - { offset: 0x172429, size: 0x8, addend: 0x0, symName: '__ZN76_$LT$core..num..niche_types..NonZeroI64Inner$u20$as$u20$core..fmt..Debug$GT$3fmt17h47c1a7cd41500c19E', symObjAddr: 0x17060, symBinAddr: 0x95810, symSize: 0xF0 }
  - { offset: 0x1725E2, size: 0x8, addend: 0x0, symName: '__ZN77_$LT$core..num..niche_types..NonZeroI128Inner$u20$as$u20$core..fmt..Debug$GT$3fmt17heb9431d265757e53E', symObjAddr: 0x17150, symBinAddr: 0x95900, symSize: 0x20 }
  - { offset: 0x172603, size: 0x8, addend: 0x0, symName: '__ZN75_$LT$core..num..niche_types..UsizeNoHighBit$u20$as$u20$core..fmt..Debug$GT$3fmt17h6b48ef3690285d5eE', symObjAddr: 0x17170, symBinAddr: 0x95920, symSize: 0xE0 }
  - { offset: 0x17278F, size: 0x8, addend: 0x0, symName: '__ZN78_$LT$core..num..niche_types..NonZeroUsizeInner$u20$as$u20$core..fmt..Debug$GT$3fmt17hc37186d4e1379429E', symObjAddr: 0x17250, symBinAddr: 0x95A00, symSize: 0xE0 }
  - { offset: 0x17291B, size: 0x8, addend: 0x0, symName: '__ZN74_$LT$core..num..niche_types..U32NotAllOnes$u20$as$u20$core..fmt..Debug$GT$3fmt17h8e7e5ea26d248e90E', symObjAddr: 0x17330, symBinAddr: 0x95AE0, symSize: 0xE0 }
  - { offset: 0x172AA7, size: 0x8, addend: 0x0, symName: '__ZN74_$LT$core..num..niche_types..I32NotAllOnes$u20$as$u20$core..fmt..Debug$GT$3fmt17h1746e6758b66b27cE', symObjAddr: 0x17410, symBinAddr: 0x95BC0, symSize: 0xF0 }
  - { offset: 0x172C60, size: 0x8, addend: 0x0, symName: '__ZN74_$LT$core..num..niche_types..U64NotAllOnes$u20$as$u20$core..fmt..Debug$GT$3fmt17h827e0d5457a43306E', symObjAddr: 0x17500, symBinAddr: 0x95CB0, symSize: 0xE0 }
  - { offset: 0x172DEC, size: 0x8, addend: 0x0, symName: '__ZN74_$LT$core..num..niche_types..I64NotAllOnes$u20$as$u20$core..fmt..Debug$GT$3fmt17he7b97c94d131fbf0E', symObjAddr: 0x175E0, symBinAddr: 0x95D90, symSize: 0xF0 }
  - { offset: 0x174B7F, size: 0x8, addend: 0x0, symName: __ZN4core5slice5index26slice_start_index_len_fail8do_panic7runtime17h16f85e2460a1a48cE, symObjAddr: 0x1BC10, symBinAddr: 0x9F140, symSize: 0x70 }
  - { offset: 0x174BB3, size: 0x8, addend: 0x0, symName: __ZN4core5slice5index26slice_start_index_len_fail17hb87864794985e414E, symObjAddr: 0xF420, symBinAddr: 0x9E7F0, symSize: 0x10 }
  - { offset: 0x174BFC, size: 0x8, addend: 0x0, symName: __ZN4core5slice5index24slice_end_index_len_fail8do_panic7runtime17h8d45b1a34f82f8acE, symObjAddr: 0x1BC80, symBinAddr: 0x9F1B0, symSize: 0x70 }
  - { offset: 0x174C30, size: 0x8, addend: 0x0, symName: __ZN4core5slice5index24slice_end_index_len_fail17ha64613c4e1ad5526E, symObjAddr: 0xF430, symBinAddr: 0x9E800, symSize: 0x10 }
  - { offset: 0x174C79, size: 0x8, addend: 0x0, symName: __ZN4core5slice5index22slice_index_order_fail8do_panic7runtime17h181a8d05f9d86c49E, symObjAddr: 0x1BCF0, symBinAddr: 0x9F220, symSize: 0x70 }
  - { offset: 0x174CAD, size: 0x8, addend: 0x0, symName: __ZN4core5slice5index22slice_index_order_fail17h92c818438e95abd3E, symObjAddr: 0xF440, symBinAddr: 0x9E810, symSize: 0x10 }
  - { offset: 0x174CDD, size: 0x8, addend: 0x0, symName: __ZN4core5slice5index31slice_start_index_overflow_fail17h6d84e59d1e42b5d8E, symObjAddr: 0xF450, symBinAddr: 0x9E820, symSize: 0x40 }
  - { offset: 0x174D0D, size: 0x8, addend: 0x0, symName: __ZN4core5slice5index29slice_end_index_overflow_fail17h857afb5640da0177E, symObjAddr: 0xF490, symBinAddr: 0x9E860, symSize: 0x40 }
  - { offset: 0x174D3D, size: 0x8, addend: 0x0, symName: __ZN4core5slice5index10into_range17h48eb4d718d539c37E, symObjAddr: 0xF4D0, symBinAddr: 0x8DE10, symSize: 0x70 }
  - { offset: 0x174DD7, size: 0x8, addend: 0x0, symName: __ZN4core5slice5index16into_slice_range17he1046e79153b09dbE, symObjAddr: 0xF540, symBinAddr: 0x8DE80, symSize: 0x60 }
  - { offset: 0x1754E0, size: 0x8, addend: 0x0, symName: '__ZN4core5slice29_$LT$impl$u20$$u5b$T$u5d$$GT$15copy_from_slice17len_mismatch_fail8do_panic7runtime17h21ea8a7b1560abe3E', symObjAddr: 0x1BD60, symBinAddr: 0x9F290, symSize: 0x70 }
  - { offset: 0x175514, size: 0x8, addend: 0x0, symName: '__ZN4core5slice29_$LT$impl$u20$$u5b$T$u5d$$GT$15copy_from_slice17len_mismatch_fail17h198733efa4c6576dE', symObjAddr: 0xF5A0, symBinAddr: 0x9E8A0, symSize: 0x20 }
  - { offset: 0x17554C, size: 0x8, addend: 0x0, symName: '__ZN4core5slice29_$LT$impl$u20$$u5b$T$u5d$$GT$16align_to_offsets3gcd17h81495f6bf83ec083E', symObjAddr: 0xF5C0, symBinAddr: 0x8DEE0, symSize: 0x30 }
  - { offset: 0x17596D, size: 0x8, addend: 0x0, symName: '__ZN105_$LT$core..slice..ascii..EscapeAscii$u20$as$u20$core..iter..traits..double_ended..DoubleEndedIterator$GT$9next_back17hbc0f465c47448e68E', symObjAddr: 0xF060, symBinAddr: 0x8DA50, symSize: 0x100 }
  - { offset: 0x175CE7, size: 0x8, addend: 0x0, symName: '__ZN70_$LT$core..slice..ascii..EscapeAscii$u20$as$u20$core..fmt..Display$GT$3fmt17h6023d13d63e23cd6E', symObjAddr: 0xF160, symBinAddr: 0x8DB50, symSize: 0x270 }
  - { offset: 0x176226, size: 0x8, addend: 0x0, symName: '__ZN68_$LT$core..slice..ascii..EscapeAscii$u20$as$u20$core..fmt..Debug$GT$3fmt17h0841cf8c2a75183dE', symObjAddr: 0xF3D0, symBinAddr: 0x8DDC0, symSize: 0x50 }
  - { offset: 0x17632C, size: 0x8, addend: 0x0, symName: __ZN4core5slice6memchr14memchr_aligned17h348978ff1a3f9558E, symObjAddr: 0xEDE0, symBinAddr: 0x8D820, symSize: 0xF0 }
  - { offset: 0x176430, size: 0x8, addend: 0x0, symName: __ZN4core5slice6memchr7memrchr17hf9a0a382bd82de98E, symObjAddr: 0xEED0, symBinAddr: 0x8D910, symSize: 0x110 }
  - { offset: 0x17662E, size: 0x8, addend: 0x0, symName: __ZN4core5slice4sort6stable5drift11sqrt_approx17h5f276d988825e659E, symObjAddr: 0xEFE0, symBinAddr: 0x8DA20, symSize: 0x30 }
  - { offset: 0x1766B1, size: 0x8, addend: 0x0, symName: __ZN4core5slice4sort6shared9smallsort22panic_on_ord_violation17ha68115e86e859be7E, symObjAddr: 0xF010, symBinAddr: 0x9E7A0, symSize: 0x50 }
  - { offset: 0x1766EC, size: 0x8, addend: 0x0, symName: '__ZN71_$LT$core..slice..GetDisjointMutError$u20$as$u20$core..fmt..Display$GT$3fmt17hed55b88f65d73e06E', symObjAddr: 0xF5F0, symBinAddr: 0x8DF10, symSize: 0x40 }
  - { offset: 0x176D66, size: 0x8, addend: 0x0, symName: '__ZN68_$LT$core..ptr..alignment..Alignment$u20$as$u20$core..fmt..Debug$GT$3fmt17h3f1559337290e73bE', symObjAddr: 0x4470, symBinAddr: 0x835C0, symSize: 0x80 }
  - { offset: 0x176FC3, size: 0x8, addend: 0x0, symName: __ZN4core10intrinsics3mir11PtrMetadata19panic_cold_explicit17h3e3408a640155338E, symObjAddr: 0x17730, symBinAddr: 0x9EA90, symSize: 0x10 }
  - { offset: 0x17705C, size: 0x8, addend: 0x0, symName: '__ZN42_$LT$str$u20$as$u20$core..fmt..Display$GT$3fmt17h6dadfdd99645f0abE', symObjAddr: 0xEAE0, symBinAddr: 0x8D520, symSize: 0x20 }
  - { offset: 0x1776AB, size: 0x8, addend: 0x0, symName: __ZN4core3fmt9Formatter12pad_integral17h50a5a2aca35c1d78E, symObjAddr: 0xC460, symBinAddr: 0x8AEA0, symSize: 0x4A0 }
  - { offset: 0x17795A, size: 0x8, addend: 0x0, symName: __ZN4core3fmt9Formatter3pad17h5cb12bb7d2237c80E, symObjAddr: 0xC960, symBinAddr: 0x8B3A0, symSize: 0x3D0 }
  - { offset: 0x177C1A, size: 0x8, addend: 0x0, symName: __ZN4core3fmt9Formatter19pad_formatted_parts17h190e4dfa4d25cd3aE, symObjAddr: 0xCD30, symBinAddr: 0x8B770, symSize: 0x280 }
  - { offset: 0x177DD9, size: 0x8, addend: 0x0, symName: __ZN4core3fmt9Formatter21write_formatted_parts17h711aee9a69ca4120E, symObjAddr: 0xCFB0, symBinAddr: 0x8B9F0, symSize: 0x260 }
  - { offset: 0x177ED9, size: 0x8, addend: 0x0, symName: __ZN4core3fmt9Formatter9write_str17h8518b9246765afb9E, symObjAddr: 0xD210, symBinAddr: 0x8BC50, symSize: 0x20 }
  - { offset: 0x177EED, size: 0x8, addend: 0x0, symName: __ZN4core3fmt9Formatter4fill17h1d71d26f7c3c86d8E, symObjAddr: 0xD230, symBinAddr: 0x8BC70, symSize: 0x10 }
  - { offset: 0x177F18, size: 0x8, addend: 0x0, symName: __ZN4core3fmt9Formatter12debug_struct17h3d51c82d078be828E, symObjAddr: 0xD240, symBinAddr: 0x8BC80, symSize: 0x40 }
  - { offset: 0x177F59, size: 0x8, addend: 0x0, symName: __ZN4core3fmt9Formatter26debug_struct_field1_finish17h3df94b41b261aa90E, symObjAddr: 0xD280, symBinAddr: 0x8BCC0, symSize: 0xB0 }
  - { offset: 0x178038, size: 0x8, addend: 0x0, symName: __ZN4core3fmt9Formatter26debug_struct_field2_finish17h7010e333ffb0d9a4E, symObjAddr: 0xD330, symBinAddr: 0x8BD70, symSize: 0xD0 }
  - { offset: 0x178117, size: 0x8, addend: 0x0, symName: __ZN4core3fmt9Formatter26debug_struct_field3_finish17h4a5b5779842ff099E, symObjAddr: 0xD400, symBinAddr: 0x8BE40, symSize: 0xE0 }
  - { offset: 0x1781F6, size: 0x8, addend: 0x0, symName: __ZN4core3fmt9Formatter26debug_struct_field4_finish17h39f4ba735a5ddf17E, symObjAddr: 0xD4E0, symBinAddr: 0x8BF20, symSize: 0x100 }
  - { offset: 0x1782D5, size: 0x8, addend: 0x0, symName: __ZN4core3fmt9Formatter26debug_struct_field5_finish17hbac5515273fe5872E, symObjAddr: 0xD5E0, symBinAddr: 0x8C020, symSize: 0x120 }
  - { offset: 0x1783B4, size: 0x8, addend: 0x0, symName: __ZN4core3fmt9Formatter26debug_struct_fields_finish17h0f29f9cdc7400c4fE, symObjAddr: 0xD700, symBinAddr: 0x8C140, symSize: 0x110 }
  - { offset: 0x1784B0, size: 0x8, addend: 0x0, symName: __ZN4core3fmt9Formatter11debug_tuple17h72ee099176b17d6bE, symObjAddr: 0xD810, symBinAddr: 0x8C250, symSize: 0x50 }
  - { offset: 0x17850F, size: 0x8, addend: 0x0, symName: __ZN4core3fmt9Formatter25debug_tuple_field1_finish17h2efba5cc7a2e0015E, symObjAddr: 0xD860, symBinAddr: 0x8C2A0, symSize: 0x140 }
  - { offset: 0x178738, size: 0x8, addend: 0x0, symName: __ZN4core3fmt9Formatter25debug_tuple_field2_finish17hb9c8ff600804fcd7E, symObjAddr: 0xD9A0, symBinAddr: 0x8C3E0, symSize: 0x1A0 }
  - { offset: 0x178A56, size: 0x8, addend: 0x0, symName: __ZN4core3fmt9Formatter25debug_tuple_field3_finish17he8a7752b486cb62cE, symObjAddr: 0xDB40, symBinAddr: 0x8C580, symSize: 0x250 }
  - { offset: 0x178EA3, size: 0x8, addend: 0x0, symName: __ZN4core3fmt9Formatter25debug_tuple_field4_finish17h236c041e35d07e00E, symObjAddr: 0xDD90, symBinAddr: 0x8C7D0, symSize: 0x2E0 }
  - { offset: 0x17941F, size: 0x8, addend: 0x0, symName: __ZN4core3fmt9Formatter25debug_tuple_field5_finish17h32119a96ecda79eaE, symObjAddr: 0xE070, symBinAddr: 0x8CAB0, symSize: 0x380 }
  - { offset: 0x179ACA, size: 0x8, addend: 0x0, symName: __ZN4core3fmt9Formatter25debug_tuple_fields_finish17h0a2202ccea12e98dE, symObjAddr: 0xE3F0, symBinAddr: 0x8CE30, symSize: 0x220 }
  - { offset: 0x179CC7, size: 0x8, addend: 0x0, symName: __ZN4core3fmt9Formatter10debug_list17h23facbdb0a72f9beE, symObjAddr: 0xE610, symBinAddr: 0x8D050, symSize: 0x40 }
  - { offset: 0x179D09, size: 0x8, addend: 0x0, symName: __ZN4core3fmt9Formatter9debug_set17hb36432c52c828aceE, symObjAddr: 0xE650, symBinAddr: 0x8D090, symSize: 0x40 }
  - { offset: 0x179D52, size: 0x8, addend: 0x0, symName: __ZN4core3fmt9Formatter9debug_map17hdacc6af5cdac0e91E, symObjAddr: 0xE690, symBinAddr: 0x8D0D0, symSize: 0x40 }
  - { offset: 0x179F38, size: 0x8, addend: 0x0, symName: __ZN4core3fmt8builders11DebugStruct5field17hb484a3f7f7ef3585E, symObjAddr: 0x8E90, symBinAddr: 0x878D0, symSize: 0x190 }
  - { offset: 0x17A158, size: 0x8, addend: 0x0, symName: __ZN4core3fmt8builders11DebugStruct21finish_non_exhaustive17hd52ab702e5f4e7faE, symObjAddr: 0x9020, symBinAddr: 0x87A60, symSize: 0xB0 }
  - { offset: 0x17A274, size: 0x8, addend: 0x0, symName: __ZN4core3fmt8builders11DebugStruct6finish17h63b8bfff5b715a3cE, symObjAddr: 0x90D0, symBinAddr: 0x87B10, symSize: 0x60 }
  - { offset: 0x17A382, size: 0x8, addend: 0x0, symName: __ZN4core3fmt8builders10PadAdapter4wrap17ha067b642dc16ccb9E, symObjAddr: 0x8B80, symBinAddr: 0x875C0, symSize: 0x30 }
  - { offset: 0x17A3ED, size: 0x8, addend: 0x0, symName: '__ZN68_$LT$core..fmt..builders..PadAdapter$u20$as$u20$core..fmt..Write$GT$9write_str17h5e34611ba244dfc8E', symObjAddr: 0x8BB0, symBinAddr: 0x875F0, symSize: 0x280 }
  - { offset: 0x17A66C, size: 0x8, addend: 0x0, symName: '__ZN68_$LT$core..fmt..builders..PadAdapter$u20$as$u20$core..fmt..Write$GT$10write_char17hfe79da31d4abb71bE', symObjAddr: 0x8E30, symBinAddr: 0x87870, symSize: 0x60 }
  - { offset: 0x17A742, size: 0x8, addend: 0x0, symName: __ZN4core3fmt8builders10DebugTuple5field17h41939bd06e2ed574E, symObjAddr: 0x9130, symBinAddr: 0x87B70, symSize: 0x130 }
  - { offset: 0x17A8C1, size: 0x8, addend: 0x0, symName: __ZN4core3fmt8builders10DebugTuple21finish_non_exhaustive17h93dd9c1b29b931f5E, symObjAddr: 0x9260, symBinAddr: 0x87CA0, symSize: 0xB0 }
  - { offset: 0x17AA0A, size: 0x8, addend: 0x0, symName: __ZN4core3fmt8builders10DebugTuple6finish17h880a9fe809326cdaE, symObjAddr: 0x9310, symBinAddr: 0x87D50, symSize: 0x90 }
  - { offset: 0x17ABC4, size: 0x8, addend: 0x0, symName: __ZN4core3fmt8builders8DebugSet5entry17ha4ea4fb5c59351e3E, symObjAddr: 0x93A0, symBinAddr: 0x87DE0, symSize: 0x120 }
  - { offset: 0x17AD5A, size: 0x8, addend: 0x0, symName: __ZN4core3fmt8builders8DebugSet21finish_non_exhaustive17hb759721035eac237E, symObjAddr: 0x94C0, symBinAddr: 0x87F00, symSize: 0xB0 }
  - { offset: 0x17AE85, size: 0x8, addend: 0x0, symName: __ZN4core3fmt8builders8DebugSet6finish17hd887dde17d628d2eE, symObjAddr: 0x9570, symBinAddr: 0x87FB0, symSize: 0x40 }
  - { offset: 0x17AF2A, size: 0x8, addend: 0x0, symName: __ZN4core3fmt8builders9DebugList21finish_non_exhaustive17ha3200c6635166d3eE, symObjAddr: 0x95B0, symBinAddr: 0x87FF0, symSize: 0xC0 }
  - { offset: 0x17B04D, size: 0x8, addend: 0x0, symName: __ZN4core3fmt8builders9DebugList6finish17h28ff52083f4ccea4E, symObjAddr: 0x9670, symBinAddr: 0x880B0, symSize: 0x40 }
  - { offset: 0x17B0F9, size: 0x8, addend: 0x0, symName: __ZN4core3fmt8builders8DebugMap5entry17h5a16e13e79294da7E, symObjAddr: 0x96B0, symBinAddr: 0x880F0, symSize: 0x100 }
  - { offset: 0x17B256, size: 0x8, addend: 0x0, symName: __ZN4core3fmt8builders8DebugMap3key17hfe25dddc5f3c6b01E, symObjAddr: 0x97B0, symBinAddr: 0x881F0, symSize: 0x170 }
  - { offset: 0x17B430, size: 0x8, addend: 0x0, symName: __ZN4core3fmt8builders8DebugMap5value17h09a87a2d2c0f5a54E, symObjAddr: 0x9920, symBinAddr: 0x88360, symSize: 0xF0 }
  - { offset: 0x17B55B, size: 0x8, addend: 0x0, symName: __ZN4core3fmt8builders8DebugMap21finish_non_exhaustive17he22bffb07474258dE, symObjAddr: 0x9A10, symBinAddr: 0x88450, symSize: 0xF0 }
  - { offset: 0x17B69C, size: 0x8, addend: 0x0, symName: __ZN4core3fmt8builders8DebugMap6finish17h63d72c65c7550f51E, symObjAddr: 0x9B00, symBinAddr: 0x88540, symSize: 0x80 }
  - { offset: 0x17B7DA, size: 0x8, addend: 0x0, symName: '__ZN4core3fmt3num52_$LT$impl$u20$core..fmt..Debug$u20$for$u20$usize$GT$3fmt17hca0986cd22699a59E', symObjAddr: 0x1A230, symBinAddr: 0x982D0, symSize: 0xE0 }
  - { offset: 0x17B971, size: 0x8, addend: 0x0, symName: '__ZN4core3fmt3num3imp52_$LT$impl$u20$core..fmt..Display$u20$for$u20$u32$GT$3fmt17h859fbdf1330d9cb8E', symObjAddr: 0x1A650, symBinAddr: 0x986F0, symSize: 0x20 }
  - { offset: 0x17B999, size: 0x8, addend: 0x0, symName: '__ZN4core3fmt3num3imp52_$LT$impl$u20$core..fmt..Display$u20$for$u20$u64$GT$3fmt17h3bb4f6f0674d6624E', symObjAddr: 0x1A7A0, symBinAddr: 0x98840, symSize: 0x20 }
  - { offset: 0x17B9C1, size: 0x8, addend: 0x0, symName: '__ZN4core3fmt3num3imp52_$LT$impl$u20$core..fmt..Display$u20$for$u20$i32$GT$3fmt17hd42d2b912d44d1c8E', symObjAddr: 0x1A670, symBinAddr: 0x98710, symSize: 0x20 }
  - { offset: 0x17BA16, size: 0x8, addend: 0x0, symName: '__ZN4core3fmt3num3imp52_$LT$impl$u20$core..fmt..Display$u20$for$u20$i64$GT$3fmt17hf75cb41097eb8002E', symObjAddr: 0x1A7C0, symBinAddr: 0x98860, symSize: 0x30 }
  - { offset: 0x17BA6B, size: 0x8, addend: 0x0, symName: '__ZN4core3fmt3num3imp51_$LT$impl$u20$core..fmt..Display$u20$for$u20$i8$GT$3fmt17h326a1153ced8407eE', symObjAddr: 0x1A3B0, symBinAddr: 0x98450, symSize: 0xB0 }
  - { offset: 0x17BB7F, size: 0x8, addend: 0x0, symName: '__ZN4core3fmt3num3imp51_$LT$impl$u20$core..fmt..Display$u20$for$u20$u8$GT$3fmt17h026cf79acc10d962E', symObjAddr: 0x1A310, symBinAddr: 0x983B0, symSize: 0xA0 }
  - { offset: 0x17BC6F, size: 0x8, addend: 0x0, symName: '__ZN4core3fmt3num3imp52_$LT$impl$u20$core..fmt..Display$u20$for$u20$u16$GT$3fmt17hbcf55c3be446f371E', symObjAddr: 0x1A460, symBinAddr: 0x98500, symSize: 0xF0 }
  - { offset: 0x17BD6A, size: 0x8, addend: 0x0, symName: '__ZN4core3fmt3num3imp52_$LT$impl$u20$core..fmt..Display$u20$for$u20$i16$GT$3fmt17h23583ac6964d084eE', symObjAddr: 0x1A550, symBinAddr: 0x985F0, symSize: 0x100 }
  - { offset: 0x17BE8F, size: 0x8, addend: 0x0, symName: '__ZN4core3fmt3num3imp21_$LT$impl$u20$u32$GT$4_fmt17h0c2a928415a6a716E', symObjAddr: 0x1A690, symBinAddr: 0x98730, symSize: 0x110 }
  - { offset: 0x17BF7A, size: 0x8, addend: 0x0, symName: '__ZN4core3fmt3num3imp21_$LT$impl$u20$u64$GT$4_fmt17h6065ec7b52d63c99E', symObjAddr: 0x1A7F0, symBinAddr: 0x98890, symSize: 0x110 }
  - { offset: 0x17C05F, size: 0x8, addend: 0x0, symName: __ZN4core3fmt3num3imp7exp_u6417h4c122c85b46d23f0E, symObjAddr: 0x1A900, symBinAddr: 0x989A0, symSize: 0x490 }
  - { offset: 0x17C24A, size: 0x8, addend: 0x0, symName: '__ZN4core3fmt3num3imp52_$LT$impl$u20$core..fmt..LowerExp$u20$for$u20$i8$GT$3fmt17hcdd35ba99874d163E', symObjAddr: 0x1AD90, symBinAddr: 0x98E30, symSize: 0x30 }
  - { offset: 0x17C26C, size: 0x8, addend: 0x0, symName: '__ZN4core3fmt3num3imp52_$LT$impl$u20$core..fmt..LowerExp$u20$for$u20$u8$GT$3fmt17hf9903a8b86712371E', symObjAddr: 0x1ADC0, symBinAddr: 0x98E60, symSize: 0x20 }
  - { offset: 0x17C28E, size: 0x8, addend: 0x0, symName: '__ZN4core3fmt3num3imp53_$LT$impl$u20$core..fmt..LowerExp$u20$for$u20$i16$GT$3fmt17h67e65fec113cf602E', symObjAddr: 0x1ADE0, symBinAddr: 0x98E80, symSize: 0x30 }
  - { offset: 0x17C2B0, size: 0x8, addend: 0x0, symName: '__ZN4core3fmt3num3imp53_$LT$impl$u20$core..fmt..LowerExp$u20$for$u20$u16$GT$3fmt17h263ad782992da473E', symObjAddr: 0x1AE10, symBinAddr: 0x98EB0, symSize: 0x20 }
  - { offset: 0x17C2D2, size: 0x8, addend: 0x0, symName: '__ZN4core3fmt3num3imp53_$LT$impl$u20$core..fmt..LowerExp$u20$for$u20$i32$GT$3fmt17h9373448cfc2940b9E', symObjAddr: 0x1AE30, symBinAddr: 0x98ED0, symSize: 0x20 }
  - { offset: 0x17C2F4, size: 0x8, addend: 0x0, symName: '__ZN4core3fmt3num3imp53_$LT$impl$u20$core..fmt..LowerExp$u20$for$u20$u32$GT$3fmt17hbe868039d445cc1aE', symObjAddr: 0x1AE50, symBinAddr: 0x98EF0, symSize: 0x20 }
  - { offset: 0x17C316, size: 0x8, addend: 0x0, symName: '__ZN4core3fmt3num3imp53_$LT$impl$u20$core..fmt..LowerExp$u20$for$u20$i64$GT$3fmt17h769cb58926108143E', symObjAddr: 0x1AE70, symBinAddr: 0x98F10, symSize: 0x30 }
  - { offset: 0x17C338, size: 0x8, addend: 0x0, symName: '__ZN4core3fmt3num3imp53_$LT$impl$u20$core..fmt..LowerExp$u20$for$u20$u64$GT$3fmt17h1d215d9d6d7b9a36E', symObjAddr: 0x1AEA0, symBinAddr: 0x98F40, symSize: 0x20 }
  - { offset: 0x17C35A, size: 0x8, addend: 0x0, symName: '__ZN4core3fmt3num3imp52_$LT$impl$u20$core..fmt..UpperExp$u20$for$u20$i8$GT$3fmt17h64e9aaaecf584536E', symObjAddr: 0x1AEC0, symBinAddr: 0x98F60, symSize: 0x30 }
  - { offset: 0x17C37C, size: 0x8, addend: 0x0, symName: '__ZN4core3fmt3num3imp52_$LT$impl$u20$core..fmt..UpperExp$u20$for$u20$u8$GT$3fmt17h798c04015aade354E', symObjAddr: 0x1AEF0, symBinAddr: 0x98F90, symSize: 0x20 }
  - { offset: 0x17C39E, size: 0x8, addend: 0x0, symName: '__ZN4core3fmt3num3imp53_$LT$impl$u20$core..fmt..UpperExp$u20$for$u20$i16$GT$3fmt17h27e339d081597b4bE', symObjAddr: 0x1AF10, symBinAddr: 0x98FB0, symSize: 0x30 }
  - { offset: 0x17C3C0, size: 0x8, addend: 0x0, symName: '__ZN4core3fmt3num3imp53_$LT$impl$u20$core..fmt..UpperExp$u20$for$u20$u16$GT$3fmt17h196d3e27dcbd92e3E', symObjAddr: 0x1AF40, symBinAddr: 0x98FE0, symSize: 0x20 }
  - { offset: 0x17C3E2, size: 0x8, addend: 0x0, symName: '__ZN4core3fmt3num3imp53_$LT$impl$u20$core..fmt..UpperExp$u20$for$u20$i32$GT$3fmt17h6722a33f1c8e61d8E', symObjAddr: 0x1AF60, symBinAddr: 0x99000, symSize: 0x20 }
  - { offset: 0x17C404, size: 0x8, addend: 0x0, symName: '__ZN4core3fmt3num3imp53_$LT$impl$u20$core..fmt..UpperExp$u20$for$u20$u32$GT$3fmt17h3cd811d3e42f60f7E', symObjAddr: 0x1AF80, symBinAddr: 0x99020, symSize: 0x20 }
  - { offset: 0x17C426, size: 0x8, addend: 0x0, symName: '__ZN4core3fmt3num3imp53_$LT$impl$u20$core..fmt..UpperExp$u20$for$u20$i64$GT$3fmt17hfe399b57e76bbd5cE', symObjAddr: 0x1AFA0, symBinAddr: 0x99040, symSize: 0x30 }
  - { offset: 0x17C448, size: 0x8, addend: 0x0, symName: '__ZN4core3fmt3num3imp53_$LT$impl$u20$core..fmt..UpperExp$u20$for$u20$u64$GT$3fmt17hc690a33c18c8819dE', symObjAddr: 0x1AFD0, symBinAddr: 0x99070, symSize: 0x20 }
  - { offset: 0x17C5C5, size: 0x8, addend: 0x0, symName: '__ZN73_$LT$core..fmt..num..LowerHex$u20$as$u20$core..fmt..num..GenericRadix$GT$5digit17h4dc6c2b3b3ed522fE', symObjAddr: 0x18EC0, symBinAddr: 0x96F60, symSize: 0x90 }
  - { offset: 0x17C618, size: 0x8, addend: 0x0, symName: '__ZN73_$LT$core..fmt..num..UpperHex$u20$as$u20$core..fmt..num..GenericRadix$GT$5digit17h34f04d6e37d67dc0E', symObjAddr: 0x18F50, symBinAddr: 0x96FF0, symSize: 0x90 }
  - { offset: 0x17C644, size: 0x8, addend: 0x0, symName: __ZN4core3fmt3num14parse_u64_into17hb13ae095738f575bE, symObjAddr: 0xB800, symBinAddr: 0x8A240, symSize: 0x390 }
  - { offset: 0x17C834, size: 0x8, addend: 0x0, symName: '__ZN4core3fmt3num53_$LT$impl$u20$core..fmt..Display$u20$for$u20$u128$GT$3fmt17h3a48749c254ac9a3E', symObjAddr: 0xBB90, symBinAddr: 0x8A5D0, symSize: 0x20 }
  - { offset: 0x17C85D, size: 0x8, addend: 0x0, symName: '__ZN4core3fmt3num53_$LT$impl$u20$core..fmt..Display$u20$for$u20$i128$GT$3fmt17ha6d70b556dce370dE', symObjAddr: 0xBBB0, symBinAddr: 0x8A5F0, symSize: 0x30 }
  - { offset: 0x17C88E, size: 0x8, addend: 0x0, symName: __ZN4core3fmt3num8fmt_u12817hff070d65828d9b5aE, symObjAddr: 0xBBE0, symBinAddr: 0x8A620, symSize: 0x180 }
  - { offset: 0x17C97D, size: 0x8, addend: 0x0, symName: '__ZN4core3fmt3num50_$LT$impl$u20$core..fmt..Debug$u20$for$u20$u32$GT$3fmt17h7afcd73b4f7c9f2fE', symObjAddr: 0x1A010, symBinAddr: 0x980B0, symSize: 0xE0 }
  - { offset: 0x17CB9A, size: 0x8, addend: 0x0, symName: '__ZN4core3fmt3num53_$LT$impl$u20$core..fmt..LowerHex$u20$for$u20$i16$GT$3fmt17h17c1522c1fddaf23E', symObjAddr: 0x192A0, symBinAddr: 0x97340, symSize: 0x80 }
  - { offset: 0x17CC99, size: 0x8, addend: 0x0, symName: '__ZN4core3fmt3num53_$LT$impl$u20$core..fmt..UpperHex$u20$for$u20$i16$GT$3fmt17h28bf8d459d13f1b4E', symObjAddr: 0x19320, symBinAddr: 0x973C0, symSize: 0x80 }
  - { offset: 0x17CD98, size: 0x8, addend: 0x0, symName: '__ZN4core3fmt3num53_$LT$impl$u20$core..fmt..LowerHex$u20$for$u20$i32$GT$3fmt17hb0b7b23127381f9cE', symObjAddr: 0x19480, symBinAddr: 0x97520, symSize: 0x80 }
  - { offset: 0x17CE83, size: 0x8, addend: 0x0, symName: '__ZN4core3fmt3num53_$LT$impl$u20$core..fmt..UpperHex$u20$for$u20$i32$GT$3fmt17haca1823a895e3f3aE', symObjAddr: 0x19500, symBinAddr: 0x975A0, symSize: 0x80 }
  - { offset: 0x17CF82, size: 0x8, addend: 0x0, symName: '__ZN4core3fmt3num53_$LT$impl$u20$core..fmt..LowerHex$u20$for$u20$i64$GT$3fmt17h0280a2619dd0b6bdE', symObjAddr: 0x19660, symBinAddr: 0x97700, symSize: 0x80 }
  - { offset: 0x17D06D, size: 0x8, addend: 0x0, symName: '__ZN4core3fmt3num53_$LT$impl$u20$core..fmt..UpperHex$u20$for$u20$i64$GT$3fmt17h04dee5f15e9171eaE', symObjAddr: 0x196E0, symBinAddr: 0x97780, symSize: 0x80 }
  - { offset: 0x17D14B, size: 0x8, addend: 0x0, symName: '__ZN71_$LT$core..fmt..num..Binary$u20$as$u20$core..fmt..num..GenericRadix$GT$5digit17hd75d9f85ca428480E', symObjAddr: 0x18DC0, symBinAddr: 0x96E60, symSize: 0x80 }
  - { offset: 0x17D18A, size: 0x8, addend: 0x0, symName: '__ZN70_$LT$core..fmt..num..Octal$u20$as$u20$core..fmt..num..GenericRadix$GT$5digit17h212ce4da30ae0147E', symObjAddr: 0x18E40, symBinAddr: 0x96EE0, symSize: 0x80 }
  - { offset: 0x17D1C9, size: 0x8, addend: 0x0, symName: '__ZN4core3fmt3num50_$LT$impl$u20$core..fmt..Binary$u20$for$u20$i8$GT$3fmt17hae49182667975cf2E', symObjAddr: 0x18FE0, symBinAddr: 0x97080, symSize: 0x70 }
  - { offset: 0x17D2AD, size: 0x8, addend: 0x0, symName: '__ZN4core3fmt3num49_$LT$impl$u20$core..fmt..Octal$u20$for$u20$i8$GT$3fmt17h83e01ea344178ebbE', symObjAddr: 0x19050, symBinAddr: 0x970F0, symSize: 0x70 }
  - { offset: 0x17D391, size: 0x8, addend: 0x0, symName: '__ZN4core3fmt3num52_$LT$impl$u20$core..fmt..LowerHex$u20$for$u20$i8$GT$3fmt17h446030821dad2415E', symObjAddr: 0x190C0, symBinAddr: 0x97160, symSize: 0x80 }
  - { offset: 0x17D47C, size: 0x8, addend: 0x0, symName: '__ZN4core3fmt3num52_$LT$impl$u20$core..fmt..UpperHex$u20$for$u20$i8$GT$3fmt17h1ef2c43f4110fc0dE', symObjAddr: 0x19140, symBinAddr: 0x971E0, symSize: 0x80 }
  - { offset: 0x17D567, size: 0x8, addend: 0x0, symName: '__ZN4core3fmt3num51_$LT$impl$u20$core..fmt..Binary$u20$for$u20$i16$GT$3fmt17h7687371fb4a1ace0E', symObjAddr: 0x191C0, symBinAddr: 0x97260, symSize: 0x70 }
  - { offset: 0x17D64B, size: 0x8, addend: 0x0, symName: '__ZN4core3fmt3num50_$LT$impl$u20$core..fmt..Octal$u20$for$u20$i16$GT$3fmt17hef2fe89144947d22E', symObjAddr: 0x19230, symBinAddr: 0x972D0, symSize: 0x70 }
  - { offset: 0x17D72F, size: 0x8, addend: 0x0, symName: '__ZN4core3fmt3num51_$LT$impl$u20$core..fmt..Binary$u20$for$u20$i32$GT$3fmt17hfafa9374dac04406E', symObjAddr: 0x193A0, symBinAddr: 0x97440, symSize: 0x70 }
  - { offset: 0x17D813, size: 0x8, addend: 0x0, symName: '__ZN4core3fmt3num50_$LT$impl$u20$core..fmt..Octal$u20$for$u20$i32$GT$3fmt17h62a6aac9edde0ce8E', symObjAddr: 0x19410, symBinAddr: 0x974B0, symSize: 0x70 }
  - { offset: 0x17D8F7, size: 0x8, addend: 0x0, symName: '__ZN4core3fmt3num51_$LT$impl$u20$core..fmt..Binary$u20$for$u20$i64$GT$3fmt17h82beb156f8e23bfcE', symObjAddr: 0x19580, symBinAddr: 0x97620, symSize: 0x70 }
  - { offset: 0x17D9DB, size: 0x8, addend: 0x0, symName: '__ZN4core3fmt3num50_$LT$impl$u20$core..fmt..Octal$u20$for$u20$i64$GT$3fmt17h646e9f57657d0b65E', symObjAddr: 0x195F0, symBinAddr: 0x97690, symSize: 0x70 }
  - { offset: 0x17DAD3, size: 0x8, addend: 0x0, symName: '__ZN4core3fmt3num52_$LT$impl$u20$core..fmt..Binary$u20$for$u20$i128$GT$3fmt17hf86dde943aefc3adE', symObjAddr: 0x19760, symBinAddr: 0x97800, symSize: 0xA0 }
  - { offset: 0x17DBAF, size: 0x8, addend: 0x0, symName: '__ZN4core3fmt3num51_$LT$impl$u20$core..fmt..Octal$u20$for$u20$i128$GT$3fmt17h0b758be3dcd74740E', symObjAddr: 0x19800, symBinAddr: 0x978A0, symSize: 0xA0 }
  - { offset: 0x17DC8B, size: 0x8, addend: 0x0, symName: '__ZN4core3fmt3num54_$LT$impl$u20$core..fmt..LowerHex$u20$for$u20$i128$GT$3fmt17h801161cdce469025E', symObjAddr: 0x198A0, symBinAddr: 0x97940, symSize: 0xC0 }
  - { offset: 0x17DD6E, size: 0x8, addend: 0x0, symName: '__ZN4core3fmt3num54_$LT$impl$u20$core..fmt..UpperHex$u20$for$u20$i128$GT$3fmt17ha4f66f4b4a73c2b2E', symObjAddr: 0x19960, symBinAddr: 0x97A00, symSize: 0xC0 }
  - { offset: 0x17DE51, size: 0x8, addend: 0x0, symName: '__ZN4core3fmt3num49_$LT$impl$u20$core..fmt..Debug$u20$for$u20$i8$GT$3fmt17h04b9c140e98b21dfE', symObjAddr: 0x19A20, symBinAddr: 0x97AC0, symSize: 0x170 }
  - { offset: 0x17E09F, size: 0x8, addend: 0x0, symName: '__ZN4core3fmt3num51_$LT$impl$u20$core..fmt..Debug$u20$for$u20$i128$GT$3fmt17hda37b7286345f21bE', symObjAddr: 0x19B90, symBinAddr: 0x97C30, symSize: 0x160 }
  - { offset: 0x17E23D, size: 0x8, addend: 0x0, symName: '__ZN4core3fmt3num49_$LT$impl$u20$core..fmt..Debug$u20$for$u20$u8$GT$3fmt17heb8eab6f0c9a49c6E', symObjAddr: 0x19CF0, symBinAddr: 0x97D90, symSize: 0x160 }
  - { offset: 0x17E48F, size: 0x8, addend: 0x0, symName: '__ZN4core3fmt3num50_$LT$impl$u20$core..fmt..Debug$u20$for$u20$u16$GT$3fmt17h4d5c2a9aecf0423dE', symObjAddr: 0x19E50, symBinAddr: 0x97EF0, symSize: 0x1C0 }
  - { offset: 0x17E6FD, size: 0x8, addend: 0x0, symName: '__ZN4core3fmt3num51_$LT$impl$u20$core..fmt..Debug$u20$for$u20$u128$GT$3fmt17hce18157cf9c361bcE', symObjAddr: 0x1A0F0, symBinAddr: 0x98190, symSize: 0x140 }
  - { offset: 0x17E86D, size: 0x8, addend: 0x0, symName: __ZN4core3fmt3num8exp_u12817hd493f55ab35498e5E, symObjAddr: 0x1AFF0, symBinAddr: 0x99090, symSize: 0x850 }
  - { offset: 0x17EA74, size: 0x8, addend: 0x0, symName: '__ZN4core3fmt3num54_$LT$impl$u20$core..fmt..LowerExp$u20$for$u20$i128$GT$3fmt17h035974521d21ec44E', symObjAddr: 0x1B840, symBinAddr: 0x998E0, symSize: 0x40 }
  - { offset: 0x17EA96, size: 0x8, addend: 0x0, symName: '__ZN4core3fmt3num54_$LT$impl$u20$core..fmt..LowerExp$u20$for$u20$u128$GT$3fmt17hc666bcd55fbb8139E', symObjAddr: 0x1B880, symBinAddr: 0x99920, symSize: 0x20 }
  - { offset: 0x17EAB8, size: 0x8, addend: 0x0, symName: '__ZN4core3fmt3num54_$LT$impl$u20$core..fmt..UpperExp$u20$for$u20$i128$GT$3fmt17h32b72ccd6b7a0938E', symObjAddr: 0x1B8A0, symBinAddr: 0x99940, symSize: 0x40 }
  - { offset: 0x17EADA, size: 0x8, addend: 0x0, symName: '__ZN4core3fmt3num54_$LT$impl$u20$core..fmt..UpperExp$u20$for$u20$u128$GT$3fmt17h4fffb95b418d38fbE', symObjAddr: 0x1B8E0, symBinAddr: 0x99980, symSize: 0x30 }
  - { offset: 0x17EB19, size: 0x8, addend: 0x0, symName: __ZN4core3fmt17FormattingOptions8get_fill17h8ca8940573cf0c74E, symObjAddr: 0xC200, symBinAddr: 0x8AC40, symSize: 0x10 }
  - { offset: 0x17EC14, size: 0x8, addend: 0x0, symName: '__ZN57_$LT$core..fmt..Formatter$u20$as$u20$core..fmt..Write$GT$10write_char17h2f23f726d3f66d6aE', symObjAddr: 0xE6D0, symBinAddr: 0x8D110, symSize: 0x20 }
  - { offset: 0x17ECB2, size: 0x8, addend: 0x0, symName: __ZN4core3fmt5Write10write_char17hab6fdb7a0c12e814E, symObjAddr: 0xBD60, symBinAddr: 0x8A7A0, symSize: 0x100 }
  - { offset: 0x17EDF5, size: 0x8, addend: 0x0, symName: __ZN4core3fmt5Write10write_char17hc73093f806e30cddE, symObjAddr: 0xBE60, symBinAddr: 0x8A8A0, symSize: 0x100 }
  - { offset: 0x17EF38, size: 0x8, addend: 0x0, symName: __ZN4core3fmt5Write10write_char17hd181a67e6a24e022E, symObjAddr: 0xBF60, symBinAddr: 0x8A9A0, symSize: 0x100 }
  - { offset: 0x17F07B, size: 0x8, addend: 0x0, symName: __ZN4core3fmt5Write10write_char17hf52eedfafdea3dcbE, symObjAddr: 0xC060, symBinAddr: 0x8AAA0, symSize: 0x100 }
  - { offset: 0x17F1BE, size: 0x8, addend: 0x0, symName: __ZN4core3fmt5Write9write_fmt17h0b0cb6922878eca0E, symObjAddr: 0xC160, symBinAddr: 0x8ABA0, symSize: 0x20 }
  - { offset: 0x17F1EE, size: 0x8, addend: 0x0, symName: __ZN4core3fmt5Write9write_fmt17h1266967fd9d46b05E, symObjAddr: 0xC180, symBinAddr: 0x8ABC0, symSize: 0x20 }
  - { offset: 0x17F21E, size: 0x8, addend: 0x0, symName: __ZN4core3fmt5Write9write_fmt17h53b70dce52c169d8E, symObjAddr: 0xC1A0, symBinAddr: 0x8ABE0, symSize: 0x20 }
  - { offset: 0x17F24E, size: 0x8, addend: 0x0, symName: __ZN4core3fmt5Write9write_fmt17hf11eb4222b6cb420E, symObjAddr: 0xC1C0, symBinAddr: 0x8AC00, symSize: 0x20 }
  - { offset: 0x17F27E, size: 0x8, addend: 0x0, symName: __ZN4core3fmt5Write9write_fmt17hfb36638e77985a09E, symObjAddr: 0xC1E0, symBinAddr: 0x8AC20, symSize: 0x20 }
  - { offset: 0x17F312, size: 0x8, addend: 0x0, symName: '__ZN43_$LT$bool$u20$as$u20$core..fmt..Display$GT$3fmt17h064dc2228232b9baE', symObjAddr: 0xE710, symBinAddr: 0x8D150, symSize: 0x40 }
  - { offset: 0x17F37D, size: 0x8, addend: 0x0, symName: __ZN4core3fmt5float29float_to_decimal_common_exact17h32067736951e5bedE, symObjAddr: 0x9B80, symBinAddr: 0x885C0, symSize: 0x3F0 }
  - { offset: 0x17F459, size: 0x8, addend: 0x0, symName: __ZN4core3fmt5float29float_to_decimal_common_exact17hd86c54c78e749855E, symObjAddr: 0x9F70, symBinAddr: 0x889B0, symSize: 0x3E0 }
  - { offset: 0x17F535, size: 0x8, addend: 0x0, symName: __ZN4core3fmt5float32float_to_decimal_common_shortest17h6827767b31b03d43E, symObjAddr: 0xA350, symBinAddr: 0x88D90, symSize: 0x2E0 }
  - { offset: 0x17F603, size: 0x8, addend: 0x0, symName: __ZN4core3fmt5float32float_to_decimal_common_shortest17h9f043682c4c68a5aE, symObjAddr: 0xA630, symBinAddr: 0x89070, symSize: 0x2F0 }
  - { offset: 0x17F6D1, size: 0x8, addend: 0x0, symName: __ZN4core3fmt5float33float_to_exponential_common_exact17h32b675180bad2005E, symObjAddr: 0xA920, symBinAddr: 0x89360, symSize: 0x3D0 }
  - { offset: 0x17F7FC, size: 0x8, addend: 0x0, symName: __ZN4core3fmt5float33float_to_exponential_common_exact17h9eeb6de036d6c468E, symObjAddr: 0xACF0, symBinAddr: 0x89730, symSize: 0x3C0 }
  - { offset: 0x17F926, size: 0x8, addend: 0x0, symName: __ZN4core3fmt5float36float_to_exponential_common_shortest17h3db3fc19ce62dc86E, symObjAddr: 0xB0B0, symBinAddr: 0x89AF0, symSize: 0x3A0 }
  - { offset: 0x17FA82, size: 0x8, addend: 0x0, symName: __ZN4core3fmt5float36float_to_exponential_common_shortest17h62034b7cfd70a3b0E, symObjAddr: 0xB450, symBinAddr: 0x89E90, symSize: 0x3B0 }
  - { offset: 0x17FBE4, size: 0x8, addend: 0x0, symName: '__ZN55_$LT$f32$u20$as$u20$core..fmt..float..GeneralFormat$GT$44already_rounded_value_should_use_exponential17h65a5b150667e8644E', symObjAddr: 0x18A80, symBinAddr: 0x96B20, symSize: 0x40 }
  - { offset: 0x17FC22, size: 0x8, addend: 0x0, symName: '__ZN55_$LT$f64$u20$as$u20$core..fmt..float..GeneralFormat$GT$44already_rounded_value_should_use_exponential17h73ea96786fd2bbf5E', symObjAddr: 0x18AC0, symBinAddr: 0x96B60, symSize: 0x50 }
  - { offset: 0x17FC6D, size: 0x8, addend: 0x0, symName: '__ZN4core3fmt5float50_$LT$impl$u20$core..fmt..Debug$u20$for$u20$f32$GT$3fmt17h84585766df25c157E', symObjAddr: 0x18B10, symBinAddr: 0x96BB0, symSize: 0x80 }
  - { offset: 0x17FD07, size: 0x8, addend: 0x0, symName: '__ZN4core3fmt5float52_$LT$impl$u20$core..fmt..Display$u20$for$u20$f32$GT$3fmt17h39b403923486d520E', symObjAddr: 0x18B90, symBinAddr: 0x96C30, symSize: 0x40 }
  - { offset: 0x17FD76, size: 0x8, addend: 0x0, symName: '__ZN4core3fmt5float53_$LT$impl$u20$core..fmt..LowerExp$u20$for$u20$f32$GT$3fmt17hb0360f58a4c16467E', symObjAddr: 0x18BD0, symBinAddr: 0x96C70, symSize: 0x40 }
  - { offset: 0x17FDD0, size: 0x8, addend: 0x0, symName: '__ZN4core3fmt5float53_$LT$impl$u20$core..fmt..UpperExp$u20$for$u20$f32$GT$3fmt17hb7d45aad80ca547dE', symObjAddr: 0x18C10, symBinAddr: 0x96CB0, symSize: 0x50 }
  - { offset: 0x17FE37, size: 0x8, addend: 0x0, symName: '__ZN4core3fmt5float50_$LT$impl$u20$core..fmt..Debug$u20$for$u20$f64$GT$3fmt17h59fe7a52454106fbE', symObjAddr: 0x18C60, symBinAddr: 0x96D00, symSize: 0x90 }
  - { offset: 0x17FED1, size: 0x8, addend: 0x0, symName: '__ZN4core3fmt5float52_$LT$impl$u20$core..fmt..Display$u20$for$u20$f64$GT$3fmt17h8755d9e68326776aE', symObjAddr: 0x18CF0, symBinAddr: 0x96D90, symSize: 0x40 }
  - { offset: 0x17FF40, size: 0x8, addend: 0x0, symName: '__ZN4core3fmt5float53_$LT$impl$u20$core..fmt..LowerExp$u20$for$u20$f64$GT$3fmt17h39e68e6977b009c5E', symObjAddr: 0x18D30, symBinAddr: 0x96DD0, symSize: 0x40 }
  - { offset: 0x17FF9A, size: 0x8, addend: 0x0, symName: '__ZN4core3fmt5float53_$LT$impl$u20$core..fmt..UpperExp$u20$for$u20$f64$GT$3fmt17ha925758bdb82c32dE', symObjAddr: 0x18D70, symBinAddr: 0x96E10, symSize: 0x50 }
  - { offset: 0x180003, size: 0x8, addend: 0x0, symName: '__ZN59_$LT$core..fmt..Arguments$u20$as$u20$core..fmt..Display$GT$3fmt17h1d49a10c5ee83a92E', symObjAddr: 0xC230, symBinAddr: 0x8AC70, symSize: 0x20 }
  - { offset: 0x18001E, size: 0x8, addend: 0x0, symName: '__ZN57_$LT$core..fmt..Arguments$u20$as$u20$core..fmt..Debug$GT$3fmt17heed35c0d4e1aa357E', symObjAddr: 0xC210, symBinAddr: 0x8AC50, symSize: 0x20 }
  - { offset: 0x18006D, size: 0x8, addend: 0x0, symName: __ZN4core3fmt5write17ha7e42c8550512cfbE, symObjAddr: 0xC250, symBinAddr: 0x8AC90, symSize: 0x210 }
  - { offset: 0x18028A, size: 0x8, addend: 0x0, symName: __ZN4core3fmt9Formatter12pad_integral12write_prefix17hde9876c74b216d1fE, symObjAddr: 0xC900, symBinAddr: 0x8B340, symSize: 0x60 }
  - { offset: 0x1802E7, size: 0x8, addend: 0x0, symName: '__ZN42_$LT$$RF$T$u20$as$u20$core..fmt..Debug$GT$3fmt17h015fc3b139f4520aE', symObjAddr: 0x1B930, symBinAddr: 0x999D0, symSize: 0x10 }
  - { offset: 0x180302, size: 0x8, addend: 0x0, symName: '__ZN42_$LT$$RF$T$u20$as$u20$core..fmt..Debug$GT$3fmt17h3164c0f128f43a22E', symObjAddr: 0x1B940, symBinAddr: 0x999E0, symSize: 0xE0 }
  - { offset: 0x180489, size: 0x8, addend: 0x0, symName: '__ZN42_$LT$$RF$T$u20$as$u20$core..fmt..Debug$GT$3fmt17h49862ac065697812E', symObjAddr: 0x1BA20, symBinAddr: 0x99AC0, symSize: 0x20 }
  - { offset: 0x18049D, size: 0x8, addend: 0x0, symName: '__ZN42_$LT$$RF$T$u20$as$u20$core..fmt..Debug$GT$3fmt17h578af38840d4424eE', symObjAddr: 0x1BA40, symBinAddr: 0x99AE0, symSize: 0xF0 }
  - { offset: 0x18062B, size: 0x8, addend: 0x0, symName: '__ZN55_$LT$core..fmt..Error$u20$as$u20$core..fmt..Display$GT$3fmt17h98a5a457e6088c61E', symObjAddr: 0xE6F0, symBinAddr: 0x8D130, symSize: 0x20 }
  - { offset: 0x180687, size: 0x8, addend: 0x0, symName: '__ZN40_$LT$str$u20$as$u20$core..fmt..Debug$GT$3fmt17h6c2dacd87ed33eb2E', symObjAddr: 0xE750, symBinAddr: 0x8D190, symSize: 0x390 }
  - { offset: 0x180B28, size: 0x8, addend: 0x0, symName: '__ZN41_$LT$char$u20$as$u20$core..fmt..Debug$GT$3fmt17h773e00ff77873f6bE', symObjAddr: 0xEB00, symBinAddr: 0x8D540, symSize: 0xA0 }
  - { offset: 0x180C63, size: 0x8, addend: 0x0, symName: '__ZN43_$LT$char$u20$as$u20$core..fmt..Display$GT$3fmt17h608de1e8074a0dc8E', symObjAddr: 0xEBA0, symBinAddr: 0x8D5E0, symSize: 0xE0 }
  - { offset: 0x180CE7, size: 0x8, addend: 0x0, symName: __ZN4core3fmt17pointer_fmt_inner17hd55b22907b9d9616E, symObjAddr: 0xEC80, symBinAddr: 0x8D6C0, symSize: 0xB0 }
  - { offset: 0x180E38, size: 0x8, addend: 0x0, symName: '__ZN52_$LT$$BP$const$u20$T$u20$as$u20$core..fmt..Debug$GT$3fmt17h2de731989ddbf0b9E', symObjAddr: 0xED30, symBinAddr: 0x8D770, symSize: 0xB0 }
  - { offset: 0x180F9C, size: 0x8, addend: 0x0, symName: '__ZN53_$LT$core..fmt..Error$u20$as$u20$core..fmt..Debug$GT$3fmt17h9121eae43e98820eE', symObjAddr: 0x1B910, symBinAddr: 0x999B0, symSize: 0x20 }
  - { offset: 0x180FD3, size: 0x8, addend: 0x0, symName: '__ZN44_$LT$$RF$T$u20$as$u20$core..fmt..Display$GT$3fmt17h379b6bb5f7afee96E', symObjAddr: 0x1BB30, symBinAddr: 0x99BD0, symSize: 0x10 }
  - { offset: 0x180FEE, size: 0x8, addend: 0x0, symName: '__ZN44_$LT$$RF$T$u20$as$u20$core..fmt..Display$GT$3fmt17h9eee4e866686dd50E', symObjAddr: 0x1BB40, symBinAddr: 0x99BE0, symSize: 0x20 }
  - { offset: 0x181020, size: 0x8, addend: 0x0, symName: '__ZN44_$LT$$RF$T$u20$as$u20$core..fmt..Display$GT$3fmt17h9fb4f6c3ee392ce0E', symObjAddr: 0x1BB60, symBinAddr: 0x99C00, symSize: 0x20 }
  - { offset: 0x181052, size: 0x8, addend: 0x0, symName: '__ZN44_$LT$$RF$T$u20$as$u20$core..fmt..Display$GT$3fmt17ha528b09c76d0e465E', symObjAddr: 0x1BB80, symBinAddr: 0x99C20, symSize: 0x10 }
  - { offset: 0x181074, size: 0x8, addend: 0x0, symName: '__ZN45_$LT$$RF$T$u20$as$u20$core..fmt..LowerHex$GT$3fmt17h4ff0b571e59e940bE', symObjAddr: 0x1BB90, symBinAddr: 0x99C30, symSize: 0x80 }
  - { offset: 0x1811D8, size: 0x8, addend: 0x0, symName: '__ZN69_$LT$core..ffi..c_str..CStr$u20$as$u20$core..clone..CloneToUninit$GT$15clone_to_uninit17hd12ca0edf0ccb85eE', symObjAddr: 0x44F0, symBinAddr: 0x83640, symSize: 0x20 }
  - { offset: 0x181628, size: 0x8, addend: 0x0, symName: __ZN4core6option13unwrap_failed17hdbf5b02c13e4fbf7E, symObjAddr: 0x83A0, symBinAddr: 0x9E190, symSize: 0x20 }
  - { offset: 0x181643, size: 0x8, addend: 0x0, symName: __ZN4core6option13expect_failed17haa1f9dfcd1f479ceE, symObjAddr: 0x83C0, symBinAddr: 0x9E1B0, symSize: 0x60 }
  - { offset: 0x181852, size: 0x8, addend: 0x0, symName: '__ZN64_$LT$core..ops..range..RangeFull$u20$as$u20$core..fmt..Debug$GT$3fmt17he8c65f21b4dd0263E', symObjAddr: 0x45A0, symBinAddr: 0x836F0, symSize: 0x20 }
  - { offset: 0x18188A, size: 0x8, addend: 0x0, symName: '__ZN71_$LT$core..ops..range..Range$LT$Idx$GT$$u20$as$u20$core..fmt..Debug$GT$3fmt17hbf3fede0cd4471d7E', symObjAddr: 0x45C0, symBinAddr: 0x83710, symSize: 0x1E0 }
  - { offset: 0x181E77, size: 0x8, addend: 0x0, symName: '__ZN76_$LT$core..mem..transmutability..Assume$u20$as$u20$core..ops..arith..Sub$GT$3sub17he61aae69b3d8ff8eE', symObjAddr: 0x4450, symBinAddr: 0x835A0, symSize: 0x20 }
  - { offset: 0x1823DD, size: 0x8, addend: 0x0, symName: __ZN4core6result13unwrap_failed17h49c1715b45bdde55E, symObjAddr: 0x8AC0, symBinAddr: 0x9E720, symSize: 0x80 }
  - { offset: 0x18245C, size: 0x8, addend: 0x0, symName: '__ZN57_$LT$core..error..Request$u20$as$u20$core..fmt..Debug$GT$3fmt17h8a4c7a6da323a53fE', symObjAddr: 0x4510, symBinAddr: 0x83660, symSize: 0x50 }
  - { offset: 0x18250B, size: 0x8, addend: 0x0, symName: '__ZN78_$LT$core..error..Source$u20$as$u20$core..iter..traits..iterator..Iterator$GT$4next17hb2d3e79a1221f2e6E', symObjAddr: 0x4560, symBinAddr: 0x836B0, symSize: 0x40 }
  - { offset: 0x182562, size: 0x8, addend: 0x0, symName: '__ZN105_$LT$dyn$u20$core..any..Any$u2b$core..marker..Sync$u2b$core..marker..Send$u20$as$u20$core..fmt..Debug$GT$3fmt17h3696c5cba2d49631E', symObjAddr: 0x47A0, symBinAddr: 0x838F0, symSize: 0x50 }
  - { offset: 0x182623, size: 0x8, addend: 0x0, symName: '__ZN54_$LT$core..any..TypeId$u20$as$u20$core..fmt..Debug$GT$3fmt17h1e73ed952ceee722E', symObjAddr: 0x47F0, symBinAddr: 0x83940, symSize: 0x80 }
  - { offset: 0x18275E, size: 0x8, addend: 0x0, symName: '__ZN73_$LT$core..ascii..ascii_char..AsciiChar$u20$as$u20$core..fmt..Display$GT$3fmt17h52f1244dae0b2b47E', symObjAddr: 0x4870, symBinAddr: 0x839C0, symSize: 0x20 }
  - { offset: 0x182797, size: 0x8, addend: 0x0, symName: '__ZN71_$LT$core..ascii..ascii_char..AsciiChar$u20$as$u20$core..fmt..Debug$GT$3fmt17h88f64801beb703b4E', symObjAddr: 0x4890, symBinAddr: 0x839E0, symSize: 0x170 }
  - { offset: 0x1827F5, size: 0x8, addend: 0x0, symName: __ZN4core5ascii14escape_default17h3e9d7bed912cd0e8E, symObjAddr: 0x4A00, symBinAddr: 0x83B50, symSize: 0x70 }
  - { offset: 0x18287C, size: 0x8, addend: 0x0, symName: '__ZN65_$LT$core..ascii..EscapeDefault$u20$as$u20$core..fmt..Display$GT$3fmt17h44479587c9d640fcE', symObjAddr: 0x4A70, symBinAddr: 0x83BC0, symSize: 0x30 }
  - { offset: 0x182938, size: 0x8, addend: 0x0, symName: '__ZN63_$LT$core..ascii..EscapeDefault$u20$as$u20$core..fmt..Debug$GT$3fmt17ha5007669de73aba2E', symObjAddr: 0x4AA0, symBinAddr: 0x83BF0, symSize: 0x50 }
  - { offset: 0x182CD3, size: 0x8, addend: 0x0, symName: '__ZN59_$LT$core..str..iter..Chars$u20$as$u20$core..fmt..Debug$GT$3fmt17hdd30f1eef53d5283E', symObjAddr: 0x10190, symBinAddr: 0x8EAB0, symSize: 0x6A0 }
  - { offset: 0x18323D, size: 0x8, addend: 0x0, symName: '__ZN65_$LT$core..str..iter..EncodeUtf16$u20$as$u20$core..fmt..Debug$GT$3fmt17hc571437fad1bc387E', symObjAddr: 0x10830, symBinAddr: 0x8F150, symSize: 0x50 }
  - { offset: 0x18332B, size: 0x8, addend: 0x0, symName: '__ZN67_$LT$core..str..iter..EscapeDebug$u20$as$u20$core..fmt..Display$GT$3fmt17h29fe16755bafed79E', symObjAddr: 0x1BDD0, symBinAddr: 0x99CB0, symSize: 0x9A0 }
  - { offset: 0x183D46, size: 0x8, addend: 0x0, symName: '__ZN69_$LT$core..str..iter..EscapeDefault$u20$as$u20$core..fmt..Display$GT$3fmt17h89c9022fb604382bE', symObjAddr: 0x1C770, symBinAddr: 0x9A650, symSize: 0x450 }
  - { offset: 0x184387, size: 0x8, addend: 0x0, symName: '__ZN69_$LT$core..str..iter..EscapeUnicode$u20$as$u20$core..fmt..Display$GT$3fmt17h0fd2895459200c8fE', symObjAddr: 0x1CBC0, symBinAddr: 0x9AAA0, symSize: 0x2F0 }
  - { offset: 0x18497E, size: 0x8, addend: 0x0, symName: __ZN4core3str5count14do_count_chars17hbfb0df292e88ff7bE, symObjAddr: 0xFA50, symBinAddr: 0x8E370, symSize: 0x5B0 }
  - { offset: 0x184D42, size: 0x8, addend: 0x0, symName: __ZN4core3str5count23char_count_general_case17hb2f346d93b035e2eE, symObjAddr: 0x10000, symBinAddr: 0x8E920, symSize: 0xB0 }
  - { offset: 0x184D9C, size: 0x8, addend: 0x0, symName: __ZN4core3str5count23char_count_general_case17hb2f346d93b035e2eE, symObjAddr: 0x10000, symBinAddr: 0x8E920, symSize: 0xB0 }
  - { offset: 0x184EC4, size: 0x8, addend: 0x0, symName: __ZN4core3str7pattern11StrSearcher3new17h41c64daeb642d448E, symObjAddr: 0x108C0, symBinAddr: 0x8F1A0, symSize: 0x640 }
  - { offset: 0x1851E6, size: 0x8, addend: 0x0, symName: '__ZN4core3str21_$LT$impl$u20$str$GT$9from_utf817h7cb912fe2d40c52cE', symObjAddr: 0x11A20, symBinAddr: 0x902B0, symSize: 0x20 }
  - { offset: 0x185200, size: 0x8, addend: 0x0, symName: '__ZN4core3str21_$LT$impl$u20$str$GT$13from_utf8_mut17h44f68afbd81f208aE', symObjAddr: 0x11A40, symBinAddr: 0x902D0, symSize: 0x20 }
  - { offset: 0x18521B, size: 0x8, addend: 0x0, symName: '__ZN4core3str21_$LT$impl$u20$str$GT$18split_at_unchecked17h254893b77717b737E', symObjAddr: 0x11A60, symBinAddr: 0x902F0, symSize: 0x20 }
  - { offset: 0x18524D, size: 0x8, addend: 0x0, symName: '__ZN4core3str21_$LT$impl$u20$str$GT$22split_at_mut_unchecked17h9aeeb81b7c8fb9b9E', symObjAddr: 0x11A80, symBinAddr: 0x90310, symSize: 0x20 }
  - { offset: 0x1852A2, size: 0x8, addend: 0x0, symName: '__ZN4core3str21_$LT$impl$u20$str$GT$12escape_debug17h6391b5b6f744d331E', symObjAddr: 0x11AA0, symBinAddr: 0x90330, symSize: 0xE0 }
  - { offset: 0x185415, size: 0x8, addend: 0x0, symName: '__ZN4core3str21_$LT$impl$u20$str$GT$12substr_range17hb298ca5300246f1bE', symObjAddr: 0x11B80, symBinAddr: 0x90410, symSize: 0x40 }
  - { offset: 0x18555D, size: 0x8, addend: 0x0, symName: __ZN4core3str6traits23str_index_overflow_fail17h31f6a0de2619af45E, symObjAddr: 0x10880, symBinAddr: 0x9E8C0, symSize: 0x40 }
  - { offset: 0x1855B7, size: 0x8, addend: 0x0, symName: __ZN4core3str8converts9from_utf817h5b967d1c13df2907E, symObjAddr: 0xF630, symBinAddr: 0x8DF50, symSize: 0x210 }
  - { offset: 0x18560A, size: 0x8, addend: 0x0, symName: __ZN4core3str8converts13from_utf8_mut17h16b64211a2b531beE, symObjAddr: 0xF840, symBinAddr: 0x8E160, symSize: 0x210 }
  - { offset: 0x185677, size: 0x8, addend: 0x0, symName: '__ZN66_$LT$core..str..error..Utf8Error$u20$as$u20$core..fmt..Display$GT$3fmt17hd2ce5c73342b1859E', symObjAddr: 0x100B0, symBinAddr: 0x8E9D0, symSize: 0xC0 }
  - { offset: 0x1856DD, size: 0x8, addend: 0x0, symName: '__ZN71_$LT$core..str..error..ParseBoolError$u20$as$u20$core..fmt..Display$GT$3fmt17hef948f4fd30a35d8E', symObjAddr: 0x10170, symBinAddr: 0x8EA90, symSize: 0x20 }
  - { offset: 0x18571B, size: 0x8, addend: 0x0, symName: '__ZN60_$LT$core..str..lossy..Debug$u20$as$u20$core..fmt..Debug$GT$3fmt17hb728da901bcdfe3eE', symObjAddr: 0x10F00, symBinAddr: 0x8F7E0, symSize: 0x490 }
  - { offset: 0x185B1C, size: 0x8, addend: 0x0, symName: '__ZN87_$LT$core..str..lossy..Utf8Chunks$u20$as$u20$core..iter..traits..iterator..Iterator$GT$4next17ha8ec3e1ae842e7fbE', symObjAddr: 0x11390, symBinAddr: 0x8FC70, symSize: 0x1A0 }
  - { offset: 0x185D50, size: 0x8, addend: 0x0, symName: '__ZN65_$LT$core..str..lossy..Utf8Chunks$u20$as$u20$core..fmt..Debug$GT$3fmt17h41c08d3a768d5350E', symObjAddr: 0x11530, symBinAddr: 0x8FE10, symSize: 0xC0 }
  - { offset: 0x185E5E, size: 0x8, addend: 0x0, symName: __ZN4core3str16slice_error_fail17h6c8881faebb9d014E, symObjAddr: 0x115F0, symBinAddr: 0x9E900, symSize: 0x10 }
  - { offset: 0x185E78, size: 0x8, addend: 0x0, symName: __ZN4core3str19slice_error_fail_ct17h96d29e34d0151a8bE, symObjAddr: 0x11600, symBinAddr: 0x9E910, symSize: 0x40 }
  - { offset: 0x185EA8, size: 0x8, addend: 0x0, symName: __ZN4core3str19slice_error_fail_rt17hc148cb6902b4dad3E, symObjAddr: 0x11640, symBinAddr: 0x8FED0, symSize: 0x3E0 }
  - { offset: 0x186246, size: 0x8, addend: 0x0, symName: '__ZN4core4char7methods22_$LT$impl$u20$char$GT$16escape_debug_ext17h4a2dba57981f8dd2E', symObjAddr: 0x55F0, symBinAddr: 0x84630, symSize: 0x2D0 }
  - { offset: 0x186567, size: 0x8, addend: 0x0, symName: __ZN4core4char7methods15encode_utf8_raw8do_panic7runtime17hbca4234f843605a3E, symObjAddr: 0x177A0, symBinAddr: 0x9EAA0, symSize: 0x90 }
  - { offset: 0x1865A7, size: 0x8, addend: 0x0, symName: __ZN4core4char7methods16encode_utf16_raw8do_panic7runtime17hb9796428eb31f134E, symObjAddr: 0x17830, symBinAddr: 0x9EB30, symSize: 0x90 }
  - { offset: 0x1865FC, size: 0x8, addend: 0x0, symName: '__ZN74_$LT$core..char..convert..ParseCharError$u20$as$u20$core..fmt..Display$GT$3fmt17h9669cf3417664af4E', symObjAddr: 0x5530, symBinAddr: 0x84570, symSize: 0x40 }
  - { offset: 0x18666A, size: 0x8, addend: 0x0, symName: '__ZN76_$LT$core..char..convert..CharTryFromError$u20$as$u20$core..fmt..Display$GT$3fmt17hb974c0391e46d757E', symObjAddr: 0x5570, symBinAddr: 0x845B0, symSize: 0x20 }
  - { offset: 0x1866F8, size: 0x8, addend: 0x0, symName: '__ZN75_$LT$core..char..decode..DecodeUtf16Error$u20$as$u20$core..fmt..Display$GT$3fmt17h4fe31c2d04b97c70E', symObjAddr: 0x5590, symBinAddr: 0x845D0, symSize: 0x60 }
  - { offset: 0x186795, size: 0x8, addend: 0x0, symName: '__ZN64_$LT$core..char..EscapeDefault$u20$as$u20$core..fmt..Display$GT$3fmt17h9d207e29812ee709E', symObjAddr: 0x58C0, symBinAddr: 0x84900, symSize: 0x30 }
  - { offset: 0x186854, size: 0x8, addend: 0x0, symName: '__ZN62_$LT$core..char..EscapeDebug$u20$as$u20$core..fmt..Display$GT$3fmt17hda916fa86b99a9efE', symObjAddr: 0x58F0, symBinAddr: 0x84930, symSize: 0x40 }
  - { offset: 0x186930, size: 0x8, addend: 0x0, symName: '__ZN86_$LT$core..char..CaseMappingIter$u20$as$u20$core..iter..traits..iterator..Iterator$GT$4next17h098d7f57c8ba8f2aE', symObjAddr: 0x5930, symBinAddr: 0x84970, symSize: 0x20 }
  - { offset: 0x186A64, size: 0x8, addend: 0x0, symName: '__ZN86_$LT$core..char..CaseMappingIter$u20$as$u20$core..iter..traits..iterator..Iterator$GT$5count17h8b5f04b0f0a525feE', symObjAddr: 0x5950, symBinAddr: 0x84990, symSize: 0x10 }
  - { offset: 0x186AD3, size: 0x8, addend: 0x0, symName: '__ZN86_$LT$core..char..CaseMappingIter$u20$as$u20$core..iter..traits..iterator..Iterator$GT$4last17h3b81f969f83234a3E', symObjAddr: 0x5960, symBinAddr: 0x849A0, symSize: 0x40 }
  - { offset: 0x186BDE, size: 0x8, addend: 0x0, symName: '__ZN86_$LT$core..char..CaseMappingIter$u20$as$u20$core..iter..traits..iterator..Iterator$GT$10advance_by17hdb406a1fa1d99123E', symObjAddr: 0x59A0, symBinAddr: 0x849E0, symSize: 0x30 }
  - { offset: 0x186C78, size: 0x8, addend: 0x0, symName: '__ZN86_$LT$core..char..CaseMappingIter$u20$as$u20$core..iter..traits..iterator..Iterator$GT$24__iterator_get_unchecked17h9081bf8182c442c7E', symObjAddr: 0x59D0, symBinAddr: 0x84A10, symSize: 0x20 }
  - { offset: 0x186D5E, size: 0x8, addend: 0x0, symName: '__ZN101_$LT$core..char..CaseMappingIter$u20$as$u20$core..iter..traits..double_ended..DoubleEndedIterator$GT$9next_back17ha97d7e4e38fee9ccE', symObjAddr: 0x59F0, symBinAddr: 0x84A30, symSize: 0x20 }
  - { offset: 0x186E93, size: 0x8, addend: 0x0, symName: '__ZN101_$LT$core..char..CaseMappingIter$u20$as$u20$core..iter..traits..double_ended..DoubleEndedIterator$GT$15advance_back_by17he353bf9d8e858890E', symObjAddr: 0x5A10, symBinAddr: 0x84A50, symSize: 0x30 }
  - { offset: 0x186F65, size: 0x8, addend: 0x0, symName: '__ZN67_$LT$core..char..TryFromCharError$u20$as$u20$core..fmt..Display$GT$3fmt17h4dd19bb6ceb3b16eE', symObjAddr: 0x5A40, symBinAddr: 0x84A80, symSize: 0x20 }
  - { offset: 0x186FE4, size: 0x8, addend: 0x0, symName: '__ZN82_$LT$core..char..ToLowercase$u20$as$u20$core..iter..traits..iterator..Iterator$GT$4next17hc30b785d92139e18E', symObjAddr: 0x178C0, symBinAddr: 0x95EE0, symSize: 0x20 }
  - { offset: 0x187136, size: 0x8, addend: 0x0, symName: '__ZN82_$LT$core..char..ToLowercase$u20$as$u20$core..iter..traits..iterator..Iterator$GT$5count17hb901286bd3933aa3E', symObjAddr: 0x178E0, symBinAddr: 0x95F00, symSize: 0x10 }
  - { offset: 0x1871C3, size: 0x8, addend: 0x0, symName: '__ZN82_$LT$core..char..ToLowercase$u20$as$u20$core..iter..traits..iterator..Iterator$GT$4last17h004c8698591c0f7eE', symObjAddr: 0x178F0, symBinAddr: 0x95F10, symSize: 0x40 }
  - { offset: 0x1872EC, size: 0x8, addend: 0x0, symName: '__ZN82_$LT$core..char..ToLowercase$u20$as$u20$core..iter..traits..iterator..Iterator$GT$10advance_by17hd98dc556e9b9eb70E', symObjAddr: 0x17930, symBinAddr: 0x95F50, symSize: 0x30 }
  - { offset: 0x1873A4, size: 0x8, addend: 0x0, symName: '__ZN82_$LT$core..char..ToLowercase$u20$as$u20$core..iter..traits..iterator..Iterator$GT$24__iterator_get_unchecked17h8b3ed01874413774E', symObjAddr: 0x17960, symBinAddr: 0x95F80, symSize: 0x20 }
  - { offset: 0x187462, size: 0x8, addend: 0x0, symName: '__ZN97_$LT$core..char..ToLowercase$u20$as$u20$core..iter..traits..double_ended..DoubleEndedIterator$GT$9next_back17h5b0dacaede0d9012E', symObjAddr: 0x17980, symBinAddr: 0x95FA0, symSize: 0x20 }
  - { offset: 0x1875B5, size: 0x8, addend: 0x0, symName: '__ZN97_$LT$core..char..ToLowercase$u20$as$u20$core..iter..traits..double_ended..DoubleEndedIterator$GT$15advance_back_by17he36642000aa74a0bE', symObjAddr: 0x179A0, symBinAddr: 0x95FC0, symSize: 0x30 }
  - { offset: 0x18769E, size: 0x8, addend: 0x0, symName: '__ZN62_$LT$core..char..ToLowercase$u20$as$u20$core..fmt..Display$GT$3fmt17h0636e86731a61682E', symObjAddr: 0x179D0, symBinAddr: 0x95FF0, symSize: 0xB0 }
  - { offset: 0x1879CA, size: 0x8, addend: 0x0, symName: '__ZN56_$LT$core..bstr..ByteStr$u20$as$u20$core..fmt..Debug$GT$3fmt17h2957121cda9c58b6E', symObjAddr: 0x4AF0, symBinAddr: 0x83C40, symSize: 0x350 }
  - { offset: 0x187C3F, size: 0x8, addend: 0x0, symName: '__ZN58_$LT$core..bstr..ByteStr$u20$as$u20$core..fmt..Display$GT$3fmt17hd5b7d581eaf5e430E', symObjAddr: 0x4E40, symBinAddr: 0x83F90, symSize: 0x560 }
  - { offset: 0x188022, size: 0x8, addend: 0x0, symName: __ZN4core4cell4lazy14panic_poisoned17h57ae1635d36cb16dE, symObjAddr: 0x53A0, symBinAddr: 0x9E080, symSize: 0x50 }
  - { offset: 0x18805B, size: 0x8, addend: 0x0, symName: '__ZN60_$LT$core..cell..BorrowError$u20$as$u20$core..fmt..Debug$GT$3fmt17h4ec1437e12b1cd2bE', symObjAddr: 0x53F0, symBinAddr: 0x844F0, symSize: 0x20 }
  - { offset: 0x1880C1, size: 0x8, addend: 0x0, symName: '__ZN62_$LT$core..cell..BorrowError$u20$as$u20$core..fmt..Display$GT$3fmt17hc2e3b576910eb335E', symObjAddr: 0x5410, symBinAddr: 0x84510, symSize: 0x20 }
  - { offset: 0x1880FA, size: 0x8, addend: 0x0, symName: '__ZN63_$LT$core..cell..BorrowMutError$u20$as$u20$core..fmt..Debug$GT$3fmt17hd6b410aa673804e4E', symObjAddr: 0x5430, symBinAddr: 0x84530, symSize: 0x20 }
  - { offset: 0x188160, size: 0x8, addend: 0x0, symName: '__ZN65_$LT$core..cell..BorrowMutError$u20$as$u20$core..fmt..Display$GT$3fmt17hb252c9ccc9bc13c1E', symObjAddr: 0x5450, symBinAddr: 0x84550, symSize: 0x20 }
  - { offset: 0x188193, size: 0x8, addend: 0x0, symName: __ZN4core4cell22panic_already_borrowed17h9faca28b03e5fc3eE, symObjAddr: 0x5470, symBinAddr: 0x9E0D0, symSize: 0x60 }
  - { offset: 0x1881C6, size: 0x8, addend: 0x0, symName: __ZN4core4cell30panic_already_mutably_borrowed17hadf06fadbcbd189aE, symObjAddr: 0x54D0, symBinAddr: 0x9E130, symSize: 0x60 }
  - { offset: 0x18821A, size: 0x8, addend: 0x0, symName: __ZN4core7unicode12unicode_data15grapheme_extend11lookup_slow17h788c9648a116f6b7E, symObjAddr: 0x1D1C0, symBinAddr: 0x9B0A0, symSize: 0x100 }
  - { offset: 0x188523, size: 0x8, addend: 0x0, symName: __ZN4core7unicode12unicode_data10alphabetic6lookup17hf9bc89ba8541c3ebE, symObjAddr: 0x1CEB0, symBinAddr: 0x9AD90, symSize: 0x100 }
  - { offset: 0x188718, size: 0x8, addend: 0x0, symName: __ZN4core7unicode12unicode_data14case_ignorable6lookup17h5416a9d0db8b6439E, symObjAddr: 0x1CFB0, symBinAddr: 0x9AE90, symSize: 0x100 }
  - { offset: 0x18890F, size: 0x8, addend: 0x0, symName: __ZN4core7unicode12unicode_data5cased6lookup17hd8741f1abdcc6ce3E, symObjAddr: 0x1D0B0, symBinAddr: 0x9AF90, symSize: 0xF0 }
  - { offset: 0x188B06, size: 0x8, addend: 0x0, symName: __ZN4core7unicode12unicode_data2cc6lookup17hebf594a561f2c1fdE, symObjAddr: 0x1D1A0, symBinAddr: 0x9B080, symSize: 0x20 }
  - { offset: 0x188B59, size: 0x8, addend: 0x0, symName: __ZN4core7unicode12unicode_data9lowercase6lookup17ha31b60b946d573f7E, symObjAddr: 0x1D2C0, symBinAddr: 0x9B1A0, symSize: 0xE0 }
  - { offset: 0x188BAD, size: 0x8, addend: 0x0, symName: __ZN4core7unicode12unicode_data1n6lookup17h0e8b98b7f09375a0E, symObjAddr: 0x1D3A0, symBinAddr: 0x9B280, symSize: 0x100 }
  - { offset: 0x188DA4, size: 0x8, addend: 0x0, symName: __ZN4core7unicode12unicode_data9uppercase6lookup17h55415c07e2b7912eE, symObjAddr: 0x1D4A0, symBinAddr: 0x9B380, symSize: 0xE0 }
  - { offset: 0x188E00, size: 0x8, addend: 0x0, symName: __ZN4core7unicode12unicode_data11conversions8to_lower17had482343c5617ef7E, symObjAddr: 0x1D580, symBinAddr: 0x9B460, symSize: 0x140 }
  - { offset: 0x188E1F, size: 0x8, addend: 0x0, symName: __ZN4core7unicode12unicode_data11conversions8to_lower17had482343c5617ef7E, symObjAddr: 0x1D580, symBinAddr: 0x9B460, symSize: 0x140 }
  - { offset: 0x188F6E, size: 0x8, addend: 0x0, symName: __ZN4core7unicode12unicode_data11conversions8to_upper17hdae91efebbe29b8eE, symObjAddr: 0x1D6C0, symBinAddr: 0x9B5A0, symSize: 0x151 }
  - { offset: 0x188F8D, size: 0x8, addend: 0x0, symName: __ZN4core7unicode12unicode_data11conversions8to_upper17hdae91efebbe29b8eE, symObjAddr: 0x1D6C0, symBinAddr: 0x9B5A0, symSize: 0x151 }
  - { offset: 0x18912C, size: 0x8, addend: 0x0, symName: __ZN4core7unicode9printable5check17hd70491fdbbded6f5E, symObjAddr: 0x12540, symBinAddr: 0x90DD0, symSize: 0x110 }
  - { offset: 0x189398, size: 0x8, addend: 0x0, symName: __ZN4core7unicode9printable12is_printable17hdd00024c6e9aeed3E, symObjAddr: 0x12650, symBinAddr: 0x90EE0, symSize: 0x130 }
  - { offset: 0x1893C6, size: 0x8, addend: 0x0, symName: '__ZN79_$LT$core..ffi..c_str..FromBytesUntilNulError$u20$as$u20$core..fmt..Display$GT$3fmt17h453f04c083d98d26E', symObjAddr: 0x5A60, symBinAddr: 0x84AA0, symSize: 0x20 }
  - { offset: 0x1893FE, size: 0x8, addend: 0x0, symName: '__ZN59_$LT$core..ffi..c_str..CStr$u20$as$u20$core..fmt..Debug$GT$3fmt17h2e996cd713ab8c4cE', symObjAddr: 0x5A80, symBinAddr: 0x84AC0, symSize: 0x80 }
  - { offset: 0x1894B9, size: 0x8, addend: 0x0, symName: '__ZN78_$LT$core..ffi..c_str..FromBytesWithNulError$u20$as$u20$core..fmt..Display$GT$3fmt17h3e7cb64b515ea263E', symObjAddr: 0x5B00, symBinAddr: 0x84B40, symSize: 0xB0 }
  - { offset: 0x1894D7, size: 0x8, addend: 0x0, symName: '__ZN78_$LT$core..ffi..c_str..FromBytesWithNulError$u20$as$u20$core..fmt..Display$GT$3fmt17h3e7cb64b515ea263E', symObjAddr: 0x5B00, symBinAddr: 0x84B40, symSize: 0xB0 }
  - { offset: 0x18955C, size: 0x8, addend: 0x0, symName: __ZN4core3ffi5c_str4CStr20from_bytes_until_nul17hd22c843f6de9432bE, symObjAddr: 0x5BB0, symBinAddr: 0x84BF0, symSize: 0xF0 }
  - { offset: 0x18961C, size: 0x8, addend: 0x0, symName: __ZN4core3ffi5c_str4CStr19from_bytes_with_nul17h99c2e4a5382e9622E, symObjAddr: 0x5CA0, symBinAddr: 0x84CE0, symSize: 0x120 }
  - { offset: 0x18970A, size: 0x8, addend: 0x0, symName: __ZN4core3ffi5c_str4CStr6to_str17hf3ea764d23f21803E, symObjAddr: 0x5DC0, symBinAddr: 0x84E00, symSize: 0x20 }
  - { offset: 0x189744, size: 0x8, addend: 0x0, symName: '__ZN54_$LT$core..ffi..c_void$u20$as$u20$core..fmt..Debug$GT$3fmt17h60ed0b4c9f52791aE', symObjAddr: 0x5DE0, symBinAddr: 0x84E20, symSize: 0x20 }
  - { offset: 0x1897C9, size: 0x8, addend: 0x0, symName: '__ZN72_$LT$core..io..borrowed_buf..BorrowedBuf$u20$as$u20$core..fmt..Debug$GT$3fmt17hbce17389db9dc6daE', symObjAddr: 0x5E00, symBinAddr: 0x84E40, symSize: 0x100 }
  - { offset: 0x1898E6, size: 0x8, addend: 0x0, symName: '__ZN86_$LT$core..net..display_buffer..DisplayBuffer$LT$_$GT$$u20$as$u20$core..fmt..Write$GT$9write_str17h17411f5c7b702887E', symObjAddr: 0x5F00, symBinAddr: 0x84F40, symSize: 0x50 }
  - { offset: 0x1899AD, size: 0x8, addend: 0x0, symName: '__ZN86_$LT$core..net..display_buffer..DisplayBuffer$LT$_$GT$$u20$as$u20$core..fmt..Write$GT$9write_str17h3c78caf8cd0fb078E', symObjAddr: 0x5F50, symBinAddr: 0x84F90, symSize: 0x50 }
  - { offset: 0x189A74, size: 0x8, addend: 0x0, symName: '__ZN86_$LT$core..net..display_buffer..DisplayBuffer$LT$_$GT$$u20$as$u20$core..fmt..Write$GT$9write_str17h7f28d0dd5dc3f285E', symObjAddr: 0x5FA0, symBinAddr: 0x84FE0, symSize: 0x50 }
  - { offset: 0x189B3B, size: 0x8, addend: 0x0, symName: '__ZN86_$LT$core..net..display_buffer..DisplayBuffer$LT$_$GT$$u20$as$u20$core..fmt..Write$GT$9write_str17he503dda815c80f3aE', symObjAddr: 0x5FF0, symBinAddr: 0x85030, symSize: 0x50 }
  - { offset: 0x189CB3, size: 0x8, addend: 0x0, symName: '__ZN65_$LT$core..net..ip_addr..IpAddr$u20$as$u20$core..fmt..Display$GT$3fmt17hef91e3d4fe502e63E', symObjAddr: 0x6040, symBinAddr: 0x85080, symSize: 0x20 }
  - { offset: 0x189CDC, size: 0x8, addend: 0x0, symName: '__ZN63_$LT$core..net..ip_addr..IpAddr$u20$as$u20$core..fmt..Debug$GT$3fmt17hf2b8ed5a9e9f5cceE', symObjAddr: 0x6060, symBinAddr: 0x850A0, symSize: 0x20 }
  - { offset: 0x189D23, size: 0x8, addend: 0x0, symName: '__ZN4core3net6parser46_$LT$impl$u20$core..net..ip_addr..Ipv4Addr$GT$11parse_ascii17h62d84f8e432e3576E', symObjAddr: 0x7850, symBinAddr: 0x86890, symSize: 0x70 }
  - { offset: 0x189D94, size: 0x8, addend: 0x0, symName: '__ZN67_$LT$core..net..ip_addr..Ipv4Addr$u20$as$u20$core..fmt..Display$GT$3fmt17h881ab306678395c0E', symObjAddr: 0x6080, symBinAddr: 0x850C0, symSize: 0x190 }
  - { offset: 0x189EA9, size: 0x8, addend: 0x0, symName: '__ZN65_$LT$core..net..ip_addr..Ipv4Addr$u20$as$u20$core..fmt..Debug$GT$3fmt17h2441e1113d9df87dE', symObjAddr: 0x6210, symBinAddr: 0x85250, symSize: 0x10 }
  - { offset: 0x189F03, size: 0x8, addend: 0x0, symName: '__ZN4core3net6parser46_$LT$impl$u20$core..net..ip_addr..Ipv6Addr$GT$11parse_ascii17h53ca550687ba5402E', symObjAddr: 0x7930, symBinAddr: 0x86970, symSize: 0x60 }
  - { offset: 0x189F90, size: 0x8, addend: 0x0, symName: '__ZN67_$LT$core..net..ip_addr..Ipv6Addr$u20$as$u20$core..fmt..Display$GT$3fmt12fmt_subslice17h1a61dc04a4d7c878E', symObjAddr: 0x6AD0, symBinAddr: 0x85B10, symSize: 0x130 }
  - { offset: 0x189FA8, size: 0x8, addend: 0x0, symName: '__ZN67_$LT$core..net..ip_addr..Ipv6Addr$u20$as$u20$core..fmt..Display$GT$3fmt12fmt_subslice17h1a61dc04a4d7c878E', symObjAddr: 0x6AD0, symBinAddr: 0x85B10, symSize: 0x130 }
  - { offset: 0x18A0E3, size: 0x8, addend: 0x0, symName: '__ZN67_$LT$core..net..ip_addr..Ipv6Addr$u20$as$u20$core..fmt..Display$GT$3fmt17h6586e76977aa3b9cE', symObjAddr: 0x6220, symBinAddr: 0x85260, symSize: 0x8B0 }
  - { offset: 0x18A466, size: 0x8, addend: 0x0, symName: '__ZN65_$LT$core..net..ip_addr..Ipv6Addr$u20$as$u20$core..fmt..Debug$GT$3fmt17hd7c2eff62a797e86E', symObjAddr: 0x6C00, symBinAddr: 0x85C40, symSize: 0x10 }
  - { offset: 0x18A49D, size: 0x8, addend: 0x0, symName: '__ZN4core3net6parser44_$LT$impl$u20$core..net..ip_addr..IpAddr$GT$11parse_ascii17h8c32f6020047afbeE', symObjAddr: 0x7710, symBinAddr: 0x86750, symSize: 0xA0 }
  - { offset: 0x18A575, size: 0x8, addend: 0x0, symName: '__ZN77_$LT$core..net..ip_addr..Ipv4Addr$u20$as$u20$core..ops..bit..BitAndAssign$GT$13bitand_assign17hbe637da689bf359fE', symObjAddr: 0x17A80, symBinAddr: 0x960A0, symSize: 0x20 }
  - { offset: 0x18A62F, size: 0x8, addend: 0x0, symName: '__ZN117_$LT$core..net..ip_addr..Ipv4Addr$u20$as$u20$core..ops..bit..BitAndAssign$LT$$RF$core..net..ip_addr..Ipv4Addr$GT$$GT$13bitand_assign17ha59341b4d76a495aE', symObjAddr: 0x17AA0, symBinAddr: 0x960C0, symSize: 0x20 }
  - { offset: 0x18A6F9, size: 0x8, addend: 0x0, symName: '__ZN76_$LT$core..net..ip_addr..Ipv4Addr$u20$as$u20$core..ops..bit..BitOrAssign$GT$12bitor_assign17hd8cb43813b6c9ea0E', symObjAddr: 0x17AC0, symBinAddr: 0x960E0, symSize: 0x20 }
  - { offset: 0x18A7B3, size: 0x8, addend: 0x0, symName: '__ZN116_$LT$core..net..ip_addr..Ipv4Addr$u20$as$u20$core..ops..bit..BitOrAssign$LT$$RF$core..net..ip_addr..Ipv4Addr$GT$$GT$12bitor_assign17h3033a31e9be7d703E', symObjAddr: 0x17AE0, symBinAddr: 0x96100, symSize: 0x20 }
  - { offset: 0x18A87D, size: 0x8, addend: 0x0, symName: '__ZN77_$LT$core..net..ip_addr..Ipv6Addr$u20$as$u20$core..ops..bit..BitAndAssign$GT$13bitand_assign17h301a1c5ec7f1c273E', symObjAddr: 0x17B00, symBinAddr: 0x96120, symSize: 0x50 }
  - { offset: 0x18A8DF, size: 0x8, addend: 0x0, symName: '__ZN117_$LT$core..net..ip_addr..Ipv6Addr$u20$as$u20$core..ops..bit..BitAndAssign$LT$$RF$core..net..ip_addr..Ipv6Addr$GT$$GT$13bitand_assign17h3e7b4b5c165aab06E', symObjAddr: 0x17B50, symBinAddr: 0x96170, symSize: 0x20 }
  - { offset: 0x18A971, size: 0x8, addend: 0x0, symName: '__ZN76_$LT$core..net..ip_addr..Ipv6Addr$u20$as$u20$core..ops..bit..BitOrAssign$GT$12bitor_assign17h8988e0589c406f4aE', symObjAddr: 0x17B70, symBinAddr: 0x96190, symSize: 0x50 }
  - { offset: 0x18A9D3, size: 0x8, addend: 0x0, symName: '__ZN116_$LT$core..net..ip_addr..Ipv6Addr$u20$as$u20$core..ops..bit..BitOrAssign$LT$$RF$core..net..ip_addr..Ipv6Addr$GT$$GT$12bitor_assign17h25f011c8736d4efbE', symObjAddr: 0x17BC0, symBinAddr: 0x961E0, symSize: 0x20 }
  - { offset: 0x18AB15, size: 0x8, addend: 0x0, symName: __ZN4core3net6parser6Parser14read_ipv4_addr17h17a76dda1a2e4569E, symObjAddr: 0x6E70, symBinAddr: 0x85EB0, symSize: 0x3C0 }
  - { offset: 0x18ACDC, size: 0x8, addend: 0x0, symName: __ZN4core3net6parser6Parser14read_ipv6_addr17h40590e1a2aaa7289E, symObjAddr: 0x7230, symBinAddr: 0x86270, symSize: 0x130 }
  - { offset: 0x18B120, size: 0x8, addend: 0x0, symName: __ZN4core3net6parser6Parser19read_socket_addr_v617h657cd62dc7b1e5c6E, symObjAddr: 0x7550, symBinAddr: 0x86590, symSize: 0x1C0 }
  - { offset: 0x18B7D4, size: 0x8, addend: 0x0, symName: '__ZN4core3net6parser6Parser11read_number28_$u7b$$u7b$closure$u7d$$u7d$17h68c42c793ff94107E', symObjAddr: 0x6C10, symBinAddr: 0x85C50, symSize: 0x260 }
  - { offset: 0x18BA6B, size: 0x8, addend: 0x0, symName: __ZN4core3net6parser6Parser14read_ipv6_addr11read_groups17hfbdc446b1c1af4ccE, symObjAddr: 0x7360, symBinAddr: 0x863A0, symSize: 0x1F0 }
  - { offset: 0x18BE4B, size: 0x8, addend: 0x0, symName: '__ZN4core3net6parser83_$LT$impl$u20$core..str..traits..FromStr$u20$for$u20$core..net..ip_addr..IpAddr$GT$8from_str17hb889be08e339b863E', symObjAddr: 0x77B0, symBinAddr: 0x867F0, symSize: 0xA0 }
  - { offset: 0x18BF4F, size: 0x8, addend: 0x0, symName: '__ZN4core3net6parser85_$LT$impl$u20$core..str..traits..FromStr$u20$for$u20$core..net..ip_addr..Ipv4Addr$GT$8from_str17hcc8408c5d235bf37E', symObjAddr: 0x78C0, symBinAddr: 0x86900, symSize: 0x70 }
  - { offset: 0x18BF6E, size: 0x8, addend: 0x0, symName: '__ZN4core3net6parser85_$LT$impl$u20$core..str..traits..FromStr$u20$for$u20$core..net..ip_addr..Ipv4Addr$GT$8from_str17hcc8408c5d235bf37E', symObjAddr: 0x78C0, symBinAddr: 0x86900, symSize: 0x70 }
  - { offset: 0x18BFEC, size: 0x8, addend: 0x0, symName: '__ZN4core3net6parser85_$LT$impl$u20$core..str..traits..FromStr$u20$for$u20$core..net..ip_addr..Ipv6Addr$GT$8from_str17h1be20ab8e22d2c64E', symObjAddr: 0x7990, symBinAddr: 0x869D0, symSize: 0x60 }
  - { offset: 0x18C091, size: 0x8, addend: 0x0, symName: '__ZN4core3net6parser93_$LT$impl$u20$core..str..traits..FromStr$u20$for$u20$core..net..socket_addr..SocketAddrV4$GT$8from_str17hff4062048bcb835eE', symObjAddr: 0x7B00, symBinAddr: 0x86B40, symSize: 0x100 }
  - { offset: 0x18C2EB, size: 0x8, addend: 0x0, symName: '__ZN4core3net6parser93_$LT$impl$u20$core..str..traits..FromStr$u20$for$u20$core..net..socket_addr..SocketAddrV6$GT$8from_str17h39af193153fc06d2E', symObjAddr: 0x7C70, symBinAddr: 0x86CB0, symSize: 0x70 }
  - { offset: 0x18C390, size: 0x8, addend: 0x0, symName: '__ZN4core3net6parser91_$LT$impl$u20$core..str..traits..FromStr$u20$for$u20$core..net..socket_addr..SocketAddr$GT$8from_str17hd7cb22246828c288E', symObjAddr: 0x7E90, symBinAddr: 0x86ED0, symSize: 0x20 }
  - { offset: 0x18C3C7, size: 0x8, addend: 0x0, symName: '__ZN72_$LT$core..net..parser..AddrParseError$u20$as$u20$core..fmt..Display$GT$3fmt17he6b90037ed11fb8fE', symObjAddr: 0x7EB0, symBinAddr: 0x86EF0, symSize: 0x40 }
  - { offset: 0x18C42B, size: 0x8, addend: 0x0, symName: '__ZN4core3net6parser54_$LT$impl$u20$core..net..socket_addr..SocketAddrV6$GT$11parse_ascii17h8703f08b171978e3E', symObjAddr: 0x7C00, symBinAddr: 0x86C40, symSize: 0x70 }
  - { offset: 0x18C4CE, size: 0x8, addend: 0x0, symName: '__ZN4core3net6parser54_$LT$impl$u20$core..net..socket_addr..SocketAddrV4$GT$11parse_ascii17h18c20fe3fa86c276E', symObjAddr: 0x79F0, symBinAddr: 0x86A30, symSize: 0x110 }
  - { offset: 0x18C70C, size: 0x8, addend: 0x0, symName: '__ZN4core3net6parser52_$LT$impl$u20$core..net..socket_addr..SocketAddr$GT$11parse_ascii17ha24233538844e9b8E', symObjAddr: 0x7CE0, symBinAddr: 0x86D20, symSize: 0x1B0 }
  - { offset: 0x18C9B1, size: 0x8, addend: 0x0, symName: '__ZN73_$LT$core..net..socket_addr..SocketAddr$u20$as$u20$core..fmt..Display$GT$3fmt17h43df19ef53027e18E', symObjAddr: 0x7EF0, symBinAddr: 0x86F30, symSize: 0x20 }
  - { offset: 0x18C9DA, size: 0x8, addend: 0x0, symName: '__ZN71_$LT$core..net..socket_addr..SocketAddr$u20$as$u20$core..fmt..Debug$GT$3fmt17h1c54f189be660117E', symObjAddr: 0x7F10, symBinAddr: 0x86F50, symSize: 0x20 }
  - { offset: 0x18CA13, size: 0x8, addend: 0x0, symName: '__ZN75_$LT$core..net..socket_addr..SocketAddrV4$u20$as$u20$core..fmt..Display$GT$3fmt17he2526b5d832a85d7E', symObjAddr: 0x7F30, symBinAddr: 0x86F70, symSize: 0x180 }
  - { offset: 0x18CB6A, size: 0x8, addend: 0x0, symName: '__ZN73_$LT$core..net..socket_addr..SocketAddrV4$u20$as$u20$core..fmt..Debug$GT$3fmt17hd2b21f502fbb2e68E', symObjAddr: 0x80B0, symBinAddr: 0x870F0, symSize: 0x10 }
  - { offset: 0x18CB8C, size: 0x8, addend: 0x0, symName: '__ZN75_$LT$core..net..socket_addr..SocketAddrV6$u20$as$u20$core..fmt..Display$GT$3fmt17h76e292b1a697d575E', symObjAddr: 0x80C0, symBinAddr: 0x87100, symSize: 0x2D0 }
  - { offset: 0x18CDF4, size: 0x8, addend: 0x0, symName: '__ZN73_$LT$core..net..socket_addr..SocketAddrV6$u20$as$u20$core..fmt..Debug$GT$3fmt17h426fcd13caec14e3E', symObjAddr: 0x8390, symBinAddr: 0x873D0, symSize: 0x10 }
  - { offset: 0x18CE26, size: 0x8, addend: 0x0, symName: __ZN4core9panicking9panic_fmt17hcd04e353e02878fdE, symObjAddr: 0x8540, symBinAddr: 0x9E210, symSize: 0x20 }
  - { offset: 0x18CE6B, size: 0x8, addend: 0x0, symName: __ZN4core9panicking18panic_nounwind_fmt17h82bea23087e0bb7bE, symObjAddr: 0x8560, symBinAddr: 0x9E230, symSize: 0x60 }
  - { offset: 0x18CEB2, size: 0x8, addend: 0x0, symName: __ZN4core9panicking5panic17hd441b8a390ad7dbaE, symObjAddr: 0x85C0, symBinAddr: 0x9E290, symSize: 0x50 }
  - { offset: 0x18CEE2, size: 0x8, addend: 0x0, symName: __ZN4core9panicking14panic_nounwind17h1486263b15958903E, symObjAddr: 0x8610, symBinAddr: 0x9E2E0, symSize: 0x50 }
  - { offset: 0x18CF12, size: 0x8, addend: 0x0, symName: __ZN4core9panicking26panic_nounwind_nobacktrace17h8c8d2a51df5003a3E, symObjAddr: 0x8660, symBinAddr: 0x9E330, symSize: 0x50 }
  - { offset: 0x18CF50, size: 0x8, addend: 0x0, symName: __ZN4core9panicking14panic_explicit17hfcdefd2583be4ba9E, symObjAddr: 0x86B0, symBinAddr: 0x9E380, symSize: 0x55 }
  - { offset: 0x18CF98, size: 0x8, addend: 0x0, symName: __ZN4core9panicking18panic_bounds_check17h3c0555c73dbdba6cE, symObjAddr: 0x8705, symBinAddr: 0x9E3D5, symSize: 0x5B }
  - { offset: 0x18CFC3, size: 0x8, addend: 0x0, symName: __ZN4core9panicking36panic_misaligned_pointer_dereference17hc2263bc263010ba8E, symObjAddr: 0x8760, symBinAddr: 0x9E430, symSize: 0x63 }
  - { offset: 0x18CFF6, size: 0x8, addend: 0x0, symName: __ZN4core9panicking30panic_null_pointer_dereference17h1b29f4a8b556d161E, symObjAddr: 0x87C3, symBinAddr: 0x9E493, symSize: 0x3A }
  - { offset: 0x18D028, size: 0x8, addend: 0x0, symName: __ZN4core9panicking19panic_cannot_unwind17hee35ed8b73b78d65E, symObjAddr: 0x87FD, symBinAddr: 0x9E4CD, symSize: 0x13 }
  - { offset: 0x18D043, size: 0x8, addend: 0x0, symName: __ZN4core9panicking16panic_in_cleanup17h2d0e91f7f6e1665bE, symObjAddr: 0x8810, symBinAddr: 0x9E4E0, symSize: 0x20 }
  - { offset: 0x18D06C, size: 0x8, addend: 0x0, symName: __ZN4core9panicking15const_panic_fmt17hc7b7891036deb578E, symObjAddr: 0x8830, symBinAddr: 0x9E500, symSize: 0x78 }
  - { offset: 0x18D08B, size: 0x8, addend: 0x0, symName: __ZN4core9panicking15const_panic_fmt17hc7b7891036deb578E, symObjAddr: 0x8830, symBinAddr: 0x9E500, symSize: 0x78 }
  - { offset: 0x18D0CC, size: 0x8, addend: 0x0, symName: __ZN4core9panicking13assert_failed17h69d5a40a0e23d6cdE, symObjAddr: 0x88A8, symBinAddr: 0x9E578, symSize: 0x2F }
  - { offset: 0x18D0E7, size: 0x8, addend: 0x0, symName: __ZN4core9panicking13assert_failed17hb8d0c36caca209c8E, symObjAddr: 0x88D7, symBinAddr: 0x9E5A7, symSize: 0x39 }
  - { offset: 0x18D10E, size: 0x8, addend: 0x0, symName: '__ZN84_$LT$core..panicking..assert_matches_failed..Pattern$u20$as$u20$core..fmt..Debug$GT$3fmt17h5902474dad2e68d4E', symObjAddr: 0x8910, symBinAddr: 0x87500, symSize: 0x1C }
  - { offset: 0x18D142, size: 0x8, addend: 0x0, symName: __ZN4core9panicking19assert_failed_inner17hfa716cf42acfff7bE, symObjAddr: 0x892C, symBinAddr: 0x9E5EC, symSize: 0x134 }
  - { offset: 0x18D182, size: 0x8, addend: 0x0, symName: __ZN4core9panicking11panic_const24panic_const_add_overflow17h4f967d461ba6fa2cE, symObjAddr: 0x17BE0, symBinAddr: 0x9EBC0, symSize: 0x40 }
  - { offset: 0x18D1B2, size: 0x8, addend: 0x0, symName: __ZN4core9panicking11panic_const24panic_const_sub_overflow17h387a04d1c2878f89E, symObjAddr: 0x17C20, symBinAddr: 0x9EC00, symSize: 0x40 }
  - { offset: 0x18D1E2, size: 0x8, addend: 0x0, symName: __ZN4core9panicking11panic_const24panic_const_mul_overflow17hf139a7d6197dd606E, symObjAddr: 0x17C60, symBinAddr: 0x9EC40, symSize: 0x40 }
  - { offset: 0x18D212, size: 0x8, addend: 0x0, symName: __ZN4core9panicking11panic_const24panic_const_div_overflow17h927f16408ff111b7E, symObjAddr: 0x17CA0, symBinAddr: 0x9EC80, symSize: 0x40 }
  - { offset: 0x18D242, size: 0x8, addend: 0x0, symName: __ZN4core9panicking11panic_const24panic_const_rem_overflow17h22ea9c1d4e5b05e7E, symObjAddr: 0x17CE0, symBinAddr: 0x9ECC0, symSize: 0x40 }
  - { offset: 0x18D272, size: 0x8, addend: 0x0, symName: __ZN4core9panicking11panic_const24panic_const_neg_overflow17h14722f4ca89f95fdE, symObjAddr: 0x17D20, symBinAddr: 0x9ED00, symSize: 0x40 }
  - { offset: 0x18D2A2, size: 0x8, addend: 0x0, symName: __ZN4core9panicking11panic_const24panic_const_shr_overflow17h305945ff41a396f7E, symObjAddr: 0x17D60, symBinAddr: 0x9ED40, symSize: 0x40 }
  - { offset: 0x18D2D2, size: 0x8, addend: 0x0, symName: __ZN4core9panicking11panic_const24panic_const_shl_overflow17h401be7dc7cfb5704E, symObjAddr: 0x17DA0, symBinAddr: 0x9ED80, symSize: 0x40 }
  - { offset: 0x18D302, size: 0x8, addend: 0x0, symName: __ZN4core9panicking11panic_const23panic_const_div_by_zero17h2d3b952d44a868e9E, symObjAddr: 0x17DE0, symBinAddr: 0x9EDC0, symSize: 0x40 }
  - { offset: 0x18D332, size: 0x8, addend: 0x0, symName: __ZN4core9panicking11panic_const23panic_const_rem_by_zero17h3586cd354ec28c3dE, symObjAddr: 0x17E20, symBinAddr: 0x9EE00, symSize: 0x40 }
  - { offset: 0x18D362, size: 0x8, addend: 0x0, symName: __ZN4core9panicking11panic_const29panic_const_coroutine_resumed17h53b4bb9ca550d6e2E, symObjAddr: 0x17E60, symBinAddr: 0x9EE40, symSize: 0x40 }
  - { offset: 0x18D392, size: 0x8, addend: 0x0, symName: __ZN4core9panicking11panic_const28panic_const_async_fn_resumed17h5b4e6f1c7799a9a8E, symObjAddr: 0x17EA0, symBinAddr: 0x9EE80, symSize: 0x40 }
  - { offset: 0x18D3C2, size: 0x8, addend: 0x0, symName: __ZN4core9panicking11panic_const32panic_const_async_gen_fn_resumed17h05e98fc5e79b9498E, symObjAddr: 0x17EE0, symBinAddr: 0x9EEC0, symSize: 0x40 }
  - { offset: 0x18D3F2, size: 0x8, addend: 0x0, symName: __ZN4core9panicking11panic_const23panic_const_gen_fn_none17hbc3516b58c771cf1E, symObjAddr: 0x17F20, symBinAddr: 0x9EF00, symSize: 0x40 }
  - { offset: 0x18D422, size: 0x8, addend: 0x0, symName: __ZN4core9panicking11panic_const35panic_const_coroutine_resumed_panic17h4bb157eb7f4c1a48E, symObjAddr: 0x17F60, symBinAddr: 0x9EF40, symSize: 0x40 }
  - { offset: 0x18D452, size: 0x8, addend: 0x0, symName: __ZN4core9panicking11panic_const34panic_const_async_fn_resumed_panic17h6c1625ebc8fe7ff8E, symObjAddr: 0x17FA0, symBinAddr: 0x9EF80, symSize: 0x40 }
  - { offset: 0x18D482, size: 0x8, addend: 0x0, symName: __ZN4core9panicking11panic_const38panic_const_async_gen_fn_resumed_panic17h3e101ad394515322E, symObjAddr: 0x17FE0, symBinAddr: 0x9EFC0, symSize: 0x40 }
  - { offset: 0x18D4B2, size: 0x8, addend: 0x0, symName: __ZN4core9panicking11panic_const29panic_const_gen_fn_none_panic17h89c883829dbb0985E, symObjAddr: 0x18020, symBinAddr: 0x9F000, symSize: 0x40 }
  - { offset: 0x18D4E2, size: 0x8, addend: 0x0, symName: __ZN4core9panicking11panic_const34panic_const_coroutine_resumed_drop17he865618cad50bbfaE, symObjAddr: 0x18060, symBinAddr: 0x9F040, symSize: 0x40 }
  - { offset: 0x18D512, size: 0x8, addend: 0x0, symName: __ZN4core9panicking11panic_const33panic_const_async_fn_resumed_drop17h58bbfc7ec6526c5aE, symObjAddr: 0x180A0, symBinAddr: 0x9F080, symSize: 0x40 }
  - { offset: 0x18D542, size: 0x8, addend: 0x0, symName: __ZN4core9panicking11panic_const37panic_const_async_gen_fn_resumed_drop17h522c48063f6dfc54E, symObjAddr: 0x180E0, symBinAddr: 0x9F0C0, symSize: 0x40 }
  - { offset: 0x18D572, size: 0x8, addend: 0x0, symName: __ZN4core9panicking11panic_const28panic_const_gen_fn_none_drop17h3ce552ddb3efab4aE, symObjAddr: 0x18120, symBinAddr: 0x9F100, symSize: 0x40 }
  - { offset: 0x18D5D1, size: 0x8, addend: 0x0, symName: '__ZN73_$LT$core..panic..panic_info..PanicInfo$u20$as$u20$core..fmt..Display$GT$3fmt17hacae835644e2f117E', symObjAddr: 0x8420, symBinAddr: 0x873E0, symSize: 0x120 }
  - { offset: 0x18D739, size: 0x8, addend: 0x0, symName: '__ZN48_$LT$char$u20$as$u20$core..pat..RangePattern$GT$7sub_one17he65f56c4c53478ffE', symObjAddr: 0x8A60, symBinAddr: 0x87520, symSize: 0x60 }
  - { offset: 0x18D7B1, size: 0x8, addend: 0x0, symName: '__ZN46_$LT$i8$u20$as$u20$core..pat..RangePattern$GT$7sub_one17h70106a7e726fbf55E', symObjAddr: 0x18160, symBinAddr: 0x96200, symSize: 0x50 }
  - { offset: 0x18D7CF, size: 0x8, addend: 0x0, symName: '__ZN46_$LT$i8$u20$as$u20$core..pat..RangePattern$GT$7sub_one17h70106a7e726fbf55E', symObjAddr: 0x18160, symBinAddr: 0x96200, symSize: 0x50 }
  - { offset: 0x18D7E4, size: 0x8, addend: 0x0, symName: '__ZN46_$LT$i8$u20$as$u20$core..pat..RangePattern$GT$7sub_one17h70106a7e726fbf55E', symObjAddr: 0x18160, symBinAddr: 0x96200, symSize: 0x50 }
  - { offset: 0x18D82A, size: 0x8, addend: 0x0, symName: '__ZN47_$LT$i16$u20$as$u20$core..pat..RangePattern$GT$7sub_one17h0f5a9ad398abfb76E', symObjAddr: 0x181B0, symBinAddr: 0x96250, symSize: 0x50 }
  - { offset: 0x18D848, size: 0x8, addend: 0x0, symName: '__ZN47_$LT$i16$u20$as$u20$core..pat..RangePattern$GT$7sub_one17h0f5a9ad398abfb76E', symObjAddr: 0x181B0, symBinAddr: 0x96250, symSize: 0x50 }
  - { offset: 0x18D85D, size: 0x8, addend: 0x0, symName: '__ZN47_$LT$i16$u20$as$u20$core..pat..RangePattern$GT$7sub_one17h0f5a9ad398abfb76E', symObjAddr: 0x181B0, symBinAddr: 0x96250, symSize: 0x50 }
  - { offset: 0x18D8A3, size: 0x8, addend: 0x0, symName: '__ZN47_$LT$i32$u20$as$u20$core..pat..RangePattern$GT$7sub_one17hd99d0c4ff596466aE', symObjAddr: 0x18200, symBinAddr: 0x962A0, symSize: 0x50 }
  - { offset: 0x18D8C1, size: 0x8, addend: 0x0, symName: '__ZN47_$LT$i32$u20$as$u20$core..pat..RangePattern$GT$7sub_one17hd99d0c4ff596466aE', symObjAddr: 0x18200, symBinAddr: 0x962A0, symSize: 0x50 }
  - { offset: 0x18D8D6, size: 0x8, addend: 0x0, symName: '__ZN47_$LT$i32$u20$as$u20$core..pat..RangePattern$GT$7sub_one17hd99d0c4ff596466aE', symObjAddr: 0x18200, symBinAddr: 0x962A0, symSize: 0x50 }
  - { offset: 0x18D91C, size: 0x8, addend: 0x0, symName: '__ZN47_$LT$i64$u20$as$u20$core..pat..RangePattern$GT$7sub_one17ha5aeb46abbb3b430E', symObjAddr: 0x18250, symBinAddr: 0x962F0, symSize: 0x50 }
  - { offset: 0x18D93A, size: 0x8, addend: 0x0, symName: '__ZN47_$LT$i64$u20$as$u20$core..pat..RangePattern$GT$7sub_one17ha5aeb46abbb3b430E', symObjAddr: 0x18250, symBinAddr: 0x962F0, symSize: 0x50 }
  - { offset: 0x18D94F, size: 0x8, addend: 0x0, symName: '__ZN47_$LT$i64$u20$as$u20$core..pat..RangePattern$GT$7sub_one17ha5aeb46abbb3b430E', symObjAddr: 0x18250, symBinAddr: 0x962F0, symSize: 0x50 }
  - { offset: 0x18D995, size: 0x8, addend: 0x0, symName: '__ZN48_$LT$i128$u20$as$u20$core..pat..RangePattern$GT$7sub_one17h6fb933d302c55b34E', symObjAddr: 0x182A0, symBinAddr: 0x96340, symSize: 0x50 }
  - { offset: 0x18D9B3, size: 0x8, addend: 0x0, symName: '__ZN48_$LT$i128$u20$as$u20$core..pat..RangePattern$GT$7sub_one17h6fb933d302c55b34E', symObjAddr: 0x182A0, symBinAddr: 0x96340, symSize: 0x50 }
  - { offset: 0x18D9C8, size: 0x8, addend: 0x0, symName: '__ZN48_$LT$i128$u20$as$u20$core..pat..RangePattern$GT$7sub_one17h6fb933d302c55b34E', symObjAddr: 0x182A0, symBinAddr: 0x96340, symSize: 0x50 }
  - { offset: 0x18DA0E, size: 0x8, addend: 0x0, symName: '__ZN46_$LT$u8$u20$as$u20$core..pat..RangePattern$GT$7sub_one17h6ed83d68247d3d1aE', symObjAddr: 0x182F0, symBinAddr: 0x96390, symSize: 0x50 }
  - { offset: 0x18DA2C, size: 0x8, addend: 0x0, symName: '__ZN46_$LT$u8$u20$as$u20$core..pat..RangePattern$GT$7sub_one17h6ed83d68247d3d1aE', symObjAddr: 0x182F0, symBinAddr: 0x96390, symSize: 0x50 }
  - { offset: 0x18DA5A, size: 0x8, addend: 0x0, symName: '__ZN47_$LT$u16$u20$as$u20$core..pat..RangePattern$GT$7sub_one17h93acfc31a6691e38E', symObjAddr: 0x18340, symBinAddr: 0x963E0, symSize: 0x50 }
  - { offset: 0x18DA78, size: 0x8, addend: 0x0, symName: '__ZN47_$LT$u16$u20$as$u20$core..pat..RangePattern$GT$7sub_one17h93acfc31a6691e38E', symObjAddr: 0x18340, symBinAddr: 0x963E0, symSize: 0x50 }
  - { offset: 0x18DAA6, size: 0x8, addend: 0x0, symName: '__ZN47_$LT$u32$u20$as$u20$core..pat..RangePattern$GT$7sub_one17he29c1711ef079895E', symObjAddr: 0x18390, symBinAddr: 0x96430, symSize: 0x50 }
  - { offset: 0x18DAC4, size: 0x8, addend: 0x0, symName: '__ZN47_$LT$u32$u20$as$u20$core..pat..RangePattern$GT$7sub_one17he29c1711ef079895E', symObjAddr: 0x18390, symBinAddr: 0x96430, symSize: 0x50 }
  - { offset: 0x18DAF2, size: 0x8, addend: 0x0, symName: '__ZN47_$LT$u64$u20$as$u20$core..pat..RangePattern$GT$7sub_one17h454224d5c51b1f91E', symObjAddr: 0x183E0, symBinAddr: 0x96480, symSize: 0x50 }
  - { offset: 0x18DB10, size: 0x8, addend: 0x0, symName: '__ZN47_$LT$u64$u20$as$u20$core..pat..RangePattern$GT$7sub_one17h454224d5c51b1f91E', symObjAddr: 0x183E0, symBinAddr: 0x96480, symSize: 0x50 }
  - { offset: 0x18DB3E, size: 0x8, addend: 0x0, symName: '__ZN48_$LT$u128$u20$as$u20$core..pat..RangePattern$GT$7sub_one17h5d27f833c8d1192aE', symObjAddr: 0x18430, symBinAddr: 0x964D0, symSize: 0x60 }
  - { offset: 0x18DB5C, size: 0x8, addend: 0x0, symName: '__ZN48_$LT$u128$u20$as$u20$core..pat..RangePattern$GT$7sub_one17h5d27f833c8d1192aE', symObjAddr: 0x18430, symBinAddr: 0x964D0, symSize: 0x60 }
  - { offset: 0x18DBBA, size: 0x8, addend: 0x0, symName: '__ZN67_$LT$core..sync..atomic..AtomicBool$u20$as$u20$core..fmt..Debug$GT$3fmt17hc2c87597401866c7E', symObjAddr: 0x8B40, symBinAddr: 0x87580, symSize: 0x40 }
  - { offset: 0x18DC95, size: 0x8, addend: 0x0, symName: '__ZN65_$LT$core..sync..atomic..AtomicI8$u20$as$u20$core..fmt..Debug$GT$3fmt17h5edea8ead7225589E', symObjAddr: 0x18490, symBinAddr: 0x96530, symSize: 0x10 }
  - { offset: 0x18DCFA, size: 0x8, addend: 0x0, symName: '__ZN65_$LT$core..sync..atomic..AtomicU8$u20$as$u20$core..fmt..Debug$GT$3fmt17hb16c0331b3d953e0E', symObjAddr: 0x184A0, symBinAddr: 0x96540, symSize: 0x10 }
  - { offset: 0x18DD6D, size: 0x8, addend: 0x0, symName: '__ZN66_$LT$core..sync..atomic..AtomicI16$u20$as$u20$core..fmt..Debug$GT$3fmt17hfb794b13320f263dE', symObjAddr: 0x184B0, symBinAddr: 0x96550, symSize: 0xE0 }
  - { offset: 0x18DF2E, size: 0x8, addend: 0x0, symName: '__ZN66_$LT$core..sync..atomic..AtomicU16$u20$as$u20$core..fmt..Debug$GT$3fmt17hb865ac7f37ff5970E', symObjAddr: 0x18590, symBinAddr: 0x96630, symSize: 0x10 }
  - { offset: 0x18DFA1, size: 0x8, addend: 0x0, symName: '__ZN66_$LT$core..sync..atomic..AtomicI32$u20$as$u20$core..fmt..Debug$GT$3fmt17h7af815c83160952fE', symObjAddr: 0x185A0, symBinAddr: 0x96640, symSize: 0xF0 }
  - { offset: 0x18E1AC, size: 0x8, addend: 0x0, symName: '__ZN66_$LT$core..sync..atomic..AtomicU32$u20$as$u20$core..fmt..Debug$GT$3fmt17h50db8e22471038beE', symObjAddr: 0x18690, symBinAddr: 0x96730, symSize: 0xE0 }
  - { offset: 0x18E38A, size: 0x8, addend: 0x0, symName: '__ZN66_$LT$core..sync..atomic..AtomicI64$u20$as$u20$core..fmt..Debug$GT$3fmt17h4345bcb8d6646c16E', symObjAddr: 0x18770, symBinAddr: 0x96810, symSize: 0xF0 }
  - { offset: 0x18E595, size: 0x8, addend: 0x0, symName: '__ZN66_$LT$core..sync..atomic..AtomicU64$u20$as$u20$core..fmt..Debug$GT$3fmt17he384244b2372acb8E', symObjAddr: 0x18860, symBinAddr: 0x96900, symSize: 0xE0 }
  - { offset: 0x18E773, size: 0x8, addend: 0x0, symName: '__ZN67_$LT$core..sync..atomic..AtomicI128$u20$as$u20$core..fmt..Debug$GT$3fmt17h5897b92a8cab0245E', symObjAddr: 0x18940, symBinAddr: 0x969E0, symSize: 0x30 }
  - { offset: 0x18E7E6, size: 0x8, addend: 0x0, symName: '__ZN67_$LT$core..sync..atomic..AtomicU128$u20$as$u20$core..fmt..Debug$GT$3fmt17h0541df661572bd1dE', symObjAddr: 0x18970, symBinAddr: 0x96A10, symSize: 0x30 }
  - { offset: 0x18E859, size: 0x8, addend: 0x0, symName: '__ZN68_$LT$core..sync..atomic..AtomicUsize$u20$as$u20$core..fmt..Debug$GT$3fmt17hc9d0b6b4dc0e92a3E', symObjAddr: 0x189A0, symBinAddr: 0x96A40, symSize: 0xE0 }
  - { offset: 0x18EA44, size: 0x8, addend: 0x0, symName: '__ZN4core3f6421_$LT$impl$u20$f64$GT$5clamp8do_panic7runtime17h144798abf329e038E', symObjAddr: 0x12AD0, symBinAddr: 0x9E9C0, symSize: 0x70 }
  - { offset: 0x18EACA, size: 0x8, addend: 0x0, symName: '__ZN4core3f3221_$LT$impl$u20$f32$GT$5clamp8do_panic7runtime17h91b23bf28782e259E', symObjAddr: 0x12A60, symBinAddr: 0x9E950, symSize: 0x70 }
  - { offset: 0x18EB28, size: 0x8, addend: 0x0, symName: '__ZN57_$LT$core..time..Duration$u20$as$u20$core..fmt..Debug$GT$3fmt17h3f87896c8b840f69E', symObjAddr: 0x11BC0, symBinAddr: 0x90450, symSize: 0xD0 }
  - { offset: 0x18EB60, size: 0x8, addend: 0x0, symName: '__ZN57_$LT$core..time..Duration$u20$as$u20$core..fmt..Debug$GT$3fmt11fmt_decimal17haf70528cbbce15c3E', symObjAddr: 0x11C90, symBinAddr: 0x90520, symSize: 0x600 }
  - { offset: 0x18EE19, size: 0x8, addend: 0x0, symName: '__ZN57_$LT$core..time..Duration$u20$as$u20$core..fmt..Debug$GT$3fmt11fmt_decimal28_$u7b$$u7b$closure$u7d$$u7d$17h3b1a9078c5dd264aE', symObjAddr: 0x12290, symBinAddr: 0x90B20, symSize: 0x270 }
  - { offset: 0x18EF92, size: 0x8, addend: 0x0, symName: '__ZN72_$LT$core..time..TryFromFloatSecsError$u20$as$u20$core..fmt..Display$GT$3fmt17hb51e2deed69b0fd7E', symObjAddr: 0x12500, symBinAddr: 0x90D90, symSize: 0x40 }
  - { offset: 0x18F012, size: 0x8, addend: 0x0, symName: '__ZN62_$LT$core..task..wake..Context$u20$as$u20$core..fmt..Debug$GT$3fmt17h42de08eb6077ac84E', symObjAddr: 0x12780, symBinAddr: 0x91010, symSize: 0xB0 }
  - { offset: 0x18F10F, size: 0x8, addend: 0x0, symName: '__ZN60_$LT$core..task..wake..Waker$u20$as$u20$core..fmt..Debug$GT$3fmt17hb71468f81e3732dcE', symObjAddr: 0x12830, symBinAddr: 0x910C0, symSize: 0xE0 }
  - { offset: 0x18F20C, size: 0x8, addend: 0x0, symName: '__ZN65_$LT$core..task..wake..LocalWaker$u20$as$u20$core..fmt..Debug$GT$3fmt17h0e6249d76404055cE', symObjAddr: 0x12910, symBinAddr: 0x911A0, symSize: 0xE0 }
  - { offset: 0x18F317, size: 0x8, addend: 0x0, symName: __ZN4core5alloc6layout6Layout19is_size_align_valid17h35d7e374950e75cbE, symObjAddr: 0x129F0, symBinAddr: 0x91280, symSize: 0x30 }
  - { offset: 0x18F34E, size: 0x8, addend: 0x0, symName: '__ZN71_$LT$core..alloc..layout..LayoutError$u20$as$u20$core..fmt..Display$GT$3fmt17h4ff969286744b273E', symObjAddr: 0x12A20, symBinAddr: 0x912B0, symSize: 0x20 }
  - { offset: 0x18F388, size: 0x8, addend: 0x0, symName: '__ZN62_$LT$core..alloc..AllocError$u20$as$u20$core..fmt..Display$GT$3fmt17h98ae8b9d6ec79b22E', symObjAddr: 0x12A40, symBinAddr: 0x912D0, symSize: 0x20 }
  - { offset: 0x18F3CC, size: 0x8, addend: 0x0, symName: '__ZN85_$LT$core..marker..variance..PhantomCovariantLifetime$u20$as$u20$core..fmt..Debug$GT$3fmt17hd17339b99a5a5522E', symObjAddr: 0x17740, symBinAddr: 0x95E80, symSize: 0x20 }
  - { offset: 0x18F404, size: 0x8, addend: 0x0, symName: '__ZN89_$LT$core..marker..variance..PhantomContravariantLifetime$u20$as$u20$core..fmt..Debug$GT$3fmt17hd33eb46691b57fecE', symObjAddr: 0x17760, symBinAddr: 0x95EA0, symSize: 0x20 }
  - { offset: 0x18F43C, size: 0x8, addend: 0x0, symName: '__ZN85_$LT$core..marker..variance..PhantomInvariantLifetime$u20$as$u20$core..fmt..Debug$GT$3fmt17hdcee0da905f3511eE', symObjAddr: 0x17780, symBinAddr: 0x95EC0, symSize: 0x20 }
  - { offset: 0x18F4A4, size: 0x8, addend: 0x0, symName: ___udivti3, symObjAddr: 0x0, symBinAddr: 0x9B700, symSize: 0xAC }
  - { offset: 0x18F4CA, size: 0x8, addend: 0x0, symName: ___udivti3, symObjAddr: 0x0, symBinAddr: 0x9B700, symSize: 0xAC }
...
